EXPORTS
	_ZN10TGridUtils8FillRectEP16CGraphicsContext4TRgbRK5TRect @ 1 NONAME
	_ZN11TGridColorsC1E4TRgbS0_S0_S0_ @ 2 NONAME
	_ZN11TGridColorsC1Ev @ 3 NONAME
	_ZN11TGridColorsC2E4TRgbS0_S0_S0_ @ 4 NONAME
	_ZN11TGridColorsC2Ev @ 5 NONAME
	_ZN12CGridCellImg10Reserved_1Ev @ 6 NONAME
	_ZThn4_N12CGridPrinter10PrintBandLEP15CGraphicsDeviceiRK15TBandAttributes @ 7 NONAME ; #<thunk>#
	_ZN12CGridCellImgC2Ev @ 8 NONAME
	_ZN12CGridCellImgD0Ev @ 9 NONAME
	_ZN12CGridCellImgD1Ev @ 10 NONAME
	_ZN12CGridCellImgD2Ev @ 11 NONAME
	_ZN12CGridPrinter10PrintBandLEP15CGraphicsDeviceiRK15TBandAttributes @ 12 NONAME
	_ZN12CGridPrinter16SetTopLeftMarginERK6TPoint @ 13 NONAME
	_ZN12CGridPrinter19SetPageSizeInTwipsLERK5TSize @ 14 NONAME
	_ZN12CGridPrinter4NewLEP8CGridLayP13CGridLabelImgP12CGridCellImgP11TZoomFactor @ 15 NONAME
	_ZN12CGridPrinter9PaginateLEv @ 16 NONAME
	_ZN12CGridPrinterD0Ev @ 17 NONAME
	_ZN12CGridPrinterD1Ev @ 18 NONAME
	_ZN12CGridPrinterD2Ev @ 19 NONAME
	_ZN13CGridLabelImg10ConstructLEv @ 20 NONAME
	_ZN13CGridLabelImg11ReleaseFontEv @ 21 NONAME
	_ZN13CGridLabelImg30NotifyGraphicsDeviceMapChangeLEv @ 22 NONAME
	_ZTV8CGridLay @ 23 NONAME ; #<VT>#
	_ZN13CGridLabelImgC2ERK9TFontSpecP18MGraphicsDeviceMap @ 24 NONAME
	_ZN13CGridLabelImgD0Ev @ 25 NONAME
	_ZN13CGridLabelImgD1Ev @ 26 NONAME
	_ZN13CGridLabelImgD2Ev @ 27 NONAME
	_ZN15CGridCellRegion12ResizeBoundsERK8TCellRef @ 28 NONAME
	_ZN15CGridCellRegion13AddCellRangeLERK9TRangeRef @ 29 NONAME
	_ZN15CGridCellRegion16SetLastCellRangeERK9TRangeRef @ 30 NONAME
	_ZN15CGridCellRegion4NewLERK9TRangeRef @ 31 NONAME
	_ZN15CGridCellRegion5ResetEv @ 32 NONAME
	_ZN15CGridCellRegion7AddColLEi @ 33 NONAME
	_ZN15CGridCellRegion7AddRowLEi @ 34 NONAME
	_ZN15CGridCellRegionD0Ev @ 35 NONAME
	_ZN15CGridCellRegionD1Ev @ 36 NONAME
	_ZN15CGridCellRegionD2Ev @ 37 NONAME
	_ZN8CGridImg11MoveCursorLE23TMoveDirectionAndAmountj @ 38 NONAME
	_ZN8CGridImg11SetGridRectERK5TRect @ 39 NONAME
	_ZN8CGridImg13SetAnchorPosLERK8TCellRef @ 40 NONAME
	_ZN8CGridImg13SetCursorPosLERK8TCellRef @ 41 NONAME
	_ZN8CGridImg14ResetSelectedLEv @ 42 NONAME
	_ZN8CGridImg14StartLabelDragERK6TPoint @ 43 NONAME
	_ZN8CGridImg15SetGridLabelImgEP13CGridLabelImg @ 44 NONAME
	_ZN8CGridImg15UpdateLabelDragERK6TPoint @ 45 NONAME
	_ZN8CGridImg16FinishLabelDragLEv @ 46 NONAME
	_ZN8CGridImg16SetPrintGridRectERK5TRect @ 47 NONAME
	_ZN8CGridImg16StartLabelResizeEii @ 48 NONAME
	_ZN8CGridImg17AddColToSelectedLEiNS_11TSelectTypeE @ 49 NONAME
	_ZN8CGridImg17AddRowToSelectedLEiNS_11TSelectTypeE @ 50 NONAME
	_ZN8CGridImg17UpdateLabelResizeEi @ 51 NONAME
	_ZN8CGridImg18FinishLabelResizeLEi @ 52 NONAME
	_ZN8CGridImg19AddRangeToSelectedLERK9TRangeRefNS_11TSelectTypeE @ 53 NONAME
	_ZN8CGridImg19CheckSideLabelWidthEv @ 54 NONAME
	_ZN8CGridImg20AddRegionToSelectedLEPK9CArrayFixI9TRangeRefENS_11TSelectTypeE @ 55 NONAME
	_ZN8CGridImg20ResetReferencePointsEv @ 56 NONAME
	_ZN8CGridImg21NotifyGridRangeResizeEv @ 57 NONAME
	_ZN8CGridImg21SetCursorWithPointerLERK6TPointj @ 58 NONAME
	_ZN8CGridImg29CheckSideLabelWidthAndScrollLEv @ 59 NONAME
	_ZN8CGridImg4NewLEP12CGridCellImgP8CGridLay @ 60 NONAME
	_ZN8CGridImg4NewLEP15CGraphicsDeviceP12CGridCellImgP8CGridLay @ 61 NONAME
	_ZN8CGridImg7ScrollLERK6TPoint @ 62 NONAME
	_ZN8CGridImgD0Ev @ 63 NONAME
	_ZN8CGridImgD1Ev @ 64 NONAME
	_ZN8CGridImgD2Ev @ 65 NONAME
	_ZN8CGridLay10ConstructLEPK10MGridTableP8CGridImgi @ 66 NONAME
	_ZN8CGridLay10ConstructLEPK10MGridTableP8CGridImgii @ 67 NONAME
	_ZN8CGridLay10ConstructLEPS_P8CGridImg @ 68 NONAME
	_ZN8CGridLay10ExposeCellERK8TCellRef @ 69 NONAME
	_ZN8CGridLay10PageScrollE23TMoveDirectionAndAmount @ 70 NONAME
	_ZN8CGridLay11SetGridImgLEP8CGridImg @ 71 NONAME
	_ZN8CGridLay12InternalizeLER11RReadStream @ 72 NONAME
	_ZN8CGridLay12SetTopLabelsEi @ 73 NONAME
	_ZN8CGridLay13SetGridColorsE11TGridColors @ 74 NONAME
	_ZN8CGridLay13SetSideLabelsEi @ 75 NONAME
	_ZN8CGridLay14SetTitleLinesLERK8TCellRef @ 76 NONAME
	_ZN8CGridLay14SetTitleLinesLEi @ 77 NONAME
	_ZN8CGridLay15ClearPaginationEv @ 78 NONAME
	_ZN8CGridLay15SetVisibleRangeERK8TCellRef @ 79 NONAME
	_ZN8CGridLay16InsertDeleteRowsEiiNS_13TFixGridRangeE @ 80 NONAME
	_ZN8CGridLay16SetCursorVisibleEi @ 81 NONAME
	_ZN8CGridLay16SetGridToDefaultEv @ 82 NONAME
	_ZN8CGridLay16SetPrintedLabelsEi @ 83 NONAME
	_ZN8CGridLay17ResetVisibleToRowEv @ 84 NONAME
	_ZN8CGridLay17SetAutoPaginationEi @ 85 NONAME
	_ZN8CGridLay17SetColumnBurstingEi @ 86 NONAME
	_ZN8CGridLay17ToggleTitleLinesLEv @ 87 NONAME
	_ZN8CGridLay18ResetVisibleToCellEv @ 88 NONAME
	_ZN8CGridLay19ExposeCellToTopLeftERK8TCellRef @ 89 NONAME
	_ZN8CGridLay19InsertDeleteColumnsEiiNS_13TFixGridRangeE @ 90 NONAME
	_ZN8CGridLay19SetHighlightVisibleEi @ 91 NONAME
	_ZN8CGridLay19SetPageSizeInTwipsLERK5TSize @ 92 NONAME
	_ZN8CGridLay19SetPrintedGridLinesEi @ 93 NONAME
	_ZN8CGridLay19SetUniformRowHeightEi @ 94 NONAME
	_ZN8CGridLay20ResetVisibleToColumnEv @ 95 NONAME
	_ZN8CGridLay20SetGraphicsDeviceMapEP18MGraphicsDeviceMap @ 96 NONAME
	_ZN8CGridLay20SetHardRowPageBreakLEi @ 97 NONAME
	_ZN8CGridLay20SetRowHeightInTwipsLEii @ 98 NONAME
	_ZN8CGridLay20SetRowHeightInTwipsLEiii @ 99 NONAME
	_ZN8CGridLay20SetVerticalGridLinesEi @ 100 NONAME
	_ZN8CGridLay21RecalcPixelSparseMapsEv @ 101 NONAME
	_ZN8CGridLay21SetAutoClearGridCellsEi @ 102 NONAME
	_ZN8CGridLay21SetUniformColumnWidthEi @ 103 NONAME
	_ZN8CGridLay22ClearHardRowPageBreakLEi @ 104 NONAME
	_ZN8CGridLay22SetColumnWidthInTwipsLEii @ 105 NONAME
	_ZN8CGridLay22SetColumnWidthInTwipsLEiii @ 106 NONAME
	_ZN8CGridLay22SetGridLabelSeparatorsEi @ 107 NONAME
	_ZN8CGridLay22SetHorizontalGridLinesEi @ 108 NONAME
	_ZN8CGridLay22SetRowHeightsToDefaultEv @ 109 NONAME
	_ZN8CGridLay23ClearAllHardPageBreaksLEv @ 110 NONAME
	_ZN8CGridLay23SetHardColumnPageBreakLEi @ 111 NONAME
	_ZN8CGridLay23SetMinRowHeightInPixelsEi @ 112 NONAME
	_ZN8CGridLay23SetPageBreakLinesHiddenEi @ 113 NONAME
	_ZN8CGridLay23SetRowSelectionDisabledEi @ 114 NONAME
	_ZN8CGridLay23SetTopLabelDragDisabledEi @ 115 NONAME
	_ZN8CGridLay24SetColumnWidthsToDefaultEv @ 116 NONAME
	_ZN8CGridLay24SetSideLabelDragDisabledEi @ 117 NONAME
	_ZN8CGridLay25ClearHardColumnPageBreakLEi @ 118 NONAME
	_ZN8CGridLay25SetEncroachingCellBordersEi @ 119 NONAME
	_ZN8CGridLay25SetMinColumnWidthInPixelsEi @ 120 NONAME
	_ZN8CGridLay26NotifyPaginationOutOfDateLEv @ 121 NONAME
	_ZN8CGridLay26SetColumnSelectionDisabledEi @ 122 NONAME
	_ZN8CGridLay26SetDefaultRowHeightInTwipsEi @ 123 NONAME
	_ZN8CGridLay26SetRowPermanentlySelectedLEi @ 124 NONAME
	_ZN8CGridLay28SetDefaultColumnWidthInTwipsEi @ 125 NONAME
	_ZN8CGridLay30SetRowHeightOfSelectedInTwipsLEi @ 126 NONAME
	_ZN8CGridLay32SetColumnWidthOfSelectedInTwipsLEi @ 127 NONAME
	_ZN8CGridLay8RestoreLERK12CStreamStore9TStreamId @ 128 NONAME
	_ZN8CGridLay9PaginateLEv @ 129 NONAME
	_ZN8CGridLayC1EP18MGraphicsDeviceMap @ 130 NONAME
	_ZN8CGridLayC2EP18MGraphicsDeviceMap @ 131 NONAME
	_ZN8CGridLayD0Ev @ 132 NONAME
	_ZN8CGridLayD1Ev @ 133 NONAME
	_ZN8CGridLayD2Ev @ 134 NONAME
	_ZNK10MGridTable10RequestRowEiRi @ 135 NONAME
	_ZNK10MGridTable12ColumnExtentEv @ 136 NONAME
	_ZNK10MGridTable9RowExtentEv @ 137 NONAME
	_ZNK12CGridCellImg18DataWidthInPixelsLERK8TCellRef @ 138 NONAME
	_ZNK12CGridCellImg20DoesCellContainDataLERK8TCellRef @ 139 NONAME
	_ZNK13CGridLabelImg14DrawRowCursorLEP16CGraphicsContextRK5TRect @ 140 NONAME
	_ZNK13CGridLabelImg17DrawTopLeftLabelLEP16CGraphicsContextRK5TRect @ 141 NONAME
	_ZNK13CGridLabelImg17DrawTopLeftLabelLEP16CGraphicsContextRK5TRect4TRgb @ 142 NONAME
	_ZNK13CGridLabelImg22SideLabelWidthInPixelsEii @ 143 NONAME
	_ZNK13CGridLabelImg22TopLabelHeightInPixelsEv @ 144 NONAME
	_ZNK15CGridCellRegion13IsColSelectedEi @ 145 NONAME
	_ZNK15CGridCellRegion13IsColSelectedEii @ 146 NONAME
	_ZNK15CGridCellRegion13IsRowSelectedEi @ 147 NONAME
	_ZNK15CGridCellRegion13IsRowSelectedEii @ 148 NONAME
	_ZNK15CGridCellRegion14IsCellSelectedERK8TCellRef @ 149 NONAME
	_ZNK15CGridCellRegion14IsCellSelectedERK8TCellRefi @ 150 NONAME
	_ZNK15CGridCellRegion15IsRangeSelectedERK9TRangeRef @ 151 NONAME
	_ZNK15CGridCellRegion15IsRangeSelectedERK9TRangeRefi @ 152 NONAME
	_ZNK15CGridCellRegion16IsAnyColSelectedEv @ 153 NONAME
	_ZNK15CGridCellRegion16IsAnyRowSelectedEv @ 154 NONAME
	_ZNK15CGridCellRegion22IsColSelectedLastIndexEi @ 155 NONAME
	_ZNK15CGridCellRegion22IsRowSelectedLastIndexEi @ 156 NONAME
	_ZNK15CGridCellRegion23IsCellSelectedLastIndexERK8TCellRef @ 157 NONAME
	_ZNK15CGridCellRegion24IsRangeSelectedLastIndexERK9TRangeRef @ 158 NONAME
	_ZNK15CGridCellRegion5CountEv @ 159 NONAME
	_ZNK15CGridCellRegion9RangeListEv @ 160 NONAME
	_ZNK15CGridCellRegionixEi @ 161 NONAME
	_ZNK8CGridImg10DrawRangeLERK9TRangeRef @ 162 NONAME
	_ZNK8CGridImg13DrawSelectedLEv @ 163 NONAME
	_ZNK8CGridImg14DrawTitleLinesEv @ 164 NONAME
	_ZNK8CGridImg21ClearTitleLineRegionLERK6TPoint @ 165 NONAME
	_ZNK8CGridImg22SideLabelWidthInPixelsEv @ 166 NONAME
	_ZNK8CGridImg22TopLabelHeightInPixelsEv @ 167 NONAME
	_ZNK8CGridImg25MaxSideLabelWidthInPixelsEv @ 168 NONAME
	_ZNK8CGridImg30PrintGridLinesAndCellsInRangeLEP16CGraphicsContextRK9TRangeRefi @ 169 NONAME
	_ZNK8CGridImg5DrawLEP16CGraphicsContext @ 170 NONAME
	_ZNK8CGridImg5DrawLEP16CGraphicsContextRK5TRect @ 171 NONAME
	_ZNK8CGridImg9DrawCellLERK8TCellRef @ 172 NONAME
	_ZNK8CGridLay10CellToRectERK8TCellRef @ 173 NONAME
	_ZNK8CGridLay10GridColorsEv @ 174 NONAME
	_ZNK8CGridLay11CellToPointERK8TCellRef @ 175 NONAME
	_ZNK8CGridLay11CellToPointERK8TCellRefS2_ @ 176 NONAME
	_ZNK8CGridLay11PageToRangeEiNS_10TPageOrderE @ 177 NONAME
	_ZNK8CGridLay11PointToCellERK6TPoint @ 178 NONAME
	_ZNK8CGridLay11PointToCellERK8TCellRefRK6TPoint @ 179 NONAME
	_ZNK8CGridLay12ColumnExtentEv @ 180 NONAME
	_ZNK8CGridLay12ColumnToXValEi @ 181 NONAME
	_ZNK8CGridLay12ColumnToXValEii @ 182 NONAME
	_ZNK8CGridLay12ExternalizeLER12RWriteStream @ 183 NONAME
	_ZNK8CGridLay12XValToColumnEi @ 184 NONAME
	_ZNK8CGridLay12XValToColumnEii @ 185 NONAME
	_ZNK8CGridLay14TitleRowToYValEi @ 186 NONAME
	_ZNK8CGridLay14YValToTitleRowEi @ 187 NONAME
	_ZNK8CGridLay16RowHeightInTwipsEi @ 188 NONAME
	_ZNK8CGridLay16TitleCellToPointERK8TCellRef @ 189 NONAME
	_ZNK8CGridLay16VisibleRowToYValEi @ 190 NONAME
	_ZNK8CGridLay16YValToNearestRowEii @ 191 NONAME
	_ZNK8CGridLay17MinVisibleFromRowEv @ 192 NONAME
	_ZNK8CGridLay17TitleColumnToXValEi @ 193 NONAME
	_ZNK8CGridLay17XValToTitleColumnEi @ 194 NONAME
	_ZNK8CGridLay18ColumnWidthInTwipsEi @ 195 NONAME
	_ZNK8CGridLay18IsHardRowPageBreakEi @ 196 NONAME
	_ZNK8CGridLay19VisibleColumnToXValEi @ 197 NONAME
	_ZNK8CGridLay19XValToNearestColumnEii @ 198 NONAME
	_ZNK8CGridLay20MinRowHeightInPixelsEv @ 199 NONAME
	_ZNK8CGridLay20MinVisibleFromColumnEv @ 200 NONAME
	_ZNK8CGridLay21IsHardColumnPageBreakEi @ 201 NONAME
	_ZNK8CGridLay21TopLeftTitleRangeSizeEv @ 202 NONAME
	_ZNK8CGridLay22MinColumnWidthInPixelsEv @ 203 NONAME
	_ZNK8CGridLay23DefaultRowHeightInTwipsEv @ 204 NONAME
	_ZNK8CGridLay25DefaultColumnWidthInTwipsEv @ 205 NONAME
	_ZNK8CGridLay26RowHeightOfSelectedInTwipsEv @ 206 NONAME
	_ZNK8CGridLay28ColumnWidthOfSelectedInTwipsEv @ 207 NONAME
	_ZNK8CGridLay6StoreLER12CStreamStore @ 208 NONAME
	_ZNK8CGridLay9NoOfPagesEv @ 209 NONAME
	_ZNK8CGridLay9RowExtentEv @ 210 NONAME
	_ZNK8CGridLay9RowToYValEi @ 211 NONAME
	_ZNK8CGridLay9RowToYValEii @ 212 NONAME
	_ZNK8CGridLay9YValToRowEi @ 213 NONAME
	_ZNK8CGridLay9YValToRowEii @ 214 NONAME
	_ZTI10MGridTable @ 215 NONAME ; #<TI>#
	_ZTI12CGridCellImg @ 216 NONAME ; #<TI>#
	_ZTI12CGridPrinter @ 217 NONAME ; #<TI>#
	_ZTI13CGridLabelImg @ 218 NONAME ; #<TI>#
	_ZTI15CGridCellRegion @ 219 NONAME ; #<TI>#
	_ZTI8CGridImg @ 220 NONAME ; #<TI>#
	_ZTI8CGridLay @ 221 NONAME ; #<TI>#
	_ZTV10MGridTable @ 222 NONAME ; #<VT>#
	_ZTV12CGridCellImg @ 223 NONAME ; #<VT>#
	_ZTV12CGridPrinter @ 224 NONAME ; #<VT>#
	_ZTV13CGridLabelImg @ 225 NONAME ; #<VT>#
	_ZTV15CGridCellRegion @ 226 NONAME ; #<VT>#
	_ZTV8CGridImg @ 227 NONAME ; #<VT>#
	_ZTI10CSparseMap @ 228 NONAME ; #<TI>#
	_ZTV10CSparseMap @ 229 NONAME ; #<VT>#

