EXPORTS
	_ZN11CEikListBox10ConstructLEP13MListBoxModelP15CListItemDrawerPK11CCoeControl10TGulBorderi @ 1 NONAME
	_ZN11CEikListBox10ConstructLEP13MListBoxModelP15CListItemDrawerPK11CCoeControli @ 2 NONAME
	_ZN11CEikListBox10ConstructLEPK11CCoeControli @ 3 NONAME
	_ZN11CEikListBox10ItemEditorEv @ 4 NONAME
	_ZN11CEikListBox11CreateViewLEv @ 5 NONAME
	_ZN11CEikListBox11MinimumSizeEv @ 6 NONAME
	_ZN11CEikListBox11SizeChangedEv @ 7 NONAME
	_ZN11CEikListBox12FocusChangedE8TDrawNow @ 8 NONAME
	_ZN11CEikListBox12InterItemGapEv @ 9 NONAME
	_ZN11CEikListBox12StopEditingLEi @ 10 NONAME
	_ZN11CEikListBox12UndoLastCharEv @ 11 NONAME
	_ZN11CEikListBox13SetItemEditorEP17MEikListBoxEditor @ 12 NONAME
	_ZN11CEikListBox14ClearSelectionEv @ 13 NONAME
	_ZN11CEikListBox14EventModifiersEv @ 14 NONAME
	_ZN11CEikListBox14OfferKeyEventLERK9TKeyEvent10TEventCode @ 15 NONAME
	_ZN11CEikListBox14ScrollBarFrameEv @ 16 NONAME
	_ZN11CEikListBox14SetItemHeightLEi @ 17 NONAME
	_ZN11CEikListBox15MatchTypedCharLEj @ 18 NONAME
	_ZN11CEikListBox15ResetItemEditorEv @ 19 NONAME
	_ZN11CEikListBox16HandleDragEventLE6TPoint @ 20 NONAME
	_ZN11CEikListBox16IsMultiselectionEv @ 21 NONAME
	_ZN11CEikListBox16UpdateViewColorsEv @ 22 NONAME
	_ZN11CEikListBox17SetScrollBarFrameEP18CEikScrollBarFrameNS_19TScrollBarOwnerShipE @ 23 NONAME
	_ZN11CEikListBox17SetVerticalMarginEi @ 24 NONAME
	_ZN11CEikListBox17UpdateScrollBarsLEv @ 25 NONAME
	_ZN11CEikListBox18CreateMatchBufferLEv @ 26 NONAME
	_ZN11CEikListBox18ExtensionInterfaceE4TUid @ 27 NONAME
	_ZN11CEikListBox18HandleItemRemovalLER9CArrayFixIiE @ 28 NONAME
	_ZN11CEikListBox18HandleItemRemovalLEv @ 29 NONAME
	_ZN11CEikListBox18HandleScrollEventLEP13CEikScrollBar15TEikScrollEvent @ 30 NONAME
	_ZN11CEikListBox18SetLaunchingButtonEP14CEikButtonBase @ 31 NONAME
	_ZN11CEikListBox18SetListBoxObserverEP19MEikListBoxObserver @ 32 NONAME
	_ZN11CEikListBox19CalculatePopoutRectEiiR5TRecti @ 33 NONAME
	_ZN11CEikListBox19HandleItemAdditionLER9CArrayFixIiE @ 34 NONAME
	_ZN11CEikListBox19HandleItemAdditionLEv @ 35 NONAME
	_ZN11CEikListBox19HandleLeftArrowKeyLEN12CListBoxView14TSelectionModeE @ 36 NONAME
	_ZN11CEikListBox19HandlePointerEventLERK13TPointerEvent @ 37 NONAME
	_ZN11CEikListBox19ReasonForFocusLostLEv @ 38 NONAME
	_ZN11CEikListBox19ReportListBoxEventLEN19MEikListBoxObserver13TListBoxEventE @ 39 NONAME
	_ZN11CEikListBox19SetContainerWindowLERK11CCoeControl @ 40 NONAME
	_ZN11CEikListBox19SetHorizontalMarginEi @ 41 NONAME
	_ZN11CEikListBox20CEikListBox_ReservedEv @ 42 NONAME
	_ZN11CEikListBox20HandleResourceChangeEi @ 43 NONAME
	_ZN11CEikListBox20HandleRightArrowKeyLEN12CListBoxView14TSelectionModeE @ 44 NONAME
	_ZN11CEikListBox20SetSelectionIndexesLEP9CArrayFixIiE @ 45 NONAME
	_ZN11CEikListBox21CreateScrollBarFrameLEi @ 46 NONAME
	_ZN11CEikListBox22MakeViewClassInstanceLEv @ 47 NONAME
	_ZN11CEikListBox22SetReasonForFocusLostLENS_19TReasonForFocusLostE @ 48 NONAME
	_ZN11CEikListBox22SimulateArrowKeyEventLE8TKeyCode @ 49 NONAME
	_ZN11CEikListBox22UpdateItemDrawerColorsEv @ 50 NONAME
	_ZN11CEikListBox24ShortcutValueForNextListEv @ 51 NONAME
	_ZN11CEikListBox25HandleViewRectSizeChangeLEv @ 52 NONAME
	_ZN11CEikListBox25SetViewRectFromClientRectERK5TRect @ 53 NONAME
	_ZN11CEikListBox27SetViewRectHeightAdjustmentEi @ 54 NONAME
	_ZN11CEikListBox28SetShortcutValueFromPrevListEi @ 55 NONAME
	_ZN11CEikListBox31RestoreCommonListBoxPropertiesLER15TResourceReader @ 56 NONAME
	_ZN11CEikListBox5ResetEv @ 57 NONAME
	_ZN11CEikListBox9ActivateLEv @ 58 NONAME
	_ZN11CEikListBox9EditItemLEi @ 59 NONAME
	_ZN11CEikListBox9SetDimmedEi @ 60 NONAME
	_ZN11CEikListBoxC1Ev @ 61 NONAME
	_ZN11CEikListBoxC2Ev @ 62 NONAME
	_ZN11CEikListBoxD0Ev @ 63 NONAME
	_ZN11CEikListBoxD1Ev @ 64 NONAME
	_ZN11CEikListBoxD2Ev @ 65 NONAME
	_ZN11CEikMenuBar10ConstructLEP16MEikMenuObserverii @ 66 NONAME
	_ZN11CEikMenuBar10Reserved_1Ev @ 67 NONAME
	_ZN11CEikMenuBar10Reserved_2Ev @ 68 NONAME
	_ZN11CEikMenuBar10TitleArrayEv @ 69 NONAME
	_ZN11CEikMenuBar11CTitleArray9AddTitleLEP16CEikMenuBarTitle @ 70 NONAME
	_ZN11CEikMenuBar11CTitleArrayC1Ev @ 71 NONAME
	_ZN11CEikMenuBar11CTitleArrayC2Ev @ 72 NONAME
	_ZN11CEikMenuBar11CTitleArrayD0Ev @ 73 NONAME
	_ZN11CEikMenuBar11CTitleArrayD1Ev @ 74 NONAME
	_ZN11CEikMenuBar11CTitleArrayD2Ev @ 75 NONAME
	_ZN11CEikMenuBar11IsDisplayedEv @ 76 NONAME
	_ZN11CEikMenuBar12SelectedItemEv @ 77 NONAME
	_ZN11CEikMenuBar13SelectedTitleEv @ 78 NONAME
	_ZN11CEikMenuBar13SetMenuCursorERKNS_7SCursorE @ 79 NONAME
	_ZN11CEikMenuBar14ChangeMenuBarLEiii @ 80 NONAME
	_ZN11CEikMenuBar14OfferKeyEventLERK9TKeyEvent10TEventCode @ 81 NONAME
	_ZN11CEikMenuBar14SetHotKeyTableEP15CEikHotKeyTable @ 82 NONAME
	_ZN11CEikMenuBar16MoveHighlightToLEii @ 83 NONAME
	_ZN11CEikMenuBar17SetMenuTitleArrayEPNS_11CTitleArrayE @ 84 NONAME
	_ZN11CEikMenuBar18ExtensionInterfaceE4TUid @ 85 NONAME
	_ZN11CEikMenuBar18TryDisplayMenuBarLEv @ 86 NONAME
	_ZN11CEikMenuBar19HandlePointerEventLERK13TPointerEvent @ 87 NONAME
	_ZN11CEikMenuBar19SetEditMenuObserverEP16MEikMenuObserver @ 88 NONAME
	_ZN11CEikMenuBar20HandleResourceChangeEi @ 89 NONAME
	_ZN11CEikMenuBar21StopDisplayingMenuBarEv @ 90 NONAME
	_ZN11CEikMenuBar22ConstructFromResourceLER15TResourceReader @ 91 NONAME
	_ZN11CEikMenuBar22RemoveEditMenuObserverEP16MEikMenuObserver @ 92 NONAME
	_ZN11CEikMenuBar22SetMenuTitleResourceIdEi @ 93 NONAME
	_ZN11CEikMenuBar24FindCommandIdInResourceLEiRiS0_ @ 94 NONAME
	_ZN11CEikMenuBar28SetTitleArrayOwnedExternallyEi @ 95 NONAME
	_ZN11CEikMenuBar33TryDisplayMenuBarWithoutFepMenusLEv @ 96 NONAME
	_ZN11CEikMenuBar8MenuPaneEv @ 97 NONAME
	_ZN11CEikMenuBarC1Ev @ 98 NONAME
	_ZN11CEikMenuBarC2Ev @ 99 NONAME
	_ZN11CEikMenuBarD0Ev @ 100 NONAME
	_ZN11CEikMenuBarD1Ev @ 101 NONAME
	_ZN11CEikMenuBarD2Ev @ 102 NONAME
	_ZN11CEikToolBar10ConstructLEP19MEikCommandObserveriRK5TRect @ 103 NONAME
	_ZN11CEikToolBar10Reserved_2Ev @ 104 NONAME
	_ZN11CEikToolBar11AddControlLEP11CCoeControli @ 105 NONAME
	_ZN11CEikToolBar11AddControlLER16TEikGroupControl @ 106 NONAME
	_ZN11CEikToolBar15SetBoundingRectERK5TRect @ 107 NONAME
	_ZN11CEikToolBar16SetButtonStateOnEii @ 108 NONAME
	_ZN11CEikToolBar16StaticConstructLEP19MEikCommandObserveri @ 109 NONAME
	_ZN11CEikToolBar17CoordinateButtonsEiiP21TEikButtonCoordinator @ 110 NONAME
	_ZN11CEikToolBar18ExtensionInterfaceE4TUid @ 111 NONAME
	_ZN11CEikToolBar18SetCommandObserverEP19MEikCommandObserver @ 112 NONAME
	_ZN11CEikToolBar19HandleControlEventLEP11CCoeControlN19MCoeControlObserver9TCoeEventE @ 113 NONAME
	_ZN11CEikToolBar19HandlePointerEventLERK13TPointerEvent @ 114 NONAME
	_ZN11CEikToolBar20HandleResourceChangeEi @ 115 NONAME
	_ZN11CEikToolBar22ConstructFromResourceLER15TResourceReader @ 116 NONAME
	_ZN11CEikToolBar9SetDimmedEi @ 117 NONAME
	_ZN11CEikToolBarC1Ev @ 118 NONAME
	_ZN11CEikToolBarC2Ev @ 119 NONAME
	_ZN11CEikToolBarD0Ev @ 120 NONAME
	_ZN11CEikToolBarD1Ev @ 121 NONAME
	_ZN11CEikToolBarD2Ev @ 122 NONAME
	_ZN12CEikMenuPane10CItemArray8AddItemLEP16CEikMenuPaneItem @ 123 NONAME
	_ZN12CEikMenuPane10CItemArrayC1Ev @ 124 NONAME
	_ZN12CEikMenuPane10CItemArrayC2Ev @ 125 NONAME
	_ZN12CEikMenuPane10CItemArrayD0Ev @ 126 NONAME
	_ZN12CEikMenuPane10CItemArrayD1Ev @ 127 NONAME
	_ZN12CEikMenuPane10CItemArrayD2Ev @ 128 NONAME
	_ZN12CEikMenuPane10ConstructLEPS_P16MEikMenuObserver @ 129 NONAME
	_ZN12CEikMenuPane10ItemAndPosEiRi @ 130 NONAME
	_ZN12CEikMenuPane10Reserved_1Ev @ 131 NONAME
	_ZN12CEikMenuPane10Reserved_2Ev @ 132 NONAME
	_ZN12CEikMenuPane12AddMenuItemLERKN16CEikMenuPaneItem5SDataE @ 133 NONAME
	_ZN12CEikMenuPane12AddMenuItemLERKN16CEikMenuPaneItem5SDataEi @ 134 NONAME
	_ZN12CEikMenuPane12FocusChangedE8TDrawNow @ 135 NONAME
	_ZN12CEikMenuPane12SetItemArrayEPNS_10CItemArrayE @ 136 NONAME
	_ZN12CEikMenuPane12SetItemTextLEiRK7TDesC16 @ 137 NONAME
	_ZN12CEikMenuPane12SetItemTextLEii @ 138 NONAME
	_ZN12CEikMenuPane13AddMenuItemsLEiii @ 139 NONAME
	_ZN12CEikMenuPane13SetItemDimmedEii @ 140 NONAME
	_ZN12CEikMenuPane14DeleteMenuItemEi @ 141 NONAME
	_ZN12CEikMenuPane14EnableMarqueeLEi @ 142 NONAME
	_ZN12CEikMenuPane14MenuItemExistsEiRi @ 143 NONAME
	_ZN12CEikMenuPane14OfferKeyEventLERK9TKeyEvent10TEventCode @ 144 NONAME
	_ZN12CEikMenuPane14OfferKeyEventLERK9TKeyEvent10TEventCodei @ 145 NONAME
	_ZN12CEikMenuPane15InsertMenuItemLERKN16CEikMenuPaneItem5SDataEi @ 146 NONAME
	_ZN12CEikMenuPane15MopSupplyObjectE8TTypeUid @ 147 NONAME
	_ZN12CEikMenuPane15MoveHighlightToEi @ 148 NONAME
	_ZN12CEikMenuPane15SetSelectedItemEi @ 149 NONAME
	_ZN12CEikMenuPane16CloseCascadeMenuEv @ 150 NONAME
	_ZN12CEikMenuPane18ExtensionInterfaceE4TUid @ 151 NONAME
	_ZN12CEikMenuPane18NavigateToNextItemEv @ 152 NONAME
	_ZN12CEikMenuPane18SetItemButtonStateEii @ 153 NONAME
	_ZN12CEikMenuPane18SetLaunchingButtonEP14CEikButtonBase @ 154 NONAME
	_ZN12CEikMenuPane18SetScrollBarOnLeftEi @ 155 NONAME
	_ZN12CEikMenuPane19HandlePointerEventLERK13TPointerEvent @ 156 NONAME
	_ZN12CEikMenuPane20HandleResourceChangeEi @ 157 NONAME
	_ZN12CEikMenuPane21SetArrowHeadScrollBarEi @ 158 NONAME
	_ZN12CEikMenuPane22ConstructFromResourceLER15TResourceReader @ 159 NONAME
	_ZN12CEikMenuPane22DeleteBetweenMenuItemsEii @ 160 NONAME
	_ZN12CEikMenuPane23StartDisplayingMenuPaneEPK15CEikHotKeyTableRK6TPointPK17CEikMenuPaneTitlei19TPopupTargetPosType @ 161 NONAME
	_ZN12CEikMenuPane27SetItemArrayOwnedExternallyEi @ 162 NONAME
	_ZN12CEikMenuPane5CloseEv @ 163 NONAME
	_ZN12CEikMenuPane5ResetEv @ 164 NONAME
	_ZN12CEikMenuPane8ItemDataEi @ 165 NONAME
	_ZN12CEikMenuPaneC1EP16MEikMenuObserver @ 166 NONAME
	_ZN12CEikMenuPaneC2EP16MEikMenuObserver @ 167 NONAME
	_ZN12CEikMenuPaneD0Ev @ 168 NONAME
	_ZN12CEikMenuPaneD1Ev @ 169 NONAME
	_ZN12CEikMenuPaneD2Ev @ 170 NONAME
	_ZN12CListBoxData10ConstructLEPK5CFont @ 171 NONAME
	_ZN12CListBoxData10Reserved_1Ev @ 172 NONAME
	_ZN12CListBoxData10Reserved_2Ev @ 173 NONAME
	_ZN12CListBoxData13SetFontHeightEi @ 174 NONAME
	_ZN12CListBoxData14ConstructFontLEPK5CFont10TFontStyleRNS_15CFontsWithStyleE @ 175 NONAME
	_ZN12CListBoxData15CFontsWithStyle12ReleaseFontsEv @ 176 NONAME
	_ZN12CListBoxData15CFontsWithStyle12SetFontStyleE10TFontStyle @ 177 NONAME
	_ZN12CListBoxData15CFontsWithStyle9FontStyleEv @ 178 NONAME
	_ZN12CListBoxData15RegenerateFontsERNS_15CFontsWithStyleEi @ 179 NONAME
	_ZN12CListBoxData15SetSkinEnabledLEi @ 180 NONAME
	_ZN12CListBoxData16SetSearchStringLEPK7TDesC16 @ 181 NONAME
	_ZN12CListBoxData21UpdateFontBoundValuesERK5CFont @ 182 NONAME
	_ZN12CListBoxData32SetSkinBackgroundControlContextLEP19MAknsControlContext @ 183 NONAME
	_ZN12CListBoxDataC1Ev @ 184 NONAME
	_ZN12CListBoxDataC2Ev @ 185 NONAME
	_ZN12CListBoxDataD0Ev @ 186 NONAME
	_ZN12CListBoxDataD1Ev @ 187 NONAME
	_ZN12CListBoxDataD2Ev @ 188 NONAME
	_ZN12CListBoxView10ConstructLEP13MListBoxModelP15CListItemDrawerP15CWsScreenDeviceP12RWindowGroupP7RWindowRK5TRecti @ 189 NONAME
	_ZN12CListBoxView11MoveCursorLENS_15TCursorMovementENS_14TSelectionModeE @ 190 NONAME
	_ZN12CListBoxView11SelectItemLEi @ 191 NONAME
	_ZN12CListBoxView11SetViewRectERK5TRect @ 192 NONAME
	_ZN12CListBoxView11ToggleItemLEi @ 193 NONAME
	_ZN12CListBoxView12DeselectItemEi @ 194 NONAME
	_ZN12CListBoxView12SelectRangeLEii @ 195 NONAME
	_ZN12CListBoxView12SetBackColorE4TRgb @ 196 NONAME
	_ZN12CListBoxView12SetTextColorE4TRgb @ 197 NONAME
	_ZN12CListBoxView13CalcDataWidthEv @ 198 NONAME
	_ZN12CListBoxView13SetEmphasizedEi @ 199 NONAME
	_ZN12CListBoxView13SetItemHeightEi @ 200 NONAME
	_ZN12CListBoxView14ClearSelectionEv @ 201 NONAME
	_ZN12CListBoxView14DeselectRangeLEii @ 202 NONAME
	_ZN12CListBoxView15SetTopItemIndexEi @ 203 NONAME
	_ZN12CListBoxView16SetDisableRedrawEi @ 204 NONAME
	_ZN12CListBoxView16SetHScrollOffsetEi @ 205 NONAME
	_ZN12CListBoxView16SetMatcherCursorEi @ 206 NONAME
	_ZN12CListBoxView16UpdateSelectionLENS_14TSelectionModeE @ 207 NONAME
	_ZN12CListBoxView17DrawMatcherCursorEv @ 208 NONAME
	_ZN12CListBoxView17HideMatcherCursorEv @ 209 NONAME
	_ZN12CListBoxView17SetListEmptyTextLERK7TDesC16 @ 210 NONAME
	_ZN12CListBoxView19CalcBottomItemIndexEv @ 211 NONAME
	_ZN12CListBoxView19SetCurrentItemIndexEi @ 212 NONAME
	_ZN12CListBoxView19SetMatcherCursorPosEi @ 213 NONAME
	_ZN12CListBoxView19SetPaintedSelectionEi @ 214 NONAME
	_ZN12CListBoxView19VerticalMoveToItemLEiNS_14TSelectionModeE @ 215 NONAME
	_ZN12CListBoxView20SetSelectionIndexesLEPK9CArrayFixIiE @ 216 NONAME
	_ZN12CListBoxView21SetMatcherCursorColorE4TRgb @ 217 NONAME
	_ZN12CListBoxView23ScrollToMakeItemVisibleEi @ 218 NONAME
	_ZN12CListBoxView34ClearSelectionAnchorAndActiveIndexEv @ 219 NONAME
	_ZN12CListBoxView7HScrollEi @ 220 NONAME
	_ZN12CListBoxView9SetAnchorEi @ 221 NONAME
	_ZN12CListBoxView9SetDimmedEi @ 222 NONAME
	_ZN12CListBoxView9VScrollToEi @ 223 NONAME
	_ZN12CListBoxView9VScrollToEiR5TRect @ 224 NONAME
	_ZN12CListBoxViewC1Ev @ 225 NONAME
	_ZN12CListBoxViewC2Ev @ 226 NONAME
	_ZN12CListBoxViewD0Ev @ 227 NONAME
	_ZN12CListBoxViewD1Ev @ 228 NONAME
	_ZN12CListBoxViewD2Ev @ 229 NONAME
	_ZN13CEikCbaButton18ExtensionInterfaceE4TUid @ 230 NONAME
	_ZN13CEikCbaButton19HandlePointerEventLERK13TPointerEvent @ 231 NONAME
	_ZN13CEikKeyWindow10ConstructLERK6TPointRK5TSizeiiiiNS_5TTypeEP12RWindowGroup @ 232 NONAME
	_ZN13CEikKeyWindow18ExtensionInterfaceE4TUid @ 233 NONAME
	_ZN13CEikKeyWindow19HandlePointerEventLERK13TPointerEvent @ 234 NONAME
	_ZN13CEikKeyWindowC1Ev @ 235 NONAME
	_ZN13CEikKeyWindowC2Ev @ 236 NONAME
	_ZN13CEikKeyWindowD0Ev @ 237 NONAME
	_ZN13CEikKeyWindowD1Ev @ 238 NONAME
	_ZN13CEikKeyWindowD2Ev @ 239 NONAME
	_ZN13CEikScrollBar10ConstructLEP21MEikScrollBarObserverPK11CCoeControlNS_12TOrientationEii @ 240 NONAME
	_ZN13CEikScrollBar10Reserved_2Ev @ 241 NONAME
	_ZN13CEikScrollBar10SetLengthLEi @ 242 NONAME
	_ZN13CEikScrollBar11MakeVisibleEi @ 243 NONAME
	_ZN13CEikScrollBar13CreateButtonLERP16CAknScrollButtonNS0_5TTypeE @ 244 NONAME
	_ZN13CEikScrollBar16MinVisibleLengthEi @ 245 NONAME
	_ZN13CEikScrollBar16SetContainingCbaEP7CEikCba @ 246 NONAME
	_ZN13CEikScrollBar18ExtensionInterfaceE4TUid @ 247 NONAME
	_ZN13CEikScrollBar18SetButtonPositionLEP16CAknScrollButton @ 248 NONAME
	_ZN13CEikScrollBar18SetLengthAndModelLEiPK18TEikScrollBarModel @ 249 NONAME
	_ZN13CEikScrollBar19HandleControlEventLEP11CCoeControlN19MCoeControlObserver9TCoeEventE @ 250 NONAME
	_ZN13CEikScrollBar19HandlePointerEventLERK13TPointerEvent @ 251 NONAME
	_ZN13CEikScrollBar19SetAllButtonsDimmedEi @ 252 NONAME
	_ZN13CEikScrollBar21SetFocusPosToThumbPosEi @ 253 NONAME
	_ZN13CEikScrollBar21SetModelThumbPositionEi @ 254 NONAME
	_ZN13CEikScrollBar23DefaultScrollBarBreadthEv @ 255 NONAME
	_ZN13CEikScrollBar24SetDecreaseButtonsDimmedEi @ 256 NONAME
	_ZN13CEikScrollBar24SetIncreaseButtonsDimmedEi @ 257 NONAME
	_ZN13CEikScrollBar8SetModelEPK18TEikScrollBarModel @ 258 NONAME
	_ZN13CEikScrollBar9SetModelLEPK18TEikScrollBarModel @ 259 NONAME
	_ZN13CEikScrollBarC1Ev @ 260 NONAME
	_ZN13CEikScrollBarC2Ev @ 261 NONAME
	_ZN13CEikScrollBarD0Ev @ 262 NONAME
	_ZN13CEikScrollBarD1Ev @ 263 NONAME
	_ZN13CEikScrollBarD2Ev @ 264 NONAME
	_ZN13MListBoxModel22MListBoxModel_ReservedEv @ 265 NONAME
	_ZN13MListBoxModelD0Ev @ 266 NONAME
	_ZN13MListBoxModelD1Ev @ 267 NONAME
	_ZN13MListBoxModelD2Ev @ 268 NONAME
	_ZN14CAknEdwinState11SetObserverEP19MAknEdStateObserver @ 269 NONAME
	_ZN14CAknEdwinState14SetCurrentCaseEi @ 270 NONAME
	_ZN14CAknEdwinState14SetDefaultCaseEi @ 271 NONAME
	_ZN14CAknEdwinState15SetFormAccessorEP21CAknEdwinFormAccessor @ 272 NONAME
	_ZN14CAknEdwinState16SetLocalLanguageE9TLanguage @ 273 NONAME
	_ZN14CAknEdwinState16SetNumericKeymapE23TAknEditorNumericKeymap @ 274 NONAME
	_ZN14CAknEdwinState17SetInlineEditSpanE16TCursorSelection @ 275 NONAME
	_ZN14CAknEdwinState17SetObjectProviderEP15MObjectProvider @ 276 NONAME
	_ZN14CAknEdwinState17SetPermittedCasesEi @ 277 NONAME
	_ZN14CAknEdwinState18SetDefaultLanguageEi @ 278 NONAME
	_ZN14CAknEdwinState19SetCurrentInputModeEi @ 279 NONAME
	_ZN14CAknEdwinState19SetDefaultInputModeEi @ 280 NONAME
	_ZN14CAknEdwinState22ReportAknEdStateEventLEN19MAknEdStateObserver19EAknEdwinStateEventE @ 281 NONAME
	_ZN14CAknEdwinState22SetPermittedInputModesEi @ 282 NONAME
	_ZN14CAknEdwinState34SetCurrentCaseWithNoInitialisationEi @ 283 NONAME
	_ZN14CAknEdwinState34SetSpecialCharacterTableResourceIdEi @ 284 NONAME
	_ZN14CAknEdwinState6SetCbaEv @ 285 NONAME
	_ZN14CAknEdwinState7SetMenuEv @ 286 NONAME
	_ZN14CAknEdwinState8CbaStateEv @ 287 NONAME
	_ZN14CAknEdwinState8SetFlagsEi @ 288 NONAME
	_ZN14CAknEdwinState9CaseStateEv @ 289 NONAME
	_ZN14CAknEdwinStateC1Ev @ 290 NONAME
	_ZN14CAknEdwinStateC2Ev @ 291 NONAME
	_ZN14CEikButtonBase10Reserved_2Ev @ 292 NONAME
	_ZN14CEikButtonBase10Reserved_3Ev @ 293 NONAME
	_ZN14CEikButtonBase11SetBehaviorE15TButtonBehavior @ 294 NONAME
	_ZN14CEikButtonBase12StateChangedEv @ 295 NONAME
	_ZN14CEikButtonBase14OfferKeyEventLERK9TKeyEvent10TEventCode @ 296 NONAME
	_ZN14CEikButtonBase14SetCoordinatorEP21TEikButtonCoordinator @ 297 NONAME
	_ZN14CEikButtonBase16SetAllowTristateEv @ 298 NONAME
	_ZN14CEikButtonBase18ExtensionInterfaceE4TUid @ 299 NONAME
	_ZN14CEikButtonBase19HandlePointerEventLERK13TPointerEvent @ 300 NONAME
	_ZN14CEikButtonBase20HandleResourceChangeEi @ 301 NONAME
	_ZN14CEikButtonBase22SetIgnoreNextPointerUpEv @ 302 NONAME
	_ZN14CEikButtonBase22SetReportOnPointerDownEv @ 303 NONAME
	_ZN14CEikButtonBase7AnimateEv @ 304 NONAME
	_ZN14CEikButtonBase8SetStateENS_6TStateE @ 305 NONAME
	_ZN14CEikButtonBaseC1Ev @ 306 NONAME
	_ZN14CEikButtonBaseC2Ev @ 307 NONAME
	_ZN14CEikButtonBaseD0Ev @ 308 NONAME
	_ZN14CEikButtonBaseD1Ev @ 309 NONAME
	_ZN14CEikButtonBaseD2Ev @ 310 NONAME
	_ZN14CEikMenuButton11SetEmphasisEP11CCoeControli @ 311 NONAME
	_ZN14CEikMenuButton13SetMenuPaneIdEi @ 312 NONAME
	_ZN14CEikMenuButton15ProcessCommandLEi @ 313 NONAME
	_ZN14CEikMenuButton16LaunchPopupMenuLEP16MEikMenuObserver @ 314 NONAME
	_ZN14CEikMenuButton18ExtensionInterfaceE4TUid @ 315 NONAME
	_ZN14CEikMenuButton19HandlePointerEventLERK13TPointerEvent @ 316 NONAME
	_ZN14CEikMenuButton22ConstructFromResourceLER15TResourceReader @ 317 NONAME
	_ZN14CEikMenuButton7AnimateEv @ 318 NONAME
	_ZN14CEikMenuButtonC1Ev @ 319 NONAME
	_ZN14CEikMenuButtonC2Ev @ 320 NONAME
	_ZN14CEikMenuButtonD0Ev @ 321 NONAME
	_ZN14CEikMenuButtonD1Ev @ 322 NONAME
	_ZN14CEikMenuButtonD2Ev @ 323 NONAME
	_ZN14CEikStatusPane11MakeVisibleEi @ 324 NONAME
	_ZN14CEikStatusPane17PrepareForAppExitEv @ 325 NONAME
	_ZN14CEikStatusPane20HandleResourceChangeEi @ 326 NONAME
	_ZN14CEikStatusPane21ApplyCurrentSettingsLEv @ 327 NONAME
	_ZN14CEikStatusPane23OkToChangeStatusPaneNowEv @ 328 NONAME
	_ZN14CEikStatusPane4NewLER9CEikonEnvP12RWindowGroupii @ 329 NONAME
	_ZN14CEikStatusPane8SetFadedEi @ 330 NONAME
	_ZN14CEikStatusPane9SetDimmedEi @ 331 NONAME
	_ZN14CEikStatusPaneD0Ev @ 332 NONAME
	_ZN14CEikStatusPaneD1Ev @ 333 NONAME
	_ZN14CEikStatusPaneD2Ev @ 334 NONAME
	_ZN14CEikTextButton18ExtensionInterfaceE4TUid @ 335 NONAME
	_ZN14CEikTextButton19HandlePointerEventLERK13TPointerEvent @ 336 NONAME
	_ZN14CEikTextButton22ConstructFromResourceLER15TResourceReader @ 337 NONAME
	_ZN14CEikTextButton8SetTextLERK7TDesC16N21CEikCommandButtonBase15TWhichComponentE @ 338 NONAME
	_ZN14CEikTextButtonC1Ev @ 339 NONAME
	_ZN14CEikTextButtonC2Ev @ 340 NONAME
	_ZN14CEikTextButtonD0Ev @ 341 NONAME
	_ZN14CEikTextButtonD1Ev @ 342 NONAME
	_ZN14CEikTextButtonD2Ev @ 343 NONAME
	_ZN15CAknCcpuSupport10ConstructLEv @ 344 NONAME
	_ZN15CAknCcpuSupport14OfferKeyEventLERK9TKeyEvent10TEventCode @ 345 NONAME
	_ZN15CAknCcpuSupport15ProcessCommandLEi @ 346 NONAME
	_ZN15CAknCcpuSupport16DynInitMenuPaneLEiP12CEikMenuPane @ 347 NONAME
	_ZN15CAknCcpuSupport18ExtensionInterfaceE4TUid @ 348 NONAME
	_ZN15CAknCcpuSupport18HandleFocusChangeLEv @ 349 NONAME
	_ZN15CAknCcpuSupport19HandlePointerEventLERK13TPointerEvent @ 350 NONAME
	_ZN15CAknCcpuSupport22HandleSelectionChangeLEv @ 351 NONAME
	_ZN15CAknCcpuSupportC1EP14MEikCcpuEditor @ 352 NONAME
	_ZN15CAknCcpuSupportC2EP14MEikCcpuEditor @ 353 NONAME
	_ZN15CAknCcpuSupportD0Ev @ 354 NONAME
	_ZN15CAknCcpuSupportD1Ev @ 355 NONAME
	_ZN15CAknCcpuSupportD2Ev @ 356 NONAME
	_ZN15CEikButtonPanel10AddButtonLEP17CEikLabeledButtoni @ 357 NONAME
	_ZN15CEikButtonPanel10AddButtonLEP17CEikLabeledButtonii @ 358 NONAME
	_ZN15CEikButtonPanel10ConstructLEv @ 359 NONAME
	_ZN15CEikButtonPanel10Reserved_2Ev @ 360 NONAME
	_ZN15CEikButtonPanel11MinimumSizeEv @ 361 NONAME
	_ZN15CEikButtonPanel11SizeChangedEv @ 362 NONAME
	_ZN15CEikButtonPanel13SetHorizontalEv @ 363 NONAME
	_ZN15CEikButtonPanel14OfferKeyEventLERK9TKeyEvent10TEventCode @ 364 NONAME
	_ZN15CEikButtonPanel16ResetMinimumSizeEv @ 365 NONAME
	_ZN15CEikButtonPanel17MakeButtonVisibleEii @ 366 NONAME
	_ZN15CEikButtonPanel17SetMinButtonWidthEi @ 367 NONAME
	_ZN15CEikButtonPanel18ExtensionInterfaceE4TUid @ 368 NONAME
	_ZN15CEikButtonPanel18SetCommandObserverEP19MEikCommandObserver @ 369 NONAME
	_ZN15CEikButtonPanel19HandleControlEventLEP11CCoeControlN19MCoeControlObserver9TCoeEventE @ 370 NONAME
	_ZN15CEikButtonPanel19HandlePointerEventLERK13TPointerEvent @ 371 NONAME
	_ZN15CEikButtonPanel20HandleResourceChangeEi @ 372 NONAME
	_ZN15CEikButtonPanel22ConstructFromResourceLER15TResourceReader @ 373 NONAME
	_ZN15CEikButtonPanel9ActivateLEv @ 374 NONAME
	_ZN15CEikButtonPanelC1Ev @ 375 NONAME
	_ZN15CEikButtonPanelC2Ev @ 376 NONAME
	_ZN15CEikButtonPanelD0Ev @ 377 NONAME
	_ZN15CEikButtonPanelD1Ev @ 378 NONAME
	_ZN15CEikButtonPanelD2Ev @ 379 NONAME
	_ZN15CEikHotKeyTable10RemoveItemEi @ 380 NONAME
	_ZN15CEikHotKeyTable22ConstructFromResourceLEi @ 381 NONAME
	_ZN15CEikHotKeyTable5ResetEv @ 382 NONAME
	_ZN15CEikHotKeyTable8AddItemLEiii @ 383 NONAME
	_ZN15CEikHotKeyTableC1Ev @ 384 NONAME
	_ZN15CEikHotKeyTableC2Ev @ 385 NONAME
	_ZN15CEikHotKeyTableD0Ev @ 386 NONAME
	_ZN15CEikHotKeyTableD1Ev @ 387 NONAME
	_ZN15CEikHotKeyTableD2Ev @ 388 NONAME
	_ZN15CEikTextListBox10ConstructLEPK11CCoeControli @ 389 NONAME
	_ZN15CEikTextListBox17CreateItemDrawerLEv @ 390 NONAME
	_ZN15CEikTextListBox18ExtensionInterfaceE4TUid @ 391 NONAME
	_ZN15CEikTextListBox19HandlePointerEventLERK13TPointerEvent @ 392 NONAME
	_ZN15CEikTextListBox20CEikListBox_ReservedEv @ 393 NONAME
	_ZN15CEikTextListBox20HandleResourceChangeEi @ 394 NONAME
	_ZN15CEikTextListBox22ConstructFromResourceLER15TResourceReader @ 395 NONAME
	_ZN15CEikTextListBoxC1Ev @ 396 NONAME
	_ZN15CEikTextListBoxC2Ev @ 397 NONAME
	_ZN15CEikTextListBoxD0Ev @ 398 NONAME
	_ZN15CEikTextListBoxD1Ev @ 399 NONAME
	_ZN15CEikTextListBoxD2Ev @ 400 NONAME
	_ZN15CListItemDrawer10ClearFlagsEi @ 401 NONAME
	_ZN15CListItemDrawer10Reserved_1Ev @ 402 NONAME
	_ZN15CListItemDrawer11SetDrawMarkEi @ 403 NONAME
	_ZN15CListItemDrawer11SetViewRectERK5TRect @ 404 NONAME
	_ZN15CListItemDrawer13SetMarkGutterEi @ 405 NONAME
	_ZN15CListItemDrawer13SetSymbolFontEPK5CFont @ 406 NONAME
	_ZN15CListItemDrawer15SetItemCellSizeERK5TSize @ 407 NONAME
	_ZN15CListItemDrawer15SetSkinEnabledLEi @ 408 NONAME
	_ZN15CListItemDrawer18SetMarkColumnWidthEi @ 409 NONAME
	_ZN15CListItemDrawer23SetVerticalInterItemGapEi @ 410 NONAME
	_ZN15CListItemDrawer5SetGcEP9CWindowGc @ 411 NONAME
	_ZN15CListItemDrawer7SetDataEP12CListBoxData @ 412 NONAME
	_ZN15CListItemDrawer8SetFlagsEi @ 413 NONAME
	_ZN15CListItemDrawerC2Ev @ 414 NONAME
	_ZN15CListItemDrawerD0Ev @ 415 NONAME
	_ZN15CListItemDrawerD1Ev @ 416 NONAME
	_ZN15CListItemDrawerD2Ev @ 417 NONAME
	_ZN15EikSoftkeyImage8SetImageEP24CEikButtonGroupContainerR9CEikImagei @ 418 NONAME
	_ZN15EikSoftkeyImage8SetLabelEP24CEikButtonGroupContaineri @ 419 NONAME
	_ZN15MEikButtonGroup10Reserved_1Ev @ 420 NONAME
	_ZN15MEikButtonGroup14AnimateCommandEi @ 421 NONAME
	_ZN16CAknScrollButton11SetPositionEii @ 422 NONAME
	_ZN16CAknScrollButton26CreateWindowOnlyForArrowsLEPK11CCoeControl @ 423 NONAME
	_ZN16CAknScrollButton29SetTypeOfScrollBarUsingButtonENS_16TTypeOfScrollBarE @ 424 NONAME
	_ZN16CAknScrollButton4NewLENS_5TTypeE @ 425 NONAME
	_ZN16CAknScrollButtonD0Ev @ 426 NONAME
	_ZN16CAknScrollButtonD1Ev @ 427 NONAME
	_ZN16CAknScrollButtonD2Ev @ 428 NONAME
	_ZN16CEikAppUiFactoryC1Ev @ 429 NONAME
	_ZN16CEikAppUiFactoryC2Ev @ 430 NONAME
	_ZN16CEikBitmapButton11SetPictureLEPK10CFbsBitmapS2_N21CEikCommandButtonBase15TWhichComponentE @ 431 NONAME
	_ZN16CEikBitmapButton18ExtensionInterfaceE4TUid @ 432 NONAME
	_ZN16CEikBitmapButton19HandlePointerEventLERK13TPointerEvent @ 433 NONAME
	_ZN16CEikBitmapButton19SetPictureFromFileLERK7TDesC16iiN21CEikCommandButtonBase15TWhichComponentE @ 434 NONAME
	_ZN16CEikBitmapButton22ConstructFromResourceLER15TResourceReader @ 435 NONAME
	_ZN16CEikBitmapButtonC1Ev @ 436 NONAME
	_ZN16CEikBitmapButtonC2Ev @ 437 NONAME
	_ZN16CEikBitmapButtonD0Ev @ 438 NONAME
	_ZN16CEikBitmapButtonD1Ev @ 439 NONAME
	_ZN16CEikBitmapButtonD2Ev @ 440 NONAME
	_ZN16CEikCoCtlLibrary12ResourceFileEv @ 441 NONAME
	_ZN16CEikCoCtlLibrary14ControlFactoryEv @ 442 NONAME
	_ZN16CEikCoCtlLibrary18ButtonGroupFactoryEv @ 443 NONAME
	_ZN16CEikControlGroup10ConstructLENS_12TStartCornerENS_12TOrientationE @ 444 NONAME
	_ZN16CEikControlGroup10Reserved_2Ev @ 445 NONAME
	_ZN16CEikControlGroup11AddControlLEP11CCoeControli @ 446 NONAME
	_ZN16CEikControlGroup11AddControlLER16TEikGroupControl @ 447 NONAME
	_ZN16CEikControlGroup11AllSameSizeEv @ 448 NONAME
	_ZN16CEikControlGroup11MinimumSizeEv @ 449 NONAME
	_ZN16CEikControlGroup11SizeChangedEv @ 450 NONAME
	_ZN16CEikControlGroup13DeleteControlEii @ 451 NONAME
	_ZN16CEikControlGroup14InsertControlLER16TEikGroupControli @ 452 NONAME
	_ZN16CEikControlGroup14LayoutControlsEv @ 453 NONAME
	_ZN16CEikControlGroup16SetControlLayoutENS_12TStartCornerENS_12TOrientationE @ 454 NONAME
	_ZN16CEikControlGroup16SetNumberOfLinesEii @ 455 NONAME
	_ZN16CEikControlGroup17SetControlSpacingEii @ 456 NONAME
	_ZN16CEikControlGroup17SetLengthInPixelsEi @ 457 NONAME
	_ZN16CEikControlGroup18ExtensionInterfaceE4TUid @ 458 NONAME
	_ZN16CEikControlGroup18SetBreadthInPixelsEi @ 459 NONAME
	_ZN16CEikControlGroup19DeleteAllComponentsEv @ 460 NONAME
	_ZN16CEikControlGroup19HandlePointerEventLERK13TPointerEvent @ 461 NONAME
	_ZN16CEikControlGroup20ControlMinimumLengthEi @ 462 NONAME
	_ZN16CEikControlGroup20HandleResourceChangeEi @ 463 NONAME
	_ZN16CEikControlGroup22SetControlsAllSameSizeEv @ 464 NONAME
	_ZN16CEikControlGroup5ResetEv @ 465 NONAME
	_ZN16CEikControlGroupC1Ev @ 466 NONAME
	_ZN16CEikControlGroupC2Ev @ 467 NONAME
	_ZN16CEikControlGroupD0Ev @ 468 NONAME
	_ZN16CEikControlGroupD1Ev @ 469 NONAME
	_ZN16CEikControlGroupD2Ev @ 470 NONAME
	_ZN16CEikMenuBarTitle11CreateIconLEP10CFbsBitmapS1_ @ 471 NONAME
	_ZN16CEikMenuBarTitle12SetIconMaskLEP10CFbsBitmap @ 472 NONAME
	_ZN16CEikMenuBarTitle14SetIconBitmapLEP10CFbsBitmap @ 473 NONAME
	_ZN16CEikMenuBarTitle25SetBitmapsOwnedExternallyEi @ 474 NONAME
	_ZN16CEikMenuBarTitle7SetIconEP8CGulIcon @ 475 NONAME
	_ZN16CEikMenuBarTitleC1Ev @ 476 NONAME
	_ZN16CEikMenuBarTitleC2Ev @ 477 NONAME
	_ZN16CEikMenuBarTitleD0Ev @ 478 NONAME
	_ZN16CEikMenuBarTitleD1Ev @ 479 NONAME
	_ZN16CEikMenuBarTitleD2Ev @ 480 NONAME
	_ZN16CEikMenuPaneItem11CreateIconLEP10CFbsBitmapS1_ @ 481 NONAME
	_ZN16CEikMenuPaneItem12SetIconMaskLEP10CFbsBitmap @ 482 NONAME
	_ZN16CEikMenuPaneItem14SetIconBitmapLEP10CFbsBitmap @ 483 NONAME
	_ZN16CEikMenuPaneItem17SetScaleableTextLERK7TDesC16 @ 484 NONAME
	_ZN16CEikMenuPaneItem25SetBitmapsOwnedExternallyEi @ 485 NONAME
	_ZN16CEikMenuPaneItem7SetIconEP8CGulIcon @ 486 NONAME
	_ZN16CEikMenuPaneItemC1Ev @ 487 NONAME
	_ZN16CEikMenuPaneItemC2Ev @ 488 NONAME
	_ZN16CEikMenuPaneItemD0Ev @ 489 NONAME
	_ZN16CEikMenuPaneItemD1Ev @ 490 NONAME
	_ZN16CEikMenuPaneItemD2Ev @ 491 NONAME
	_ZN16CEikScrollButton18ExtensionInterfaceE4TUid @ 492 NONAME
	_ZN16CEikScrollButton19HandlePointerEventLERK13TPointerEvent @ 493 NONAME
	_ZN16CEikScrollButtonC1ENS_5TTypeE @ 494 NONAME
	_ZN16CEikScrollButtonC2ENS_5TTypeE @ 495 NONAME
	_ZN16CEikScrollButtonD0Ev @ 496 NONAME
	_ZN16CEikScrollButtonD1Ev @ 497 NONAME
	_ZN16CEikScrollButtonD2Ev @ 498 NONAME
	_ZN17CEikCommandButton11SetCommandLEiPK7TDesC16PK10CFbsBitmapS5_ @ 499 NONAME
	_ZN17CEikCommandButton11SetPictureLEPK10CFbsBitmapS2_ @ 500 NONAME
	_ZN17CEikCommandButton14SetExcessSpaceENS_7TExcessE @ 501 NONAME
	_ZN17CEikCommandButton15SetButtonLayoutENS_7TLayoutE @ 502 NONAME
	_ZN17CEikCommandButton17SetDisplayContentENS_15TDisplayContentE @ 503 NONAME
	_ZN17CEikCommandButton18AddCommandToStackLEiPK7TDesC16PK10CFbsBitmapS5_ @ 504 NONAME
	_ZN17CEikCommandButton18ExtensionInterfaceE4TUid @ 505 NONAME
	_ZN17CEikCommandButton19HandlePointerEventLERK13TPointerEvent @ 506 NONAME
	_ZN17CEikCommandButton19PopCommandFromStackEv @ 507 NONAME
	_ZN17CEikCommandButton19SetPictureFromFileLERK7TDesC16ii @ 508 NONAME
	_ZN17CEikCommandButton22ConstructFromResourceLER15TResourceReader @ 509 NONAME
	_ZN17CEikCommandButton22RemoveCommandFromStackEi @ 510 NONAME
	_ZN17CEikCommandButton24UpdateComponentAlignmentEv @ 511 NONAME
	_ZN17CEikCommandButton8SetTextLERK7TDesC16 @ 512 NONAME
	_ZN17CEikCommandButtonC1Ev @ 513 NONAME
	_ZN17CEikCommandButtonC2Ev @ 514 NONAME
	_ZN17CEikCommandButtonD0Ev @ 515 NONAME
	_ZN17CEikCommandButtonD1Ev @ 516 NONAME
	_ZN17CEikCommandButtonD2Ev @ 517 NONAME
	_ZN17CEikConsoleScreen10ClearCharsERK5TRectj @ 518 NONAME
	_ZN17CEikConsoleScreen10ConstructLERK7TDesC166TPointRK5TSizei16TEikConsWinUnits @ 519 NONAME
	_ZN17CEikConsoleScreen10ConstructLERK7TDesC16RK5TSizei16TEikConsWinUnits @ 520 NONAME
	_ZN17CEikConsoleScreen10ConstructLERK7TDesC16i @ 521 NONAME
	_ZN17CEikConsoleScreen10DrawCursorEv @ 522 NONAME
	_ZN17CEikConsoleScreen10FlushCharsEv @ 523 NONAME
	_ZN17CEikConsoleScreen10HideCursorEv @ 524 NONAME
	_ZN17CEikConsoleScreen10ReadCancelEv @ 525 NONAME
	_ZN17CEikConsoleScreen10SetConsWinEP18CEikConsoleControl @ 526 NONAME
	_ZN17CEikConsoleScreen11ClearScreenEv @ 527 NONAME
	_ZN17CEikConsoleScreen11DrawInSightE6TPoint @ 528 NONAME
	_ZN17CEikConsoleScreen11MoveTopLeftE6TPoint @ 529 NONAME
	_ZN17CEikConsoleScreen11ScrollCharsERK5TRectRK6TPoint @ 530 NONAME
	_ZN17CEikConsoleScreen11SetPureCRLFEj @ 531 NONAME
	_ZN17CEikConsoleScreen12SelectCursorEv @ 532 NONAME
	_ZN17CEikConsoleScreen12SetSelectionERK5TRect @ 533 NONAME
	_ZN17CEikConsoleScreen13SetScrollLockEj @ 534 NONAME
	_ZN17CEikConsoleScreen15SetAllPrintableEj @ 535 NONAME
	_ZN17CEikConsoleScreen15SetCursorHeightEi @ 536 NONAME
	_ZN17CEikConsoleScreen15SetCursorPosAbsERK6TPoint @ 537 NONAME
	_ZN17CEikConsoleScreen15SetCursorPosRelERK6TPoint @ 538 NONAME
	_ZN17CEikConsoleScreen15SetHistorySizeLEjj @ 539 NONAME
	_ZN17CEikConsoleScreen16ClearToEndOfLineEv @ 540 NONAME
	_ZN17CEikConsoleScreen16UpdateScrollBarsEv @ 541 NONAME
	_ZN17CEikConsoleScreen17DrawCursorInSightEv @ 542 NONAME
	_ZN17CEikConsoleScreen20SetKeepCursorInSightEj @ 543 NONAME
	_ZN17CEikConsoleScreen23SetScrollBarVisibilityLEN18CEikScrollBarFrame20TScrollBarVisibilityES1_ @ 544 NONAME
	_ZN17CEikConsoleScreen2CrEv @ 545 NONAME
	_ZN17CEikConsoleScreen2LfEv @ 546 NONAME
	_ZN17CEikConsoleScreen2UpEj @ 547 NONAME
	_ZN17CEikConsoleScreen4DownEj @ 548 NONAME
	_ZN17CEikConsoleScreen4LeftEj @ 549 NONAME
	_ZN17CEikConsoleScreen4ReadER14TRequestStatus @ 550 NONAME
	_ZN17CEikConsoleScreen5RightEj @ 551 NONAME
	_ZN17CEikConsoleScreen5WriteERK7TDesC16 @ 552 NONAME
	_ZN17CEikConsoleScreen6CreateERK7TDesC165TSize @ 553 NONAME
	_ZN17CEikConsoleScreen6RedrawERK5TRect @ 554 NONAME
	_ZN17CEikConsoleScreen6SetAttEj @ 555 NONAME
	_ZN17CEikConsoleScreen6SetAttEjj @ 556 NONAME
	_ZN17CEikConsoleScreen8SetFontLERK9TFontSpec @ 557 NONAME
	_ZN17CEikConsoleScreen8SetTitleERK7TDesC16 @ 558 NONAME
	_ZN17CEikConsoleScreen9RetrieveLERK5TRect @ 559 NONAME
	_ZN17CEikConsoleScreen9SelectionEv @ 560 NONAME
	_ZN17CEikConsoleScreen9SetTitleLERK7TDesC16 @ 561 NONAME
	_ZN17CEikConsoleScreenC1Ev @ 562 NONAME
	_ZN17CEikConsoleScreenC2Ev @ 563 NONAME
	_ZN17CEikConsoleScreenD0Ev @ 564 NONAME
	_ZN17CEikConsoleScreenD1Ev @ 565 NONAME
	_ZN17CEikConsoleScreenD2Ev @ 566 NONAME
	_ZN17CEikFileNameLabel10ConstructLEv @ 567 NONAME
	_ZN17CEikFileNameLabel11MinimumSizeEv @ 568 NONAME
	_ZN17CEikFileNameLabel11SizeChangedEv @ 569 NONAME
	_ZN17CEikFileNameLabel18ExtensionInterfaceE4TUid @ 570 NONAME
	_ZN17CEikFileNameLabel19HandlePointerEventLERK13TPointerEvent @ 571 NONAME
	_ZN17CEikFileNameLabel20HandleResourceChangeEi @ 572 NONAME
	_ZN17CEikFileNameLabel22ConstructFromResourceLER15TResourceReader @ 573 NONAME
	_ZN17CEikFileNameLabel7UpdateLEv @ 574 NONAME
	_ZN17CEikFileNameLabelC1Ev @ 575 NONAME
	_ZN17CEikFileNameLabelC2Ev @ 576 NONAME
	_ZN17CEikFileNameLabelD0Ev @ 577 NONAME
	_ZN17CEikFileNameLabelD1Ev @ 578 NONAME
	_ZN17CEikFileNameLabelD2Ev @ 579 NONAME
	_ZN17CEikLabeledButton10ConstructLEP21CEikCommandButtonBaseii @ 580 NONAME
	_ZN17CEikLabeledButton11MinimumSizeEv @ 581 NONAME
	_ZN17CEikLabeledButton12UpdateHotKeyEiNS_6TFlagsE @ 582 NONAME
	_ZN17CEikLabeledButton14OfferKeyEventLERK9TKeyEvent10TEventCode @ 583 NONAME
	_ZN17CEikLabeledButton18ExtensionInterfaceE4TUid @ 584 NONAME
	_ZN17CEikLabeledButton19HandlePointerEventLERK13TPointerEvent @ 585 NONAME
	_ZN17CEikLabeledButton19SetContainerWindowLERK11CCoeControl @ 586 NONAME
	_ZN17CEikLabeledButton20HandleResourceChangeEi @ 587 NONAME
	_ZN17CEikLabeledButton22ConstructFromResourceLER15TResourceReader @ 588 NONAME
	_ZN17CEikLabeledButton7AnimateEv @ 589 NONAME
	_ZN17CEikLabeledButton9SetDimmedEi @ 590 NONAME
	_ZN17CEikLabeledButtonC1Ev @ 591 NONAME
	_ZN17CEikLabeledButtonC2Ev @ 592 NONAME
	_ZN17CEikLabeledButtonD0Ev @ 593 NONAME
	_ZN17CEikLabeledButtonD1Ev @ 594 NONAME
	_ZN17CEikLabeledButtonD2Ev @ 595 NONAME
	_ZN17CEikMenuPaneTitle10ConstructLEv @ 596 NONAME
	_ZN17CEikMenuPaneTitle16SetSelectedTitleEi @ 597 NONAME
	_ZN17CEikMenuPaneTitle18ExtensionInterfaceE4TUid @ 598 NONAME
	_ZN17CEikMenuPaneTitle19HandlePointerEventLERK13TPointerEvent @ 599 NONAME
	_ZN17CEikMenuPaneTitle20HandleResourceChangeEi @ 600 NONAME
	_ZN17CEikMenuPaneTitle5CloseEv @ 601 NONAME
	_ZN17CEikMenuPaneTitleC1EP11CEikMenuBar @ 602 NONAME
	_ZN17CEikMenuPaneTitleC2EP11CEikMenuBar @ 603 NONAME
	_ZN17CTextListBoxModel10ConstructLEP12MDesC16Array31TListBoxModelItemArrayOwnership @ 604 NONAME
	_ZN17CTextListBoxModel16SetItemTextArrayEP12MDesC16Array @ 605 NONAME
	_ZN17CTextListBoxModel16SetOwnershipTypeE31TListBoxModelItemArrayOwnership @ 606 NONAME
	_ZN17CTextListBoxModel22MListBoxModel_ReservedEv @ 607 NONAME
	_ZN17CTextListBoxModelC1Ev @ 608 NONAME
	_ZN17CTextListBoxModelC2Ev @ 609 NONAME
	_ZN17CTextListBoxModelD0Ev @ 610 NONAME
	_ZN17CTextListBoxModelD1Ev @ 611 NONAME
	_ZN17CTextListBoxModelD2Ev @ 612 NONAME
	_ZN17MEikListBoxEditor28MEikListBoxEditor_Reserved_1Ev @ 613 NONAME
	_ZN17MTextListBoxModel22MListBoxModel_ReservedEv @ 614 NONAME
	_ZN17MTextListBoxModelD0Ev @ 615 NONAME
	_ZN17MTextListBoxModelD1Ev @ 616 NONAME
	_ZN17MTextListBoxModelD2Ev @ 617 NONAME
	_ZN18CEikAlignedControl12SetAlignmentE18TGulAlignmentValue @ 618 NONAME
	_ZN18CEikAlignedControl15SetAllMarginsToEi @ 619 NONAME
	_ZN18CEikAlignedControl18ExtensionInterfaceE4TUid @ 620 NONAME
	_ZN18CEikAlignedControl19HandlePointerEventLERK13TPointerEvent @ 621 NONAME
	_ZN18CEikAlignedControlC1Ev @ 622 NONAME
	_ZN18CEikAlignedControlC2Ev @ 623 NONAME
	_ZN18CEikAlignedControlD0Ev @ 624 NONAME
	_ZN18CEikAlignedControlD1Ev @ 625 NONAME
	_ZN18CEikAlignedControlD2Ev @ 626 NONAME
	_ZN18CEikConsoleControl10ClearCharsERK5TRectj @ 627 NONAME
	_ZN18CEikConsoleControl10ConstructLE6TPointRK5TSizei16TEikConsWinUnits @ 628 NONAME
	_ZN18CEikConsoleControl10ConstructLEi @ 629 NONAME
	_ZN18CEikConsoleControl10DrawCursorE6TPoint @ 630 NONAME
	_ZN18CEikConsoleControl10HideCursorEv @ 631 NONAME
	_ZN18CEikConsoleControl10Reserved_2Ev @ 632 NONAME
	_ZN18CEikConsoleControl10UpdateAreaEv @ 633 NONAME
	_ZN18CEikConsoleControl11InvertCharsERK5TRect @ 634 NONAME
	_ZN18CEikConsoleControl11ScrollCharsERK5TRectRK6TPoint @ 635 NONAME
	_ZN18CEikConsoleControl11SetRedrawerEP17CEikConsoleScreen @ 636 NONAME
	_ZN18CEikConsoleControl11SizeChangedEv @ 637 NONAME
	_ZN18CEikConsoleControl12FocusChangedE8TDrawNow @ 638 NONAME
	_ZN18CEikConsoleControl15SetCursorHeightEj @ 639 NONAME
	_ZN18CEikConsoleControl17UpdateScrollbarsLERK5TSizeS2_6TPoint @ 640 NONAME
	_ZN18CEikConsoleControl18ExtensionInterfaceE4TUid @ 641 NONAME
	_ZN18CEikConsoleControl18HandleScrollEventLEP13CEikScrollBar15TEikScrollEvent @ 642 NONAME
	_ZN18CEikConsoleControl19HandlePointerEventLERK13TPointerEvent @ 643 NONAME
	_ZN18CEikConsoleControl20HandleResourceChangeEi @ 644 NONAME
	_ZN18CEikConsoleControl23SetScrollBarVisibilityLEN18CEikScrollBarFrame20TScrollBarVisibilityES1_ @ 645 NONAME
	_ZN18CEikConsoleControl8SetFontLERK9TFontSpecPK8CFbsFont @ 646 NONAME
	_ZN18CEikConsoleControl9DrawCharsERK7TDesC16RK6TPointj @ 647 NONAME
	_ZN18CEikConsoleControlC1Ev @ 648 NONAME
	_ZN18CEikConsoleControlC2Ev @ 649 NONAME
	_ZN18CEikConsoleControlD0Ev @ 650 NONAME
	_ZN18CEikConsoleControlD1Ev @ 651 NONAME
	_ZN18CEikConsoleControlD2Ev @ 652 NONAME
	_ZN18CEikScrollBarFrame12MoveThumbsByEii @ 653 NONAME
	_ZN18CEikScrollBarFrame15MoveVertThumbToEi @ 654 NONAME
	_ZN18CEikScrollBarFrame16MoveHorizThumbToEi @ 655 NONAME
	_ZN18CEikScrollBarFrame19SetTypeOfHScrollBarENS_14TScrollBarTypeE @ 656 NONAME
	_ZN18CEikScrollBarFrame19SetTypeOfVScrollBarENS_14TScrollBarTypeE @ 657 NONAME
	_ZN18CEikScrollBarFrame22SetVFocusPosToThumbPosEi @ 658 NONAME
	_ZN18CEikScrollBarFrame23SetAdjustsVerticalModelEi @ 659 NONAME
	_ZN18CEikScrollBarFrame23SetScrollBarVisibilityLENS_20TScrollBarVisibilityES0_ @ 660 NONAME
	_ZN18CEikScrollBarFrame25SetAdjustsHorizontalModelEi @ 661 NONAME
	_ZN18CEikScrollBarFrame25SetScrollBarFrameObserverEP21MEikScrollBarObserver @ 662 NONAME
	_ZN18CEikScrollBarFrame27CreateDoubleSpanScrollBarsLEii @ 663 NONAME
	_ZN18CEikScrollBarFrame27CreateDoubleSpanScrollBarsLEiiii @ 664 NONAME
	_ZN18CEikScrollBarFrame4TileEP18TEikScrollBarModel @ 665 NONAME
	_ZN18CEikScrollBarFrame4TileEP18TEikScrollBarModelR5TRect @ 666 NONAME
	_ZN18CEikScrollBarFrame4TileEP18TEikScrollBarModelS1_ @ 667 NONAME
	_ZN18CEikScrollBarFrame5TileLEP18TEikScrollBarModelS1_R5TRectS3_RK24TEikScrollBarFrameLayout @ 668 NONAME
	_ZN18CEikScrollBarFrameC1EP11CCoeControlP21MEikScrollBarObserveri @ 669 NONAME
	_ZN18CEikScrollBarFrameC2EP11CCoeControlP21MEikScrollBarObserveri @ 670 NONAME
	_ZN18CEikScrollBarFrameD0Ev @ 671 NONAME
	_ZN18CEikScrollBarFrameD1Ev @ 672 NONAME
	_ZN18CEikScrollBarFrameD2Ev @ 673 NONAME
	_ZN18CEikSnakingListBox10Reserved_1Ev @ 674 NONAME
	_ZN18CEikSnakingListBox10Reserved_2Ev @ 675 NONAME
	_ZN18CEikSnakingListBox11SizeChangedEv @ 676 NONAME
	_ZN18CEikSnakingListBox14SetColumnWidthEi @ 677 NONAME
	_ZN18CEikSnakingListBox16HandleDragEventLE6TPoint @ 678 NONAME
	_ZN18CEikSnakingListBox18ExtensionInterfaceE4TUid @ 679 NONAME
	_ZN18CEikSnakingListBox19HandleLeftArrowKeyLEN12CListBoxView14TSelectionModeE @ 680 NONAME
	_ZN18CEikSnakingListBox19HandlePointerEventLERK13TPointerEvent @ 681 NONAME
	_ZN18CEikSnakingListBox20CEikListBox_ReservedEv @ 682 NONAME
	_ZN18CEikSnakingListBox20HandleResourceChangeEi @ 683 NONAME
	_ZN18CEikSnakingListBox20HandleRightArrowKeyLEN12CListBoxView14TSelectionModeE @ 684 NONAME
	_ZN18CEikSnakingListBox22MakeViewClassInstanceLEv @ 685 NONAME
	_ZN18CEikSnakingListBox25HandleViewRectSizeChangeLEv @ 686 NONAME
	_ZN18CEikSnakingListBox25MoveToNextOrPreviousItemLE6TPoint @ 687 NONAME
	_ZN18CEikSnakingListBoxC1Ev @ 688 NONAME
	_ZN18CEikSnakingListBoxC2Ev @ 689 NONAME
	_ZN18CEikSnakingListBoxD0Ev @ 690 NONAME
	_ZN18CEikSnakingListBoxD1Ev @ 691 NONAME
	_ZN18CEikSnakingListBoxD2Ev @ 692 NONAME
	_ZN18CEikStatusPaneBase11MakeVisibleEi @ 693 NONAME
	_ZN18CEikStatusPaneBase12SwapControlLE4TUidP11CCoeControl @ 694 NONAME
	_ZN18CEikStatusPaneBase13SwitchLayoutLEi @ 695 NONAME
	_ZN18CEikStatusPaneBase14BaseConstructLEi @ 696 NONAME
	_ZN18CEikStatusPaneBase20HandleResourceChangeEi @ 697 NONAME
	_ZN18CEikStatusPaneBase23OkToChangeStatusPaneNowEv @ 698 NONAME
	_ZN18CEikStatusPaneBase7CurrentEv @ 699 NONAME
	_ZN18CEikStatusPaneBase7DrawNowEv @ 700 NONAME
	_ZN18CEikStatusPaneBase8SetFadedEi @ 701 NONAME
	_ZN18CEikStatusPaneBase8SetFlagsEi @ 702 NONAME
	_ZN18CEikStatusPaneBase9SetDimmedEi @ 703 NONAME
	_ZN18CEikStatusPaneBaseC2ER9CEikonEnvP12RWindowGroup @ 704 NONAME
	_ZN18CEikStatusPaneBaseD0Ev @ 705 NONAME
	_ZN18CEikStatusPaneBaseD1Ev @ 706 NONAME
	_ZN18CEikStatusPaneBaseD2Ev @ 707 NONAME
	_ZN18TEikScrollBarModel11CheckBoundsEv @ 708 NONAME
	_ZN18TEikScrollBarModelC1Eiii @ 709 NONAME
	_ZN18TEikScrollBarModelC2Eiii @ 710 NONAME
	_ZN19CEikBorderedControl11SetAdjacentEi @ 711 NONAME
	_ZN19CEikBorderedControl18ExtensionInterfaceE4TUid @ 712 NONAME
	_ZN19CEikBorderedControl19HandlePointerEventLERK13TPointerEvent @ 713 NONAME
	_ZN19CEikBorderedControl20HandleResourceChangeEi @ 714 NONAME
	_ZN19CEikBorderedControl9SetBorderEN10TGulBorder11TBorderTypeE @ 715 NONAME
	_ZN19CEikBorderedControl9SetBorderEi @ 716 NONAME
	_ZN19CEikBorderedControlC1ERK10TGulBorder @ 717 NONAME
	_ZN19CEikBorderedControlC1Ev @ 718 NONAME
	_ZN19CEikBorderedControlC2ERK10TGulBorder @ 719 NONAME
	_ZN19CEikBorderedControlC2Ev @ 720 NONAME
	_ZN19CSnakingListBoxView10Reserved_1Ev @ 721 NONAME
	_ZN19CSnakingListBoxView11MoveCursorLEN12CListBoxView15TCursorMovementENS0_14TSelectionModeE @ 722 NONAME
	_ZN19CSnakingListBoxView13CalcDataWidthEv @ 723 NONAME
	_ZN19CSnakingListBoxView13SetItemHeightEi @ 724 NONAME
	_ZN19CSnakingListBoxView14SetColumnWidthEi @ 725 NONAME
	_ZN19CSnakingListBoxView15SetTopItemIndexEi @ 726 NONAME
	_ZN19CSnakingListBoxView17MoveToNextColumnLEN12CListBoxView14TSelectionModeE @ 727 NONAME
	_ZN19CSnakingListBoxView19CalcBottomItemIndexEv @ 728 NONAME
	_ZN19CSnakingListBoxView21MoveToPreviousColumnLEN12CListBoxView14TSelectionModeE @ 729 NONAME
	_ZN19CSnakingListBoxView23ScrollToMakeItemVisibleEi @ 730 NONAME
	_ZN19CSnakingListBoxView37CalculateHScrollOffsetSoItemIsVisibleEi @ 731 NONAME
	_ZN19CSnakingListBoxView38UpdateHScrollOffsetBasedOnTopItemIndexEv @ 732 NONAME
	_ZN19CSnakingListBoxView7HScrollEi @ 733 NONAME
	_ZN19CSnakingListBoxViewC1Ev @ 734 NONAME
	_ZN19CSnakingListBoxViewC2Ev @ 735 NONAME
	_ZN19CSnakingListBoxViewD0Ev @ 736 NONAME
	_ZN19CSnakingListBoxViewD1Ev @ 737 NONAME
	_ZN19CSnakingListBoxViewD2Ev @ 738 NONAME
	_ZN19CTextListItemDrawer10ConstructLEPK5CFont @ 739 NONAME
	_ZN19CTextListItemDrawer10Reserved_1Ev @ 740 NONAME
	_ZN19CTextListItemDrawer16SetSearchStringLEPK7TDesC16 @ 741 NONAME
	_ZN19CTextListItemDrawer19SetCellWidthInCharsEi @ 742 NONAME
	_ZN19CTextListItemDrawer5SetGcEP9CWindowGc @ 743 NONAME
	_ZN19CTextListItemDrawer7SetFontEPK5CFont @ 744 NONAME
	_ZN19CTextListItemDrawerC1EP17MTextListBoxModelPK5CFont @ 745 NONAME
	_ZN19CTextListItemDrawerC1Ev @ 746 NONAME
	_ZN19CTextListItemDrawerC2EP17MTextListBoxModelPK5CFont @ 747 NONAME
	_ZN19CTextListItemDrawerC2Ev @ 748 NONAME
	_ZN19CTextListItemDrawerD0Ev @ 749 NONAME
	_ZN19CTextListItemDrawerD1Ev @ 750 NONAME
	_ZN19CTextListItemDrawerD2Ev @ 751 NONAME
	_ZN19TAknEditorCaseState14SetCurrentCaseEj @ 752 NONAME
	_ZN19TAknEditorCaseState15SetPreviousCaseEj @ 753 NONAME
	_ZN19TAknEditorCaseState30SetPreviousCaseUsedToEnterTextEj @ 754 NONAME
	_ZN19TAknEditorCaseState7SetFlagENS_15TCaseStateFlagsE @ 755 NONAME
	_ZN19TAknEditorCaseState9ClearFlagENS_15TCaseStateFlagsE @ 756 NONAME
	_ZN19TAknEditorCaseStateC1Ev @ 757 NONAME
	_ZN19TAknEditorCaseStateC2Ev @ 758 NONAME
	_ZN19TListItemPropertiesC1Ev @ 759 NONAME
	_ZN19TListItemPropertiesC2Ev @ 760 NONAME
	_ZN20CEikButtonGroupStack11MinimumSizeEv @ 761 NONAME
	_ZN20TListFontBoundValuesC1Ev @ 762 NONAME
	_ZN20TListFontBoundValuesC2Ev @ 763 NONAME
	_ZN21CAknEdwinFormAccessor8SetEdwinEP9CEikEdwin @ 764 NONAME
	_ZN21CAknEdwinFormAccessorC1EP9CEikEdwin @ 765 NONAME
	_ZN21CAknEdwinFormAccessorC2EP9CEikEdwin @ 766 NONAME
	_ZN21CAknScreenClearerBase10ConstructLER12RWindowGroupii @ 767 NONAME
	_ZN21CAknScreenClearerBase18ExtensionInterfaceE4TUid @ 768 NONAME
	_ZN21CAknScreenClearerBase19HandlePointerEventLERK13TPointerEvent @ 769 NONAME
	_ZN21CAknScreenClearerBase27HandleStatusPaneSizeChangeLEv @ 770 NONAME
	_ZN21CAknScreenClearerBaseD0Ev @ 771 NONAME
	_ZN21CAknScreenClearerBaseD1Ev @ 772 NONAME
	_ZN21CAknScreenClearerBaseD2Ev @ 773 NONAME
	_ZN21CEikCommandButtonBase10Reserved_2Ev @ 774 NONAME
	_ZN21CEikCommandButtonBase10Reserved_3Ev @ 775 NONAME
	_ZN21CEikCommandButtonBase10Reserved_4Ev @ 776 NONAME
	_ZN21CEikCommandButtonBase10SetDefaultEi @ 777 NONAME
	_ZN21CEikCommandButtonBase11MinimumSizeEv @ 778 NONAME
	_ZN21CEikCommandButtonBase11SetPictureLEPK10CFbsBitmapS2_RP18CEikAlignedControl @ 779 NONAME
	_ZN21CEikCommandButtonBase11SizeChangedEv @ 780 NONAME
	_ZN21CEikCommandButtonBase12FocusChangedE8TDrawNow @ 781 NONAME
	_ZN21CEikCommandButtonBase12StateChangedEv @ 782 NONAME
	_ZN21CEikCommandButtonBase14OfferKeyEventLERK9TKeyEvent10TEventCode @ 783 NONAME
	_ZN21CEikCommandButtonBase14SetExcessSpaceENS_7TExcessE @ 784 NONAME
	_ZN21CEikCommandButtonBase15SetButtonLayoutENS_7TLayoutE @ 785 NONAME
	_ZN21CEikCommandButtonBase16LayoutComponentsEv @ 786 NONAME
	_ZN21CEikCommandButtonBase17SetDisplayContentENS_15TDisplayContentE @ 787 NONAME
	_ZN21CEikCommandButtonBase18ExtensionInterfaceE4TUid @ 788 NONAME
	_ZN21CEikCommandButtonBase19HandlePointerEventLERK13TPointerEvent @ 789 NONAME
	_ZN21CEikCommandButtonBase19SetContainerWindowLERK11CCoeControl @ 790 NONAME
	_ZN21CEikCommandButtonBase19SetPictureFromFileLERK7TDesC16iiRP18CEikAlignedControl @ 791 NONAME
	_ZN21CEikCommandButtonBase20HandleResourceChangeEi @ 792 NONAME
	_ZN21CEikCommandButtonBase24UpdateComponentAlignmentEv @ 793 NONAME
	_ZN21CEikCommandButtonBase27ConstructImageFromResourceLER15TResourceReaderNS_15TWhichComponentE @ 794 NONAME
	_ZN21CEikCommandButtonBase27ConstructLabelFromResourceLER15TResourceReaderNS_15TWhichComponentE @ 795 NONAME
	_ZN21CEikCommandButtonBase27StartConstructFromResourceLER15TResourceReader @ 796 NONAME
	_ZN21CEikCommandButtonBase8SetTextLERK7TDesC16RP18CEikAlignedControl @ 797 NONAME
	_ZN21CEikCommandButtonBase9ActivateLEv @ 798 NONAME
	_ZN21CEikCommandButtonBase9SetDimmedEi @ 799 NONAME
	_ZN21CEikCommandButtonBaseC1Ev @ 800 NONAME
	_ZN21CEikCommandButtonBaseC2Ev @ 801 NONAME
	_ZN21CEikCommandButtonBaseD0Ev @ 802 NONAME
	_ZN21CEikCommandButtonBaseD1Ev @ 803 NONAME
	_ZN21CEikCommandButtonBaseD2Ev @ 804 NONAME
	_ZN21CEikListBoxTextEditor12ListBoxModelEv @ 805 NONAME
	_ZN21CEikListBoxTextEditor12StopEditingLEv @ 806 NONAME
	_ZN21CEikListBoxTextEditor12UpdateModelLEv @ 807 NONAME
	_ZN21CEikListBoxTextEditor13StartEditingLERK11CCoeControlRK5TRectii @ 808 NONAME
	_ZN21CEikListBoxTextEditor14OfferKeyEventLERK9TKeyEvent10TEventCode @ 809 NONAME
	_ZN21CEikListBoxTextEditor18ExtensionInterfaceE4TUid @ 810 NONAME
	_ZN21CEikListBoxTextEditor19HandlePointerEventLERK13TPointerEvent @ 811 NONAME
	_ZN21CEikListBoxTextEditor24SetListBoxEditorObserverEP22MListBoxEditorObserver @ 812 NONAME
	_ZN21CEikListBoxTextEditor28MEikListBoxEditor_Reserved_1Ev @ 813 NONAME
	_ZN21CEikListBoxTextEditor6EditorEv @ 814 NONAME
	_ZN21CEikListBoxTextEditor7ReleaseEv @ 815 NONAME
	_ZN21CEikListBoxTextEditor7SetFontEPK5CFont @ 816 NONAME
	_ZN21CEikListBoxTextEditor8ItemTextEv @ 817 NONAME
	_ZN21CEikListBoxTextEditorC1EP13MListBoxModel @ 818 NONAME
	_ZN21CEikListBoxTextEditorC2EP13MListBoxModel @ 819 NONAME
	_ZN21CEikListBoxTextEditorD0Ev @ 820 NONAME
	_ZN21CEikListBoxTextEditorD1Ev @ 821 NONAME
	_ZN21CEikListBoxTextEditorD2Ev @ 822 NONAME
	_ZN21EikButtonGroupFactory13TCreationDataC1EN24CEikButtonGroupContainer4TUseEP19MEikCommandObserveriP12RWindowGroupjNS1_12TOrientationE @ 823 NONAME
	_ZN21EikButtonGroupFactory13TCreationDataC2EN24CEikButtonGroupContainer4TUseEP19MEikCommandObserveriP12RWindowGroupjNS1_12TOrientationE @ 824 NONAME
	_ZN21TEikButtonCoordinator15SetChosenButtonEP14CEikButtonBase @ 825 NONAME
	_ZN21TEikButtonCoordinatorC1Ev @ 826 NONAME
	_ZN21TEikButtonCoordinatorC2Ev @ 827 NONAME
	_ZN22CAknLocalScreenClearer4NewLEi @ 828 NONAME
	_ZN22CAknLocalScreenClearer5NewLCEi @ 829 NONAME
	_ZN22CAknLocalScreenClearer5NewLCEv @ 830 NONAME
	_ZN22CEikArrowHeadScrollBar10ConstructLEP21MEikScrollBarObserverPK11CCoeControlN13CEikScrollBar12TOrientationEii @ 831 NONAME
	_ZN22CEikArrowHeadScrollBar18ExtensionInterfaceE4TUid @ 832 NONAME
	_ZN22CEikArrowHeadScrollBar19HandlePointerEventLERK13TPointerEvent @ 833 NONAME
	_ZN22CEikArrowHeadScrollBarC1EP11CCoeControl @ 834 NONAME
	_ZN22CEikArrowHeadScrollBarC2EP11CCoeControl @ 835 NONAME
	_ZN22CEikArrowHeadScrollBarD0Ev @ 836 NONAME
	_ZN22CEikArrowHeadScrollBarD1Ev @ 837 NONAME
	_ZN22CEikArrowHeadScrollBarD2Ev @ 838 NONAME
	_ZN22CEikSnakingTextListBox10ConstructLEPK11CCoeControli @ 839 NONAME
	_ZN22CEikSnakingTextListBox18ExtensionInterfaceE4TUid @ 840 NONAME
	_ZN22CEikSnakingTextListBox19HandlePointerEventLERK13TPointerEvent @ 841 NONAME
	_ZN22CEikSnakingTextListBox20HandleResourceChangeEi @ 842 NONAME
	_ZN22CEikSnakingTextListBoxC1Ev @ 843 NONAME
	_ZN22CEikSnakingTextListBoxC2Ev @ 844 NONAME
	_ZN22CEikSnakingTextListBoxD0Ev @ 845 NONAME
	_ZN22CEikSnakingTextListBoxD1Ev @ 846 NONAME
	_ZN22CEikSnakingTextListBoxD2Ev @ 847 NONAME
	_ZN23CAknDoubleSpanScrollBar10ConstructLEP21MEikScrollBarObserverPK11CCoeControlN13CEikScrollBar12TOrientationEii @ 848 NONAME
	_ZN23CAknDoubleSpanScrollBar10ConstructLEiP21MEikScrollBarObserverPK11CCoeControlN13CEikScrollBar12TOrientationEii @ 849 NONAME
	_ZN23CAknDoubleSpanScrollBar11MakeVisibleEi @ 850 NONAME
	_ZN23CAknDoubleSpanScrollBar11SizeChangedEv @ 851 NONAME
	_ZN23CAknDoubleSpanScrollBar18ExtensionInterfaceE4TUid @ 852 NONAME
	_ZN23CAknDoubleSpanScrollBar18SetFixedLayoutRectE5TRect @ 853 NONAME
	_ZN23CAknDoubleSpanScrollBar19HandlePointerEventLERK13TPointerEvent @ 854 NONAME
	_ZN23CAknDoubleSpanScrollBarC1EP11CCoeControl @ 855 NONAME
	_ZN23CAknDoubleSpanScrollBarC2EP11CCoeControl @ 856 NONAME
	_ZN23CAknDoubleSpanScrollBarD0Ev @ 857 NONAME
	_ZN23CAknDoubleSpanScrollBarD1Ev @ 858 NONAME
	_ZN23CAknDoubleSpanScrollBarD2Ev @ 859 NONAME
	_ZN23CEikStatusPaneModelBase10Reserved_1Ev @ 860 NONAME
	_ZN23CEikStatusPaneModelBase10SetLayoutLEii @ 861 NONAME
	_ZN23CEikStatusPaneModelBase11LoadLayoutLEi @ 862 NONAME
	_ZN23CEikStatusPaneModelBase14BaseConstructLEi @ 863 NONAME
	_ZN23CEikStatusPaneModelBaseC1ER9CEikonEnv @ 864 NONAME
	_ZN23CEikStatusPaneModelBaseC2ER9CEikonEnv @ 865 NONAME
	_ZN23CEikStatusPaneModelBaseD0Ev @ 866 NONAME
	_ZN23CEikStatusPaneModelBaseD1Ev @ 867 NONAME
	_ZN23CEikStatusPaneModelBaseD2Ev @ 868 NONAME
	_ZN24CEikButtonGroupContainer10DimCommandEii @ 869 NONAME
	_ZN24CEikButtonGroupContainer11MinimumSizeEv @ 870 NONAME
	_ZN24CEikButtonGroupContainer12UpdateHotKeyEiNS_12THotKeyFlagsEi @ 871 NONAME
	_ZN24CEikButtonGroupContainer13DoSetCommandLEiPK7TDesC16PK10CFbsBitmapS5_NS_10TCommandOpE @ 872 NONAME
	_ZN24CEikButtonGroupContainer13DoSetCommandLEiPK7TDesC16RS1_iiNS_10TCommandOpE @ 873 NONAME
	_ZN24CEikButtonGroupContainer13DoSetCommandLEiiNS_10TCommandOpE @ 874 NONAME
	_ZN24CEikButtonGroupContainer13DoSetCommandLEiiPK7TDesC16PK10CFbsBitmapS5_NS_10TCommandOpE @ 875 NONAME
	_ZN24CEikButtonGroupContainer13DoSetCommandLEiiPK7TDesC16RS1_iiNS_10TCommandOpE @ 876 NONAME
	_ZN24CEikButtonGroupContainer14AnimateCommandEi @ 877 NONAME
	_ZN24CEikButtonGroupContainer14OfferKeyEventLERK9TKeyEvent10TEventCode @ 878 NONAME
	_ZN24CEikButtonGroupContainer14ReplaceCommandEii @ 879 NONAME
	_ZN24CEikButtonGroupContainer14SetCommandSetLEi @ 880 NONAME
	_ZN24CEikButtonGroupContainer15SetBoundingRectERK5TRect @ 881 NONAME
	_ZN24CEikButtonGroupContainer17CleanupCommandPopEi @ 882 NONAME
	_ZN24CEikButtonGroupContainer17OfferCommandListLERK6RArrayIiE @ 883 NONAME
	_ZN24CEikButtonGroupContainer17OfferCommandListLEi @ 884 NONAME
	_ZN24CEikButtonGroupContainer17SetDefaultCommandEi @ 885 NONAME
	_ZN24CEikButtonGroupContainer18MakeCommandVisibleEii @ 886 NONAME
	_ZN24CEikButtonGroupContainer19CleanupCommandPushLEi @ 887 NONAME
	_ZN24CEikButtonGroupContainer19Reserved_MtsmObjectEv @ 888 NONAME
	_ZN24CEikButtonGroupContainer21AddCommandSetToStackLEi @ 889 NONAME
	_ZN24CEikButtonGroupContainer21RemoveCommandObserverEi @ 890 NONAME
	_ZN24CEikButtonGroupContainer21Reserved_MtsmPositionEv @ 891 NONAME
	_ZN24CEikButtonGroupContainer22RemoveCommandFromStackEii @ 892 NONAME
	_ZN24CEikButtonGroupContainer22UpdateCommandObserverLEiR19MEikCommandObserver @ 893 NONAME
	_ZN24CEikButtonGroupContainer4NewLENS_4TUseENS_12TOrientationEP19MEikCommandObserveriR12RWindowGroupj @ 894 NONAME
	_ZN24CEikButtonGroupContainer4NewLENS_4TUseENS_12TOrientationEP19MEikCommandObserveriRK11CCoeControlj @ 895 NONAME
	_ZN24CEikButtonGroupContainer4NewLENS_4TUseENS_12TOrientationEP19MEikCommandObserverij @ 896 NONAME
	_ZN24CEikButtonGroupContainer7CurrentEv @ 897 NONAME
	_ZN24CEikButtonGroupContainerD0Ev @ 898 NONAME
	_ZN24CEikButtonGroupContainerD1Ev @ 899 NONAME
	_ZN24CEikButtonGroupContainerD2Ev @ 900 NONAME
	_ZN24TEikScrollBarFrameLayout15SetClientMarginEi @ 901 NONAME
	_ZN24TEikScrollBarFrameLayout18SetInclusiveMarginEi @ 902 NONAME
	_ZN24TEikScrollBarFrameLayoutC1Ev @ 903 NONAME
	_ZN24TEikScrollBarFrameLayoutC2Ev @ 904 NONAME
	_ZN25CEikArrowHeadScrollButton4NewLEPK11CCoeControlN16CEikScrollButton5TTypeE @ 905 NONAME
	_ZN25CEikInverterCommandButton18ExtensionInterfaceE4TUid @ 906 NONAME
	_ZN25CEikInverterCommandButton19HandlePointerEventLERK13TPointerEvent @ 907 NONAME
	_ZN25CEikInverterCommandButtonC1Ev @ 908 NONAME
	_ZN25CEikInverterCommandButtonC2Ev @ 909 NONAME
	_ZN25CEikInverterCommandButtonD0Ev @ 910 NONAME
	_ZN25CEikInverterCommandButtonD1Ev @ 911 NONAME
	_ZN25CEikInverterCommandButtonD2Ev @ 912 NONAME
	_ZN27CEikButtonGroupFactoryArray21RemoveFactoryFunctionEPFP15MEikButtonGroupiRN21EikButtonGroupFactory13TCreationDataERiE @ 913 NONAME
	_ZN27CEikButtonGroupFactoryArray22AppendFactoryFunctionLEPFP15MEikButtonGroupiRN21EikButtonGroupFactory13TCreationDataERiE @ 914 NONAME
	_ZN27CEikTwoPictureCommandButton12StateChangedEv @ 915 NONAME
	_ZN27CEikTwoPictureCommandButton15SetTwoPicturesLEPK10CFbsBitmapS2_S2_S2_ @ 916 NONAME
	_ZN27CEikTwoPictureCommandButton16SetSecondPictureEPK10CFbsBitmapS2_ @ 917 NONAME
	_ZN27CEikTwoPictureCommandButton18ExtensionInterfaceE4TUid @ 918 NONAME
	_ZN27CEikTwoPictureCommandButton19HandlePointerEventLERK13TPointerEvent @ 919 NONAME
	_ZN27CEikTwoPictureCommandButton19SetPictureFromFileLERK7TDesC16ii @ 920 NONAME
	_ZN27CEikTwoPictureCommandButton22ConstructFromResourceLER15TResourceReader @ 921 NONAME
	_ZN27CEikTwoPictureCommandButton25SetSecondPictureFromFileLERK7TDesC16ii @ 922 NONAME
	_ZN27CEikTwoPictureCommandButton28ConstructImagesFromResourceLER15TResourceReaderN21CEikCommandButtonBase15TWhichComponentE @ 923 NONAME
	_ZN27CEikTwoPictureCommandButton30IsSecondPictureOwnedExternallyEv @ 924 NONAME
	_ZN27CEikTwoPictureCommandButton31SetSecondPictureOwnedExternallyEi @ 925 NONAME
	_ZN27CEikTwoPictureCommandButton8SetTextLERK7TDesC16 @ 926 NONAME
	_ZN27CEikTwoPictureCommandButton9ActivateLEv @ 927 NONAME
	_ZN27CEikTwoPictureCommandButtonC1Ev @ 928 NONAME
	_ZN27CEikTwoPictureCommandButtonC2Ev @ 929 NONAME
	_ZN27CEikTwoPictureCommandButtonD0Ev @ 930 NONAME
	_ZN27CEikTwoPictureCommandButtonD1Ev @ 931 NONAME
	_ZN27CEikTwoPictureCommandButtonD2Ev @ 932 NONAME
	_ZN28TAknDoubleSpanScrollBarModel12SetFieldSizeEi @ 933 NONAME
	_ZN28TAknDoubleSpanScrollBarModel13SetScrollSpanEi @ 934 NONAME
	_ZN28TAknDoubleSpanScrollBarModel13SetWindowSizeEi @ 935 NONAME
	_ZN28TAknDoubleSpanScrollBarModel16SetFieldPositionEi @ 936 NONAME
	_ZN28TAknDoubleSpanScrollBarModel16SetFocusPositionEi @ 937 NONAME
	_ZN28TAknDoubleSpanScrollBarModelC1ERK18TEikScrollBarModel @ 938 NONAME
	_ZN28TAknDoubleSpanScrollBarModelC1Ev @ 939 NONAME
	_ZN28TAknDoubleSpanScrollBarModelC2ERK18TEikScrollBarModel @ 940 NONAME
	_ZN28TAknDoubleSpanScrollBarModelC2Ev @ 941 NONAME
	_ZN7CEikCba14ReplaceCommandEii @ 942 NONAME
	_ZN7CEikCba17OfferCommandListLERK6RArrayIiE @ 943 NONAME
	_ZN7CEikCba17OfferCommandListLEi @ 944 NONAME
	_ZN7CEikCba18ExtensionInterfaceE4TUid @ 945 NONAME
	_ZN7CEikCba19SetButtonGroupFlagsEi @ 946 NONAME
	_ZN7CEikCba19SetSkinBackgroundIdERK11TAknsItemID @ 947 NONAME
	_ZN9CEikEdwin10CcpuPasteLEv @ 948 NONAME
	_ZN9CEikEdwin10ClipboardLENS_14TClipboardFuncE @ 949 NONAME
	_ZN9CEikEdwin10ConstructLEiiii @ 950 NONAME
	_ZN9CEikEdwin10CountWordsEv @ 951 NONAME
	_ZN9CEikEdwin10Reserved_2Ev @ 952 NONAME
	_ZN9CEikEdwin10Reserved_3Ev @ 953 NONAME
	_ZN9CEikEdwin10SelectAllLEv @ 954 NONAME
	_ZN9CEikEdwin11FormatTextLEv @ 955 NONAME
	_ZN9CEikEdwin11GetFindTextEP6TDes16 @ 956 NONAME
	_ZN9CEikEdwin11MinimumSizeEv @ 957 NONAME
	_ZN9CEikEdwin11MoveCursorLEN15TCursorPosition13TMovementTypeEi @ 958 NONAME
	_ZN9CEikEdwin11OnReformatLEPK9CTextView @ 959 NONAME
	_ZN9CEikEdwin11ReplaceAllLEP15SEdwinFindModel @ 960 NONAME
	_ZN9CEikEdwin11SetReadOnlyEi @ 961 NONAME
	_ZN9CEikEdwin11SizeChangedEv @ 962 NONAME
	_ZN9CEikEdwin12CopyToStoreLER12CStreamStoreR17CStreamDictionary @ 963 NONAME
	_ZN9CEikEdwin12DrawContentsEv @ 964 NONAME
	_ZN9CEikEdwin12EditObserverEii @ 965 NONAME
	_ZN9CEikEdwin12FocusChangedE8TDrawNow @ 966 NONAME
	_ZN9CEikEdwin12InsertFieldLEP10CTextField4TUid @ 967 NONAME
	_ZN9CEikEdwin12MoveDisplayLEN15TCursorPosition13TMovementTypeE @ 968 NONAME
	_ZN9CEikEdwin12SetAlignmentEi @ 969 NONAME
	_ZN9CEikEdwin12SetAllowUndoEi @ 970 NONAME
	_ZN9CEikEdwin12SetAvkonWrapEi @ 971 NONAME
	_ZN9CEikEdwin12SetTextLimitEi @ 972 NONAME
	_ZN9CEikEdwin12SetWordWrapLEi @ 973 NONAME
	_ZN9CEikEdwin13CreateLayoutLEP7MLayDoc @ 974 NONAME
	_ZN9CEikEdwin13SetCursorPosLEii @ 975 NONAME
	_ZN9CEikEdwin13SetSelectionLEii @ 976 NONAME
	_ZN9CEikEdwin14BaseConstructLEv @ 977 NONAME
	_ZN9CEikEdwin14CalculateWidthEi @ 978 NONAME
	_ZN9CEikEdwin14EdwinExtensionEv @ 979 NONAME
	_ZN9CEikEdwin14OfferKeyEventLERK9TKeyEvent10TEventCode @ 980 NONAME
	_ZN9CEikEdwin14SetUndoBufferLERK16TCursorSelection @ 981 NONAME
	_ZN9CEikEdwin14SetZoomFactorLEP11TZoomFactor @ 982 NONAME
	_ZN9CEikEdwin15ClearSelectionLEv @ 983 NONAME
	_ZN9CEikEdwin15CreateTextViewLEv @ 984 NONAME
	_ZN9CEikEdwin15MopSupplyObjectE8TTypeUid @ 985 NONAME
	_ZN9CEikEdwin15PasteFromStoreLER12CStreamStoreR17CStreamDictionary @ 986 NONAME
	_ZN9CEikEdwin15SendDataOverIrLEv @ 987 NONAME
	_ZN9CEikEdwin15SetUndoableTextERK16TCursorSelection @ 988 NONAME
	_ZN9CEikEdwin16CancelSelectionLENS_4TEndE @ 989 NONAME
	_ZN9CEikEdwin16DeleteHighlightLERiii @ 990 NONAME
	_ZN9CEikEdwin16NotifyNewFormatLEv @ 991 NONAME
	_ZN9CEikEdwin16ReadAknResourceLER15TResourceReader @ 992 NONAME
	_ZN9CEikEdwin16SetAknEditorCaseEi @ 993 NONAME
	_ZN9CEikEdwin16SetAllowPicturesEi @ 994 NONAME
	_ZN9CEikEdwin16SetEdwinObserverEP17MEikEdwinObserver @ 995 NONAME
	_ZN9CEikEdwin16SetMaximumHeightEi @ 996 NONAME
	_ZN9CEikEdwin16SetMinimumHeightEi @ 997 NONAME
	_ZN9CEikEdwin16SetWysiwygModeOnEiP18MGraphicsDeviceMap @ 998 NONAME
	_ZN9CEikEdwin16UpdateAllFieldsLEv @ 999 NONAME
	_ZN9CEikEdwin17AddEdwinObserverLEP17MEikEdwinObserver @ 1000 NONAME
	_ZN9CEikEdwin17CheckNotReadOnlyLEv @ 1001 NONAME
	_ZN9CEikEdwin17CreateCustomDrawLEv @ 1002 NONAME
	_ZN9CEikEdwin17HandleTextPastedLEiRi @ 1003 NONAME
	_ZN9CEikEdwin17ReportEdwinEventLEN17MEikEdwinObserver11TEdwinEventE @ 1004 NONAME
	_ZN9CEikEdwin17RunCharMapDialogLEv @ 1005 NONAME
	_ZN9CEikEdwin17SetAknEditorFlagsEi @ 1006 NONAME
	_ZN9CEikEdwin17SetOnlyASCIICharsEi @ 1007 NONAME
	_ZN9CEikEdwin17SetWordDelimitersEii @ 1008 NONAME
	_ZN9CEikEdwin17SetWysiwygModeOffEv @ 1009 NONAME
	_ZN9CEikEdwin17UpdateLayoutWidthEi @ 1010 NONAME
	_ZN9CEikEdwin17UpdateScrollBarsLEv @ 1011 NONAME
	_ZN9CEikEdwin18AddFlagToUserFlagsEm @ 1012 NONAME
	_ZN9CEikEdwin18CEikEdwinExtension11TextWrapperEv @ 1013 NONAME
	_ZN9CEikEdwin18CEikEdwinExtension15ScrollBarSetterEv @ 1014 NONAME
	_ZN9CEikEdwin18CEikEdwinExtension15SetFormAccessorEP21CAknEdwinFormAccessor @ 1015 NONAME
	_ZN9CEikEdwin18CEikEdwinExtension18SetScrollBarSetterEP5CIdle @ 1016 NONAME
	_ZN9CEikEdwin18EnableCcpuSupportLEi @ 1017 NONAME
	_ZN9CEikEdwin18ExtensionInterfaceE4TUid @ 1018 NONAME
	_ZN9CEikEdwin18HandleScrollEventLEP13CEikScrollBar15TEikScrollEvent @ 1019 NONAME
	_ZN9CEikEdwin18HandleSizeChangedLEv @ 1020 NONAME
	_ZN9CEikEdwin18HandleTextChangedLEv @ 1021 NONAME
	_ZN9CEikEdwin18InsertDeleteCharsLEiRK7TDesC16RK16TCursorSelection @ 1022 NONAME
	_ZN9CEikEdwin18NotifyNewDocumentLEv @ 1023 NONAME
	_ZN9CEikEdwin18ReceiveDataOverIrLEv @ 1024 NONAME
	_ZN9CEikEdwin18SetAmountToFormatLEi @ 1025 NONAME
	_ZN9CEikEdwin18SetCharFormatLayerEP16CCharFormatLayer @ 1026 NONAME
	_ZN9CEikEdwin18SetParaFormatLayerEP16CParaFormatLayer @ 1027 NONAME
	_ZN9CEikEdwin18SetRightWrapGutterEi @ 1028 NONAME
	_ZN9CEikEdwin18TrappedSizeChangedEv @ 1029 NONAME
	_ZN9CEikEdwin19CheckRemovePicturesEii @ 1030 NONAME
	_ZN9CEikEdwin19HandlePointerEventLERK13TPointerEvent @ 1031 NONAME
	_ZN9CEikEdwin19InsertFromTextFileLERK4TBufILi256EEN10CPlainText17TTextOrganisationE @ 1032 NONAME
	_ZN9CEikEdwin19RemoveEdwinObserverEP17MEikEdwinObserver @ 1033 NONAME
	_ZN9CEikEdwin19SetBackgroundColorLE4TRgb @ 1034 NONAME
	_ZN9CEikEdwin19SetContainerWindowLERK11CCoeControl @ 1035 NONAME
	_ZN9CEikEdwin19SetContainerWindowLEv @ 1036 NONAME
	_ZN9CEikEdwin19SetDocumentContentLER11CGlobalTextNS_11TSetContentE @ 1037 NONAME
	_ZN9CEikEdwin19SetPasteFromIrStoreEi @ 1038 NONAME
	_ZN9CEikEdwin19UpdateCurrentFieldLEv @ 1039 NONAME
	_ZN9CEikEdwin20CancelFepTransactionEv @ 1040 NONAME
	_ZN9CEikEdwin20CheckEdwinExtensionLEv @ 1041 NONAME
	_ZN9CEikEdwin20CheckValidityOfCharsEii @ 1042 NONAME
	_ZN9CEikEdwin20CopyDocumentContentLER11CGlobalTextS1_ @ 1043 NONAME
	_ZN9CEikEdwin20CreateTextAndLayoutLEP16CParaFormatLayerP16CCharFormatLayer @ 1044 NONAME
	_ZN9CEikEdwin20HandleResourceChangeEi @ 1045 NONAME
	_ZN9CEikEdwin20OkToDeleteSelectionLEv @ 1046 NONAME
	_ZN9CEikEdwin20SetBorderViewMarginsE9TMargins8 @ 1047 NONAME
	_ZN9CEikEdwin20SetDocumentOwnershipENS_14TOwnershipTypeE @ 1048 NONAME
	_ZN9CEikEdwin20SetEdwinSizeObserverEP21MEikEdwinSizeObserver @ 1049 NONAME
	_ZN9CEikEdwin21CreateScrollBarFrameLEi @ 1050 NONAME
	_ZN9CEikEdwin21CreateScrollBarFrameLEv @ 1051 NONAME
	_ZN9CEikEdwin21ForceScrollBarUpdateLEv @ 1052 NONAME
	_ZN9CEikEdwin21PlaceDataOnClipboardLEv @ 1053 NONAME
	_ZN9CEikEdwin21SetAknEditorInputModeEi @ 1054 NONAME
	_ZN9CEikEdwin21SetInputCapabilitiesLERK21TCoeInputCapabilities @ 1055 NONAME
	_ZN9CEikEdwin21SetLineCursorDetailsLEv @ 1056 NONAME
	_ZN9CEikEdwin22CancelInsertCharFormatEv @ 1057 NONAME
	_ZN9CEikEdwin22ConstructFromResourceLER15TResourceReader @ 1058 NONAME
	_ZN9CEikEdwin23DisplayFindTextNotFoundER6TDes16 @ 1059 NONAME
	_ZN9CEikEdwin23MoveCursorToChunkStartLEiNS_10TChunkSizeENS_4TEndE @ 1060 NONAME
	_ZN9CEikEdwin23RemoveFlagFromUserFlagsEm @ 1061 NONAME
	_ZN9CEikEdwin23SetAknEditorCurrentCaseEi @ 1062 NONAME
	_ZN9CEikEdwin23SetMaximumHeightInLinesEi @ 1063 NONAME
	_ZN9CEikEdwin25AknEditorCurrentInputModeEv @ 1064 NONAME
	_ZN9CEikEdwin25SetAknEditorLocalLanguageE9TLanguage @ 1065 NONAME
	_ZN9CEikEdwin25SetAknEditorNumericKeymapE23TAknEditorNumericKeymap @ 1066 NONAME
	_ZN9CEikEdwin28SetAknEditorCurrentInputModeEi @ 1067 NONAME
	_ZN9CEikEdwin29SetAknEditorAllowedInputModesEi @ 1068 NONAME
	_ZN9CEikEdwin29SetNonPrintingCharsVisibilityE26TNonPrintingCharVisibility @ 1069 NONAME
	_ZN9CEikEdwin30SetAknEditorPermittedCaseModesEi @ 1070 NONAME
	_ZN9CEikEdwin30SetPictographAnimationCallBackER9TCallBack @ 1071 NONAME
	_ZN9CEikEdwin32SetSkinBackgroundControlContextLEP19MAknsControlContext @ 1072 NONAME
	_ZN9CEikEdwin33NotifyInvalidOperationOnReadOnlyLEv @ 1073 NONAME
	_ZN9CEikEdwin33SetAknEditorSpecialCharacterTableEi @ 1074 NONAME
	_ZN9CEikEdwin39NotifyEditorStateObserverOfStateChangeLEv @ 1075 NONAME
	_ZN9CEikEdwin5FindLEPK7TDesC16i @ 1076 NONAME
	_ZN9CEikEdwin5IdleLEPv @ 1077 NONAME
	_ZN9CEikEdwin5UndoLEv @ 1078 NONAME
	_ZN9CEikEdwin7DeleteLERiRK16TCursorSelectionii @ 1079 NONAME
	_ZN9CEikEdwin8CcpuCutLEv @ 1080 NONAME
	_ZN9CEikEdwin8ReplaceLEP15SEdwinFindModel @ 1081 NONAME
	_ZN9CEikEdwin8SetTextLEPK7TDesC16 @ 1082 NONAME
	_ZN9CEikEdwin9ActivateLEv @ 1083 NONAME
	_ZN9CEikEdwin9CcpuCopyLEv @ 1084 NONAME
	_ZN9CEikEdwin9CcpuUndoLEv @ 1085 NONAME
	_ZN9CEikEdwin9ClearUndoEv @ 1086 NONAME
	_ZN9CEikEdwin9FindTextLEPK7TDesC16ii @ 1087 NONAME
	_ZN9CEikEdwin9SetDimmedEi @ 1088 NONAME
	_ZN9CEikEdwinC1ERK10TGulBorder @ 1089 NONAME
	_ZN9CEikEdwinC1Ev @ 1090 NONAME
	_ZN9CEikEdwinC2ERK10TGulBorder @ 1091 NONAME
	_ZN9CEikEdwinC2Ev @ 1092 NONAME
	_ZN9CEikEdwinD0Ev @ 1093 NONAME
	_ZN9CEikEdwinD1Ev @ 1094 NONAME
	_ZN9CEikEdwinD2Ev @ 1095 NONAME
	_ZN9CEikImage10Reserved_2Ev @ 1096 NONAME
	_ZN9CEikImage10SetPictureEPK10CFbsBitmapS2_ @ 1097 NONAME
	_ZN9CEikImage11MinimumSizeEv @ 1098 NONAME
	_ZN9CEikImage11SetEmphasisEi @ 1099 NONAME
	_ZN9CEikImage13SetBrushStyleEN16CGraphicsContext11TBrushStyleE @ 1100 NONAME
	_ZN9CEikImage13SetNewBitmapsEPK10CFbsBitmapS2_ @ 1101 NONAME
	_ZN9CEikImage18ExtensionInterfaceE4TUid @ 1102 NONAME
	_ZN9CEikImage19HandlePointerEventLERK13TPointerEvent @ 1103 NONAME
	_ZN9CEikImage22ConstructFromResourceLER15TResourceReader @ 1104 NONAME
	_ZN9CEikImage22CreatePictureFromFileLERK7TDesC16ii @ 1105 NONAME
	_ZN9CEikImage24IsPictureOwnedExternallyEv @ 1106 NONAME
	_ZN9CEikImage25SetPictureOwnedExternallyEi @ 1107 NONAME
	_ZN9CEikImage7SetMaskEPK10CFbsBitmap @ 1108 NONAME
	_ZN9CEikImage9SetBitmapEPK10CFbsBitmap @ 1109 NONAME
	_ZN9CEikImageC1Ev @ 1110 NONAME
	_ZN9CEikImageC2Ev @ 1111 NONAME
	_ZN9CEikImageD0Ev @ 1112 NONAME
	_ZN9CEikImageD1Ev @ 1113 NONAME
	_ZN9CEikImageD2Ev @ 1114 NONAME
	_ZN9CEikLabel10Reserved_2Ev @ 1115 NONAME
	_ZN9CEikLabel11MinimumSizeEv @ 1116 NONAME
	_ZN9CEikLabel11SetEmphasisENS_13TTextEmphasisE @ 1117 NONAME
	_ZN9CEikLabel13SetBrushStyleEN16CGraphicsContext11TBrushStyleE @ 1118 NONAME
	_ZN9CEikLabel14SetUnderliningEi @ 1119 NONAME
	_ZN9CEikLabel16SetStrikethroughEi @ 1120 NONAME
	_ZN9CEikLabel17SetLabelAlignmentEi @ 1121 NONAME
	_ZN9CEikLabel18DisablePictographsEv @ 1122 NONAME
	_ZN9CEikLabel18EnablePictographsLER23CAknPictographInterface @ 1123 NONAME
	_ZN9CEikLabel18ExtensionInterfaceE4TUid @ 1124 NONAME
	_ZN9CEikLabel19HandlePointerEventLERK13TPointerEvent @ 1125 NONAME
	_ZN9CEikLabel20HandleResourceChangeEi @ 1126 NONAME
	_ZN9CEikLabel22ConstructFromResourceLER15TResourceReader @ 1127 NONAME
	_ZN9CEikLabel23SetBufferReserveLengthLEi @ 1128 NONAME
	_ZN9CEikLabel23SetPixelGapBetweenLinesEi @ 1129 NONAME
	_ZN9CEikLabel24SetBrushStyleFromContextEv @ 1130 NONAME
	_ZN9CEikLabel28UseLogicalToVisualConversionEi @ 1131 NONAME
	_ZN9CEikLabel7SetFontEPK5CFont @ 1132 NONAME
	_ZN9CEikLabel8CropTextEv @ 1133 NONAME
	_ZN9CEikLabel8SetTextLERK7TDesC16 @ 1134 NONAME
	_ZN9CEikLabelC1Ev @ 1135 NONAME
	_ZN9CEikLabelC2Ev @ 1136 NONAME
	_ZN9CEikLabelD0Ev @ 1137 NONAME
	_ZN9CEikLabelD1Ev @ 1138 NONAME
	_ZN9CEikLabelD2Ev @ 1139 NONAME
	_ZNK11CEikListBox10ItemExistsEi @ 1140 NONAME
	_ZNK11CEikListBox10ItemHeightEv @ 1141 NONAME
	_ZNK11CEikListBox11MatchBufferEv @ 1142 NONAME
	_ZNK11CEikListBox12ClearMarginsEv @ 1143 NONAME
	_ZNK11CEikListBox12TopItemIndexEv @ 1144 NONAME
	_ZNK11CEikListBox13IsMatchBufferEv @ 1145 NONAME
	_ZNK11CEikListBox14ListBoxMarginsEv @ 1146 NONAME
	_ZNK11CEikListBox14VerticalMarginEv @ 1147 NONAME
	_ZNK11CEikListBox15BottomItemIndexEv @ 1148 NONAME
	_ZNK11CEikListBox15LastCharMatchedEv @ 1149 NONAME
	_ZNK11CEikListBox15SetTopItemIndexEi @ 1150 NONAME
	_ZNK11CEikListBox16CalcSizeInPixelsEii @ 1151 NONAME
	_ZNK11CEikListBox16ClearMatchBufferEv @ 1152 NONAME
	_ZNK11CEikListBox16ComponentControlEi @ 1153 NONAME
	_ZNK11CEikListBox16CurrentItemIndexEv @ 1154 NONAME
	_ZNK11CEikListBox16GetColorUseListLER9CArrayFixI12TCoeColorUseE @ 1155 NONAME
	_ZNK11CEikListBox16HorizontalMarginEv @ 1156 NONAME
	_ZNK11CEikListBox16SelectionIndexesEv @ 1157 NONAME
	_ZNK11CEikListBox17DrawMatcherCursorEv @ 1158 NONAME
	_ZNK11CEikListBox17InputCapabilitiesEv @ 1159 NONAME
	_ZNK11CEikListBox17UpdateCurrentItemEi @ 1160 NONAME
	_ZNK11CEikListBox18AdjustTopItemIndexEv @ 1161 NONAME
	_ZNK11CEikListBox19SetCurrentItemIndexEi @ 1162 NONAME
	_ZNK11CEikListBox20HorizontalNudgeValueEv @ 1163 NONAME
	_ZNK11CEikListBox20VerticalInterItemGapEv @ 1164 NONAME
	_ZNK11CEikListBox21UpdateScrollBarThumbsEv @ 1165 NONAME
	_ZNK11CEikListBox22CountComponentControlsEv @ 1166 NONAME
	_ZNK11CEikListBox23ScrollToMakeItemVisibleEi @ 1167 NONAME
	_ZNK11CEikListBox24ViewRectHeightAdjustmentEv @ 1168 NONAME
	_ZNK11CEikListBox26CalcWidthBasedOnNumOfCharsEi @ 1169 NONAME
	_ZNK11CEikListBox26CreateScrollBarFrameLayoutER24TEikScrollBarFrameLayout @ 1170 NONAME
	_ZNK11CEikListBox26SetCurrentItemIndexAndDrawEi @ 1171 NONAME
	_ZNK11CEikListBox27CalcHeightBasedOnNumOfItemsEi @ 1172 NONAME
	_ZNK11CEikListBox29RestoreClientRectFromViewRectER5TRect @ 1173 NONAME
	_ZNK11CEikListBox30HorizScrollGranularityInPixelsEv @ 1174 NONAME
	_ZNK11CEikListBox33CalcWidthBasedOnRequiredItemWidthEi @ 1175 NONAME
	_ZNK11CEikListBox36AdjustRectHeightToWholeNumberOfItemsER5TRect @ 1176 NONAME
	_ZNK11CEikListBox4DrawERK5TRect @ 1177 NONAME
	_ZNK11CEikListBox4ViewEv @ 1178 NONAME
	_ZNK11CEikListBox5ModelEv @ 1179 NONAME
	_ZNK11CEikListBox8DrawItemEi @ 1180 NONAME
	_ZNK11CEikListBox9BackColorEv @ 1181 NONAME
	_ZNK11CEikMenuBar10ReduceRectER5TRect @ 1182 NONAME
	_ZNK11CEikMenuBar16GetColorUseListLER9CArrayFixI12TCoeColorUseE @ 1183 NONAME
	_ZNK11CEikMenuBar17InputCapabilitiesEv @ 1184 NONAME
	_ZNK11CEikMenuBar4DrawERK5TRect @ 1185 NONAME
	_ZNK11CEikMenuBar8DrawItemEi @ 1186 NONAME
	_ZNK11CEikToolBar10ReduceRectER5TRect @ 1187 NONAME
	_ZNK11CEikToolBar15DelayActivationEv @ 1188 NONAME
	_ZNK11CEikToolBar16GetColorUseListLER9CArrayFixI12TCoeColorUseE @ 1189 NONAME
	_ZNK11CEikToolBar19WriteInternalStateLER12RWriteStream @ 1190 NONAME
	_ZNK12CEikMenuPane12SelectedItemEv @ 1191 NONAME
	_ZNK12CEikMenuPane16ComponentControlEi @ 1192 NONAME
	_ZNK12CEikMenuPane16GetColorUseListLER9CArrayFixI12TCoeColorUseE @ 1193 NONAME
	_ZNK12CEikMenuPane17InputCapabilitiesEv @ 1194 NONAME
	_ZNK12CEikMenuPane17IsCascadeMenuPaneEv @ 1195 NONAME
	_ZNK12CEikMenuPane19NumberOfItemsInPaneEv @ 1196 NONAME
	_ZNK12CEikMenuPane22CountComponentControlsEv @ 1197 NONAME
	_ZNK12CEikMenuPane4DrawERK5TRect @ 1198 NONAME
	_ZNK12CListBoxData14IsSearchStringEv @ 1199 NONAME
	_ZNK12CListBoxData15FontBoundValuesEv @ 1200 NONAME
	_ZNK12CListBoxData28SkinBackgroundControlContextEv @ 1201 NONAME
	_ZNK12CListBoxData4FontERK19TListItemProperties @ 1202 NONAME
	_ZNK12CListBoxData7SetupGcERK19TListItemPropertiesR9CWindowGc @ 1203 NONAME
	_ZNK12CListBoxData8DrawItemER9CWindowGcRK5TRectRK7TDesC16RK5CFontiN16CGraphicsContext10TTextAlignE @ 1204 NONAME
	_ZNK12CListBoxView12TopItemIndexEv @ 1205 NONAME
	_ZNK12CListBoxView12VisibleWidthERK5TRect @ 1206 NONAME
	_ZNK12CListBoxView13DrawEmptyListERK5TRect @ 1207 NONAME
	_ZNK12CListBoxView13HScrollOffsetEv @ 1208 NONAME
	_ZNK12CListBoxView13ItemIsVisibleEi @ 1209 NONAME
	_ZNK12CListBoxView14ItemIsSelectedEi @ 1210 NONAME
	_ZNK12CListBoxView14RedrawDisabledEv @ 1211 NONAME
	_ZNK12CListBoxView15BottomItemIndexEv @ 1212 NONAME
	_ZNK12CListBoxView16CurrentItemIndexEv @ 1213 NONAME
	_ZNK12CListBoxView16MatcherCursorPosEv @ 1214 NONAME
	_ZNK12CListBoxView16SelectionIndexesEv @ 1215 NONAME
	_ZNK12CListBoxView16XYPosToItemIndexE6TPointRi @ 1216 NONAME
	_ZNK12CListBoxView20GetSelectionIndexesLEP9CArrayFixIiE @ 1217 NONAME
	_ZNK12CListBoxView26NumberOfItemsThatFitInRectERK5TRect @ 1218 NONAME
	_ZNK12CListBoxView34CalcNewTopItemIndexSoItemIsVisibleEi @ 1219 NONAME
	_ZNK12CListBoxView4DrawEPK5TRect @ 1220 NONAME
	_ZNK12CListBoxView7ItemPosEi @ 1221 NONAME
	_ZNK12CListBoxView8DrawItemEi @ 1222 NONAME
	_ZNK12CListBoxView8ItemSizeEi @ 1223 NONAME
	_ZNK12CListBoxView8ViewRectEv @ 1224 NONAME
	_ZNK12CListBoxView9BackColorEv @ 1225 NONAME
	_ZNK12CListBoxView9DataWidthEv @ 1226 NONAME
	_ZNK12CListBoxView9IsVisibleEv @ 1227 NONAME
	_ZNK12CListBoxView9TextColorEv @ 1228 NONAME
	_ZNK13CEikScrollBar13ThumbPositionEv @ 1229 NONAME
	_ZNK13CEikScrollBar16ComponentControlEi @ 1230 NONAME
	_ZNK13CEikScrollBar16ScrollBarBreadthEv @ 1231 NONAME
	_ZNK13CEikScrollBar22CountComponentControlsEv @ 1232 NONAME
	_ZNK14CAknEdwinState11CurrentCaseEv @ 1233 NONAME
	_ZNK14CAknEdwinState11DefaultCaseEv @ 1234 NONAME
	_ZNK14CAknEdwinState12FormAccessorEv @ 1235 NONAME
	_ZNK14CAknEdwinState13LocalLanguageEv @ 1236 NONAME
	_ZNK14CAknEdwinState13NumericKeymapEv @ 1237 NONAME
	_ZNK14CAknEdwinState14ObjectProviderEv @ 1238 NONAME
	_ZNK14CAknEdwinState14PermittedCasesEv @ 1239 NONAME
	_ZNK14CAknEdwinState15DefaultLanguageEv @ 1240 NONAME
	_ZNK14CAknEdwinState16CurrentInputModeEv @ 1241 NONAME
	_ZNK14CAknEdwinState16DefaultInputModeEv @ 1242 NONAME
	_ZNK14CAknEdwinState19PermittedInputModesEv @ 1243 NONAME
	_ZNK14CAknEdwinState21CurrentInlineEditSpanEv @ 1244 NONAME
	_ZNK14CAknEdwinState31SpecialCharacterTableResourceIdEv @ 1245 NONAME
	_ZNK14CAknEdwinState5FlagsEv @ 1246 NONAME
	_ZNK14CAknEdwinState7MenuBarEv @ 1247 NONAME
	_ZNK14CAknEdwinState9CcpuStateEv @ 1248 NONAME
	_ZNK14CEikButtonBase15CopyDrawStateToEPS_ @ 1249 NONAME
	_ZNK14CEikButtonBase16GetColorUseListLER9CArrayFixI12TCoeColorUseE @ 1250 NONAME
	_ZNK14CEikButtonBase17InputCapabilitiesEv @ 1251 NONAME
	_ZNK14CEikButtonBase19WriteInternalStateLER12RWriteStream @ 1252 NONAME
	_ZNK14CEikButtonBase5StateEv @ 1253 NONAME
	_ZNK14CEikButtonBase9DrawStateEv @ 1254 NONAME
	_ZNK14CEikButtonBase9IsPressedEv @ 1255 NONAME
	_ZNK14CEikMenuButton19WriteInternalStateLER12RWriteStream @ 1256 NONAME
	_ZNK14CEikTextButton5LabelEN21CEikCommandButtonBase15TWhichComponentE @ 1257 NONAME
	_ZNK15CEikButtonPanel10ButtonByIdEi @ 1258 NONAME
	_ZNK15CEikButtonPanel12ButtonForKeyEiRi @ 1259 NONAME
	_ZNK15CEikButtonPanel16ComponentControlEi @ 1260 NONAME
	_ZNK15CEikButtonPanel16GetColorUseListLER9CArrayFixI12TCoeColorUseE @ 1261 NONAME
	_ZNK15CEikButtonPanel17LabeledButtonByIdEi @ 1262 NONAME
	_ZNK15CEikButtonPanel19WriteInternalStateLER12RWriteStream @ 1263 NONAME
	_ZNK15CEikButtonPanel22CountComponentControlsEv @ 1264 NONAME
	_ZNK15CEikButtonPanel8ButtonIdEP11CCoeControl @ 1265 NONAME
	_ZNK15CEikHotKeyTable19CommandIdFromHotKeyEii @ 1266 NONAME
	_ZNK15CEikHotKeyTable19HotKeyFromCommandIdEiRiS0_ @ 1267 NONAME
	_ZNK15CEikTextListBox16GetColorUseListLER9CArrayFixI12TCoeColorUseE @ 1268 NONAME
	_ZNK15CEikTextListBox19WriteInternalStateLER12RWriteStream @ 1269 NONAME
	_ZNK15CEikTextListBox5ModelEv @ 1270 NONAME
	_ZNK15CListItemDrawer10MarkColumnEv @ 1271 NONAME
	_ZNK15CListItemDrawer10MarkGutterEv @ 1272 NONAME
	_ZNK15CListItemDrawer10PropertiesEi @ 1273 NONAME
	_ZNK15CListItemDrawer12DrawItemMarkEiiRK6TPoint @ 1274 NONAME
	_ZNK15CListItemDrawer15MinimumCellSizeEv @ 1275 NONAME
	_ZNK15CListItemDrawer17ItemWidthInPixelsEi @ 1276 NONAME
	_ZNK15CListItemDrawer17MatcherCursorRectERK7TDesC16iii @ 1277 NONAME
	_ZNK15CListItemDrawer19MatcherCursorAscentEi @ 1278 NONAME
	_ZNK15CListItemDrawer20VerticalInterItemGapEv @ 1279 NONAME
	_ZNK15CListItemDrawer28SkinBackgroundControlContextEv @ 1280 NONAME
	_ZNK15CListItemDrawer2GcEv @ 1281 NONAME
	_ZNK15CListItemDrawer4FontEi @ 1282 NONAME
	_ZNK15CListItemDrawer7ResetGcEv @ 1283 NONAME
	_ZNK15CListItemDrawer7SetupGcEi @ 1284 NONAME
	_ZNK15CListItemDrawer8DrawItemEi6TPointiiii @ 1285 NONAME
	_ZNK15CListItemDrawer9ClearRectERK5TRect @ 1286 NONAME
	_ZNK15CListItemDrawer9DrawFrameER9CWindowGcRK5TRecti @ 1287 NONAME
	_ZNK16CAknScrollButton28IsNormalScrollBarUsingButtonEv @ 1288 NONAME
	_ZNK16CAknScrollButton4TypeEv @ 1289 NONAME
	_ZNK16CEikBitmapButton7PictureEN21CEikCommandButtonBase15TWhichComponentE @ 1290 NONAME
	_ZNK16CEikControlGroup11ControlByIdEi @ 1291 NONAME
	_ZNK16CEikControlGroup11OrientationEv @ 1292 NONAME
	_ZNK16CEikControlGroup11StartCornerEv @ 1293 NONAME
	_ZNK16CEikControlGroup12ControlArrayEv @ 1294 NONAME
	_ZNK16CEikControlGroup14ControlSpacingERiS0_ @ 1295 NONAME
	_ZNK16CEikControlGroup16ComponentControlEi @ 1296 NONAME
	_ZNK16CEikControlGroup16DistributeEvenlyEv @ 1297 NONAME
	_ZNK16CEikControlGroup16GetColorUseListLER9CArrayFixI12TCoeColorUseE @ 1298 NONAME
	_ZNK16CEikControlGroup18ControlMinimumSizeEi @ 1299 NONAME
	_ZNK16CEikControlGroup18LargestControlSizeEv @ 1300 NONAME
	_ZNK16CEikControlGroup19WriteInternalStateLER12RWriteStream @ 1301 NONAME
	_ZNK16CEikControlGroup22CountComponentControlsEv @ 1302 NONAME
	_ZNK16CEikControlGroup4DrawERK5TRect @ 1303 NONAME
	_ZNK16CEikControlGroup7ControlEi @ 1304 NONAME
	_ZNK16CEikControlGroup8AdjacentEiiiii @ 1305 NONAME
	_ZNK16CEikControlGroup9ControlIdEP11CCoeControl @ 1306 NONAME
	_ZNK16CEikControlGroup9IndexByIdEi @ 1307 NONAME
	_ZNK16CEikMenuBarTitle10IconBitmapEv @ 1308 NONAME
	_ZNK16CEikMenuBarTitle8DrawIconER9CWindowGc5TRecti @ 1309 NONAME
	_ZNK16CEikMenuBarTitle8IconMaskEv @ 1310 NONAME
	_ZNK16CEikMenuPaneItem10IconBitmapEv @ 1311 NONAME
	_ZNK16CEikMenuPaneItem12DrawItemIconER9CWindowGc5TRectii @ 1312 NONAME
	_ZNK16CEikMenuPaneItem13ScaleableTextEv @ 1313 NONAME
	_ZNK16CEikMenuPaneItem8IconMaskEv @ 1314 NONAME
	_ZNK16CEikScrollButton4TypeEv @ 1315 NONAME
	_ZNK17CEikCommandButton5LabelEv @ 1316 NONAME
	_ZNK17CEikCommandButton7PictureEv @ 1317 NONAME
	_ZNK17CEikConsoleScreen10ScreenSizeEv @ 1318 NONAME
	_ZNK17CEikConsoleScreen12KeyModifiersEv @ 1319 NONAME
	_ZNK17CEikConsoleScreen4FontEv @ 1320 NONAME
	_ZNK17CEikConsoleScreen7KeyCodeEv @ 1321 NONAME
	_ZNK17CEikConsoleScreen9CursorPosEv @ 1322 NONAME
	_ZNK17CEikFileNameLabel16ComponentControlEi @ 1323 NONAME
	_ZNK17CEikFileNameLabel16GetColorUseListLER9CArrayFixI12TCoeColorUseE @ 1324 NONAME
	_ZNK17CEikFileNameLabel22CountComponentControlsEv @ 1325 NONAME
	_ZNK17CEikFileNameLabel4DrawERK5TRect @ 1326 NONAME
	_ZNK17CEikHotKeyControl19WriteInternalStateLER12RWriteStream @ 1327 NONAME
	_ZNK17CEikLabeledButton10HotKeyCodeEv @ 1328 NONAME
	_ZNK17CEikLabeledButton11PlainHotKeyEv @ 1329 NONAME
	_ZNK17CEikLabeledButton11ShowsHotKeyEv @ 1330 NONAME
	_ZNK17CEikLabeledButton16GetColorUseListLER9CArrayFixI12TCoeColorUseE @ 1331 NONAME
	_ZNK17CEikLabeledButton17InputCapabilitiesEv @ 1332 NONAME
	_ZNK17CEikLabeledButton19WriteInternalStateLER12RWriteStream @ 1333 NONAME
	_ZNK17CEikLabeledButton5LabelEv @ 1334 NONAME
	_ZNK17CEikLabeledButton6ButtonEv @ 1335 NONAME
	_ZNK17CEikMenuPaneTitle16GetColorUseListLER9CArrayFixI12TCoeColorUseE @ 1336 NONAME
	_ZNK17CEikMenuPaneTitle4DrawERK5TRect @ 1337 NONAME
	_ZNK17CEikMenuPaneTitle7MarginsEv @ 1338 NONAME
	_ZNK17CTextListBoxModel13ItemTextArrayEv @ 1339 NONAME
	_ZNK17CTextListBoxModel13NumberOfItemsEv @ 1340 NONAME
	_ZNK17CTextListBoxModel18MatchableTextArrayEv @ 1341 NONAME
	_ZNK17CTextListBoxModel22ItemArrayOwnershipTypeEv @ 1342 NONAME
	_ZNK17CTextListBoxModel8ItemTextEi @ 1343 NONAME
	_ZNK18CEikAlignedControl19WriteInternalStateLER12RWriteStream @ 1344 NONAME
	_ZNK18CEikConsoleControl11VisibleSizeEv @ 1345 NONAME
	_ZNK18CEikConsoleControl16ComponentControlEi @ 1346 NONAME
	_ZNK18CEikConsoleControl16GetColorUseListLER9CArrayFixI12TCoeColorUseE @ 1347 NONAME
	_ZNK18CEikConsoleControl19WriteInternalStateLER12RWriteStream @ 1348 NONAME
	_ZNK18CEikConsoleControl22CountComponentControlsEv @ 1349 NONAME
	_ZNK18CEikConsoleControl4DrawERK5TRect @ 1350 NONAME
	_ZNK18CEikScrollBarFrame15ScrollBarExistsEN13CEikScrollBar12TOrientationE @ 1351 NONAME
	_ZNK18CEikScrollBarFrame16ComponentControlEi @ 1352 NONAME
	_ZNK18CEikScrollBarFrame16ScrollBarBreadthEN13CEikScrollBar12TOrientationE @ 1353 NONAME
	_ZNK18CEikScrollBarFrame16TypeOfHScrollBarEv @ 1354 NONAME
	_ZNK18CEikScrollBarFrame16TypeOfVScrollBarEv @ 1355 NONAME
	_ZNK18CEikScrollBarFrame17DrawScrollBarsNowEv @ 1356 NONAME
	_ZNK18CEikScrollBarFrame17VerticalScrollBarEv @ 1357 NONAME
	_ZNK18CEikScrollBarFrame18GetScrollBarHandleEN13CEikScrollBar12TOrientationE @ 1358 NONAME
	_ZNK18CEikScrollBarFrame19ScrollBarVisibilityEN13CEikScrollBar12TOrientationE @ 1359 NONAME
	_ZNK18CEikScrollBarFrame20IsArrowHeadScrollBarEi @ 1360 NONAME
	_ZNK18CEikScrollBarFrame22CountComponentControlsEv @ 1361 NONAME
	_ZNK18CEikSnakingListBox11ColumnWidthEv @ 1362 NONAME
	_ZNK18CEikSnakingListBox15SetTopItemIndexEi @ 1363 NONAME
	_ZNK18CEikSnakingListBox16GetColorUseListLER9CArrayFixI12TCoeColorUseE @ 1364 NONAME
	_ZNK18CEikSnakingListBox18AdjustTopItemIndexEv @ 1365 NONAME
	_ZNK18CEikSnakingListBox20HorizontalNudgeValueEv @ 1366 NONAME
	_ZNK18CEikSnakingListBox29RestoreClientRectFromViewRectER5TRect @ 1367 NONAME
	_ZNK18CEikSnakingListBox30HorizScrollGranularityInPixelsEv @ 1368 NONAME
	_ZNK18CEikSnakingListBox36AdjustRectHeightToWholeNumberOfItemsER5TRect @ 1369 NONAME
	_ZNK18CEikStatusPaneBase10ReduceRectER5TRect @ 1370 NONAME
	_ZNK18CEikStatusPaneBase16PaneCapabilitiesE4TUid @ 1371 NONAME
	_ZNK18CEikStatusPaneBase17ContainerControlLE4TUid @ 1372 NONAME
	_ZNK18CEikStatusPaneBase18CurrentLayoutResIdEv @ 1373 NONAME
	_ZNK18CEikStatusPaneBase5FlagsEv @ 1374 NONAME
	_ZNK18CEikStatusPaneBase7IsFadedEv @ 1375 NONAME
	_ZNK18CEikStatusPaneBase8ControlLE4TUid @ 1376 NONAME
	_ZNK18CEikStatusPaneBase8IsDimmedEv @ 1377 NONAME
	_ZNK18CEikStatusPaneBase9GetShapeLER7TRegionii @ 1378 NONAME
	_ZNK18CEikStatusPaneBase9IsVisibleEv @ 1379 NONAME
	_ZNK18CEikStatusPaneBase9PaneRectLE4TUid @ 1380 NONAME
	_ZNK18TEikScrollBarModel11MaxThumbPosEv @ 1381 NONAME
	_ZNK18TEikScrollBarModel15ScrollBarUsefulEv @ 1382 NONAME
	_ZNK18TEikScrollBarModeleqES_ @ 1383 NONAME
	_ZNK19CEikBorderedControl16GetColorUseListLER9CArrayFixI12TCoeColorUseE @ 1384 NONAME
	_ZNK19CEikBorderedControl19WriteInternalStateLER12RWriteStream @ 1385 NONAME
	_ZNK19CEikBorderedControl4DrawERK5TRect @ 1386 NONAME
	_ZNK19CEikBorderedControl6BorderEv @ 1387 NONAME
	_ZNK19CEikBorderedControl9HasBorderEv @ 1388 NONAME
	_ZNK19CSnakingListBoxView12VisibleWidthERK5TRect @ 1389 NONAME
	_ZNK19CSnakingListBoxView13DrawItemRangeEii @ 1390 NONAME
	_ZNK19CSnakingListBoxView15DrawColumnRangeEii @ 1391 NONAME
	_ZNK19CSnakingListBoxView16XYPosToItemIndexE6TPointRi @ 1392 NONAME
	_ZNK19CSnakingListBoxView20ClearUnusedItemSpaceEii @ 1393 NONAME
	_ZNK19CSnakingListBoxView22NumberOfItemsPerColumnEv @ 1394 NONAME
	_ZNK19CSnakingListBoxView26NumberOfItemsThatFitInRectERK5TRect @ 1395 NONAME
	_ZNK19CSnakingListBoxView33CalcItemIndexFromRowAndColIndexesERiii @ 1396 NONAME
	_ZNK19CSnakingListBoxView33CalcRowAndColIndexesFromItemIndexEiRiS0_ @ 1397 NONAME
	_ZNK19CSnakingListBoxView34CalcNewTopItemIndexSoItemIsVisibleEi @ 1398 NONAME
	_ZNK19CSnakingListBoxView4DrawEPK5TRect @ 1399 NONAME
	_ZNK19CSnakingListBoxView7ItemPosEi @ 1400 NONAME
	_ZNK19CSnakingListBoxView8ItemSizeEi @ 1401 NONAME
	_ZNK19CTextListItemDrawer12DrawItemTextEiRK5TRectiii @ 1402 NONAME
	_ZNK19CTextListItemDrawer14DoDrawItemTextERK7TDesC16RK5TRectiiii @ 1403 NONAME
	_ZNK19CTextListItemDrawer14DrawActualItemEiRK5TRectiiii @ 1404 NONAME
	_ZNK19CTextListItemDrawer15MinimumCellSizeEv @ 1405 NONAME
	_ZNK19CTextListItemDrawer17ItemWidthInPixelsEi @ 1406 NONAME
	_ZNK19CTextListItemDrawer17MatcherCursorRectERK7TDesC16iii @ 1407 NONAME
	_ZNK19CTextListItemDrawer19MatcherCursorAscentEi @ 1408 NONAME
	_ZNK19CTextListItemDrawer4FontEi @ 1409 NONAME
	_ZNK19CTextListItemDrawer7ResetGcEv @ 1410 NONAME
	_ZNK19TAknEditorCaseState11CurrentCaseEv @ 1411 NONAME
	_ZNK19TAknEditorCaseState12PreviousCaseEv @ 1412 NONAME
	_ZNK19TAknEditorCaseState27PreviousCaseUsedToEnterTextEv @ 1413 NONAME
	_ZNK19TAknEditorCaseState9IsFlagSetENS_15TCaseStateFlagsE @ 1414 NONAME
	_ZNK21CAknScreenClearerBase4DrawERK5TRect @ 1415 NONAME
	_ZNK21CEikCommandButtonBase14PrepareContextER9CWindowGc @ 1416 NONAME
	_ZNK21CEikCommandButtonBase16ComponentControlEi @ 1417 NONAME
	_ZNK21CEikCommandButtonBase16GetColorUseListLER9CArrayFixI12TCoeColorUseE @ 1418 NONAME
	_ZNK21CEikCommandButtonBase19WriteInternalStateLER12RWriteStream @ 1419 NONAME
	_ZNK21CEikCommandButtonBase22CountComponentControlsEv @ 1420 NONAME
	_ZNK21CEikCommandButtonBase4DrawERK5TRect @ 1421 NONAME
	_ZNK21CEikListBoxTextEditor19WriteInternalStateLER12RWriteStream @ 1422 NONAME
	_ZNK21CEikListBoxTextEditor9ItemIndexEv @ 1423 NONAME
	_ZNK22CEikSnakingTextListBox16GetColorUseListLER9CArrayFixI12TCoeColorUseE @ 1424 NONAME
	_ZNK22CEikSnakingTextListBox5ModelEv @ 1425 NONAME
	_ZNK23CAknDoubleSpanScrollBar16ComponentControlEi @ 1426 NONAME
	_ZNK23CAknDoubleSpanScrollBar22CountComponentControlsEv @ 1427 NONAME
	_ZNK23CEikStatusPaneModelBase18CurrentLayoutResIdEv @ 1428 NONAME
	_ZNK24CEikButtonGroupContainer10ButtonByIdEi @ 1429 NONAME
	_ZNK24CEikButtonGroupContainer10ReduceRectER5TRect @ 1430 NONAME
	_ZNK24CEikButtonGroupContainer11ButtonCountEv @ 1431 NONAME
	_ZNK24CEikButtonGroupContainer11MaxCommandsEv @ 1432 NONAME
	_ZNK24CEikButtonGroupContainer12PositionByIdEi @ 1433 NONAME
	_ZNK24CEikButtonGroupContainer13ControlOrNullEi @ 1434 NONAME
	_ZNK24CEikButtonGroupContainer15DelayActivationEv @ 1435 NONAME
	_ZNK24CEikButtonGroupContainer15IsCommandDimmedEi @ 1436 NONAME
	_ZNK24CEikButtonGroupContainer16CalcMinimumSizeLEi @ 1437 NONAME
	_ZNK24CEikButtonGroupContainer16IsCommandInGroupEi @ 1438 NONAME
	_ZNK24CEikButtonGroupContainer16IsCommandVisibleEi @ 1439 NONAME
	_ZNK24CEikButtonGroupContainer19CommandButtonOrNullEi @ 1440 NONAME
	_ZNK24CEikButtonGroupContainer19WriteInternalStateLER12RWriteStream @ 1441 NONAME
	_ZNK24CEikButtonGroupContainer8LocationEv @ 1442 NONAME
	_ZNK25CEikInverterCommandButton14PrepareContextER9CWindowGc @ 1443 NONAME
	_ZNK25CEikInverterCommandButton19WriteInternalStateLER12RWriteStream @ 1444 NONAME
	_ZNK27CEikTwoPictureCommandButton14PrepareContextER9CWindowGc @ 1445 NONAME
	_ZNK27CEikTwoPictureCommandButton19WriteInternalStateLER12RWriteStream @ 1446 NONAME
	_ZNK27CEikTwoPictureCommandButton4DrawERK5TRect @ 1447 NONAME
	_ZNK27CEikTwoPictureCommandButton7PictureEv @ 1448 NONAME
	_ZNK28TAknDoubleSpanScrollBarModel10ScrollSpanEv @ 1449 NONAME
	_ZNK28TAknDoubleSpanScrollBarModel10WindowSizeEv @ 1450 NONAME
	_ZNK28TAknDoubleSpanScrollBarModel13FieldPositionEv @ 1451 NONAME
	_ZNK28TAknDoubleSpanScrollBarModel13FocusPositionEv @ 1452 NONAME
	_ZNK28TAknDoubleSpanScrollBarModel9FieldSizeEv @ 1453 NONAME
	_ZNK7CEikCba16IsCommandInGroupEi @ 1454 NONAME
	_ZNK9CEikEdwin10CcpuCanCutEv @ 1455 NONAME
	_ZNK9CEikEdwin10IsReadOnlyEv @ 1456 NONAME
	_ZNK9CEikEdwin10TextLayoutEv @ 1457 NONAME
	_ZNK9CEikEdwin10TextLengthEv @ 1458 NONAME
	_ZNK9CEikEdwin11CcpuCanCopyEv @ 1459 NONAME
	_ZNK9CEikEdwin11CcpuCanUndoEv @ 1460 NONAME
	_ZNK9CEikEdwin11GetWordInfoEiRiS0_ @ 1461 NONAME
	_ZNK9CEikEdwin11LayoutWidthEv @ 1462 NONAME
	_ZNK9CEikEdwin11TrappedDrawERK5TRect @ 1463 NONAME
	_ZNK9CEikEdwin12CcpuCanPasteEv @ 1464 NONAME
	_ZNK9CEikEdwin12SupportsUndoEv @ 1465 NONAME
	_ZNK9CEikEdwin13AknEdwinFlagsEv @ 1466 NONAME
	_ZNK9CEikEdwin13CcpuIsFocusedEv @ 1467 NONAME
	_ZNK9CEikEdwin13MaximumHeightEv @ 1468 NONAME
	_ZNK9CEikEdwin13MinimumHeightEv @ 1469 NONAME
	_ZNK9CEikEdwin14GetTextInHBufLEv @ 1470 NONAME
	_ZNK9CEikEdwin14OnlyASCIICharsEv @ 1471 NONAME
	_ZNK9CEikEdwin15LineCursorWidthEv @ 1472 NONAME
	_ZNK9CEikEdwin15SelectionLengthEv @ 1473 NONAME
	_ZNK9CEikEdwin16ComponentControlEi @ 1474 NONAME
	_ZNK9CEikEdwin16GetColorUseListLER9CArrayFixI12TCoeColorUseE @ 1475 NONAME
	_ZNK9CEikEdwin17InputCapabilitiesEv @ 1476 NONAME
	_ZNK9CEikEdwin18CEikEdwinExtension12FormAccessorEv @ 1477 NONAME
	_ZNK9CEikEdwin18CEikEdwinExtension18FormCursorModifierEv @ 1478 NONAME
	_ZNK9CEikEdwin19WriteInternalStateLER12RWriteStream @ 1479 NONAME
	_ZNK9CEikEdwin20MaximumHeightInLinesEv @ 1480 NONAME
	_ZNK9CEikEdwin22CountComponentControlsEv @ 1481 NONAME
	_ZNK9CEikEdwin25UpperFullFormattingLengthEv @ 1482 NONAME
	_ZNK9CEikEdwin26NonPrintingCharsVisibilityEv @ 1483 NONAME
	_ZNK9CEikEdwin28LowerPartialFormattingLengthEv @ 1484 NONAME
	_ZNK9CEikEdwin4DrawERK5TRect @ 1485 NONAME
	_ZNK9CEikEdwin4TextEv @ 1486 NONAME
	_ZNK9CEikEdwin7CanUndoEv @ 1487 NONAME
	_ZNK9CEikEdwin7GetTextER6TDes16 @ 1488 NONAME
	_ZNK9CEikEdwin7MarginsEv @ 1489 NONAME
	_ZNK9CEikEdwin8TextViewEv @ 1490 NONAME
	_ZNK9CEikEdwin9CursorPosEv @ 1491 NONAME
	_ZNK9CEikEdwin9SelectionEv @ 1492 NONAME
	_ZNK9CEikEdwin9UserFlagsEv @ 1493 NONAME
	_ZNK9CEikImage19WriteInternalStateLER12RWriteStream @ 1494 NONAME
	_ZNK9CEikImage4DrawERK5TRect @ 1495 NONAME
	_ZNK9CEikImage4MaskEv @ 1496 NONAME
	_ZNK9CEikImage6BitmapEv @ 1497 NONAME
	_ZNK9CEikLabel15CalcMinimumSizeER7TPtrC16 @ 1498 NONAME
	_ZNK9CEikLabel16GetColorUseListLER9CArrayFixI12TCoeColorUseE @ 1499 NONAME
	_ZNK9CEikLabel19BufferReserveLengthEv @ 1500 NONAME
	_ZNK9CEikLabel19WriteInternalStateLER12RWriteStream @ 1501 NONAME
	_ZNK9CEikLabel20PixelGapBetweenLinesEv @ 1502 NONAME
	_ZNK9CEikLabel29LogicalToVisualConversionUsedEv @ 1503 NONAME
	_ZNK9CEikLabel4DrawERK5TRect @ 1504 NONAME
	_ZTI11CEikListBox @ 1505 NONAME ; #<TI>#
	_ZTI11CEikMenuBar @ 1506 NONAME ; #<TI>#
	_ZTI11CEikToolBar @ 1507 NONAME ; #<TI>#
	_ZTI12CEikMenuPane @ 1508 NONAME ; #<TI>#
	_ZTI12CListBoxData @ 1509 NONAME ; #<TI>#
	_ZTI12CListBoxView @ 1510 NONAME ; #<TI>#
	_ZTI13CEikCbaButton @ 1511 NONAME ; #<TI>#
	_ZTI13CEikKeyWindow @ 1512 NONAME ; #<TI>#
	_ZTI13CEikScrollBar @ 1513 NONAME ; #<TI>#
	_ZTI13MListBoxModel @ 1514 NONAME ; #<TI>#
	_ZTI14CAknEdwinState @ 1515 NONAME ; #<TI>#
	_ZTI14CEikButtonBase @ 1516 NONAME ; #<TI>#
	_ZTI14CEikMenuButton @ 1517 NONAME ; #<TI>#
	_ZTI14CEikTextButton @ 1518 NONAME ; #<TI>#
	_ZTI15CAknCcpuSupport @ 1519 NONAME ; #<TI>#
	_ZTI15CEikButtonPanel @ 1520 NONAME ; #<TI>#
	_ZTI15CEikHotKeyTable @ 1521 NONAME ; #<TI>#
	_ZTI15CEikTextListBox @ 1522 NONAME ; #<TI>#
	_ZTI15CListItemDrawer @ 1523 NONAME ; #<TI>#
	_ZTI15MEikButtonGroup @ 1524 NONAME ; #<TI>#
	_ZTI16CEikAppUiFactory @ 1525 NONAME ; #<TI>#
	_ZTI16CEikBitmapButton @ 1526 NONAME ; #<TI>#
	_ZTI16CEikControlGroup @ 1527 NONAME ; #<TI>#
	_ZTI16CEikMenuBarTitle @ 1528 NONAME ; #<TI>#
	_ZTI16CEikMenuPaneItem @ 1529 NONAME ; #<TI>#
	_ZTI16CEikScrollButton @ 1530 NONAME ; #<TI>#
	_ZTI17CEikCommandButton @ 1531 NONAME ; #<TI>#
	_ZTI17CEikConsoleScreen @ 1532 NONAME ; #<TI>#
	_ZTI17CEikFileNameLabel @ 1533 NONAME ; #<TI>#
	_ZTI17CEikLabeledButton @ 1534 NONAME ; #<TI>#
	_ZTI17CEikMenuPaneTitle @ 1535 NONAME ; #<TI>#
	_ZTI17CExtendedItemData @ 1536 NONAME ; #<TI>#
	_ZTI17CTextListBoxModel @ 1537 NONAME ; #<TI>#
	_ZTI17MEikListBoxEditor @ 1538 NONAME ; #<TI>#
	_ZTI17MTextListBoxModel @ 1539 NONAME ; #<TI>#
	_ZTI18CEikAlignedControl @ 1540 NONAME ; #<TI>#
	_ZTI18CEikConsoleControl @ 1541 NONAME ; #<TI>#
	_ZTI18CEikScrollBarFrame @ 1542 NONAME ; #<TI>#
	_ZTI18CEikSnakingListBox @ 1543 NONAME ; #<TI>#
	_ZTI18CEikStatusPaneBase @ 1544 NONAME ; #<TI>#
	_ZTI19CEikBorderedControl @ 1545 NONAME ; #<TI>#
	_ZTI19CSnakingListBoxView @ 1546 NONAME ; #<TI>#
	_ZTI19CTextListItemDrawer @ 1547 NONAME ; #<TI>#
	_ZTI21CAknEdwinFormAccessor @ 1548 NONAME ; #<TI>#
	_ZTI21CAknScreenClearerBase @ 1549 NONAME ; #<TI>#
	_ZTI21CEikCommandButtonBase @ 1550 NONAME ; #<TI>#
	_ZTI21CEikEnhancedCbaButton @ 1551 NONAME ; #<TI>#
	_ZTI21CEikListBoxTextEditor @ 1552 NONAME ; #<TI>#
	_ZTI22CEikArrowHeadScrollBar @ 1553 NONAME ; #<TI>#
	_ZTI22CEikSnakingTextListBox @ 1554 NONAME ; #<TI>#
	_ZTI22TAvkonEditorCustomWrap @ 1555 NONAME ; #<TI>#
	_ZTI23CAknDoubleSpanScrollBar @ 1556 NONAME ; #<TI>#
	_ZTI23CEikStatusPaneModelBase @ 1557 NONAME ; #<TI>#
	_ZTI25CEikAppUiFactoryExtension @ 1558 NONAME ; #<TI>#
	_ZTI25CEikInverterCommandButton @ 1559 NONAME ; #<TI>#
	_ZTI27CEikTwoPictureCommandButton @ 1560 NONAME ; #<TI>#
	_ZTI9CEikEdwin @ 1561 NONAME ; #<TI>#
	_ZTI9CEikImage @ 1562 NONAME ; #<TI>#
	_ZTI9CEikLabel @ 1563 NONAME ; #<TI>#
	_ZTIN11CEikMenuBar11CTitleArrayE @ 1564 NONAME ; #<TI>#
	_ZTIN12CEikMenuPane10CItemArrayE @ 1565 NONAME ; #<TI>#
	_ZTIN12CEikMenuPane13CMenuScrollerE @ 1566 NONAME ; #<TI>#
	_ZTIN18CEikStatusPaneBase21TSetRectAndVisibilityE @ 1567 NONAME ; #<TI>#
	_ZTIN9CEikEdwin11CUndoBufferE @ 1568 NONAME ; #<TI>#
	_ZTIN9CEikEdwin18CEikEdwinExtension25TAknEdwinPictographDrawerE @ 1569 NONAME ; #<TI>#
	_ZTV11CEikListBox @ 1570 NONAME ; #<VT>#
	_ZTV11CEikMenuBar @ 1571 NONAME ; #<VT>#
	_ZTV11CEikToolBar @ 1572 NONAME ; #<VT>#
	_ZTV12CEikMenuPane @ 1573 NONAME ; #<VT>#
	_ZTV12CListBoxData @ 1574 NONAME ; #<VT>#
	_ZTV12CListBoxView @ 1575 NONAME ; #<VT>#
	_ZTV13CEikCbaButton @ 1576 NONAME ; #<VT>#
	_ZTV13CEikKeyWindow @ 1577 NONAME ; #<VT>#
	_ZTV13CEikScrollBar @ 1578 NONAME ; #<VT>#
	_ZTV13MListBoxModel @ 1579 NONAME ; #<VT>#
	_ZTV14CAknEdwinState @ 1580 NONAME ; #<VT>#
	_ZTV14CEikButtonBase @ 1581 NONAME ; #<VT>#
	_ZTV14CEikMenuButton @ 1582 NONAME ; #<VT>#
	_ZTV14CEikTextButton @ 1583 NONAME ; #<VT>#
	_ZTV15CAknCcpuSupport @ 1584 NONAME ; #<VT>#
	_ZTV15CEikButtonPanel @ 1585 NONAME ; #<VT>#
	_ZTV15CEikHotKeyTable @ 1586 NONAME ; #<VT>#
	_ZTV15CEikTextListBox @ 1587 NONAME ; #<VT>#
	_ZTV15CListItemDrawer @ 1588 NONAME ; #<VT>#
	_ZTV15MEikButtonGroup @ 1589 NONAME ; #<VT>#
	_ZTV16CEikAppUiFactory @ 1590 NONAME ; #<VT>#
	_ZTV16CEikBitmapButton @ 1591 NONAME ; #<VT>#
	_ZTV16CEikControlGroup @ 1592 NONAME ; #<VT>#
	_ZTV16CEikMenuBarTitle @ 1593 NONAME ; #<VT>#
	_ZTV16CEikMenuPaneItem @ 1594 NONAME ; #<VT>#
	_ZTV16CEikScrollButton @ 1595 NONAME ; #<VT>#
	_ZTV17CEikCommandButton @ 1596 NONAME ; #<VT>#
	_ZTV17CEikConsoleScreen @ 1597 NONAME ; #<VT>#
	_ZTV17CEikFileNameLabel @ 1598 NONAME ; #<VT>#
	_ZTV17CEikLabeledButton @ 1599 NONAME ; #<VT>#
	_ZTV17CEikMenuPaneTitle @ 1600 NONAME ; #<VT>#
	_ZTV17CExtendedItemData @ 1601 NONAME ; #<VT>#
	_ZTV17CTextListBoxModel @ 1602 NONAME ; #<VT>#
	_ZTV17MEikListBoxEditor @ 1603 NONAME ; #<VT>#
	_ZTV17MTextListBoxModel @ 1604 NONAME ; #<VT>#
	_ZTV18CEikAlignedControl @ 1605 NONAME ; #<VT>#
	_ZTV18CEikConsoleControl @ 1606 NONAME ; #<VT>#
	_ZTV18CEikScrollBarFrame @ 1607 NONAME ; #<VT>#
	_ZTV18CEikSnakingListBox @ 1608 NONAME ; #<VT>#
	_ZTV18CEikStatusPaneBase @ 1609 NONAME ; #<VT>#
	_ZTV19CEikBorderedControl @ 1610 NONAME ; #<VT>#
	_ZTV19CSnakingListBoxView @ 1611 NONAME ; #<VT>#
	_ZTV19CTextListItemDrawer @ 1612 NONAME ; #<VT>#
	_ZTV21CAknEdwinFormAccessor @ 1613 NONAME ; #<VT>#
	_ZTV21CAknScreenClearerBase @ 1614 NONAME ; #<VT>#
	_ZTV21CEikCommandButtonBase @ 1615 NONAME ; #<VT>#
	_ZTV21CEikEnhancedCbaButton @ 1616 NONAME ; #<VT>#
	_ZTV21CEikListBoxTextEditor @ 1617 NONAME ; #<VT>#
	_ZTV22CEikArrowHeadScrollBar @ 1618 NONAME ; #<VT>#
	_ZTV22CEikSnakingTextListBox @ 1619 NONAME ; #<VT>#
	_ZTV22TAvkonEditorCustomWrap @ 1620 NONAME ; #<VT>#
	_ZTV23CAknDoubleSpanScrollBar @ 1621 NONAME ; #<VT>#
	_ZTV23CEikStatusPaneModelBase @ 1622 NONAME ; #<VT>#
	_ZTV25CEikAppUiFactoryExtension @ 1623 NONAME ; #<VT>#
	_ZTV25CEikInverterCommandButton @ 1624 NONAME ; #<VT>#
	_ZTV27CEikTwoPictureCommandButton @ 1625 NONAME ; #<VT>#
	_ZTV9CEikEdwin @ 1626 NONAME ; #<VT>#
	_ZTV9CEikImage @ 1627 NONAME ; #<VT>#
	_ZTV9CEikLabel @ 1628 NONAME ; #<VT>#
	_ZTVN11CEikMenuBar11CTitleArrayE @ 1629 NONAME ; #<VT>#
	_ZTVN12CEikMenuPane10CItemArrayE @ 1630 NONAME ; #<VT>#
	_ZTVN12CEikMenuPane13CMenuScrollerE @ 1631 NONAME ; #<VT>#
	_ZTVN18CEikStatusPaneBase21TSetRectAndVisibilityE @ 1632 NONAME ; #<VT>#
	_ZTVN9CEikEdwin11CUndoBufferE @ 1633 NONAME ; #<VT>#
	_ZTVN9CEikEdwin18CEikEdwinExtension25TAknEdwinPictographDrawerE @ 1634 NONAME ; #<VT>#
	_ZThn100_N9CEikEdwin10CcpuPasteLEv @ 1635 NONAME ; #<thunk>#
	_ZThn100_N9CEikEdwin8CcpuCutLEv @ 1636 NONAME ; #<thunk>#
	_ZThn100_N9CEikEdwin9CcpuCopyLEv @ 1637 NONAME ; #<thunk>#
	_ZThn100_N9CEikEdwin9CcpuUndoLEv @ 1638 NONAME ; #<thunk>#
	_ZThn100_NK9CEikEdwin10CcpuCanCutEv @ 1639 NONAME ; #<thunk>#
	_ZThn100_NK9CEikEdwin11CcpuCanCopyEv @ 1640 NONAME ; #<thunk>#
	_ZThn100_NK9CEikEdwin11CcpuCanUndoEv @ 1641 NONAME ; #<thunk>#
	_ZThn100_NK9CEikEdwin12CcpuCanPasteEv @ 1642 NONAME ; #<thunk>#
	_ZThn100_NK9CEikEdwin13CcpuIsFocusedEv @ 1643 NONAME ; #<thunk>#
	_ZThn104_NK21CEikCommandButtonBase14PrepareContextER9CWindowGc @ 1644 NONAME ; #<thunk>#
	_ZThn104_NK25CEikInverterCommandButton14PrepareContextER9CWindowGc @ 1645 NONAME ; #<thunk>#
	_ZThn104_NK27CEikTwoPictureCommandButton14PrepareContextER9CWindowGc @ 1646 NONAME ; #<thunk>#
	_ZThn124_N11CEikToolBar19HandleControlEventLEP11CCoeControlN19MCoeControlObserver9TCoeEventE @ 1647 NONAME ; #<thunk>#
	_ZThn124_N7CEikCba14ReplaceCommandEii @ 1648 NONAME ; #<thunk>#
	_ZThn124_N7CEikCba17OfferCommandListLERK6RArrayIiE @ 1649 NONAME ; #<thunk>#
	_ZThn124_N7CEikCba17OfferCommandListLEi @ 1650 NONAME ; #<thunk>#
	_ZThn124_NK7CEikCba16IsCommandInGroupEi @ 1651 NONAME ; #<thunk>#
	_ZThn132_N11CEikToolBar15SetBoundingRectERK5TRect @ 1652 NONAME ; #<thunk>#
	_ZThn132_NK11CEikToolBar10ReduceRectER5TRect @ 1653 NONAME ; #<thunk>#
	_ZThn148_N14CEikMenuButton11SetEmphasisEP11CCoeControli @ 1654 NONAME ; #<thunk>#
	_ZThn148_N14CEikMenuButton15ProcessCommandLEi @ 1655 NONAME ; #<thunk>#
	_ZThn4_N12CEikMenuPane15MopSupplyObjectE8TTypeUid @ 1656 NONAME ; #<thunk>#
	_ZThn4_N17CTextListBoxModel22MListBoxModel_ReservedEv @ 1657 NONAME ; #<thunk>#
	_ZThn4_N17CTextListBoxModelD0Ev @ 1658 NONAME ; #<thunk>#
	_ZThn4_N17CTextListBoxModelD1Ev @ 1659 NONAME ; #<thunk>#
	_ZThn4_N9CEikEdwin15MopSupplyObjectE8TTypeUid @ 1660 NONAME ; #<thunk>#
	_ZThn4_NK17CTextListBoxModel13NumberOfItemsEv @ 1661 NONAME ; #<thunk>#
	_ZThn4_NK17CTextListBoxModel18MatchableTextArrayEv @ 1662 NONAME ; #<thunk>#
	_ZThn4_NK17CTextListBoxModel8ItemTextEi @ 1663 NONAME ; #<thunk>#
	_ZThn76_N15CAknCcpuSupport15ProcessCommandLEi @ 1664 NONAME ; #<thunk>#
	_ZThn76_N15CAknCcpuSupport16DynInitMenuPaneLEiP12CEikMenuPane @ 1665 NONAME ; #<thunk>#
	_ZThn76_N15CEikButtonPanel19HandleControlEventLEP11CCoeControlN19MCoeControlObserver9TCoeEventE @ 1666 NONAME ; #<thunk>#
	_ZThn76_N18CEikConsoleControl18HandleScrollEventLEP13CEikScrollBar15TEikScrollEvent @ 1667 NONAME ; #<thunk>#
	_ZThn76_N21CEikListBoxTextEditor12StopEditingLEv @ 1668 NONAME ; #<thunk>#
	_ZThn76_N21CEikListBoxTextEditor12UpdateModelLEv @ 1669 NONAME ; #<thunk>#
	_ZThn76_N21CEikListBoxTextEditor13StartEditingLERK11CCoeControlRK5TRectii @ 1670 NONAME ; #<thunk>#
	_ZThn76_N21CEikListBoxTextEditor28MEikListBoxEditor_Reserved_1Ev @ 1671 NONAME ; #<thunk>#
	_ZThn76_N21CEikListBoxTextEditor7ReleaseEv @ 1672 NONAME ; #<thunk>#
	_ZThn76_N21CEikListBoxTextEditor8ItemTextEv @ 1673 NONAME ; #<thunk>#
	_ZThn88_N11CEikListBox18HandleScrollEventLEP13CEikScrollBar15TEikScrollEvent @ 1674 NONAME ; #<thunk>#
	_ZThn88_N13CEikScrollBar19HandleControlEventLEP11CCoeControlN19MCoeControlObserver9TCoeEventE @ 1675 NONAME ; #<thunk>#
	_ZThn88_N9CEikEdwin18HandleScrollEventLEP13CEikScrollBar15TEikScrollEvent @ 1676 NONAME ; #<thunk>#
	_ZThn92_N9CEikEdwin11OnReformatLEPK9CTextView @ 1677 NONAME ; #<thunk>#
	_ZThn96_N9CEikEdwin12EditObserverEii @ 1678 NONAME ; #<thunk>#
	_ZN16CAknScrollButton4NewLENS_5TTypeENS_16TTypeOfScrollBarE @ 1679 NONAME
	_ZN10CAknButton10ConstructLEP8CGulIconS1_S1_S1_RK7TDesC16S4_i @ 1680 NONAME
	_ZN10CAknButton10ConstructLERK7TDesC16iiiiiiiiS2_S2_iRK11TAknsItemIDS5_S5_S5_ @ 1681 NONAME
	_ZN10CAknButton10ConstructLEv @ 1682 NONAME
	_ZN10CAknButton11ChangeStateEi @ 1683 NONAME
	_ZN10CAknButton11MakeVisibleEi @ 1684 NONAME
	_ZN10CAknButton11MinimumSizeEv @ 1685 NONAME
	_ZN10CAknButton11SetTextFontEPK5CFont @ 1686 NONAME
	_ZN10CAknButton11SizeChangedEv @ 1687 NONAME
	_ZN10CAknButton12FocusChangedE8TDrawNow @ 1688 NONAME
	_ZN10CAknButton14OfferKeyEventLERK9TKeyEvent10TEventCode @ 1689 NONAME
	_ZN10CAknButton14SetButtonFlagsEi @ 1690 NONAME
	_ZN10CAknButton15SetCurrentStateEii @ 1691 NONAME
	_ZN10CAknButton15SetTextColorIdsERK11TAknsItemIDi @ 1692 NONAME
	_ZN10CAknButton16SetHighlightRectERK5TRect @ 1693 NONAME
	_ZN10CAknButton16SetIconScaleModeE10TScaleMode @ 1694 NONAME
	_ZN10CAknButton18DisablePictographsEv @ 1695 NONAME
	_ZN10CAknButton18EnablePictographsLER23CAknPictographInterface @ 1696 NONAME
	_ZN10CAknButton18ExtensionInterfaceE4TUid @ 1697 NONAME
	_ZN10CAknButton19HandlePointerEventLERK13TPointerEvent @ 1698 NONAME
	_ZN10CAknButton19SetHelpNoteTimeoutsEii @ 1699 NONAME
	_ZN10CAknButton20HandleResourceChangeEi @ 1700 NONAME
	_ZN10CAknButton20PrepareForFocusGainLEv @ 1701 NONAME
	_ZN10CAknButton20PrepareForFocusLossLEv @ 1702 NONAME
	_ZN10CAknButton20SetFrameAndCenterIdsERK11TAknsItemIDS2_S2_S2_S2_S2_S2_S2_S2_S2_ @ 1703 NONAME
	_ZN10CAknButton20SetLongPressIntervalEi @ 1704 NONAME
	_ZN10CAknButton22ConstructFromResourceLER15TResourceReader @ 1705 NONAME
	_ZN10CAknButton22ConstructFromResourceLEi @ 1706 NONAME
	_ZN10CAknButton24SetTextVerticalAlignmentENS_10TAlignmentE @ 1707 NONAME
	_ZN10CAknButton26SetTextHorizontalAlignmentEN16CGraphicsContext10TTextAlignE @ 1708 NONAME
	_ZN10CAknButton4NewLEP8CGulIconS1_S1_S1_RK7TDesC16S4_ii @ 1709 NONAME
	_ZN10CAknButton4NewLER15TResourceReader @ 1710 NONAME
	_ZN10CAknButton4NewLERK7TDesC16iiiiiiiiS2_S2_iiRK11TAknsItemIDS5_S5_S5_ @ 1711 NONAME
	_ZN10CAknButton4NewLEi @ 1712 NONAME
	_ZN10CAknButton4NewLEv @ 1713 NONAME
	_ZN10CAknButton5NewLCEP8CGulIconS1_S1_S1_RK7TDesC16S4_ii @ 1714 NONAME
	_ZN10CAknButton5NewLCER15TResourceReader @ 1715 NONAME
	_ZN10CAknButton5NewLCERK7TDesC16iiiiiiiiS2_S2_iiRK11TAknsItemIDS5_S5_S5_ @ 1716 NONAME
	_ZN10CAknButton5NewLCEi @ 1717 NONAME
	_ZN10CAknButton5NewLCEv @ 1718 NONAME
	_ZN10CAknButton8HideHelpEv @ 1719 NONAME
	_ZN10CAknButton9ActivateLEv @ 1720 NONAME
	_ZN10CAknButton9AddStateLEP8CGulIconS1_S1_S1_RK7TDesC16S4_i @ 1721 NONAME
	_ZN10CAknButton9AddStateLERK7TDesC16iiiiiiiiS2_S2_iRK11TAknsItemIDS5_S5_S5_ @ 1722 NONAME
	_ZN10CAknButton9SetDimmedEi @ 1723 NONAME
	_ZN10CAknButton9ShowHelpLEv @ 1724 NONAME
	_ZN10CAknButtonC1Ei @ 1725 NONAME
	_ZN10CAknButtonC2Ei @ 1726 NONAME
	_ZN10CAknButtonD0Ev @ 1727 NONAME
	_ZN10CAknButtonD1Ev @ 1728 NONAME
	_ZN10CAknButtonD2Ev @ 1729 NONAME
	_ZN11CAknToolbar10RemoveItemEi @ 1730 NONAME
	_ZN11CAknToolbar11SetEmphasisEi @ 1731 NONAME
	_ZN11CAknToolbar11SizeChangedEv @ 1732 NONAME
	_ZN11CAknToolbar12FocusChangedE8TDrawNow @ 1733 NONAME
	_ZN11CAknToolbar13SetItemDimmedEiii @ 1734 NONAME
	_ZN11CAknToolbar14OfferKeyEventLERK9TKeyEvent10TEventCode @ 1735 NONAME
	_ZN11CAknToolbar14SetWithSlidingEi @ 1736 NONAME
	_ZN11CAknToolbar15MopSupplyObjectE8TTypeUid @ 1737 NONAME
	_ZN11CAknToolbar15ProcessCommandLEi @ 1738 NONAME
	_ZN11CAknToolbar15ToolbarObserverEv @ 1739 NONAME
	_ZN11CAknToolbar18ExtensionInterfaceE4TUid @ 1740 NONAME
	_ZN11CAknToolbar18SetToolbarObserverEP19MAknToolbarObserver @ 1741 NONAME
	_ZN11CAknToolbar19HandleControlEventLEP11CCoeControlN19MCoeControlObserver9TCoeEventE @ 1742 NONAME
	_ZN11CAknToolbar20HandleResourceChangeEi @ 1743 NONAME
	_ZN11CAknToolbar20SetToolbarVisibilityEi @ 1744 NONAME
	_ZN11CAknToolbar21SetInitialFocusedItemEi @ 1745 NONAME
	_ZN11CAknToolbar4NewLEi @ 1746 NONAME
	_ZN11CAknToolbar5NewLCEi @ 1747 NONAME
	_ZN11CAknToolbar8AddItemLEP11CCoeControliii @ 1748 NONAME
	_ZN11CAknToolbar8AddItemLEP11CCoeControliiii @ 1749 NONAME
	_ZN11CAknToolbar9SetDimmedEi @ 1750 NONAME
	_ZN11CAknToolbarD0Ev @ 1751 NONAME
	_ZN11CAknToolbarD1Ev @ 1752 NONAME
	_ZN11CAknToolbarD2Ev @ 1753 NONAME
	_ZN12CEikMenuPane16ItemDataByIndexLEi @ 1754 NONAME
	_ZN13CAknTouchPane11MakeVisibleEi @ 1755 NONAME
	_ZN13CAknTouchPane11SetObserverEP21MAknTouchPaneObserver @ 1756 NONAME
	_ZN13CAknTouchPane11SizeChangedEv @ 1757 NONAME
	_ZN13CAknTouchPane14OfferKeyEventLERK9TKeyEvent10TEventCode @ 1758 NONAME
	_ZN13CAknTouchPane17SetVisibilityModeENS_15TVisibilityModeE @ 1759 NONAME
	_ZN13CAknTouchPane19HandleControlEventLEP11CCoeControlN19MCoeControlObserver9TCoeEventE @ 1760 NONAME
	_ZN13CAknTouchPane19HandlePointerEventLERK13TPointerEvent @ 1761 NONAME
	_ZN13CAknTouchPane20ControlFromTouchPaneEi @ 1762 NONAME ABSENT
	_ZN13CAknTouchPane20HandleResourceChangeEi @ 1763 NONAME
	_ZN13CAknTouchPane22AddControlToTouchPaneLEP11CCoeControli @ 1764 NONAME ABSENT
	_ZN13CAknTouchPane26AllowInputMethodActivationEi @ 1765 NONAME
	_ZN13CAknTouchPane26RemoveControlFromTouchPaneEi @ 1766 NONAME ABSENT
	_ZN13CAknTouchPane4NewLEi @ 1767 NONAME
	_ZN13CAknTouchPane4NewLEv @ 1768 NONAME
	_ZN13CAknTouchPaneC1Ev @ 1769 NONAME ABSENT
	_ZN13CAknTouchPaneC2Ev @ 1770 NONAME ABSENT
	_ZN13CAknTouchPaneD0Ev @ 1771 NONAME
	_ZN13CAknTouchPaneD1Ev @ 1772 NONAME
	_ZN13CAknTouchPaneD2Ev @ 1773 NONAME
	_ZN15CAknButtonState10ConstructLEP8CGulIconS1_S1_S1_RK7TDesC16S4_ @ 1774 NONAME
	_ZN15CAknButtonState10ConstructLERK7TDesC16iiiiiiiiS2_S2_RK11TAknsItemIDS5_S5_S5_ @ 1775 NONAME
	_ZN15CAknButtonState11SizeChangedERK5TRect10TScaleMode @ 1776 NONAME
	_ZN15CAknButtonState12SetHelpTextLERK7TDesC16 @ 1777 NONAME
	_ZN15CAknButtonState12SetHoverIconEP8CGulIcon @ 1778 NONAME
	_ZN15CAknButtonState13SetDimmedIconEP8CGulIcon @ 1779 NONAME
	_ZN15CAknButtonState14SetPressedIconEP8CGulIcon @ 1780 NONAME
	_ZN15CAknButtonState22ConstructFromResourceLER15TResourceReader @ 1781 NONAME
	_ZN15CAknButtonState7SetIconEP8CGulIcon @ 1782 NONAME
	_ZN15CAknButtonState8SetFlagsEi @ 1783 NONAME
	_ZN15CAknButtonState8SetTextLERK7TDesC16 @ 1784 NONAME
	_ZN15CAknButtonStateC1Ei @ 1785 NONAME
	_ZN15CAknButtonStateC2Ei @ 1786 NONAME
	_ZN15CAknButtonStateD0Ev @ 1787 NONAME
	_ZN15CAknButtonStateD1Ev @ 1788 NONAME
	_ZN15CAknButtonStateD2Ev @ 1789 NONAME
	_ZN16CEikAppUiFactory19SetViewPopupToolbarEP11CAknToolbar @ 1790 NONAME
	_ZN19CAknContextMenuPane14OfferKeyEventLERK9TKeyEvent10TEventCode @ 1791 NONAME ABSENT
	_ZN19CAknContextMenuPane15MopSupplyObjectE8TTypeUid @ 1792 NONAME ABSENT
	_ZN19CAknContextMenuPane18ExtensionInterfaceE4TUid @ 1793 NONAME ABSENT
	_ZN19CAknContextMenuPane19HandlePointerEventLERK13TPointerEvent @ 1794 NONAME ABSENT
	_ZN19CAknContextMenuPane20HandleResourceChangeEi @ 1795 NONAME ABSENT
	_ZN19CAknContextMenuPane4NewLEP16MEikMenuObserverS1_i @ 1796 NONAME ABSENT
	_ZN19CAknContextMenuPane5CloseEv @ 1797 NONAME ABSENT
	_ZN19CAknContextMenuPane5NewLCEP16MEikMenuObserverS1_i @ 1798 NONAME ABSENT
	_ZN19CAknContextMenuPane5ShowLEiRK6TPointi @ 1799 NONAME ABSENT
	_ZN19CAknContextMenuPane9SetHasCbaEi @ 1800 NONAME ABSENT
	_ZN19CAknContextMenuPaneD0Ev @ 1801 NONAME ABSENT
	_ZN19CAknContextMenuPaneD1Ev @ 1802 NONAME ABSENT
	_ZN19CAknContextMenuPaneD2Ev @ 1803 NONAME ABSENT
	_ZN19MAknToolbarObserver15DynInitToolbarLEiP11CAknToolbar @ 1804 NONAME
	_ZN19MAknToolbarObserver30MAknToolbarObserver_Reserved_1Ev @ 1805 NONAME
	_ZN19MAknToolbarObserver30MAknToolbarObserver_Reserved_2Ev @ 1806 NONAME
	_ZNK10CAknButton10StateIndexEv @ 1807 NONAME
	_ZNK10CAknButton11ButtonFlagsEv @ 1808 NONAME
	_ZNK10CAknButton13HighlightRectEv @ 1809 NONAME
	_ZNK10CAknButton14GetCurrentIconEv @ 1810 NONAME
	_ZNK10CAknButton14GetCurrentTextEv @ 1811 NONAME
	_ZNK10CAknButton4DrawERK5TRect @ 1812 NONAME
	_ZNK10CAknButton5StateEi @ 1813 NONAME
	_ZNK10CAknButton5StateEv @ 1814 NONAME
	_ZNK11CAknToolbar13ControlOrNullEi @ 1815 NONAME
	_ZNK11CAknToolbar16ComponentControlEi @ 1816 NONAME
	_ZNK11CAknToolbar17InputCapabilitiesEv @ 1817 NONAME
	_ZNK11CAknToolbar19IsSupportedItemTypeEi @ 1818 NONAME
	_ZNK11CAknToolbar22CountComponentControlsEv @ 1819 NONAME
	_ZNK11CAknToolbar4DrawER9CWindowGcRK11CCoeControlRK5TRect @ 1820 NONAME
	_ZNK11CAknToolbar4DrawERK5TRect @ 1821 NONAME
	_ZNK11CAknToolbar7IsShownEv @ 1822 NONAME
	_ZNK13CAknTouchPane10ReduceRectER5TRect @ 1823 NONAME
	_ZNK13CAknTouchPane16ComponentControlEi @ 1824 NONAME
	_ZNK13CAknTouchPane22CountComponentControlsEv @ 1825 NONAME
	_ZNK13CAknTouchPane4DrawER9CWindowGcRK11CCoeControlRK5TRect @ 1826 NONAME
	_ZNK15CAknButtonState10DimmedIconEv @ 1827 NONAME
	_ZNK15CAknButtonState11PressedIconEv @ 1828 NONAME
	_ZNK15CAknButtonState4IconEv @ 1829 NONAME
	_ZNK15CAknButtonState4TextEv @ 1830 NONAME
	_ZNK15CAknButtonState5FlagsEv @ 1831 NONAME
	_ZNK15CAknButtonState7HasHelpEv @ 1832 NONAME
	_ZNK15CAknButtonState7HasTextEv @ 1833 NONAME
	_ZNK15CAknButtonState8HelpTextEv @ 1834 NONAME
	_ZNK15CAknButtonState9HoverIconEv @ 1835 NONAME
	_ZNK16CEikAppUiFactory12PopupToolbarEv @ 1836 NONAME
	_ZNK16CEikAppUiFactory19CurrentPopupToolbarEv @ 1837 NONAME
	_ZNK16CEikAppUiFactory9TouchPaneEv @ 1838 NONAME
	_ZNK19CAknContextMenuPane16GetColorUseListLER9CArrayFixI12TCoeColorUseE @ 1839 NONAME ABSENT
	_ZNK19CAknContextMenuPane6HasCbaEv @ 1840 NONAME ABSENT
	_ZNK19CAknContextMenuPane7IsShownEv @ 1841 NONAME ABSENT
	_ZTI10CAknButton @ 1842 NONAME ; #<TI>#
	_ZTI11CAknToolbar @ 1843 NONAME ; #<TI>#
	_ZTI13CAknTouchPane @ 1844 NONAME ABSENT ; #<TI>#
	_ZTI15CAknButtonState @ 1845 NONAME ; #<TI>#
	_ZTI19CAknContextMenuPane @ 1846 NONAME ABSENT ; #<TI># 
	_ZTI19MAknToolbarObserver @ 1847 NONAME ; #<TI>#
	_ZTI22CAknTouchPaneExtension @ 1848 NONAME ABSENT ; #<TI>#
	_ZTV10CAknButton @ 1849 NONAME ; #<VT>#
	_ZTV11CAknToolbar @ 1850 NONAME ; #<VT>#
	_ZTV13CAknTouchPane @ 1851 NONAME ABSENT ; #<VT>#
	_ZTV15CAknButtonState @ 1852 NONAME ; #<VT>#
	_ZTV19CAknContextMenuPane @ 1853 NONAME ABSENT ; #<VT>#
	_ZTV19MAknToolbarObserver @ 1854 NONAME ; #<VT>#
	_ZTV22CAknTouchPaneExtension @ 1855 NONAME ABSENT ; #<VT>#
	_ZThn4_N11CAknToolbar15MopSupplyObjectE8TTypeUid @ 1856 NONAME ; #<thunk>#
	_ZThn4_N19CAknContextMenuPane15MopSupplyObjectE8TTypeUid @ 1857 NONAME ABSENT ; #<thunk>#
	_ZThn52_N13CAknTouchPane19HandleControlEventLEP11CCoeControlN19MCoeControlObserver9TCoeEventE @ 1858 NONAME ; #<thunk>#
	_ZThn60_NK13CAknTouchPane4DrawER9CWindowGcRK11CCoeControlRK5TRect @ 1859 NONAME ; #<thunk>#
	_ZThn76_N11CAknToolbar19HandleControlEventLEP11CCoeControlN19MCoeControlObserver9TCoeEventE @ 1860 NONAME ; #<thunk>#
	_ZThn84_NK11CAknToolbar4DrawER9CWindowGcRK11CCoeControlRK5TRect @ 1861 NONAME ; #<thunk>#
	_ZThn88_N11CAknToolbar15ProcessCommandLEi @ 1862 NONAME ; #<thunk>#
	_ZN9CEikEdwin19SetTextSkinColorIdLEi @ 1863 NONAME
	_ZN9CEikEdwin18SetHighlightStyleLE19TAknsHighlightStyle @ 1864 NONAME
	_ZN10CAknButton14SetRequestExitEi @ 1865 NONAME
	_ZN10CAknButton16SetBackgroundIdsERK11TAknsItemIDS2_S2_S2_S2_ @ 1866 NONAME
	_ZN10CAknButton18SetTooltipPositionENS_16TTooltipPositionE @ 1867 NONAME
	_ZN11CAknToolbar15PositionChangedEv @ 1868 NONAME
	_ZN11CAknToolbar17SetCloseOnCommandEii @ 1869 NONAME
	_ZN11CAknToolbar21SetCloseOnAllCommandsEi @ 1870 NONAME
	_ZNK11CEikListBox13HighlightRectEv @ 1871 NONAME
	_ZN11CEikListBox14FireItemChangeEv @ 1872 NONAME
	_ZN11CEikListBox22AddItemChangeObserverLEP26MListBoxItemChangeObserver @ 1873 NONAME
	_ZN11CEikListBox24RemoveItemChangeObserverEP26MListBoxItemChangeObserver @ 1874 NONAME
	_ZNK15CListItemDrawer12ItemCellSizeEv @ 1875 NONAME
	_ZN9CEikEdwin28SetUpperFullFormattingLengthEi @ 1876 NONAME
	_ZN18CEikStatusPaneBase14DisableClearerEi @ 1877 NONAME
	_ZN10CAknButton18SetDimmedHelpTextLERK7TDesC16 @ 1878 NONAME
	_ZNK10CAknButton8IsDimmedEv @ 1879 NONAME
	_ZN18CEikStatusPaneBase23CommonPrepareForAppExitEv @ 1880 NONAME
	_ZN12CEikMenuPane20ConstructMenuSctRowLER6TDes16 @ 1881 NONAME
	_ZN11CEikListBox21CreateScrollBarFrameLEii @ 1882 NONAME
	_ZN18CEikScrollBarFrame14DrawBackgroundEii @ 1883 NONAME
	_ZN18CEikScrollBarFrame19DrawBackgroundStateERiS0_ @ 1884 NONAME
	_ZN9CEikEdwin21SetSuppressNotifyDrawEi @ 1885 NONAME
	_ZN19CAknStylusPopUpMenu14RemoveMenuItemEi @ 1886 NONAME
	_ZN19CAknStylusPopUpMenu19HandleControlEventLEP11CCoeControlN19MCoeControlObserver9TCoeEventE @ 1887 NONAME
	_ZN19CAknStylusPopUpMenu22ConstructFromResourceLER15TResourceReader @ 1888 NONAME
	_ZN19CAknStylusPopUpMenu4NewLEP16MEikMenuObserverRK6TPoint @ 1889 NONAME
	_ZN19CAknStylusPopUpMenu4NewLEP16MEikMenuObserverRK6TPointP26CAknPreviewPopUpController @ 1890 NONAME
	_ZN19CAknStylusPopUpMenu5NewLCEP16MEikMenuObserverRK6TPointP26CAknPreviewPopUpController @ 1891 NONAME
	_ZN19CAknStylusPopUpMenu8ShowMenuEv @ 1892 NONAME
	_ZThn4_N19CAknStylusPopUpMenu19HandleControlEventLEP11CCoeControlN19MCoeControlObserver9TCoeEventE @ 1893 NONAME ; #<thunk>#
	_ZN10CAknButton20SetKeyRepeatIntervalEii @ 1894 NONAME
	_ZN11CAknToolbar19HandlePointerEventLERK13TPointerEvent @ 1895 NONAME
	_ZN13CAknTouchPane15PositionChangedEv @ 1896 NONAME
	_ZN13CAknTouchPane8RefreshLEv @ 1897 NONAME
	_ZN10CAknButton21SetTextUnderlineStyleE14TFontUnderline @ 1898 NONAME
	_ZN12CEikMenuPane15CascadeMenuPaneEv @ 1899 NONAME
	_ZNK12CEikMenuPane17MenuItemCommandIdEi @ 1900 NONAME
	_ZN19CAknStylusPopUpMenu11SetPositionERK6TPoint @ 1901 NONAME
	_ZN19CAknStylusPopUpMenu12AddMenuItemLERK7TDesC16i @ 1902 NONAME
	_ZN13CAknTouchPane25SetFepPenSupportInterfaceEP26MAknFepPenSupportInterface @ 1903 NONAME
	_ZN13CAknTouchPane27SetInputMethodIconActivatedEi @ 1904 NONAME
	_ZN9CEikEdwin18SetAmountToFormatLEii @ 1905 NONAME
	_ZN9CEikEdwin21SetSuppressFormattingEi @ 1906 NONAME
	_ZN22CAknLocalScreenClearer20HandleResourceChangeEi @ 1907 NONAME
	_ZTI22CAknLocalScreenClearer @ 1908 NONAME ; #<TI>#
	_ZTV22CAknLocalScreenClearer @ 1909 NONAME ; #<VT>#
	_ZN11CEikMenuBar25TryDisplayContextMenuBarLEv @ 1910 NONAME
	_ZN11CEikMenuBar29SetContextMenuTitleResourceIdEi @ 1911 NONAME
	_ZN9CEikEdwin28SetSuppressBackgroundDrawingEi @ 1912 NONAME
	_ZNK9CEikEdwin29IsBackgroundDrawingSuppressedEv @ 1913 NONAME
	_ZN11CEikListBox21CreateScrollBarFrameLEiii @ 1914 NONAME
	_ZN12CEikMenuPane20ConstructMenuSctRowLER6TDes16i @ 1915 NONAME
	_ZN11CEikMenuBar11SetMenuTypeENS_9TMenuTypeE @ 1916 NONAME
	_ZN11CAknToolbar14SetOrientationE15TAknOrientation @ 1917 NONAME
	_ZN23CAknDoubleSpanScrollBar23SetScrollPopupInfoTextLERK7TDesC16 @ 1918 NONAME
	_ZN9CEikEdwin16SetTextLinesRectERK5TRect @ 1919 NONAME
	_ZNK9CEikEdwin16GetTextLinesRectEv @ 1920 NONAME
	_ZN11CEikListBox17EnableMSKObserverEi @ 1921 NONAME
	_ZN24CEikButtonGroupContainer20DimCommandByPositionENS_16TCommandPositionEi @ 1922 NONAME
	_ZN24CEikButtonGroupContainer24AnimateCommandByPositionENS_16TCommandPositionE @ 1923 NONAME
	_ZN24CEikButtonGroupContainer28MakeCommandVisibleByPositionENS_16TCommandPositionEi @ 1924 NONAME
	_ZNK24CEikButtonGroupContainer25IsCommandDimmedByPositionENS_16TCommandPositionE @ 1925 NONAME
	_ZNK24CEikButtonGroupContainer26IsCommandVisibleByPositionENS_16TCommandPositionE @ 1926 NONAME
	_ZN11CAknToolbar8HideItemEiii @ 1927 NONAME
	_ZN14CAknEdwinState25SetMiddleSoftkeyCommandIdEi @ 1928 NONAME
	_ZNK14CAknEdwinState22MiddleSoftkeyCommandIdEv @ 1929 NONAME
	_ZN10CAknButton24SetIconVerticalAlignmentENS_10TAlignmentE @ 1930 NONAME
	_ZN10CAknButton26SetIconHorizontalAlignmentENS_10TAlignmentE @ 1931 NONAME
	_ZN19CAknStylusPopUpMenu13SetItemDimmedEii @ 1932 NONAME
	_ZN11CAknToolbar16UpdateBackgroundEv @ 1933 NONAME
	_ZN12CEikMenuPane30ConstructMenuSctRowFromDialogLER6TDes16i @ 1934 NONAME
	_ZN11CAknToolbar15DisableToolbarLEi @ 1935 NONAME
	_ZN11CAknToolbar20SetToolbarVisibilityEii @ 1936 NONAME
	_ZNK11CAknToolbar17IsToolbarDisabledEv @ 1937 NONAME
	_ZN10CAknButton10SetMarginsERK9TMargins8 @ 1938 NONAME
	_ZN10CAknButton11SetIconSizeERK5TSize @ 1939 NONAME
	_ZN11CEikListBox10RedrawItemEi @ 1940 NONAME
	_ZN11CAknToolbar15SetFocusedItemLEi @ 1941 NONAME
	_ZNK11CAknToolbar11FocusedItemEv @ 1942 NONAME
	_ZN10CAknButton23SetTextAndIconAlignmentENS_21TTextAndIconAlignmentE @ 1943 NONAME
	_ZN11CEikListBox21AddSelectionObserverLEP25MListBoxSelectionObserver @ 1944 NONAME
	_ZN11CEikListBox23RemoveSelectionObserverEP25MListBoxSelectionObserver @ 1945 NONAME
	_ZN12CEikMenuPane30ConstructMenuSctRowFromDialogLEiR6TDes16i @ 1946 NONAME
	_ZNK24CEikButtonGroupContainer28UpdatedCommandObserverExistsENS_16TCommandPositionE @ 1947 NONAME
	_ZN14CAknEdwinState12SetCcpuStateEP14MEikCcpuEditor @ 1948 NONAME
	_ZNK11CAknToolbar14EventModifiersEv @ 1949 NONAME
	_ZNK11CAknToolbar12ToolbarFlagsEv @ 1950 NONAME
	_ZN11CAknToolbar21SetSoftkeyResourceIdLEi @ 1951 NONAME
	_ZN9CEikEdwin13SetScrollRectERK5TRect @ 1952 NONAME
	_ZNK16CEikAppUiFactory19CurrentFixedToolbarEv @ 1953 NONAME
	_ZN16CEikAppUiFactory19SetViewFixedToolbarEP11CAknToolbar @ 1954 NONAME
	_ZN20CAknToolbarExtension11RemoveItemLEi @ 1955 NONAME
	_ZN20CAknToolbarExtension4NewLEi @ 1956 NONAME
	_ZN20CAknToolbarExtension5NewLCEi @ 1957 NONAME
	_ZN20CAknToolbarExtension8AddItemLEP11CCoeControliiii @ 1958 NONAME
	_ZNK11CAknToolbar16ToolbarExtensionEv @ 1959 NONAME
	_ZNK20CAknToolbarExtension13ControlOrNullEi @ 1960 NONAME
	_ZN20CAknToolbarExtension8SetShownEi @ 1961 NONAME
	_ZNK20CAknToolbarExtension7IsShownEv @ 1962 NONAME
	_ZN10CAknButton15PositionChangedEv @ 1963 NONAME
	_ZN20CAknToolbarExtension13SetItemDimmedEii @ 1964 NONAME
	_ZN20CAknToolbarExtension9HideItemLEii @ 1965 NONAME
	_ZN10CAknButton10ResetStateEv @ 1966 NONAME
	_ZN29EikSoftkeyPostingTransparency15MakeTransparentER24CEikButtonGroupContaineri @ 1967 NONAME
	_ZN11CAknToolbar30HideItemsAndDrawOnlyBackgroundEi @ 1968 NONAME
	_ZN19CAknStylusPopUpMenu11SetPositionERK6TPointNS_13TPositionTypeE @ 1969 NONAME
	_ZN11CAknToolbar30HideItemsAndDrawOnlyBackgroundEii @ 1970 NONAME
	_ZNK7CEikCba7IsEmptyEv @ 1971 NONAME
	_ZN9CEikEdwin16SetCursorVisibleEi @ 1972 NONAME
	_ZN29CAknCompositeInlineTextSource24InstallInlineTextSourceLEP20CAknInlineTextSource @ 1973 NONAME
	_ZN36CAknPlainPhoneNumberInlineTextSource4NewLERK10CPlainText @ 1974 NONAME
	_ZN38CAknEdwinFormExtendedInterfaceProvider4NewLEv @ 1975 NONAME
	_ZNK38CAknEdwinFormExtendedInterfaceProvider25CompositeInlineTextSourceEv @ 1976 NONAME
	_ZN11CEikListBox30SetPointerEventFilterDisabledLERK9CArrayFixIiE @ 1977 NONAME
	_ZN13CEikScrollBar20SetExtensionAreaTypeENS_27TScrollBarExtensionAreaTypeE @ 1978 NONAME
	_ZN11CEikListBox16DisableScrollingEi @ 1979 NONAME
	_ZN11CEikListBox20SetItemsInSingleLineEi @ 1980 NONAME
	_ZNK11CEikListBox27BackgroundDrawingSuppressedEv @ 1981 NONAME
	_ZN12CListBoxView21SetItemOffsetInPixelsEi @ 1982 NONAME
	_ZN11CEikListBox25HandlePhysicsScrollEventLEi @ 1983 NONAME
	_ZNK12CListBoxView18ItemOffsetInPixelsEv @ 1984 NONAME
	_ZN11CEikListBox14SuspendEffectsEi @ 1985 NONAME
	_ZN11CEikListBox17ScrollingDisabledEv @ 1986 NONAME
	_ZNK12CListBoxView22ItemIsPartiallyVisibleEi @ 1987 NONAME
	_ZN9CEikEdwin14AknEditorFlagsEv @ 1988 NONAME
	_ZN21AknCbaContentObserver18SetContentObserverEP7CEikCba9TCallBack @ 1989 NONAME
	_ZN18CAknItemActionMenu16RemoveCollectionER14MAknCollection @ 1990 NONAME
	_ZN18CAknItemActionMenu19RegisterCollectionLER14MAknCollection @ 1991 NONAME
	_ZN18CAknItemActionMenu9InitMenuLEv @ 1992 NONAME
	_ZN18CAknItemActionMenu9ShowMenuLERK6TPointj @ 1993 NONAME
	_ZN25AknItemActionMenuRegister28SetConstructingMenuBarOwnerLEP15MObjectProvider @ 1994 NONAME
	_ZN12CEikMenuPane15SetItemSpecificEii @ 1995 NONAME
	_ZN11CEikListBox18DisableSingleClickEi @ 1996 NONAME
	_ZNK11CEikMenuBar27ItemSpecificCommandsEnabledEv @ 1997 NONAME
	_ZN7CEikCba14UpdateMSKIconLERK11TAknsItemIDRK7TDesC16lli @ 1998 NONAME
	_ZNK11CEikMenuBar11GetMenuTypeEv @ 1999 NONAME
	_ZN9CEikEdwin23EnableKineticScrollingLEi @ 2000 NONAME
	_ZN11CAknToolbar19SetSkinBackgroundIdERK11TAknsItemID @ 2001 NONAME
	_ZN18CAknItemActionMenu17CollectionChangedER14MAknCollection @ 2002 NONAME
	_ZN11CEikListBox23DisableItemSpecificMenuEv @ 2003 NONAME
	_ZN25AknItemActionMenuRegister26SetOverridingMenuBarOwnerLEP15MObjectProviderj @ 2004 NONAME
	_ZN11CEikListBox11MakeVisibleEi @ 2005 NONAME
	_ZN7CEikCba25EnableItemSpecificSoftkeyEi @ 2006 NONAME

