EXPORTS
	??0CAknNotifierAppServer@@QAE@XZ @ 1 NONAME ; CAknNotifierAppServer::CAknNotifierAppServer(void)
	??0CAknNotifierAppServerAppUi@@QAE@XZ @ 2 NONAME ; CAknNotifierAppServerAppUi::CAknNotifierAppServerAppUi(void)
	??0CAknNotifierAppServerApplication@@QAE@XZ @ 3 NONAME ; CAknNotifierAppServerApplication::CAknNotifierAppServerApplication(void)
	??0CAknNotifierServerAppService@@QAE@ABVCAknNotifierAppServer@@@Z @ 4 NONAME ; CAknNotifierServerAppService::CAknNotifierServerAppService(class CAknNotifierAppServer const &)
	??0CAknNotifierWrapper@@IAE@VTUid@@0H@Z @ 5 NONAME ; CAknNotifierWrapper::CAknNotifierWrapper(class TUid, class TUid, int)
	??0CAknNotifierWrapperLight@@QAE@AAVMAknNotifierWrapper@@VTUid@@1H@Z @ 6 NONAME ; CAknNotifierWrapperLight::CAknNotifierWrapperLight(class MAknNotifierWrapper &, class TUid, class TUid, int)
	??1CAknNotifierAppServer@@UAE@XZ @ 7 NONAME ; CAknNotifierAppServer::~CAknNotifierAppServer(void)
	??1CAknNotifierAppServerAppUi@@UAE@XZ @ 8 NONAME ; CAknNotifierAppServerAppUi::~CAknNotifierAppServerAppUi(void)
	??1CAknNotifierAppServerApplication@@UAE@XZ @ 9 NONAME ; CAknNotifierAppServerApplication::~CAknNotifierAppServerApplication(void)
	??1CAknNotifierServerAppService@@UAE@XZ @ 10 NONAME ; CAknNotifierServerAppService::~CAknNotifierServerAppService(void)
	??1CAknNotifierWrapper@@UAE@XZ @ 11 NONAME ; CAknNotifierWrapper::~CAknNotifierWrapper(void)
	??1CAknNotifierWrapperLight@@UAE@XZ @ 12 NONAME ; CAknNotifierWrapperLight::~CAknNotifierWrapperLight(void)
	?AllowClientL@CAknNotifierServerAppService@@UAEHABVRMessage2@@@Z @ 13 NONAME ; int CAknNotifierServerAppService::AllowClientL(class RMessage2 const &)
	?AppendNotifierLibNameL@CAknNotifierAppServer@@QAEXABVTDesC16@@@Z @ 14 NONAME ; void CAknNotifierAppServer::AppendNotifierLibNameL(class TDesC16 const &)
	?AsyncMessageCompleted@CAknNotifierWrapper@@UAEXPAVCAknNotifierMessageObserver@@@Z @ 15 NONAME ; void CAknNotifierWrapper::AsyncMessageCompleted(class CAknNotifierMessageObserver *)
	?Cancel@CAknNotifierWrapperLight@@UAEXXZ @ 16 NONAME ; void CAknNotifierWrapperLight::Cancel(void)
	?CancelNotifier@CAknNotifierAppServer@@UAEXVTUid@@@Z @ 17 NONAME ; void CAknNotifierAppServer::CancelNotifier(class TUid)
	?CancelNotifier@CAknNotifierWrapper@@UAEXVTUid@@@Z @ 18 NONAME ; void CAknNotifierWrapper::CancelNotifier(class TUid)
	?ConstructL@CAknNotifierAppServerAppUi@@UAEXXZ @ 19 NONAME ; void CAknNotifierAppServerAppUi::ConstructL(void)
	?CreateDocumentL@CAknNotifierAppServerApplication@@UAEPAVCApaDocument@@XZ @ 20 NONAME ; class CApaDocument * CAknNotifierAppServerApplication::CreateDocumentL(void)
	?CreateServiceL@CAknNotifierAppServer@@UBEPAVCApaAppServiceBase@@VTUid@@@Z @ 21 NONAME ; class CApaAppServiceBase * CAknNotifierAppServer::CreateServiceL(class TUid) const
	?HandleCommandL@CAknNotifierAppServerAppUi@@UAEXH@Z @ 22 NONAME ; void CAknNotifierAppServerAppUi::HandleCommandL(int)
	?HandleKeyEventL@CAknNotifierAppServerAppUi@@UAE?AW4TKeyResponse@@ABUTKeyEvent@@W4TEventCode@@@Z @ 23 NONAME ; enum TKeyResponse CAknNotifierAppServerAppUi::HandleKeyEventL(struct TKeyEvent const &, enum TEventCode)
	?HandleMessageL@CAknNotifierServerAppService@@UAEXABVRMessage2@@@Z @ 24 NONAME ; void CAknNotifierServerAppService::HandleMessageL(class RMessage2 const &)
	?Info@CAknNotifierWrapperLight@@UBE?AVTNotifierInfo@MEikSrvNotifierBase2@@XZ @ 25 NONAME ; class MEikSrvNotifierBase2::TNotifierInfo CAknNotifierWrapperLight::Info(void) const
	?LoadNotifiersL@CAknNotifierAppServer@@QAEXXZ @ 26 NONAME ; void CAknNotifierAppServer::LoadNotifiersL(void)
	?NewAppServerL@CAknNotifierAppServerApplication@@UAEXAAPAVCApaAppServer@@@Z @ 27 NONAME ; void CAknNotifierAppServerApplication::NewAppServerL(class CApaAppServer * &)
	?NewL@CAknNotifierWrapper@@SAPAV1@VTUid@@0H0I@Z @ 28 NONAME ; class CAknNotifierWrapper * CAknNotifierWrapper::NewL(class TUid, class TUid, int, class TUid, unsigned int)
	?NewServerRequestL@CAknNotifierMessageObserver@@SAPAV1@VTUid@@PAVMAknNotifierWrapper@@ABVRMessagePtr2@@H@Z @ 29 NONAME ; class CAknNotifierMessageObserver * CAknNotifierMessageObserver::NewServerRequestL(class TUid, class MAknNotifierWrapper *, class RMessagePtr2 const &, int)
	?RegisterL@CAknNotifierWrapperLight@@UAE?AVTNotifierInfo@MEikSrvNotifierBase2@@XZ @ 30 NONAME ; class MEikSrvNotifierBase2::TNotifierInfo CAknNotifierWrapperLight::RegisterL(void)
	?Release@CAknNotifierWrapperLight@@UAEXXZ @ 31 NONAME ; void CAknNotifierWrapperLight::Release(void)
	?ServiceL@CAknNotifierServerAppService@@UAEXABVRMessage2@@@Z @ 32 NONAME ; void CAknNotifierServerAppService::ServiceL(class RMessage2 const &)
	?StartL@CAknNotifierWrapperLight@@UAE?AVTPtrC8@@ABVTDesC8@@@Z @ 33 NONAME ; class TPtrC8 CAknNotifierWrapperLight::StartL(class TDesC8 const &)
	?StartL@CAknNotifierWrapperLight@@UAEXABVTDesC8@@HABVRMessagePtr2@@@Z @ 34 NONAME ; void CAknNotifierWrapperLight::StartL(class TDesC8 const &, int, class RMessagePtr2 const &)
	?StartNotifierAndGetResponseL@CAknNotifierAppServer@@UAEXVTUid@@AAVTDesC8@@ABVRMessagePtr2@@H@Z @ 35 NONAME ; void CAknNotifierAppServer::StartNotifierAndGetResponseL(class TUid, class TDesC8 &, class RMessagePtr2 const &, int)
	?StartNotifierL@CAknNotifierAppServer@@UAEXVTUid@@ABVTDesC8@@AAVTDes8@@@Z @ 36 NONAME ; void CAknNotifierAppServer::StartNotifierL(class TUid, class TDesC8 const &, class TDes8 &)
	?StartNotifierL@CAknNotifierWrapper@@UAE?AVTPtrC8@@VTUid@@ABVTDesC8@@@Z @ 37 NONAME ; class TPtrC8 CAknNotifierWrapper::StartNotifierL(class TUid, class TDesC8 const &)
	?StartNotifierL@CAknNotifierWrapper@@UAEXVTUid@@ABVTDesC8@@HABVRMessagePtr2@@@Z @ 38 NONAME ; void CAknNotifierWrapper::StartNotifierL(class TUid, class TDesC8 const &, int, class RMessagePtr2 const &)
	?SuppressAppSwitching@CAknNotifierAppServerAppUi@@QAEHH@Z @ 39 NONAME ; int CAknNotifierAppServerAppUi::SuppressAppSwitching(int)
	?UpdateL@CAknNotifierWrapperLight@@UAE?AVTPtrC8@@ABVTDesC8@@@Z @ 40 NONAME ; class TPtrC8 CAknNotifierWrapperLight::UpdateL(class TDesC8 const &)
	?UpdateNotifierL@CAknNotifierAppServer@@UAEXVTUid@@ABVTDesC8@@AAVTDes8@@@Z @ 41 NONAME ; void CAknNotifierAppServer::UpdateNotifierL(class TUid, class TDesC8 const &, class TDes8 &)
	?UpdateNotifierL@CAknNotifierWrapper@@UAE?AVTPtrC8@@VTUid@@ABVTDesC8@@@Z @ 42 NONAME ; class TPtrC8 CAknNotifierWrapper::UpdateNotifierL(class TUid, class TDesC8 const &)
	?RegisterL@CAknNotifierWrapper@@UAE?AVTNotifierInfo@MEikSrvNotifierBase2@@XZ @ 43 NONAME ; class MEikSrvNotifierBase2::TNotifierInfo CAknNotifierWrapper::RegisterL(void)
	?Manager@CAknNotifierAppServerAppUi@@QAEPAVMEikSrvNotifierManager@@XZ @ 44 NONAME ; class MEikSrvNotifierManager * CAknNotifierAppServerAppUi::Manager(void)
	?SetManager@CAknNotifierAppServerAppUi@@QAEXPAVMEikSrvNotifierManager@@@Z @ 45 NONAME ; void CAknNotifierAppServerAppUi::SetManager(class MEikSrvNotifierManager *)
	?DoAllowNotifications@CAknNotifierControllerUtility@@QAEXXZ @ 46 NONAME ; void CAknNotifierControllerUtility::DoAllowNotifications(void)
	?DoCancelAllNotificatonsL@CAknNotifierControllerUtility@@QAEXXZ @ 47 NONAME ; void CAknNotifierControllerUtility::DoCancelAllNotificatonsL(void)
	?DoStopNotifications@CAknNotifierControllerUtility@@QAEXXZ @ 48 NONAME ; void CAknNotifierControllerUtility::DoStopNotifications(void)
	?SetOrdinalPositionL@CAknNotifierAppServerAppUi@@IAEXH@Z @ 49 NONAME ; void CAknNotifierAppServerAppUi::SetOrdinalPositionL(int)
	?SetFadedL@CAknNotifierAppServerAppUi@@UAEXH@Z @ 50 NONAME ; void CAknNotifierAppServerAppUi::SetFadedL(int)
	?DoNotifierControllerCommand@CAknNotifierWrapper@@QAEXH@Z @ 51 NONAME ; void CAknNotifierWrapper::DoNotifierControllerCommand(int)
	?NotifierCapabilites@CAknNotifierWrapperLight@@UAEHXZ @ 52 NONAME ; int CAknNotifierWrapperLight::NotifierCapabilites(void)
	?EikSrvBlocked@CAknNotifierAppServerAppUi@@QAEAAHXZ @ 53 NONAME ; int & CAknNotifierAppServerAppUi::EikSrvBlocked(void)
	?HandleError@CAknNotifierAppServerAppUi@@UAE?AW4TErrorHandlerResponse@@HABUSExtendedError@@AAVTDes16@@1@Z @ 54 NONAME ; enum TErrorHandlerResponse CAknNotifierAppServerAppUi::HandleError(int, struct SExtendedError const &, class TDes16 &, class TDes16 &)
	?HandleSystemEventL@CAknNotifierAppServerAppUi@@UAEXABVTWsEvent@@@Z @ 55 NONAME ; void CAknNotifierAppServerAppUi::HandleSystemEventL(class TWsEvent const &)
	?SetCustomSecurityHandler@CAknCommonNotifierWrapper@@QAEXPAVMAknNotifierCustomSecurityCheck@@@Z @ 56 NONAME ; void CAknCommonNotifierWrapper::SetCustomSecurityHandler(class MAknNotifierCustomSecurityCheck *)
	?SetImplementationFinderL@CAknNotifierAppServer@@QAEXPAVMNotifLibraryOwningServer@@@Z @ 57 NONAME ; void CAknNotifierAppServer::SetImplementationFinderL(class MNotifLibraryOwningServer *)
	?PreLoadLibraryL@CAknCommonNotifierWrapper@@QAEXXZ @ 58 NONAME ; void CAknCommonNotifierWrapper::PreLoadLibraryL(void)
	?NewL@CAknCommonNotifierWrapper@@SAPAV1@VTUid@@0HABVTDesC16@@IH@Z @ 59 NONAME ; class CAknCommonNotifierWrapper * CAknCommonNotifierWrapper::NewL(class TUid, class TUid, int, class TDesC16 const &, unsigned int, int)
	?UnbalanceReferenceCountForNotif@CAknNotifierAppServer@@QAEXVTUid@@H@Z @ 60 NONAME ; void CAknNotifierAppServer::UnbalanceReferenceCountForNotif(class TUid, int)
	?UpdateL@CAknNotifierWrapperLight@@UAEXABVTDesC8@@HABVRMessagePtr2@@@Z @ 61 NONAME ; void CAknNotifierWrapperLight::UpdateL(class TDesC8 const &, int, class RMessagePtr2 const &)
	?UpdateNotifierAndGetResponseL@CAknNotifierAppServer@@QAEXVTUid@@AAVTDesC8@@ABVRMessagePtr2@@H@Z @ 62 NONAME ; void CAknNotifierAppServer::UpdateNotifierAndGetResponseL(class TUid, class TDesC8 &, class RMessagePtr2 const &, int)
	?UpdateNotifierL@CAknNotifierWrapper@@UAEXVTUid@@ABVTDesC8@@HABVRMessagePtr2@@@Z @ 63 NONAME ; void CAknNotifierWrapper::UpdateNotifierL(class TUid, class TDesC8 const &, int, class RMessagePtr2 const &)
	?UpdateNotifierL@MAknNotifierWrapper@@UAEXVTUid@@ABVTDesC8@@HABVRMessagePtr2@@@Z @ 64 NONAME ; void MAknNotifierWrapper::UpdateNotifierL(class TUid, class TDesC8 const &, int, class RMessagePtr2 const &)

