EXPORTS
	??0CAknsItemDef@@AAE@ABVTAknsItemID@@@Z @ 1 NONAME ; CAknsItemDef::CAknsItemDef(class TAknsItemID const &)
	??0RAknsSrvSession@@QAE@XZ @ 2 NONAME ; RAknsSrvSession::RAknsSrvSession(void)
	??1CAknsItemDef@@UAE@XZ @ 3 NONAME ; CAknsItemDef::~CAknsItemDef(void)
	?AddAnimationCommandItemL@CAknsAnimationItemDef@@QAEXPAVCAknsAnimationCommandItemDef@@@Z @ 4 NONAME ; void CAknsAnimationItemDef::AddAnimationCommandItemL(class CAknsAnimationCommandItemDef *)
	?AddAnimationValueL@CAknsAnimationItemDef@@QAEXPAVCAknsAnimationValueDef@@@Z @ 5 NONAME ; void CAknsAnimationItemDef::AddAnimationValueL(class CAknsAnimationValueDef *)
	?AddEffectL@CAknsEffectQueueItemDef@@QAEXPAVCAknsEffectItemDef@@@Z @ 6 NONAME ; void CAknsEffectQueueItemDef::AddEffectL(class CAknsEffectItemDef *)
	?AddNamedReferenceL@CAknsAnimationCommandItemDef@@QAEXPAVCAknsNamedReferenceDef@@@Z @ 7 NONAME ; void CAknsAnimationCommandItemDef::AddNamedReferenceL(class CAknsNamedReferenceDef *)
	?AddParameterL@CAknsAnimationValueDef@@QAEXPAVCAknsEffectParamDef@@@Z @ 8 NONAME ; void CAknsAnimationValueDef::AddParameterL(class CAknsEffectParamDef *)
	?AddParameterL@CAknsEffectItemDef@@QAEXPAVCAknsEffectParamDef@@@Z @ 9 NONAME ; void CAknsEffectItemDef::AddParameterL(class CAknsEffectParamDef *)
	?AddParameterL@CAknsTimingModelDef@@QAEXPAVCAknsEffectParamDef@@@Z @ 10 NONAME ; void CAknsTimingModelDef::AddParameterL(class CAknsEffectParamDef *)
	?AddPreprocessCommandL@CAknsAnimationItemDef@@QAEXPAVCAknsEffectItemDef@@@Z @ 11 NONAME ; void CAknsAnimationItemDef::AddPreprocessCommandL(class CAknsEffectItemDef *)
	?AddSizeBoundParamL@CAknsAnimationItemDef@@QAEXPAVCAknsSizeBoundParamDef@@@Z @ 12 NONAME ; void CAknsAnimationItemDef::AddSizeBoundParamL(class CAknsSizeBoundParamDef *)
	?AddTimingModelL@CAknsAnimationItemDef@@QAEXPAVCAknsTimingModelDef@@@Z @ 13 NONAME ; void CAknsAnimationItemDef::AddTimingModelL(class CAknsTimingModelDef *)
	?AnimationCommandItem@CAknsAnimationItemDef@@QBEPAVCAknsAnimationCommandItemDef@@J@Z @ 14 NONAME ; class CAknsAnimationCommandItemDef * CAknsAnimationItemDef::AnimationCommandItem(long) const
	?AnimationCommandItemCount@CAknsAnimationItemDef@@QBEHXZ @ 15 NONAME ; int CAknsAnimationItemDef::AnimationCommandItemCount(void) const
	?AnimationValue@CAknsAnimationItemDef@@QBEPAVCAknsAnimationValueDef@@J@Z @ 16 NONAME ; class CAknsAnimationValueDef * CAknsAnimationItemDef::AnimationValue(long) const
	?AnimationValueCount@CAknsAnimationItemDef@@QBEHXZ @ 17 NONAME ; int CAknsAnimationItemDef::AnimationValueCount(void) const
	?AnimationValueId@CAknsNamedReferenceDef@@QBEKXZ @ 18 NONAME ; unsigned long CAknsNamedReferenceDef::AnimationValueId(void) const
	?AnimationValueId@CAknsSizeBoundParamDef@@QBEKXZ @ 19 NONAME ; unsigned long CAknsSizeBoundParamDef::AnimationValueId(void) const
	?AnimationValueUid@CAknsAnimationValueDef@@QBE?AVTUid@@XZ @ 20 NONAME ; class TUid CAknsAnimationValueDef::AnimationValueUid(void) const
	?Attributes@CAknsImageItemDef@@QBEPBUTAknsImageAttributeData@@XZ @ 21 NONAME ; struct TAknsImageAttributeData const * CAknsImageItemDef::Attributes(void) const
	?BeginRender@CAknsSrvChunkLookup@@QAEXXZ @ 22 NONAME ; void CAknsSrvChunkLookup::BeginRender(void)
	?ClearScalableGraphics@RAknsSrvSession@@QAEHXZ @ 23 NONAME ; int RAknsSrvSession::ClearScalableGraphics(void)
	?ClientError@RAknsSrvSession@@QAEXH@Z @ 24 NONAME ; void RAknsSrvSession::ClientError(int)
	?Close@RAknsSrvSession@@QAEXXZ @ 25 NONAME ; void RAknsSrvSession::Close(void)
	?ColorSchemePID@CAknsSrvSkinInformationPkg@@QBE?AVTAknsPkgID@@XZ @ 26 NONAME ; class TAknsPkgID CAknsSrvSkinInformationPkg::ColorSchemePID(void) const
	?Colors@CAknsColorTableItemDef@@QBEPBUTAknsColorTableEntry@@XZ @ 27 NONAME ; struct TAknsColorTableEntry const * CAknsColorTableItemDef::Colors(void) const
	?Connect@RAknsSrvSession@@QAEHPAVMAknsSkinChangeObserver@@H@Z @ 28 NONAME ; int RAknsSrvSession::Connect(class MAknsSkinChangeObserver *, int)
	?CopySkin@RAknsSrvSession@@QAEHVTAknsPkgID@@W4TAknSkinSrvSkinPackageLocation@@1@Z @ 29 NONAME ; int RAknsSrvSession::CopySkin(class TAknsPkgID, enum TAknSkinSrvSkinPackageLocation, enum TAknSkinSrvSkinPackageLocation)
	?CopySoundFile@RAknsSrvSession@@QAEHABVTDesC16@@0@Z @ 30 NONAME ; int RAknsSrvSession::CopySoundFile(class TDesC16 const &, class TDesC16 const &)
	?CopyToDes@TAknsPkgID@@QBEXAAVTDes16@@@Z @ 31 NONAME ; void TAknsPkgID::CopyToDes(class TDes16 &) const
	?CreateChunkLookupL@RAknsSrvSession@@QAEPAVCAknsSrvChunkLookup@@XZ @ 32 NONAME ; class CAknsSrvChunkLookup * RAknsSrvSession::CreateChunkLookupL(void)
	?DeleteSkin@RAknsSrvSession@@QAEHVTAknsPkgID@@W4TAknSkinSrvSkinPackageLocation@@@Z @ 33 NONAME ; int RAknsSrvSession::DeleteSkin(class TAknsPkgID, enum TAknSkinSrvSkinPackageLocation)
	?Directory@CAknsSrvSkinInformationPkg@@QBEAAVTDesC16@@XZ @ 34 NONAME ; class TDesC16 & CAknsSrvSkinInformationPkg::Directory(void) const
	?DisableSkinChangeNotify@RAknsSrvSession@@QAEXXZ @ 35 NONAME ; void RAknsSrvSession::DisableSkinChangeNotify(void)
	?EffectCount@CAknsEffectQueueItemDef@@QBEKXZ @ 36 NONAME ; unsigned long CAknsEffectQueueItemDef::EffectCount(void) const
	?EffectUid@CAknsEffectItemDef@@QBE?AVTUid@@XZ @ 37 NONAME ; class TUid CAknsEffectItemDef::EffectUid(void) const
	?EnableSkinChangeNotify@RAknsSrvSession@@QAEXXZ @ 38 NONAME ; void RAknsSrvSession::EnableSkinChangeNotify(void)
	?EndRender@CAknsSrvChunkLookup@@QAEXXZ @ 39 NONAME ; void CAknsSrvChunkLookup::EndRender(void)
	?EnumerateSkinPackagesL@RAknsSrvSession@@QAEPAV?$CArrayPtr@VCAknsSrvSkinInformationPkg@@@@W4TAknSkinSrvSkinPackageLocation@@@Z @ 40 NONAME ; class CArrayPtr<class CAknsSrvSkinInformationPkg> * RAknsSrvSession::EnumerateSkinPackagesL(enum TAknSkinSrvSkinPackageLocation)
	?Filename@CAknsBitmapItemDef@@QBEABVTDesC16@@XZ @ 41 NONAME ; class TDesC16 const & CAknsBitmapItemDef::Filename(void) const
	?Flash@CAknsBmpAnimItemDef@@QBEHXZ @ 42 NONAME ; int CAknsBmpAnimItemDef::Flash(void) const
	?FrameInfos@CAknsBmpAnimItemDef@@QBEPBUTAknsBmpAnimFrameInfo@@XZ @ 43 NONAME ; struct TAknsBmpAnimFrameInfo const * CAknsBmpAnimItemDef::FrameInfos(void) const
	?FrameInterval@CAknsBmpAnimItemDef@@QBEFXZ @ 44 NONAME ; short CAknsBmpAnimItemDef::FrameInterval(void) const
	?FullName@CAknsSrvSkinInformationPkg@@QBEAAVTDesC16@@XZ @ 45 NONAME ; class TDesC16 & CAknsSrvSkinInformationPkg::FullName(void) const
	?GetBitmapIndex@CAknsEffectParamDef@@QAEKXZ @ 46 NONAME ; unsigned long CAknsEffectParamDef::GetBitmapIndex(void)
	?GetEffect@CAknsEffectQueueItemDef@@QBEPAVCAknsEffectItemDef@@J@Z @ 47 NONAME ; class CAknsEffectItemDef * CAknsEffectQueueItemDef::GetEffect(long) const
	?GetFilename@CAknsEffectParamDef@@QAEPBVTDesC16@@XZ @ 48 NONAME ; class TDesC16 const * CAknsEffectParamDef::GetFilename(void)
	?GetMaskIndex@CAknsEffectParamDef@@QAEKXZ @ 49 NONAME ; unsigned long CAknsEffectParamDef::GetMaskIndex(void)
	?GetName@CAknsEffectParamDef@@QAEPBVTDesC16@@XZ @ 50 NONAME ; class TDesC16 const * CAknsEffectParamDef::GetName(void)
	?GetNumber@CAknsEffectParamDef@@QAEKXZ @ 51 NONAME ; unsigned long CAknsEffectParamDef::GetNumber(void)
	?GetParameter@CAknsEffectItemDef@@QBEPAVCAknsEffectParamDef@@J@Z @ 52 NONAME ; class CAknsEffectParamDef * CAknsEffectItemDef::GetParameter(long) const
	?GetString@CAknsEffectParamDef@@QAEPBVTDesC16@@XZ @ 53 NONAME ; class TDesC16 const * CAknsEffectParamDef::GetString(void)
	?GetType@CAknsEffectParamDef@@QAEKXZ @ 54 NONAME ; unsigned long CAknsEffectParamDef::GetType(void)
	?HasIconset@CAknsSrvSkinInformationPkg@@QBEHXZ @ 55 NONAME ; int CAknsSrvSkinInformationPkg::HasIconset(void) const
	?ID@CAknsItemDef@@QBE?AVTAknsItemID@@XZ @ 56 NONAME ; class TAknsItemID CAknsItemDef::ID(void) const
	?IdleStateWallPaperImageFileName@CAknsSrvSkinInformationPkg@@QBEAAVTDesC16@@XZ @ 57 NONAME ; class TDesC16 & CAknsSrvSkinInformationPkg::IdleStateWallPaperImageFileName(void) const
	?IdleStateWallPaperImageIndex@CAknsSrvSkinInformationPkg@@QBEHXZ @ 58 NONAME ; int CAknsSrvSkinInformationPkg::IdleStateWallPaperImageIndex(void) const
	?Images@CAknsImageTableItemDef@@QBEPBVTAknsItemID@@XZ @ 59 NONAME ; class TAknsItemID const * CAknsImageTableItemDef::Images(void) const
	?Index@CAknsBitmapItemDef@@QBEHXZ @ 60 NONAME ; int CAknsBitmapItemDef::Index(void) const
	?IniFileDirectory@CAknsSrvSkinInformationPkg@@QBEAAVTDesC16@@XZ @ 61 NONAME ; class TDesC16 & CAknsSrvSkinInformationPkg::IniFileDirectory(void) const
	?IsCopyable@CAknsSrvSkinInformationPkg@@QBEHXZ @ 62 NONAME ; int CAknsSrvSkinInformationPkg::IsCopyable(void) const
	?IsCorrupted@CAknsSrvSkinInformationPkg@@QBEHXZ @ 63 NONAME ; int CAknsSrvSkinInformationPkg::IsCorrupted(void) const
	?IsDeletable@CAknsSrvSkinInformationPkg@@QBEHXZ @ 64 NONAME ; int CAknsSrvSkinInformationPkg::IsDeletable(void) const
	?LastFrameBackground@CAknsBmpAnimItemDef@@QBEHXZ @ 65 NONAME ; int CAknsBmpAnimItemDef::LastFrameBackground(void) const
	?LinearOrder@CAknsItemDef@@SAHABV1@0@Z @ 66 NONAME ; int CAknsItemDef::LinearOrder(class CAknsItemDef const &, class CAknsItemDef const &)
	?LinearOrder@TAknsItemID@@SAHABV1@0@Z @ 67 NONAME ; int TAknsItemID::LinearOrder(class TAknsItemID const &, class TAknsItemID const &)
	?LookupAndCreateDefL@CAknsSrvChunkLookup@@QAEPAVCAknsItemDef@@ABVTAknsItemID@@@Z @ 68 NONAME ; class CAknsItemDef * CAknsSrvChunkLookup::LookupAndCreateDefL(class TAknsItemID const &)
	?LookupAndCreateScalableItemL@CAknsSrvChunkLookup@@QAEXABVTAknsItemID@@W4TAknsLayoutType@@ABVTSize@@AAPAVCFbsBitmap@@3@Z @ 69 NONAME ; void CAknsSrvChunkLookup::LookupAndCreateScalableItemL(class TAknsItemID const &, enum TAknsLayoutType, class TSize const &, class CFbsBitmap * &, class CFbsBitmap * &)
	?MaskIndex@CAknsMaskedBitmapItemDef@@QBEHXZ @ 70 NONAME ; int CAknsMaskedBitmapItemDef::MaskIndex(void) const
	?MinInterval@CAknsAnimationItemDef@@QBEKXZ @ 71 NONAME ; unsigned long CAknsAnimationItemDef::MinInterval(void) const
	?Morphing@CAknsAnimationItemDef@@QBEHXZ @ 72 NONAME ; int CAknsAnimationItemDef::Morphing(void) const
	?Name@CAknsNamedReferenceDef@@QBEPBVTDesC16@@XZ @ 73 NONAME ; class TDesC16 const * CAknsNamedReferenceDef::Name(void) const
	?Name@CAknsSizeBoundParamDef@@QBEPBVTDesC16@@XZ @ 74 NONAME ; class TDesC16 const * CAknsSizeBoundParamDef::Name(void) const
	?Name@CAknsSrvSkinInformationPkg@@QBEAAVTDesC16@@XZ @ 75 NONAME ; class TDesC16 & CAknsSrvSkinInformationPkg::Name(void) const
	?NamedReference@CAknsAnimationCommandItemDef@@QBEPAVCAknsNamedReferenceDef@@J@Z @ 76 NONAME ; class CAknsNamedReferenceDef * CAknsAnimationCommandItemDef::NamedReference(long) const
	?NamedReferenceCount@CAknsAnimationCommandItemDef@@QBEHXZ @ 77 NONAME ; int CAknsAnimationCommandItemDef::NamedReferenceCount(void) const
	?NewL@CAknsAnimationCommandItemDef@@SAPAV1@XZ @ 78 NONAME ; class CAknsAnimationCommandItemDef * CAknsAnimationCommandItemDef::NewL(void)
	?NewL@CAknsAnimationItemDef@@SAPAV1@ABVTAknsItemID@@@Z @ 79 NONAME ; class CAknsAnimationItemDef * CAknsAnimationItemDef::NewL(class TAknsItemID const &)
	?NewL@CAknsAnimationValueDef@@SAPAV1@XZ @ 80 NONAME ; class CAknsAnimationValueDef * CAknsAnimationValueDef::NewL(void)
	?NewL@CAknsBitmapItemDef@@SAPAV1@ABVTAknsItemID@@@Z @ 81 NONAME ; class CAknsBitmapItemDef * CAknsBitmapItemDef::NewL(class TAknsItemID const &)
	?NewL@CAknsBitmapItemDef@@SAPAV1@ABVTAknsItemID@@ABVTDesC16@@H@Z @ 82 NONAME ; class CAknsBitmapItemDef * CAknsBitmapItemDef::NewL(class TAknsItemID const &, class TDesC16 const &, int)
	?NewL@CAknsBmpAnimItemDef@@SAPAV1@ABVTAknsItemID@@@Z @ 83 NONAME ; class CAknsBmpAnimItemDef * CAknsBmpAnimItemDef::NewL(class TAknsItemID const &)
	?NewL@CAknsBmpAnimItemDef@@SAPAV1@ABVTAknsItemID@@HPBV2@PBUTAknsBmpAnimFrameInfo@@@Z @ 84 NONAME ; class CAknsBmpAnimItemDef * CAknsBmpAnimItemDef::NewL(class TAknsItemID const &, int, class TAknsItemID const *, struct TAknsBmpAnimFrameInfo const *)
	?NewL@CAknsColorTableItemDef@@SAPAV1@ABVTAknsItemID@@@Z @ 85 NONAME ; class CAknsColorTableItemDef * CAknsColorTableItemDef::NewL(class TAknsItemID const &)
	?NewL@CAknsColorTableItemDef@@SAPAV1@ABVTAknsItemID@@HPBUTAknsColorTableEntry@@@Z @ 86 NONAME ; class CAknsColorTableItemDef * CAknsColorTableItemDef::NewL(class TAknsItemID const &, int, struct TAknsColorTableEntry const *)
	?NewL@CAknsEffectItemDef@@SAPAV1@XZ @ 87 NONAME ; class CAknsEffectItemDef * CAknsEffectItemDef::NewL(void)
	?NewL@CAknsEffectParamDef@@SAPAV1@XZ @ 88 NONAME ; class CAknsEffectParamDef * CAknsEffectParamDef::NewL(void)
	?NewL@CAknsEffectQueueItemDef@@SAPAV1@ABVTAknsItemID@@@Z @ 89 NONAME ; class CAknsEffectQueueItemDef * CAknsEffectQueueItemDef::NewL(class TAknsItemID const &)
	?NewL@CAknsImageItemDef@@SAPAV1@ABVTAknsItemID@@@Z @ 90 NONAME ; class CAknsImageItemDef * CAknsImageItemDef::NewL(class TAknsItemID const &)
	?NewL@CAknsImageTableItemDef@@SAPAV1@ABVTAknsItemID@@@Z @ 91 NONAME ; class CAknsImageTableItemDef * CAknsImageTableItemDef::NewL(class TAknsItemID const &)
	?NewL@CAknsImageTableItemDef@@SAPAV1@ABVTAknsItemID@@HPBV2@@Z @ 92 NONAME ; class CAknsImageTableItemDef * CAknsImageTableItemDef::NewL(class TAknsItemID const &, int, class TAknsItemID const *)
	?NewL@CAknsItemDef@@SAPAV1@ABVTAknsItemID@@@Z @ 93 NONAME ; class CAknsItemDef * CAknsItemDef::NewL(class TAknsItemID const &)
	?NewL@CAknsMaskedBitmapItemDef@@SAPAV1@ABVTAknsItemID@@@Z @ 94 NONAME ; class CAknsMaskedBitmapItemDef * CAknsMaskedBitmapItemDef::NewL(class TAknsItemID const &)
	?NewL@CAknsMaskedBitmapItemDef@@SAPAV1@ABVTAknsItemID@@ABVTDesC16@@HH@Z @ 95 NONAME ; class CAknsMaskedBitmapItemDef * CAknsMaskedBitmapItemDef::NewL(class TAknsItemID const &, class TDesC16 const &, int, int)
	?NewL@CAknsNamedReferenceDef@@SAPAV1@XZ @ 96 NONAME ; class CAknsNamedReferenceDef * CAknsNamedReferenceDef::NewL(void)
	?NewL@CAknsSizeBoundParamDef@@SAPAV1@XZ @ 97 NONAME ; class CAknsSizeBoundParamDef * CAknsSizeBoundParamDef::NewL(void)
	?NewL@CAknsStringItemDef@@SAPAV1@ABVTAknsItemID@@@Z @ 98 NONAME ; class CAknsStringItemDef * CAknsStringItemDef::NewL(class TAknsItemID const &)
	?NewL@CAknsTimingModelDef@@SAPAV1@XZ @ 99 NONAME ; class CAknsTimingModelDef * CAknsTimingModelDef::NewL(void)
	?NumberOfColors@CAknsColorTableItemDef@@QBEHXZ @ 100 NONAME ; int CAknsColorTableItemDef::NumberOfColors(void) const
	?NumberOfImages@CAknsImageTableItemDef@@QBEHXZ @ 101 NONAME ; int CAknsImageTableItemDef::NumberOfImages(void) const
	?OpenBitmapFile@RAknsSrvSession@@QAEHABVTDesC16@@AAH@Z @ 102 NONAME ; int RAknsSrvSession::OpenBitmapFile(class TDesC16 const &, int &)
	?OpenInifile@RAknsSrvSession@@QAEHVTAknsPkgID@@W4TAknSkinSrvSkinPackageLocation@@AAHH@Z @ 103 NONAME ; int RAknsSrvSession::OpenInifile(class TAknsPkgID, enum TAknSkinSrvSkinPackageLocation, int &, int)
	?PID@CAknsSrvSkinInformationPkg@@QBE?AVTAknsPkgID@@XZ @ 104 NONAME ; class TAknsPkgID CAknsSrvSkinInformationPkg::PID(void) const
	?ParamFlags@CAknsSizeBoundParamDef@@QBEKXZ @ 105 NONAME ; unsigned long CAknsSizeBoundParamDef::ParamFlags(void) const
	?Parameter@CAknsAnimationValueDef@@QBEPAVCAknsEffectParamDef@@J@Z @ 106 NONAME ; class CAknsEffectParamDef * CAknsAnimationValueDef::Parameter(long) const
	?Parameter@CAknsTimingModelDef@@QBEPAVCAknsEffectParamDef@@J@Z @ 107 NONAME ; class CAknsEffectParamDef * CAknsTimingModelDef::Parameter(long) const
	?ParameterCount@CAknsAnimationValueDef@@QBEHXZ @ 108 NONAME ; int CAknsAnimationValueDef::ParameterCount(void) const
	?ParameterCount@CAknsEffectItemDef@@QBEHXZ @ 109 NONAME ; int CAknsEffectItemDef::ParameterCount(void) const
	?ParameterCount@CAknsTimingModelDef@@QBEHXZ @ 110 NONAME ; int CAknsTimingModelDef::ParameterCount(void) const
	?PinboarWallPaperImageFileName@CAknsSrvSkinInformationPkg@@QBEAAVTDesC16@@XZ @ 111 NONAME ; class TDesC16 & CAknsSrvSkinInformationPkg::PinboarWallPaperImageFileName(void) const
	?PinboardWallPaperImageIndex@CAknsSrvSkinInformationPkg@@QBEHXZ @ 112 NONAME ; int CAknsSrvSkinInformationPkg::PinboardWallPaperImageIndex(void) const
	?PlayMode@CAknsBmpAnimItemDef@@QBEFXZ @ 113 NONAME ; short CAknsBmpAnimItemDef::PlayMode(void) const
	?PreprocessCommand@CAknsAnimationItemDef@@QBEPAVCAknsEffectItemDef@@J@Z @ 114 NONAME ; class CAknsEffectItemDef * CAknsAnimationItemDef::PreprocessCommand(long) const
	?PreprocessCommandCount@CAknsAnimationItemDef@@QBEHXZ @ 115 NONAME ; int CAknsAnimationItemDef::PreprocessCommandCount(void) const
	?ProtectionType@CAknsSrvSkinInformationPkg@@QBE?AW4TAknsSkinSrvSkinProtectionType@@XZ @ 116 NONAME ; enum TAknsSkinSrvSkinProtectionType CAknsSrvSkinInformationPkg::ProtectionType(void) const
	?Reserved1@CAknsItemDef@@AAEXXZ @ 117 NONAME ; void CAknsItemDef::Reserved1(void)
	?Reserved1@RAknsSrvSession@@AAEHXZ @ 118 NONAME ; int RAknsSrvSession::Reserved1(void)
	?Reserved2@CAknsItemDef@@AAEXXZ @ 119 NONAME ; void CAknsItemDef::Reserved2(void)
	?Reserved2@RAknsSrvSession@@AAEHXZ @ 120 NONAME ; int RAknsSrvSession::Reserved2(void)
	?Reserved3@RAknsSrvSession@@AAEHXZ @ 121 NONAME ; int RAknsSrvSession::Reserved3(void)
	?Reserved4@RAknsSrvSession@@AAEXXZ @ 122 NONAME ; void RAknsSrvSession::Reserved4(void)
	?Reserved@CAknsSrvChunkLookup@@AAEHXZ @ 123 NONAME ; int CAknsSrvChunkLookup::Reserved(void)
	?SetAllDefinitionSets@RAknsSrvSession@@QAEHVTAknsPkgID@@@Z @ 124 NONAME ; int RAknsSrvSession::SetAllDefinitionSets(class TAknsPkgID)
	?SetAnimationValueUid@CAknsAnimationValueDef@@QAEXVTUid@@@Z @ 125 NONAME ; void CAknsAnimationValueDef::SetAnimationValueUid(class TUid)
	?SetAttributesL@CAknsImageItemDef@@QAEXABUTAknsImageAttributeData@@@Z @ 126 NONAME ; void CAknsImageItemDef::SetAttributesL(struct TAknsImageAttributeData const &)
	?SetColors@CAknsColorTableItemDef@@QAEXHPBUTAknsColorTableEntry@@@Z @ 127 NONAME ; void CAknsColorTableItemDef::SetColors(int, struct TAknsColorTableEntry const *)
	?SetColorsL@CAknsColorTableItemDef@@QAEXHPBUTAknsColorTableEntry@@@Z @ 128 NONAME ; void CAknsColorTableItemDef::SetColorsL(int, struct TAknsColorTableEntry const *)
	?SetDataL@CAknsNamedReferenceDef@@QAEXABVTDesC16@@K@Z @ 129 NONAME ; void CAknsNamedReferenceDef::SetDataL(class TDesC16 const &, unsigned long)
	?SetDataL@CAknsSizeBoundParamDef@@QAEXABVTDesC16@@KK@Z @ 130 NONAME ; void CAknsSizeBoundParamDef::SetDataL(class TDesC16 const &, unsigned long, unsigned long)
	?SetEffectUid@CAknsEffectItemDef@@QAEXVTUid@@@Z @ 131 NONAME ; void CAknsEffectItemDef::SetEffectUid(class TUid)
	?SetFilename@CAknsBitmapItemDef@@QAEXABVTDesC16@@@Z @ 132 NONAME ; void CAknsBitmapItemDef::SetFilename(class TDesC16 const &)
	?SetFilenameL@CAknsBitmapItemDef@@QAEXABVTDesC16@@@Z @ 133 NONAME ; void CAknsBitmapItemDef::SetFilenameL(class TDesC16 const &)
	?SetFlash@CAknsBmpAnimItemDef@@QAEXH@Z @ 134 NONAME ; void CAknsBmpAnimItemDef::SetFlash(int)
	?SetFrameInfos@CAknsBmpAnimItemDef@@QAEXPBUTAknsBmpAnimFrameInfo@@@Z @ 135 NONAME ; void CAknsBmpAnimItemDef::SetFrameInfos(struct TAknsBmpAnimFrameInfo const *)
	?SetFrameInfosL@CAknsBmpAnimItemDef@@QAEXPBUTAknsBmpAnimFrameInfo@@@Z @ 136 NONAME ; void CAknsBmpAnimItemDef::SetFrameInfosL(struct TAknsBmpAnimFrameInfo const *)
	?SetFrameInterval@CAknsBmpAnimItemDef@@QAEXF@Z @ 137 NONAME ; void CAknsBmpAnimItemDef::SetFrameInterval(short)
	?SetFromDesL@TAknsPkgID@@QAEXABVTDesC16@@@Z @ 138 NONAME ; void TAknsPkgID::SetFromDesL(class TDesC16 const &)
	?SetIdleWallpaper@RAknsSrvSession@@QAEHABVTDesC16@@@Z @ 139 NONAME ; int RAknsSrvSession::SetIdleWallpaper(class TDesC16 const &)
	?SetImages@CAknsImageTableItemDef@@QAEXHPBVTAknsItemID@@@Z @ 140 NONAME ; void CAknsImageTableItemDef::SetImages(int, class TAknsItemID const *)
	?SetImagesL@CAknsImageTableItemDef@@QAEXHPBVTAknsItemID@@@Z @ 141 NONAME ; void CAknsImageTableItemDef::SetImagesL(int, class TAknsItemID const *)
	?SetIndex@CAknsBitmapItemDef@@QAEXH@Z @ 142 NONAME ; void CAknsBitmapItemDef::SetIndex(int)
	?SetLastFrameBackground@CAknsBmpAnimItemDef@@QAEXH@Z @ 143 NONAME ; void CAknsBmpAnimItemDef::SetLastFrameBackground(int)
	?SetLayerIndexesAndModes@CAknsAnimationItemDef@@QAEXKKKK@Z @ 144 NONAME ; void CAknsAnimationItemDef::SetLayerIndexesAndModes(unsigned long, unsigned long, unsigned long, unsigned long)
	?SetLayerIndexesAndModes@CAknsEffectItemDef@@QAEXKKKKKK@Z @ 145 NONAME ; void CAknsEffectItemDef::SetLayerIndexesAndModes(unsigned long, unsigned long, unsigned long, unsigned long, unsigned long, unsigned long)
	?SetLayerIndexesAndModes@CAknsEffectQueueItemDef@@QAEXKKKK@Z @ 146 NONAME ; void CAknsEffectQueueItemDef::SetLayerIndexesAndModes(unsigned long, unsigned long, unsigned long, unsigned long)
	?SetMaskIndex@CAknsMaskedBitmapItemDef@@QAEXH@Z @ 147 NONAME ; void CAknsMaskedBitmapItemDef::SetMaskIndex(int)
	?SetMinInterval@CAknsAnimationItemDef@@QAEXK@Z @ 148 NONAME ; void CAknsAnimationItemDef::SetMinInterval(unsigned long)
	?SetMorphing@CAknsAnimationItemDef@@QAEXH@Z @ 149 NONAME ; void CAknsAnimationItemDef::SetMorphing(int)
	?SetNameL@CAknsEffectParamDef@@QAEXABVTDesC16@@@Z @ 150 NONAME ; void CAknsEffectParamDef::SetNameL(class TDesC16 const &)
	?SetPlayMode@CAknsBmpAnimItemDef@@QAEXF@Z @ 151 NONAME ; void CAknsBmpAnimItemDef::SetPlayMode(short)
	?SetReference@CAknsEffectQueueItemDef@@QAEXABVTAknsItemID@@@Z @ 152 NONAME ; void CAknsEffectQueueItemDef::SetReference(class TAknsItemID const &)
	?SetStringL@CAknsStringItemDef@@QAEXABVTDesC16@@@Z @ 153 NONAME ; void CAknsStringItemDef::SetStringL(class TDesC16 const &)
	?SetTimingModelId@CAknsAnimationValueDef@@QAEXK@Z @ 154 NONAME ; void CAknsAnimationValueDef::SetTimingModelId(unsigned long)
	?SetTimingModelUid@CAknsTimingModelDef@@QAEXVTUid@@@Z @ 155 NONAME ; void CAknsTimingModelDef::SetTimingModelUid(class TUid)
	?SetType@CAknsEffectParamDef@@QAEXK@Z @ 156 NONAME ; void CAknsEffectParamDef::SetType(unsigned long)
	?SetValue@CAknsEffectParamDef@@QAEXK@Z @ 157 NONAME ; void CAknsEffectParamDef::SetValue(unsigned long)
	?SetValueL@CAknsEffectParamDef@@QAEXABVTDesC16@@@Z @ 158 NONAME ; void CAknsEffectParamDef::SetValueL(class TDesC16 const &)
	?SetValueL@CAknsEffectParamDef@@QAEXABVTDesC16@@KK@Z @ 159 NONAME ; void CAknsEffectParamDef::SetValueL(class TDesC16 const &, unsigned long, unsigned long)
	?SizeBoundParam@CAknsAnimationItemDef@@QBEPAVCAknsSizeBoundParamDef@@J@Z @ 160 NONAME ; class CAknsSizeBoundParamDef * CAknsAnimationItemDef::SizeBoundParam(long) const
	?SizeBoundParamCount@CAknsAnimationItemDef@@QBEHXZ @ 161 NONAME ; int CAknsAnimationItemDef::SizeBoundParamCount(void) const
	?StoreScalableGraphics@RAknsSrvSession@@QAEHABVTAknsItemID@@W4TAknsLayoutType@@ABVTSize@@PBVCFbsBitmap@@3H@Z @ 162 NONAME ; int RAknsSrvSession::StoreScalableGraphics(class TAknsItemID const &, enum TAknsLayoutType, class TSize const &, class CFbsBitmap const *, class CFbsBitmap const *, int)
	?String@CAknsStringItemDef@@QBEABVTDesC16@@XZ @ 163 NONAME ; class TDesC16 const & CAknsStringItemDef::String(void) const
	?ThreadStart@CAknsSrv@@SAHXZ @ 164 NONAME ; int CAknsSrv::ThreadStart(void)
	?TimingModel@CAknsAnimationItemDef@@QBEPAVCAknsTimingModelDef@@J@Z @ 165 NONAME ; class CAknsTimingModelDef * CAknsAnimationItemDef::TimingModel(long) const
	?TimingModelCount@CAknsAnimationItemDef@@QBEHXZ @ 166 NONAME ; int CAknsAnimationItemDef::TimingModelCount(void) const
	?TimingModelId@CAknsAnimationValueDef@@QBEKXZ @ 167 NONAME ; unsigned long CAknsAnimationValueDef::TimingModelId(void) const
	?TimingModelUid@CAknsTimingModelDef@@QBE?AVTUid@@XZ @ 168 NONAME ; class TUid CAknsTimingModelDef::TimingModelUid(void) const
	?Type@CAknsItemDef@@QBE?AW4TAknsItemType@@XZ @ 169 NONAME ; enum TAknsItemType CAknsItemDef::Type(void) const
	?DecodeWallpaperImageL@RAknsSrvSession@@QAEXABVTDesC16@@ABVTSize@@AAPAVCFbsBitmap@@2@Z @ 170 NONAME ; void RAknsSrvSession::DecodeWallpaperImageL(class TDesC16 const &, class TSize const &, class CFbsBitmap * &, class CFbsBitmap * &)

