EXPORTS
	_ZN10LafListBox10FadeBehindEv @ 1 NONAME
	_ZN10LafListBox10MapKeyCodeERK9TKeyEvent10TEventCode @ 2 NONAME
	_ZN10LafListBox15GetBorderColorsERN10TGulBorder7TColorsERK7MLafEnvRK11CCoeControl @ 3 NONAME
	_ZN10LafListBox16GetColorUseListLER9CArrayFixI12TCoeColorUseE @ 4 NONAME
	_ZN10LafListBox16GetDefaultBorderER10TGulBorder @ 5 NONAME
	_ZN10LafListBox17InputCapabilitiesEi @ 6 NONAME
	_ZN10LafListBox21DefaultScrollBarFlagsEi @ 7 NONAME
	_ZN10LafListBox21GetPopoutBorderColorsERN10TGulBorder7TColorsERK7MLafEnvRK11CCoeControl @ 8 NONAME
	_ZN10LafListBox22GetDefaultPopoutBorderER10TGulBorder @ 9 NONAME
	_ZN10LafListBox29GetDefaultScrollBarAttributesEiRN17LafScrollBarFrame20TScrollBarAttributesE @ 10 NONAME
	_ZN10LafListBox7MarginsEv @ 11 NONAME
	_ZN10LafListBox8ConstantENS_13TConstantTypeE @ 12 NONAME
	_ZN10LafMenuBar10FadeBehindEv @ 13 NONAME
	_ZN10LafMenuBar10MapKeyCodeERK9TKeyEvent10TEventCode @ 14 NONAME
	_ZN10LafMenuBar11DefaultSpanEv @ 15 NONAME
	_ZN10LafMenuBar11ShowHotKeysEv @ 16 NONAME
	_ZN10LafMenuBar15GetBorderColorsERN10TGulBorder7TColorsERK7MLafEnvRK11CCoeControl @ 17 NONAME
	_ZN10LafMenuBar15IsAlwaysVisibleEv @ 18 NONAME
	_ZN10LafMenuBar16DrawBetweenRectsERK7MLafEnvRK11CCoeControlR9CWindowGcRK5TRectSA_ @ 19 NONAME
	_ZN10LafMenuBar16GetColorUseListLER9CArrayFixI12TCoeColorUseE @ 20 NONAME
	_ZN10LafMenuBar16GetDefaultBorderER10TGulBorder @ 21 NONAME
	_ZN10LafMenuBar16TTitleAttributesC1Ev @ 22 NONAME
	_ZN10LafMenuBar16TTitleAttributesC2Ev @ 23 NONAME
	_ZN10LafMenuBar17InputCapabilitiesEv @ 24 NONAME
	_ZN10LafMenuBar21TopLeftCornerPositionER6TPointRNS_7TAnchorE @ 25 NONAME
	_ZN10LafMenuBar24PrepareGcForDrawingTitleERK7MLafEnvRK11CCoeControlR9CWindowGc @ 26 NONAME
	_ZN10LafMenuBar4FontERK7MLafEnvNS_9TFontTypeE @ 27 NONAME
	_ZN10LafMenuBar8ConstantENS_13TConstantTypeE @ 28 NONAME
	_ZN10LafMenuBar8DrawTextERK7MLafEnvRK11CCoeControlR9CWindowGcRK5TRectRK7TDesC16RKNS_16TTitleAttributesE @ 29 NONAME
	_ZN10LafToolBar15GetBorderColorsERN10TGulBorder7TColorsERK7MLafEnvRK11CCoeControl @ 30 NONAME
	_ZN10LafToolBar16GetColorUseListLER9CArrayFixI12TCoeColorUseE @ 31 NONAME
	_ZN10LafToolBar16GetDefaultBorderER10TGulBorder @ 32 NONAME
	_ZN11LafMenuPane10FadeBehindEv @ 33 NONAME
	_ZN11LafMenuPane10MapKeyCodeERK9TKeyEvent10TEventCode @ 34 NONAME
	_ZN11LafMenuPane11ShowHotKeysEv @ 35 NONAME
	_ZN11LafMenuPane13DrawSeperatorERK7MLafEnvRK11CCoeControlR9CWindowGcRK5TRectRKNS_15TItemAttributesE @ 36 NONAME
	_ZN11LafMenuPane14AdornmentSpaceERKNS_15TItemAttributesE @ 37 NONAME
	_ZN11LafMenuPane14CascadeMarginsEv @ 38 NONAME
	_ZN11LafMenuPane14DrawHotKeyTextERK7MLafEnvRK11CCoeControlR9CWindowGcRK5TRectRK7TDesC16RKNS_15TItemAttributesE @ 39 NONAME
	_ZN11LafMenuPane15DefaultCbaResIdEv @ 40 NONAME
	_ZN11LafMenuPane15GetBorderColorsERN10TGulBorder7TColorsERK7MLafEnvRK11CCoeControl @ 41 NONAME
	_ZN11LafMenuPane15TItemAttributesC1Ev @ 42 NONAME
	_ZN11LafMenuPane15TItemAttributesC2Ev @ 43 NONAME
	_ZN11LafMenuPane16GetColorUseListLER9CArrayFixI12TCoeColorUseE @ 44 NONAME
	_ZN11LafMenuPane16GetDefaultBorderER10TGulBorder @ 45 NONAME
	_ZN11LafMenuPane16ScrollBarMarginsEv @ 46 NONAME
	_ZN11LafMenuPane17DrawLeftAdornmentERK7MLafEnvRK11CCoeControlR9CWindowGcRK5TRectRKNS_15TItemAttributesE @ 47 NONAME
	_ZN11LafMenuPane17InputCapabilitiesEv @ 48 NONAME
	_ZN11LafMenuPane18DrawRightAdornmentERK7MLafEnvRK11CCoeControlR9CWindowGcRK5TRectRKNS_15TItemAttributesE @ 49 NONAME
	_ZN11LafMenuPane18DrawTitlePaneJointERK7MLafEnvRK11CCoeControlR9CWindowGcPS4_RK5TRect @ 50 NONAME
	_ZN11LafMenuPane18DrawVisualFeedbackERK7MLafEnvRK11CCoeControlR9CWindowGcRK5TRect @ 51 NONAME
	_ZN11LafMenuPane21DefaultScrollBarFlagsEi @ 52 NONAME
	_ZN11LafMenuPane21PrepareGcForHighlightERK7MLafEnvRK11CCoeControlR9CWindowGcRKNS_15TItemAttributesE @ 53 NONAME
	_ZN11LafMenuPane24PrepareGcForDrawingItemsERK7MLafEnvRK11CCoeControlR9CWindowGc @ 54 NONAME
	_ZN11LafMenuPane29GetDefaultScrollBarAttributesEiRN17LafScrollBarFrame20TScrollBarAttributesE @ 55 NONAME
	_ZN11LafMenuPane29SelectFirstItemOnConstructionEv @ 56 NONAME
	_ZN11LafMenuPane4FontERK7MLafEnvNS_9TFontTypeE @ 57 NONAME
	_ZN11LafMenuPane7MarginsEv @ 58 NONAME
	_ZN11LafMenuPane8ConstantENS_13TConstantTypeE @ 59 NONAME
	_ZN11LafMenuPane8DrawTextERK7MLafEnvRK11CCoeControlR9CWindowGcRK5TRectRK7TDesC16RKNS_15TItemAttributesE @ 60 NONAME
	_ZN12LafScrollBar11RedrawShaftERK7MLafEnvRK11CCoeControlR9CWindowGcRK5TRectiii @ 61 NONAME
	_ZN12LafScrollBar15GetBorderColorsERN10TGulBorder7TColorsERK7MLafEnvRK11CCoeControl @ 62 NONAME
	_ZN12LafScrollBar16GetColorUseListLER9CArrayFixI12TCoeColorUseE @ 63 NONAME
	_ZN12LafScrollBar16GetDefaultBorderER10TGulBorder @ 64 NONAME
	_ZN12LafScrollBar20CalculateThumbLengthEiii @ 65 NONAME
	_ZN12LafScrollBar20DrawShaftAroundThumbERK7MLafEnvRK11CCoeControlR9CWindowGcRK5TRectiii @ 66 NONAME
	_ZN12LafScrollBar22IsBorderOutsideButtonsEv @ 67 NONAME
	_ZN12LafScrollBar23CalcThumbPosInScrollBarEiiiiii @ 68 NONAME
	_ZN12LafScrollBar23IsPointerOutOfDragRangeERK6TPointRK5TRecti @ 69 NONAME
	_ZN12LafScrollBar24DrawHighlightedShaftAreaERK7MLafEnvRK11CCoeControlR9CWindowGcR5TRectiiii @ 70 NONAME
	_ZN12LafScrollBar28CalcThumbPosInScrollBarModelEiiiiii @ 71 NONAME
	_ZN12LafScrollBar34AdjustShaftRangeForScrollBarBorderERiS0_iiRK8TMargins @ 72 NONAME
	_ZN12LafScrollBar36AdjustButtonExtentForScrollBarBorderER6TPointR5TSizeiiiRK8TMargins @ 73 NONAME
	_ZN12LafScrollBar8ConstantENS_13TConstantTypeE @ 74 NONAME
	_ZN12LafScrollBar9DrawShaftERK7MLafEnvRK11CCoeControlR9CWindowGcRK5TRectii @ 75 NONAME
	_ZN13LafButtonBase15BubbleHelpStateERK11CCoeControlRK13TPointerEventi @ 76 NONAME
	_ZN13LafButtonBase17InputCapabilitiesEv @ 77 NONAME
	_ZN13LafButtonBase28ReportIfBubbleHelpDisplayingEv @ 78 NONAME
	_ZN13LafMenuButton15GetMenuPositionER6TPointRK5TRectRK5TSizeS7_ @ 79 NONAME
	_ZN13LafMenuButton23IsReportingOnButtonDownEv @ 80 NONAME
	_ZN13LafTextButton7MarginsEv @ 81 NONAME
	_ZN14LafButtonPanel18ButtonsAllSameSizeEv @ 82 NONAME
	_ZN14LafButtonPanel18ReduceMarginsToFitERK11TFixedArrayINS_11TDimensionsELi5EERaS5_Ri @ 83 NONAME
	_ZN14LafButtonPanel23TranslateForExcessSpaceEiRiS0_ @ 84 NONAME
	_ZN14LafButtonPanel7MarginsEv @ 85 NONAME
	_ZN14LafButtonPanel8ConstantENS_13TConstantTypeE @ 86 NONAME
	_ZN14LafListBoxData14DrawSearchTextERK5TRectR9CWindowGcRK5CFontS7_RK7TDesC16iiiN16CGraphicsContext10TTextAlignE @ 87 NONAME
	_ZN14LafListBoxView9ItemWidthEii @ 88 NONAME
	_ZN14LafScrollThumb13DrawDragStateERK7MLafEnvR9CWindowGcRK11CCoeControliRK5TRecti @ 89 NONAME
	_ZN14LafScrollThumb15GetBorderColorsERN10TGulBorder7TColorsERK7MLafEnvRK11CCoeControl @ 90 NONAME
	_ZN14LafScrollThumb16GetColorUseListLER9CArrayFixI12TCoeColorUseE @ 91 NONAME
	_ZN14LafScrollThumb16GetDefaultBorderER10TGulBorderi @ 92 NONAME
	_ZN14LafTextListBox4FontERK7MLafEnv @ 93 NONAME
	_ZN15LafBitmapButton7MarginsEv @ 94 NONAME
	_ZN15LafMenuBarTitle8DrawIconER9CWindowGcRK5TRectRK8CGulIcon @ 95 NONAME
	_ZN15LafMenuPaneItem8DrawIconERK7MLafEnvRK11CCoeControlR9CWindowGcRK5TRectPK8CGulIconN12SLafMenuPane14THighlightTypeE @ 96 NONAME
	_ZN15LafScrollButton10DrawButtonERK7MLafEnvR9CWindowGcRK11CCoeControlRK5TRectii @ 97 NONAME
	_ZN15LafScrollButton13ButtonBreadthEv @ 98 NONAME
	_ZN15LafScrollButton15GetBorderColorsERN10TGulBorder7TColorsERK7MLafEnvRK11CCoeControl @ 99 NONAME
	_ZN15LafScrollButton16GetColorUseListLER9CArrayFixI12TCoeColorUseE @ 100 NONAME
	_ZN15LafScrollButton9GetBorderER10TGulBorderi @ 101 NONAME
	_ZN16LafCommandButton7MarginsEv @ 102 NONAME
	_ZN16LafFileNameLabel15GetBorderColorsERN10TGulBorder7TColorsERK7MLafEnvRK11CCoeControl @ 103 NONAME
	_ZN16LafFileNameLabel16GetDefaultBorderER10TGulBorder @ 104 NONAME
	_ZN16LafLabeledButton10ShowHotKeyEv @ 105 NONAME
	_ZN16LafLabeledButton14LabelAlignmentEv @ 106 NONAME
	_ZN16LafLabeledButton17InputCapabilitiesEv @ 107 NONAME
	_ZN16LafLabeledButton8ConstantENS_13TConstantTypeE @ 108 NONAME
	_ZN16LafMenuPaneTitle15GetBorderColorsERN10TGulBorder7TColorsERK7MLafEnvRK11CCoeControl @ 109 NONAME
	_ZN16LafMenuPaneTitle16GetColorUseListLER9CArrayFixI12TCoeColorUseE @ 110 NONAME
	_ZN16LafMenuPaneTitle16GetDefaultBorderER10TGulBorder @ 111 NONAME
	_ZN16LafMenuPaneTitle18DrawTitlePaneJointERK7MLafEnvRK11CCoeControlR9CWindowGcRK5TRect @ 112 NONAME
	_ZN16LafMenuPaneTitle24PrepareGcForDrawingTitleERK7MLafEnvRK11CCoeControlR9CWindowGc @ 113 NONAME
	_ZN16LafMenuPaneTitle8ConstantENS_13TConstantTypeE @ 114 NONAME
	_ZN16LafMenuPaneTitle8DrawTextERK7MLafEnvRK11CCoeControlR9CWindowGcRK5TRectRK7TDesC16N10LafMenuBar16TTitleAttributesE @ 115 NONAME
	_ZN16LafVirtualCursor19PointerCursorOnModeEv @ 116 NONAME
	_ZN17LafListItemDrawer10TLidColorsC1E4TRgbS1_S1_S1_S1_S1_S1_ @ 117 NONAME
	_ZN17LafListItemDrawer10TLidColorsC2E4TRgbS1_S1_S1_S1_S1_S1_ @ 118 NONAME
	_ZN17LafListItemDrawer8ConstantENS_13TConstantTypeE @ 119 NONAME
	_ZN17LafListItemDrawer9DrawFrameER9CWindowGcRK5TRectiRKNS_10TLidColorsE @ 120 NONAME
	_ZN17LafScrollBarFrame12DefaultFlagsEv @ 121 NONAME
	_ZN17LafScrollBarFrame20TScrollBarAttributesC1Ev @ 122 NONAME
	_ZN17LafScrollBarFrame20TScrollBarAttributesC2Ev @ 123 NONAME
	_ZN17LafScrollBarFrame21DefaultScrollBarFlagsEi @ 124 NONAME
	_ZN17LafScrollBarFrame23FloatingScrollBarLengthEiRKNS_20TScrollBarAttributesERK5TRectRK5TSize @ 125 NONAME
	_ZN17LafScrollBarFrame28GetFloatingScrollBarPositionEiRKNS_20TScrollBarAttributesERK5TRectRK5TSizeR6TPoint @ 126 NONAME
	_ZN17LafScrollBarFrame29GetDefaultScrollBarAttributesEiRNS_20TScrollBarAttributesE @ 127 NONAME
	_ZN20LafCommandButtonBase14PrepareContextER9CWindowGciRK7MLafEnvRK11CCoeControl @ 128 NONAME
	_ZN20LafCommandButtonBase15ComponentOffsetEii @ 129 NONAME
	_ZN20LafCommandButtonBase15GetBorderColorsERN10TGulBorder7TColorsERK7MLafEnvRK11CCoeControl @ 130 NONAME
	_ZN20LafCommandButtonBase16GetColorUseListLER9CArrayFixI12TCoeColorUseE @ 131 NONAME
	_ZN20LafCommandButtonBase16GetDefaultBorderER10TGulBorder @ 132 NONAME
	_ZN20LafCommandButtonBase4DrawERK7MLafEnvRK11CCoeControlR9CWindowGcRK10TGulBorderii9TMargins8i @ 133 NONAME
	_ZN20LafCommandButtonBase8ConstantENS_13TConstantTypeE @ 134 NONAME
	_ZN20LafCommandButtonBase9GetBorderER10TGulBorderiiRK11CCoeControli @ 135 NONAME
	_ZN20LafListBoxTextEditor15GetBorderColorsERN10TGulBorder7TColorsERK7MLafEnvRK11CCoeControl @ 136 NONAME
	_ZN20LafListBoxTextEditor16GetDefaultBorderER10TGulBorder @ 137 NONAME
	_ZN21LafArrowHeadScrollBar15GetBorderColorsERN10TGulBorder7TColorsERK7MLafEnvRK11CCoeControl @ 138 NONAME
	_ZN21LafArrowHeadScrollBar16GetDefaultBorderER10TGulBorder @ 139 NONAME
	_ZN21LafSnakingTextListBox4FontERK7MLafEnv @ 140 NONAME
	_ZN21LafTextListItemDrawer14DrawNormalTextERK7TDesC16RK5CFontR9CWindowGcRK5TRectiN16CGraphicsContext10TTextAlignE @ 141 NONAME
	_ZN21LafTextListItemDrawer20PrepareItemAttributeEiiii @ 142 NONAME
	_ZN23LafButtonGroupContainer10ButtonTypeEi @ 143 NONAME
	_ZN23LafButtonGroupContainer8LocationEi @ 144 NONAME
	_ZN24LafArrowHeadScrollButton10DrawButtonERK7MLafEnvR9CWindowGcRK11CCoeControlRK5TRectii @ 145 NONAME
	_ZN24LafArrowHeadScrollButton13ButtonBreadthEv @ 146 NONAME
	_ZN24LafArrowHeadScrollButton15GetBorderColorsERN10TGulBorder7TColorsERK7MLafEnvRK11CCoeControl @ 147 NONAME
	_ZN24LafArrowHeadScrollButton9GetBorderER10TGulBorderi @ 148 NONAME
	_ZN24LafInverterCommandButton7MarginsEv @ 149 NONAME
	_ZN26LafTwoPictureCommandButton15GetBorderColorsERN10TGulBorder7TColorsERK7MLafEnvRK11CCoeControl @ 150 NONAME
	_ZN26LafTwoPictureCommandButton16GetDefaultBorderER10TGulBorder @ 151 NONAME
	_ZN26LafTwoPictureCommandButton7MarginsEv @ 152 NONAME
	_ZN29LafScrollBarFrameCornerWindow16GetColorUseListLER9CArrayFixI12TCoeColorUseE @ 153 NONAME
	_ZN8LafEdwin11MapKeyEventER9TKeyEvent10TEventCode @ 154 NONAME
	_ZN8LafEdwin15GetBorderColorsERN10TGulBorder7TColorsERK7MLafEnvRK11CCoeControl @ 155 NONAME
	_ZN8LafEdwin16GetColorUseListLER9CArrayFixI12TCoeColorUseE @ 156 NONAME
	_ZN8LafEdwin16GetDefaultBorderER10TGulBorder @ 157 NONAME
	_ZN8LafEdwin17InputCapabilitiesEv @ 158 NONAME
	_ZN8LafEdwin21DefaultScrollBarFlagsEi @ 159 NONAME
	_ZN8LafEdwin22CreateEdwinCustomDrawLERK7MLafEnvRK11CCoeControlR11CTextLayout @ 160 NONAME
	_ZN8LafEdwin29GetDefaultScrollBarAttributesEiRN17LafScrollBarFrame20TScrollBarAttributesE @ 161 NONAME
	_ZN8LafEdwin7MarginsEv @ 162 NONAME
	_ZN8LafImage4DrawERK7MLafEnvRK11CCoeControlR9CWindowGcRK5TRect9TMargins813TGulAlignmentRK10CFbsBitmapPSE_i @ 163 NONAME
	_ZN8LafLabel8ConstantENS_13TConstantTypeE @ 164 NONAME

