EXPORTS
	??0RAnalogClock@@QAE@AAVRAnimDll@@ABVRWindowBase@@@Z @ 1 NONAME ; public: __thiscall RAnalogClock::RAnalogClock(class RAnimDll &,class RWindowBase const &)
	??0RDigitalClock@@QAE@AAVRAnimDll@@ABVRWindowBase@@@Z @ 2 NONAME ; public: __thiscall RDigitalClock::RDigitalClock(class RAnimDll &,class RWindowBase const &)
	??0RMessageWindow@@QAE@AAVRAnimDll@@ABVRWindowBase@@@Z @ 3 NONAME ; public: __thiscall RMessageWindow::RMessageWindow(class RAnimDll &,class RWindowBase const &)
	??0TAnalogDisplayHand@@QAE@W4TAnalogDisplayHandType@@@Z @ 4 NONAME ; public: __thiscall TAnalogDisplayHand::TAnalogDisplayHand(enum TAnalogDisplayHandType)
	??0TDigitalDisplayTextSection@@QAE@HVTRgb@@W4TDigitalDisplayHorizontalTextAlignment@@W4TDigitalDisplayVerticalTextAlignment@@HHABVTDesC16@@@Z @ 5 NONAME ; public: __thiscall TDigitalDisplayTextSection::TDigitalDisplayTextSection(int,class TRgb,enum TDigitalDisplayHorizontalTextAlignment,enum TDigitalDisplayVerticalTextAlignment,int,int,class TDesC16 const &)
	?AddCircle@TAnalogDisplayHand@@QAEXW4TPenStyle@CGraphicsContext@@VTRgb@@ABVTSize@@W4TBrushStyle@3@1ABVTPoint@@H@Z @ 6 NONAME ; public: void __thiscall TAnalogDisplayHand::AddCircle(enum CGraphicsContext::TPenStyle,class TRgb,class TSize const &,enum CGraphicsContext::TBrushStyle,class TRgb,class TPoint const &,int)
	?AddHandL@RAnalogClock@@QAEXABVTAnalogDisplayHand@@@Z @ 7 NONAME ; public: void __thiscall RAnalogClock::AddHandL(class TAnalogDisplayHand const &)
	?AddLine@TAnalogDisplayHand@@QAEXW4TPenStyle@CGraphicsContext@@VTRgb@@ABVTSize@@ABVTPoint@@3@Z @ 8 NONAME ; public: void __thiscall TAnalogDisplayHand::AddLine(enum CGraphicsContext::TPenStyle,class TRgb,class TSize const &,class TPoint const &,class TPoint const &)
	?AddPolyLine@TAnalogDisplayHand@@QAEXW4TPenStyle@CGraphicsContext@@VTRgb@@ABVTSize@@W4TBrushStyle@3@1HPBV?$CArrayFix@VTPoint@@@@@Z @ 9 NONAME ; public: void __thiscall TAnalogDisplayHand::AddPolyLine(enum CGraphicsContext::TPenStyle,class TRgb,class TSize const &,enum CGraphicsContext::TBrushStyle,class TRgb,int,class CArrayFix<class TPoint> const *)
	?AddTextSectionL@RDigitalClock@@QAEXABVTDigitalDisplayTextSection@@@Z @ 10 NONAME ; public: void __thiscall RDigitalClock::AddTextSectionL(class TDigitalDisplayTextSection const &)
	?CancelDisplay@RMessageWindow@@QAEXXZ @ 11 NONAME ; public: void __thiscall RMessageWindow::CancelDisplay(void)
	?Close@RAnimWithUtils@@UAEXXZ @ 12 NONAME ; public: virtual void __thiscall RAnimWithUtils::Close(void)
	?ConstructL@RAnalogClock@@QAEXVTTimeIntervalSeconds@@ABVTPoint@@ABVTSize@@ABVTMargins@@ABUSTimeDeviceShadow@@HHHPBUSAnalogDisplayAmPm@@@Z @ 13 NONAME ; public: void __thiscall RAnalogClock::ConstructL(class TTimeIntervalSeconds,class TPoint const &,class TSize const &,class TMargins const &,struct STimeDeviceShadow const &,int,int,int,struct SAnalogDisplayAmPm const *)
	?ConstructL@RDigitalClock@@QAEXVTTimeIntervalSeconds@@ABVTPoint@@ABVTSize@@ABVTMargins@@ABUSTimeDeviceShadow@@VTRgb@@H@Z @ 14 NONAME ; public: void __thiscall RDigitalClock::ConstructL(class TTimeIntervalSeconds,class TPoint const &,class TSize const &,class TMargins const &,struct STimeDeviceShadow const &,class TRgb,int)
	?ConstructL@RMessageWindow@@QAEXHHVTRgb@@0@Z @ 15 NONAME ; public: void __thiscall RMessageWindow::ConstructL(int,int,class TRgb,class TRgb)
	?Draw@RTimeDevice@@QAEXXZ @ 16 NONAME ; public: void __thiscall RTimeDevice::Draw(void)
	?SetBackgroundColor@RDigitalClock@@QAEXVTRgb@@0@Z @ 17 NONAME ; public: void __thiscall RDigitalClock::SetBackgroundColor(class TRgb,class TRgb)
	?SetPosition@RTimeDevice@@QAEXABVTPoint@@@Z @ 18 NONAME ; public: void __thiscall RTimeDevice::SetPosition(class TPoint const &)
	?SetPositionAndSize@RTimeDevice@@QAEXABVTPoint@@ABVTSize@@@Z @ 19 NONAME ; public: void __thiscall RTimeDevice::SetPositionAndSize(class TPoint const &,class TSize const &)
	?SetSize@RTimeDevice@@QAEXABVTSize@@@Z @ 20 NONAME ; public: void __thiscall RTimeDevice::SetSize(class TSize const &)
	?SetUniversalTimeOffset@RClock@@QAEXVTTimeIntervalSeconds@@@Z @ 21 NONAME ; public: void __thiscall RClock::SetUniversalTimeOffset(class TTimeIntervalSeconds)
	?SetVisible@RTimeDevice@@QAEXH@Z @ 22 NONAME ; public: void __thiscall RTimeDevice::SetVisible(int)
	?StartDisplay@RMessageWindow@@QAEXHVTTimeIntervalMicroSeconds32@@0ABVTDesC16@@@Z @ 23 NONAME ; public: void __thiscall RMessageWindow::StartDisplay(int,class TTimeIntervalMicroSeconds32,class TTimeIntervalMicroSeconds32,class TDesC16 const &)
	?StartDisplay@RMessageWindow@@QAEXHVTTimeIntervalMicroSeconds32@@ABVTDesC16@@@Z @ 24 NONAME ; public: void __thiscall RMessageWindow::StartDisplay(int,class TTimeIntervalMicroSeconds32,class TDesC16 const &)
	?UpdateDisplay@RTimeDevice@@QAEXXZ @ 25 NONAME ; public: void __thiscall RTimeDevice::UpdateDisplay(void)
	?GetBorders@RMessageWindow@@QAEXAAVTMargins@@@Z @ 26 NONAME ; public: void __thiscall RMessageWindow::GetBorders(class TMargins &)
	?ConstructL@RMessageWindow@@QAEXHHVTRgb@@00@Z @ 27 NONAME ; public: void __thiscall RMessageWindow::ConstructL(int,int,class TRgb,class TRgb,class TRgb)
	?SetBackgroundColor@RAnalogClock@@QAEXVTRgb@@0@Z @ 28 NONAME ; public: void __thiscall RAnalogClock::SetBackgroundColor(class TRgb,class TRgb)
	?SetBackgroundColor@RMessageWindow@@QAEXVTRgb@@@Z @ 29 NONAME ; public: void __thiscall RMessageWindow::SetBackgroundColor(class TRgb)
	?SetBorderColor@RMessageWindow@@QAEXVTRgb@@@Z @ 30 NONAME ; public: void __thiscall RMessageWindow::SetBorderColor(class TRgb)
	?SetBrushColor@RAnalogClock@@QAEXVTRgb@@@Z @ 31 NONAME ; public: void __thiscall RAnalogClock::SetBrushColor(class TRgb)
	?SetPenColor@RAnalogClock@@QAEXVTRgb@@@Z @ 32 NONAME ; public: void __thiscall RAnalogClock::SetPenColor(class TRgb)
	?SetTextColor@RAnalogClock@@QAEXVTRgb@@@Z @ 33 NONAME ; public: void __thiscall RAnalogClock::SetTextColor(class TRgb)
	?SetTextColor@RDigitalClock@@QAEXVTRgb@@@Z @ 34 NONAME ; public: void __thiscall RDigitalClock::SetTextColor(class TRgb)
	?SetTextColor@RMessageWindow@@QAEXVTRgb@@@Z @ 35 NONAME ; public: void __thiscall RMessageWindow::SetTextColor(class TRgb)
	?SetPlinthColors@RMessageWindow@@QAEXVTRgb@@0@Z @ 36 NONAME ; public: void __thiscall RMessageWindow::SetPlinthColors(class TRgb,class TRgb)
