EXPORTS ??0RAnalogClock@@QAE@AAVRAnimDll@@ABVRWindowBase@@@Z @1 NONAME
EXPORTS ??0RDigitalClock@@QAE@AAVRAnimDll@@ABVRWindowBase@@@Z @2 NONAME
EXPORTS ??0RMessageWindow@@QAE@AAVRAnimDll@@ABVRWindowBase@@@Z @3 NONAME
EXPORTS ??0TAnalogDisplayHand@@QAE@W4TAnalogDisplayHandType@@@Z @4 NONAME
EXPORTS ??0TDigitalDisplayTextSection@@QAE@HVTRgb@@W4TDigitalDisplayHorizontalTextAlignment@@W4TDigitalDisplayVerticalTextAlignment@@HHABVTDesC16@@@Z @5 NONAME
EXPORTS ?AddCircle@TAnalogDisplayHand@@QAEXW4TPenStyle@CGraphicsContext@@VTRgb@@ABVTSize@@W4TBrushStyle@3@1ABVTPoint@@H@Z @6 NONAME
EXPORTS ?AddHandL@RAnalogClock@@QAEXABVTAnalogDisplayHand@@@Z @7 NONAME
EXPORTS ?AddLine@TAnalogDisplayHand@@QAEXW4TPenStyle@CGraphicsContext@@VTRgb@@ABVTSize@@ABVTPoint@@3@Z @8 NONAME
EXPORTS ?AddPolyLine@TAnalogDisplayHand@@QAEXW4TPenStyle@CGraphicsContext@@VTRgb@@ABVTSize@@W4TBrushStyle@3@1HPBV?$CArrayFix@VTPoint@@@@@Z @9 NONAME
EXPORTS ?AddTextSectionL@RDigitalClock@@QAEXABVTDigitalDisplayTextSection@@@Z @10 NONAME
EXPORTS ?CancelDisplay@RMessageWindow@@QAEXXZ @11 NONAME
EXPORTS ?Close@RAnimWithUtils@@UAEXXZ @12 NONAME
EXPORTS ?ConstructL@RAnalogClock@@QAEXVTTimeIntervalSeconds@@ABVTPoint@@ABVTSize@@ABVTMargins@@ABUSTimeDeviceShadow@@HHHPBUSAnalogDisplayAmPm@@@Z @13 NONAME
EXPORTS ?ConstructL@RDigitalClock@@QAEXVTTimeIntervalSeconds@@ABVTPoint@@ABVTSize@@ABVTMargins@@ABUSTimeDeviceShadow@@VTRgb@@H@Z @14 NONAME
EXPORTS ?ConstructL@RMessageWindow@@QAEXHHVTRgb@@0@Z @15 NONAME
EXPORTS ?Draw@RTimeDevice@@QAEXXZ @16 NONAME
EXPORTS ?SetBackgroundColor@RDigitalClock@@QAEXVTRgb@@0@Z @17 NONAME
EXPORTS ?SetPosition@RTimeDevice@@QAEXABVTPoint@@@Z @18 NONAME
EXPORTS ?SetPositionAndSize@RTimeDevice@@QAEXABVTPoint@@ABVTSize@@@Z @19 NONAME
EXPORTS ?SetSize@RTimeDevice@@QAEXABVTSize@@@Z @20 NONAME
EXPORTS ?SetUniversalTimeOffset@RClock@@QAEXVTTimeIntervalSeconds@@@Z @21 NONAME
EXPORTS ?SetVisible@RTimeDevice@@QAEXH@Z @22 NONAME
EXPORTS ?StartDisplay@RMessageWindow@@QAEXHVTTimeIntervalMicroSeconds32@@0ABVTDesC16@@@Z @23 NONAME
EXPORTS ?StartDisplay@RMessageWindow@@QAEXHVTTimeIntervalMicroSeconds32@@ABVTDesC16@@@Z @24 NONAME
EXPORTS ?UpdateDisplay@RTimeDevice@@QAEXXZ @25 NONAME
EXPORTS ?GetBorders@RMessageWindow@@QAEXAAVTMargins@@@Z @26 NONAME
