EXPORTS
	??0TAknFontSpecification@@QAE@H@Z @ 1 NONAME ; public: __thiscall TAknFontSpecification::TAknFontSpecification(int)
	??0TAknFontSpecification@@QAE@W4TAknFontCategory@@ABVTFontSpec@@PBVMGraphicsDeviceMap@@@Z @ 2 NONAME ; public: __thiscall TAknFontSpecification::TAknFontSpecification(enum TAknFontCategory,class TFontSpec const &,class MGraphicsDeviceMap const *)
	?TextPaneHeight@TAknFontSpecification@@QBEHXZ @ 3 NONAME ; public: int __thiscall TAknFontSpecification::TextPaneHeight(void)const 
	?FontCategory@TAknFontSpecification@@QBE?AW4TAknFontCategory@@XZ @ 4 NONAME ; public: enum TAknFontCategory  __thiscall TAknFontSpecification::FontCategory(void)const 
	?IsEncodedFont@TAknFontId@@SAHH@Z @ 5 NONAME ; public: static int __cdecl TAknFontId::IsEncodedFont(int)
	?Posture@TAknFontSpecification@@QBE?AW4TFontPosture@@XZ @ 6 NONAME ; public: enum TFontPosture  __thiscall TAknFontSpecification::Posture(void)const 
	?Weight@TAknFontSpecification@@QBE?AW4TFontStrokeWeight@@XZ @ 7 NONAME ; public: enum TFontStrokeWeight  __thiscall TAknFontSpecification::Weight(void)const 
	?ExcessAscent@TAknFontProviderSuppliedMetrics@@QBEHXZ @ 8 NONAME ; public: int __thiscall TAknFontProviderSuppliedMetrics::ExcessAscent(void)const 
	?ExcessDescent@TAknFontProviderSuppliedMetrics@@QBEHXZ @ 9 NONAME ; public: int __thiscall TAknFontProviderSuppliedMetrics::ExcessDescent(void)const 
	?MaxDescentToTextPaneBottom@TAknFontProviderSuppliedMetrics@@QBEHXZ @ 10 NONAME ; public: int __thiscall TAknFontProviderSuppliedMetrics::MaxDescentToTextPaneBottom(void)const 
	?SetExcessAscent@TAknFontProviderSuppliedMetrics@@QAEXH@Z @ 11 NONAME ; public: void __thiscall TAknFontProviderSuppliedMetrics::SetExcessAscent(int)
	?SetExcessDescent@TAknFontProviderSuppliedMetrics@@QAEXH@Z @ 12 NONAME ; public: void __thiscall TAknFontProviderSuppliedMetrics::SetExcessDescent(int)
	?SetMaxDescentToTextPaneBottom@TAknFontProviderSuppliedMetrics@@QAEXH@Z @ 13 NONAME ; public: void __thiscall TAknFontProviderSuppliedMetrics::SetMaxDescentToTextPaneBottom(int)
	?SetTextPaneHeight@TAknFontSpecification@@QAEXH@Z @ 14 NONAME ; void TAknFontSpecification::SetTextPaneHeight(int)
	?SetFontCategory@TAknFontSpecification@@QAEXW4TAknFontCategory@@@Z @ 15 NONAME ; void TAknFontSpecification::SetFontCategory(enum TAknFontCategory)
	?SetPosture@TAknFontSpecification@@QAEXW4TFontPosture@@@Z @ 16 NONAME ; void TAknFontSpecification::SetPosture(enum TFontPosture)
	?SetWeight@TAknFontSpecification@@QAEXW4TFontStrokeWeight@@@Z @ 17 NONAME ; void TAknFontSpecification::SetWeight(enum TFontStrokeWeight)
	?ExactMatchRequired@TAknFontSpecification@@QBEHXZ @ 18 NONAME ; int TAknFontSpecification::ExactMatchRequired(void) const
	?SetExactMatchRequired@TAknFontSpecification@@QAEXH@Z @ 19 NONAME ; void TAknFontSpecification::SetExactMatchRequired(int)
	?SetTextPaneHeightIsDesignHeight@TAknFontSpecification@@QAEXH@Z @ 20 NONAME ; void TAknFontSpecification::SetTextPaneHeightIsDesignHeight(int)
	?SetUnits@TAknFontSpecification@@QAEXW4TAknFontSpecificationUnits@1@@Z @ 21 NONAME ; void TAknFontSpecification::SetUnits(enum TAknFontSpecification::TAknFontSpecificationUnits)
	?TextPaneIsDesignHeight@TAknFontSpecification@@QBEHXZ @ 22 NONAME ; int TAknFontSpecification::TextPaneIsDesignHeight(void) const
	?Units@TAknFontSpecification@@QBE?AW4TAknFontSpecificationUnits@1@XZ @ 23 NONAME ; enum TAknFontSpecification::TAknFontSpecificationUnits TAknFontSpecification::Units(void) const

