EXPORTS
	?DoDeactivate@CPslnFWBaseView@@UAEXXZ @ 1 NONAME ; void CPslnFWBaseView::DoDeactivate(void)
	?OfferKeyEventL@CPslnFWBaseContainer@@EAE?AW4TKeyResponse@@ABUTKeyEvent@@W4TEventCode@@@Z @ 2 NONAME ; enum TKeyResponse CPslnFWBaseContainer::OfferKeyEventL(struct TKeyEvent const &, enum TEventCode)
	??0CPslnFWBaseView@@QAE@XZ @ 3 NONAME ; CPslnFWBaseView::CPslnFWBaseView(void)
	?Container@CPslnFWBaseView@@QAEPAVCPslnFWBaseContainer@@XZ @ 4 NONAME ; class CPslnFWBaseContainer * CPslnFWBaseView::Container(void)
	?DoActivateL@CPslnFWBaseView@@UAEXABVTVwsViewId@@VTUid@@ABVTDesC8@@@Z @ 5 NONAME ; void CPslnFWBaseView::DoActivateL(class TVwsViewId const &, class TUid, class TDesC8 const &)
	?OpenLocalizedResourceFileL@CPslnFWBaseView@@QAEXABVTDesC16@@AAVRConeResourceLoader@@@Z @ 6 NONAME ; void CPslnFWBaseView::OpenLocalizedResourceFileL(class TDesC16 const &, class RConeResourceLoader &)
	?SetTitlePaneL@CPslnFWBaseView@@MAEXAAH@Z @ 7 NONAME ; void CPslnFWBaseView::SetTitlePaneL(int &)
	?GetTabIndex@CPslnFWBaseView@@QBEHXZ @ 8 NONAME ; int CPslnFWBaseView::GetTabIndex(void) const
	?SizeChanged@CPslnFWBaseContainer@@EAEXXZ @ 9 NONAME ; void CPslnFWBaseContainer::SizeChanged(void)
	?SetMiddleSoftkeyObserver@CPslnFWBaseContainer@@QAEXPAVMPslnFWMSKObserver@@@Z @ 10 NONAME ; void CPslnFWBaseContainer::SetMiddleSoftkeyObserver(class MPslnFWMSKObserver *)
	?CreateNaviPaneContextL@CPslnFWBaseView@@MAEXH@Z @ 11 NONAME ; void CPslnFWBaseView::CreateNaviPaneContextL(int)
	?GetLocalizedStringLC@CPslnFWIconHelper@@QAEPAVHBufC16@@ABVTDesC16@@HPAVCCoeEnv@@@Z @ 12 NONAME ; class HBufC16 * CPslnFWIconHelper::GetLocalizedStringLC(class TDesC16 const &, int, class CCoeEnv *)
	?CreateContainerL@CPslnFWBaseView@@MAEXXZ @ 13 NONAME ; void CPslnFWBaseView::CreateContainerL(void)
	?BaseConstructL@CPslnFWBaseContainer@@QAEXABVTRect@@HH@Z @ 14 NONAME ; void CPslnFWBaseContainer::BaseConstructL(class TRect const &, int, int)
	?SetMiddleSoftKeyLabelL@CPslnFWBaseView@@MAEXHH@Z @ 15 NONAME ; void CPslnFWBaseView::SetMiddleSoftKeyLabelL(int, int)
	?OpenLocalizedResourceFileL@CPslnFWBaseView@@QAEXABVTDesC16@@AAVRConeResourceLoader@@PBV2@@Z @ 16 NONAME ; void CPslnFWBaseView::OpenLocalizedResourceFileL(class TDesC16 const &, class RConeResourceLoader &, class TDesC16 const *)
	??1CPslnFWPluginHandler@@UAE@XZ @ 17 NONAME ; CPslnFWPluginHandler::~CPslnFWPluginHandler(void)
	?SetTabIndex@CPslnFWBaseView@@QAEXH@Z @ 18 NONAME ; void CPslnFWBaseView::SetTabIndex(int)
	??1CPslnFWIconHelper@@UAE@XZ @ 19 NONAME ; CPslnFWIconHelper::~CPslnFWIconHelper(void)
	?NewL@CPslnFWIconHelper@@SAPAV1@XZ @ 20 NONAME ; class CPslnFWIconHelper * CPslnFWIconHelper::NewL(void)
	?SetCurrentItem@CPslnFWBaseView@@UAEXH@Z @ 21 NONAME ; void CPslnFWBaseView::SetCurrentItem(int)
	?ComponentControl@CPslnFWBaseContainer@@EBEPAVCCoeControl@@H@Z @ 22 NONAME ; class CCoeControl * CPslnFWBaseContainer::ComponentControl(int) const
	??1CPslnFWBaseContainer@@UAE@XZ @ 23 NONAME ; CPslnFWBaseContainer::~CPslnFWBaseContainer(void)
	?SetNaviPaneL@CPslnFWBaseView@@MAEXH@Z @ 24 NONAME ; void CPslnFWBaseView::SetNaviPaneL(int)
	?FocusChanged@CPslnFWBaseContainer@@EAEXW4TDrawNow@@@Z @ 25 NONAME ; void CPslnFWBaseContainer::FocusChanged(enum TDrawNow)
	?CountComponentControls@CPslnFWBaseContainer@@EBEHXZ @ 26 NONAME ; int CPslnFWBaseContainer::CountComponentControls(void) const
	?HandleResourceChange@CPslnFWBaseContainer@@EAEXH@Z @ 27 NONAME ; void CPslnFWBaseContainer::HandleResourceChange(int)
	??1CPslnFWBaseView@@UAE@XZ @ 28 NONAME ; CPslnFWBaseView::~CPslnFWBaseView(void)
	?LoadPluginsL@CPslnFWPluginHandler@@QAEXPAV?$CArrayPtrFlat@VCPslnFWPluginInterface@@@@@Z @ 29 NONAME ; void CPslnFWPluginHandler::LoadPluginsL(class CArrayPtrFlat<class CPslnFWPluginInterface> *)
	?HandleCommandL@CPslnFWBaseView@@MAEXH@Z @ 30 NONAME ; void CPslnFWBaseView::HandleCommandL(int)
	??0CPslnFWBaseContainer@@QAE@XZ @ 31 NONAME ; CPslnFWBaseContainer::CPslnFWBaseContainer(void)
	?LoadPluginL@CPslnFWPluginHandler@@QAEPAVCPslnFWPluginInterface@@VTUid@@@Z @ 32 NONAME ; class CPslnFWPluginInterface * CPslnFWPluginHandler::LoadPluginL(class TUid)
	?AddIconsToSettingItemsL@CPslnFWIconHelper@@QAEXHHPAVCEikTextListBox@@@Z @ 33 NONAME ; void CPslnFWIconHelper::AddIconsToSettingItemsL(int, int, class CEikTextListBox *)
	?SetNaviPaneDecorator@CPslnFWBaseView@@UAEXPAVCAknNavigationDecorator@@@Z @ 34 NONAME ; void CPslnFWBaseView::SetNaviPaneDecorator(class CAknNavigationDecorator *)
	?HandleListBoxEventL@CPslnFWBaseView@@MAEXPAVCEikListBox@@W4TListBoxEvent@MEikListBoxObserver@@@Z @ 35 NONAME ; void CPslnFWBaseView::HandleListBoxEventL(class CEikListBox *, enum MEikListBoxObserver::TListBoxEvent)
	?NewL@CPslnFWPluginHandler@@SAPAV1@PAVCAknViewAppUi@@@Z @ 36 NONAME ; class CPslnFWPluginHandler * CPslnFWPluginHandler::NewL(class CAknViewAppUi *)
	?SetNaviPaneL@CPslnFWBaseView@@MAEXXZ @ 37 NONAME ; void CPslnFWBaseView::SetNaviPaneL(void)
	?NewL@CPslnFWPluginHandler@@SAPAV1@PAVCAknViewAppUi@@PAV?$CArrayPtrFlat@VCPslnFWPluginInterface@@@@@Z @ 38 NONAME ; class CPslnFWPluginHandler * CPslnFWPluginHandler::NewL(class CAknViewAppUi *, class CArrayPtrFlat<class CPslnFWPluginInterface> *)

