EXPORTS
	_ZN11CHgScroller10ClearFlagsEi @ 1 NONAME
	_ZN11CHgScroller10InsertItemEP7CHgItemi @ 2 NONAME
	_ZN11CHgScroller10RemoveItemEi @ 3 NONAME
	_ZN11CHgScroller11InitScreenLERK5TRect @ 4 NONAME
	_ZN11CHgScroller11InitScreenLERK5TRectR10RWsSession @ 5 NONAME
	_ZN11CHgScroller13ItemsOnScreenEv @ 6 NONAME
	_ZN11CHgScroller13RefreshScreenEi @ 7 NONAME
	_ZN11CHgScroller13SelectedIndexEv @ 8 NONAME
	_ZN11CHgScroller13SetEmptyTextLERK7TDesC16 @ 9 NONAME
	_ZN11CHgScroller14HightlightItemERK7TDesC16 @ 10 NONAME
	_ZN11CHgScroller15GetMarkedItemsLER6RArrayIiE @ 11 NONAME
	_ZN11CHgScroller15SetDefaultIconLEP8CGulIcon @ 12 NONAME
	_ZN11CHgScroller16SetSelectedIndexEi @ 13 NONAME
	_ZN11CHgScroller17SetScrollBarTypeLENS_16THgScrollBarTypeE @ 14 NONAME
	_ZN11CHgScroller18FirstIndexOnScreenEv @ 15 NONAME
	_ZN11CHgScroller19DisableScrollBufferEv @ 16 NONAME
	_ZN11CHgScroller19EnableScrollBufferLER23MHgScrollBufferObserverii @ 17 NONAME
	_ZN11CHgScroller20SetSelectionObserverER20MHgSelectionObserver @ 18 NONAME
	_ZN11CHgScroller4MarkEi @ 19 NONAME
	_ZN11CHgScroller5FlagsEv @ 20 NONAME
	_ZN11CHgScroller5ItemLEi @ 21 NONAME
	_ZN11CHgScroller5ResetEv @ 22 NONAME
	_ZN11CHgScroller6UnMarkEi @ 23 NONAME
	_ZN11CHgScroller7AddItemEP7CHgItem @ 24 NONAME
	_ZN11CHgScroller7MarkAllEv @ 25 NONAME
	_ZN11CHgScroller7ResizeLEi @ 26 NONAME
	_ZN11CHgScroller7SetItemEP7CHgItemi @ 27 NONAME
	_ZN11CHgScroller8SetFlagsEi @ 28 NONAME
	_ZN11CHgScroller9UnMarkAllEv @ 29 NONAME
	_ZN11CHgScrollerD0Ev @ 30 NONAME
	_ZN11CHgScrollerD1Ev @ 31 NONAME
	_ZN11CHgScrollerD2Ev @ 32 NONAME
	_ZN17CHgDoubleTextList18PreferredImageSizeEv @ 33 NONAME
	_ZN17CHgDoubleTextList4NewLERK5TRectiP8CGulIconP10RWsSession @ 34 NONAME
	_ZN17CHgDoubleTextListD0Ev @ 35 NONAME
	_ZN17CHgDoubleTextListD1Ev @ 36 NONAME
	_ZN17CHgDoubleTextListD2Ev @ 37 NONAME
	_ZN18CHgSingleLargeList18PreferredImageSizeEv @ 38 NONAME
	_ZN18CHgSingleLargeList4NewLERK5TRectiP8CGulIconP10RWsSession @ 39 NONAME
	_ZN18CHgSingleLargeListD0Ev @ 40 NONAME
	_ZN18CHgSingleLargeListD1Ev @ 41 NONAME
	_ZN18CHgSingleLargeListD2Ev @ 42 NONAME
	_ZN20CHgDoubleGraphicList18PreferredImageSizeEv @ 43 NONAME
	_ZN20CHgDoubleGraphicList4NewLERK5TRectiP8CGulIconP10RWsSession @ 44 NONAME
	_ZN20CHgDoubleGraphicListD0Ev @ 45 NONAME
	_ZN20CHgDoubleGraphicListD1Ev @ 46 NONAME
	_ZN20CHgDoubleGraphicListD2Ev @ 47 NONAME
	_ZN20CHgSingleGraphicList18PreferredImageSizeEv @ 48 NONAME
	_ZN20CHgSingleGraphicList4NewLERK5TRectiP8CGulIconP10RWsSession @ 49 NONAME
	_ZN20CHgSingleGraphicListD0Ev @ 50 NONAME
	_ZN20CHgSingleGraphicListD1Ev @ 51 NONAME
	_ZN20CHgSingleGraphicListD2Ev @ 52 NONAME
	_ZN7CHgGrid18PreferredImageSizeEv @ 53 NONAME
	_ZN7CHgGrid4NewLERK5TRectiP8CGulIconP10RWsSession @ 54 NONAME
	_ZN7CHgGridD0Ev @ 55 NONAME
	_ZN7CHgGridD1Ev @ 56 NONAME
	_ZN7CHgGridD2Ev @ 57 NONAME
	_ZN7CHgItem10ClearFlagsEi @ 58 NONAME
	_ZN7CHgItem4NewLEiP8CGulIconRK7TDesC16S4_ @ 59 NONAME
	_ZN7CHgItem5FlagsEv @ 60 NONAME
	_ZN7CHgItem5NewLCEiP8CGulIconRK7TDesC16S4_ @ 61 NONAME
	_ZN7CHgItem7SetIconEP8CGulIconi @ 62 NONAME
	_ZN7CHgItem7SetTimeE5TTime @ 63 NONAME
	_ZN7CHgItem8SetFlagsEi @ 64 NONAME
	_ZN7CHgItem8SetTextLERK7TDesC16 @ 65 NONAME
	_ZN7CHgItem9SetTitleLERK7TDesC16 @ 66 NONAME
	_ZN7CHgItemD0Ev @ 67 NONAME
	_ZN7CHgItemD1Ev @ 68 NONAME
	_ZN7CHgItemD2Ev @ 69 NONAME
	_ZN7CHgListD0Ev @ 70 NONAME
	_ZN7CHgListD1Ev @ 71 NONAME
	_ZN7CHgListD2Ev @ 72 NONAME
	_ZNK11CHgScroller9ItemCountEv @ 73 NONAME
	_ZNK7CHgItem4IconEv @ 74 NONAME
	_ZNK7CHgItem4TextEv @ 75 NONAME
	_ZNK7CHgItem4TimeEv @ 76 NONAME
	_ZNK7CHgItem5TitleEv @ 77 NONAME
	_ZTI11CHgScroller @ 78 NONAME ; #<TI>#
	_ZTI17CHgDoubleTextList @ 79 NONAME ; #<TI>#
	_ZTI18CHgSingleLargeList @ 80 NONAME ; #<TI>#
	_ZTI20CHgDoubleGraphicList @ 81 NONAME ; #<TI>#
	_ZTI20CHgSingleGraphicList @ 82 NONAME ; #<TI>#
	_ZTI7CHgGrid @ 83 NONAME ; #<TI>#
	_ZTI7CHgItem @ 84 NONAME ; #<TI>#
	_ZTI7CHgList @ 85 NONAME ; #<TI>#
	_ZTV11CHgScroller @ 86 NONAME ; #<VT>#
	_ZTV17CHgDoubleTextList @ 87 NONAME ; #<VT>#
	_ZTV18CHgSingleLargeList @ 88 NONAME ; #<VT>#
	_ZTV20CHgDoubleGraphicList @ 89 NONAME ; #<VT>#
	_ZTV20CHgSingleGraphicList @ 90 NONAME ; #<VT>#
	_ZTV7CHgGrid @ 91 NONAME ; #<VT>#
	_ZTV7CHgItem @ 92 NONAME ; #<VT>#
	_ZTV7CHgList @ 93 NONAME ; #<VT>#
	_ZN17CHgSingleTextList4NewLERK5TRectiP8CGulIconP10RWsSession @ 94 NONAME
	_ZN17CHgSingleTextListD0Ev @ 95 NONAME
	_ZN17CHgSingleTextListD1Ev @ 96 NONAME
	_ZN17CHgSingleTextListD2Ev @ 97 NONAME
	_ZTI17CHgSingleTextList @ 98 NONAME ; #<TI>#
	_ZTV17CHgSingleTextList @ 99 NONAME ; #<VT>#
	_ZN20CHgScrollerWithTitle11InitScreenLERK5TRect @ 100 NONAME
	_ZN20CHgScrollerWithTitle18PreferredImageSizeEv @ 101 NONAME
	_ZN20CHgScrollerWithTitle4NewLERK5TRectiNS_15THgScrollerTypeEP8CGulIcon @ 102 NONAME
	_ZN20CHgScrollerWithTitle8ScrollerEv @ 103 NONAME
	_ZN20CHgScrollerWithTitle9TitleItemEv @ 104 NONAME
	_ZN20CHgScrollerWithTitleD0Ev @ 105 NONAME
	_ZN20CHgScrollerWithTitleD1Ev @ 106 NONAME
	_ZN20CHgScrollerWithTitleD2Ev @ 107 NONAME
	_ZTI20CHgScrollerWithTitle @ 108 NONAME ; #<TI>#
	_ZTV20CHgScrollerWithTitle @ 109 NONAME ; #<VT>#
	_ZN11CHgScroller18SetMarkingObserverER18MHgMarkingObserver @ 110 NONAME
	_ZN7CHgGrid28SetLandscapeScrollingSupportEi @ 111 NONAME
	_ZN14CHgVgMediaWall10InsertItemEP9CHgVgItemi @ 112 NONAME
	_ZN14CHgVgMediaWall10RemoveItemEi @ 113 NONAME
	_ZN14CHgVgMediaWall11InitScreenLERK5TRect @ 114 NONAME
	_ZN14CHgVgMediaWall11SetObserverEP22MHgVgMediaWallObserver @ 115 NONAME
	_ZN14CHgVgMediaWall12ChangeStyleLENS_19THgVgMediaWallStyleERK5TRecti @ 116 NONAME
	_ZN14CHgVgMediaWall13ItemsOnScreenEv @ 117 NONAME
	_ZN14CHgVgMediaWall13RefreshScreenEi @ 118 NONAME
	_ZN14CHgVgMediaWall13SelectedIndexEv @ 119 NONAME
	_ZN14CHgVgMediaWall13SetEmptyTextLERK7TDesC16 @ 120 NONAME
	_ZN14CHgVgMediaWall15SetDefaultIconLEP8CGulIcon @ 121 NONAME
	_ZN14CHgVgMediaWall16SetSelectedIndexEi @ 122 NONAME
	_ZN14CHgVgMediaWall18FirstIndexOnScreenEv @ 123 NONAME
	_ZN14CHgVgMediaWall19DisableScrollBufferEv @ 124 NONAME
	_ZN14CHgVgMediaWall19EnableScrollBufferLER23MHgScrollBufferObserverii @ 125 NONAME
	_ZN14CHgVgMediaWall20SetSelectionObserverER20MHgSelectionObserver @ 126 NONAME
	_ZN14CHgVgMediaWall22StartOpeningAnimationLEi @ 127 NONAME
	_ZN14CHgVgMediaWall23SetOpeningAnimationTypeENS_25THgVgOpeningAnimationTypeE @ 128 NONAME
	_ZN14CHgVgMediaWall4NewLERK5TRectiNS_19THgVgMediaWallStyleEiP15MObjectProviderP8CGulIcon @ 129 NONAME
	_ZN14CHgVgMediaWall5ItemLEi @ 130 NONAME
	_ZN14CHgVgMediaWall5ResetEv @ 131 NONAME
	_ZN14CHgVgMediaWall7AddItemEP9CHgVgItem @ 132 NONAME
	_ZN14CHgVgMediaWall7ResizeLEi @ 133 NONAME
	_ZN14CHgVgMediaWall7SetItemEP9CHgVgItemi @ 134 NONAME
	_ZN14CHgVgMediaWallD0Ev @ 135 NONAME
	_ZN14CHgVgMediaWallD1Ev @ 136 NONAME
	_ZN14CHgVgMediaWallD2Ev @ 137 NONAME
	_ZN25CHgSingleTextListWithIcon4NewLERK5TRectiP8CGulIconP10RWsSession @ 138 NONAME
	_ZN25CHgSingleTextListWithIconD0Ev @ 139 NONAME
	_ZN25CHgSingleTextListWithIconD1Ev @ 140 NONAME
	_ZN25CHgSingleTextListWithIconD2Ev @ 141 NONAME
	_ZN9CHgVgItem4NewLEiP8CGulIconRK7TDesC16S4_ @ 142 NONAME
	_ZN9CHgVgItem5NewLCEiP8CGulIconRK7TDesC16S4_ @ 143 NONAME
	_ZN9CHgVgItem7SetIconEP8CGulIconi @ 144 NONAME
	_ZN9CHgVgItemD0Ev @ 145 NONAME
	_ZN9CHgVgItemD1Ev @ 146 NONAME
	_ZN9CHgVgItemD2Ev @ 147 NONAME
	_ZNK14CHgVgMediaWall20OpeningAnimationTypeEv @ 148 NONAME
	_ZNK14CHgVgMediaWall5StyleEv @ 149 NONAME
	_ZNK14CHgVgMediaWall9ItemCountEv @ 150 NONAME
	_ZTI14CHgVgMediaWall @ 151 NONAME
	_ZTI25CHgSingleTextListWithIcon @ 152 NONAME
	_ZTI9CHgVgItem @ 153 NONAME
	_ZTV14CHgVgMediaWall @ 154 NONAME
	_ZTV25CHgSingleTextListWithIcon @ 155 NONAME
	_ZTV9CHgVgItem @ 156 NONAME
	_ZN24CHgDoubleGraphicListFlat18PreferredImageSizeEv @ 157 NONAME
	_ZN24CHgDoubleGraphicListFlat4NewLERK5TRectiP8CGulIconP10RWsSession @ 158 NONAME
	_ZN24CHgDoubleGraphicListFlatD0Ev @ 159 NONAME
	_ZN24CHgDoubleGraphicListFlatD1Ev @ 160 NONAME
	_ZN24CHgDoubleGraphicListFlatD2Ev @ 161 NONAME
	_ZTI24CHgDoubleGraphicListFlat @ 162 NONAME
	_ZTV24CHgDoubleGraphicListFlat @ 163 NONAME
	_ZN20CHgDoubleGraphicList23SetIconOverlayIndicatorEP8CGulIcon @ 164 NONAME
	_ZN14CHgVgMediaWall10ClearFlagsEi @ 165 NONAME
	_ZN14CHgVgMediaWall5FlagsEv @ 166 NONAME
	_ZN14CHgVgMediaWall8SetFlagsEi @ 167 NONAME
	_ZN14CHgVgMediaWall17SetOpenedItemRectERK5TRect @ 168 NONAME
	_ZN14CHgVgMediaWall20SetItemToOpenedStateEi @ 169 NONAME

