EXPORTS
	??0CAknCcpuSupport@@QAE@PAVMEikCcpuEditor@@@Z @ 1 NONAME ; CAknCcpuSupport::CAknCcpuSupport(class MEikCcpuEditor *)
	??0CAknDoubleSpanScrollBar@@QAE@PAVCCoeControl@@@Z @ 2 NONAME ; CAknDoubleSpanScrollBar::CAknDoubleSpanScrollBar(class CCoeControl *)
	??0CAknEdwinFormAccessor@@QAE@PAVCEikEdwin@@@Z @ 3 NONAME ; CAknEdwinFormAccessor::CAknEdwinFormAccessor(class CEikEdwin *)
	??0CAknEdwinState@@QAE@XZ @ 4 NONAME ; CAknEdwinState::CAknEdwinState(void)
	??0CEikAlignedControl@@QAE@XZ @ 5 NONAME ; CEikAlignedControl::CEikAlignedControl(void)
	??0CEikAppUiFactory@@QAE@XZ @ 6 NONAME ; CEikAppUiFactory::CEikAppUiFactory(void)
	??0CEikArrowHeadScrollBar@@QAE@PAVCCoeControl@@@Z @ 7 NONAME ; CEikArrowHeadScrollBar::CEikArrowHeadScrollBar(class CCoeControl *)
	??0CEikBitmapButton@@QAE@XZ @ 8 NONAME ; CEikBitmapButton::CEikBitmapButton(void)
	??0CEikBorderedControl@@QAE@ABVTGulBorder@@@Z @ 9 NONAME ; CEikBorderedControl::CEikBorderedControl(class TGulBorder const &)
	??0CEikBorderedControl@@QAE@XZ @ 10 NONAME ; CEikBorderedControl::CEikBorderedControl(void)
	??0CEikButtonBase@@QAE@XZ @ 11 NONAME ; CEikButtonBase::CEikButtonBase(void)
	??0CEikButtonPanel@@QAE@XZ @ 12 NONAME ; CEikButtonPanel::CEikButtonPanel(void)
	??0CEikCommandButton@@QAE@XZ @ 13 NONAME ; CEikCommandButton::CEikCommandButton(void)
	??0CEikCommandButtonBase@@IAE@XZ @ 14 NONAME ; CEikCommandButtonBase::CEikCommandButtonBase(void)
	??0CEikConsoleControl@@QAE@XZ @ 15 NONAME ; CEikConsoleControl::CEikConsoleControl(void)
	??0CEikConsoleScreen@@QAE@XZ @ 16 NONAME ; CEikConsoleScreen::CEikConsoleScreen(void)
	??0CEikControlGroup@@QAE@XZ @ 17 NONAME ; CEikControlGroup::CEikControlGroup(void)
	??0CEikEdwin@@QAE@ABVTGulBorder@@@Z @ 18 NONAME ; CEikEdwin::CEikEdwin(class TGulBorder const &)
	??0CEikEdwin@@QAE@XZ @ 19 NONAME ; CEikEdwin::CEikEdwin(void)
	??0CEikFileNameLabel@@QAE@XZ @ 20 NONAME ; CEikFileNameLabel::CEikFileNameLabel(void)
	??0CEikHotKeyTable@@QAE@XZ @ 21 NONAME ; CEikHotKeyTable::CEikHotKeyTable(void)
	??0CEikImage@@QAE@XZ @ 22 NONAME ; CEikImage::CEikImage(void)
	??0CEikInverterCommandButton@@QAE@XZ @ 23 NONAME ; CEikInverterCommandButton::CEikInverterCommandButton(void)
	??0CEikKeyWindow@@QAE@XZ @ 24 NONAME ; CEikKeyWindow::CEikKeyWindow(void)
	??0CEikLabel@@QAE@XZ @ 25 NONAME ; CEikLabel::CEikLabel(void)
	??0CEikLabeledButton@@QAE@XZ @ 26 NONAME ; CEikLabeledButton::CEikLabeledButton(void)
	??0CEikListBox@@QAE@XZ @ 27 NONAME ; CEikListBox::CEikListBox(void)
	??0CEikListBoxTextEditor@@QAE@PAVMListBoxModel@@@Z @ 28 NONAME ; CEikListBoxTextEditor::CEikListBoxTextEditor(class MListBoxModel *)
	??0CEikMenuBar@@QAE@XZ @ 29 NONAME ; CEikMenuBar::CEikMenuBar(void)
	??0CEikMenuBarTitle@@QAE@XZ @ 30 NONAME ; CEikMenuBarTitle::CEikMenuBarTitle(void)
	??0CEikMenuButton@@QAE@XZ @ 31 NONAME ; CEikMenuButton::CEikMenuButton(void)
	??0CEikMenuPane@@QAE@PAVMEikMenuObserver@@@Z @ 32 NONAME ; CEikMenuPane::CEikMenuPane(class MEikMenuObserver *)
	??0CEikMenuPaneItem@@QAE@XZ @ 33 NONAME ; CEikMenuPaneItem::CEikMenuPaneItem(void)
	??0CEikMenuPaneTitle@@QAE@PAVCEikMenuBar@@@Z @ 34 NONAME ; CEikMenuPaneTitle::CEikMenuPaneTitle(class CEikMenuBar *)
	??0CEikScrollBar@@QAE@XZ @ 35 NONAME ; CEikScrollBar::CEikScrollBar(void)
	??0CEikScrollBarFrame@@QAE@PAVCCoeControl@@PAVMEikScrollBarObserver@@H@Z @ 36 NONAME ; CEikScrollBarFrame::CEikScrollBarFrame(class CCoeControl *, class MEikScrollBarObserver *, int)
	??0CEikScrollButton@@QAE@W4TType@0@@Z @ 37 NONAME ; CEikScrollButton::CEikScrollButton(enum CEikScrollButton::TType)
	??0CEikSnakingListBox@@QAE@XZ @ 38 NONAME ; CEikSnakingListBox::CEikSnakingListBox(void)
	??0CEikSnakingTextListBox@@QAE@XZ @ 39 NONAME ; CEikSnakingTextListBox::CEikSnakingTextListBox(void)
	??0CEikStatusPaneBase@@IAE@AAVCEikonEnv@@PAVRWindowGroup@@@Z @ 40 NONAME ; CEikStatusPaneBase::CEikStatusPaneBase(class CEikonEnv &, class RWindowGroup *)
	??0CEikStatusPaneModelBase@@IAE@AAVCEikonEnv@@@Z @ 41 NONAME ; CEikStatusPaneModelBase::CEikStatusPaneModelBase(class CEikonEnv &)
	??0CEikTextButton@@QAE@XZ @ 42 NONAME ; CEikTextButton::CEikTextButton(void)
	??0CEikTextListBox@@QAE@XZ @ 43 NONAME ; CEikTextListBox::CEikTextListBox(void)
	??0CEikToolBar@@QAE@XZ @ 44 NONAME ; CEikToolBar::CEikToolBar(void)
	??0CEikTwoPictureCommandButton@@QAE@XZ @ 45 NONAME ; CEikTwoPictureCommandButton::CEikTwoPictureCommandButton(void)
	??0CItemArray@CEikMenuPane@@QAE@XZ @ 46 NONAME ; CEikMenuPane::CItemArray::CItemArray(void)
	??0CListBoxData@@QAE@XZ @ 47 NONAME ; CListBoxData::CListBoxData(void)
	??0CListBoxView@@QAE@XZ @ 48 NONAME ; CListBoxView::CListBoxView(void)
	??0CListItemDrawer@@IAE@XZ @ 49 NONAME ; CListItemDrawer::CListItemDrawer(void)
	??0CSnakingListBoxView@@QAE@XZ @ 50 NONAME ; CSnakingListBoxView::CSnakingListBoxView(void)
	??0CTextListBoxModel@@QAE@XZ @ 51 NONAME ; CTextListBoxModel::CTextListBoxModel(void)
	??0CTextListItemDrawer@@QAE@PAVMTextListBoxModel@@PBVCFont@@@Z @ 52 NONAME ; CTextListItemDrawer::CTextListItemDrawer(class MTextListBoxModel *, class CFont const *)
	??0CTextListItemDrawer@@QAE@XZ @ 53 NONAME ; CTextListItemDrawer::CTextListItemDrawer(void)
	??0CTitleArray@CEikMenuBar@@QAE@XZ @ 54 NONAME ; CEikMenuBar::CTitleArray::CTitleArray(void)
	??0TAknDoubleSpanScrollBarModel@@QAE@ABVTEikScrollBarModel@@@Z @ 55 NONAME ; TAknDoubleSpanScrollBarModel::TAknDoubleSpanScrollBarModel(class TEikScrollBarModel const &)
	??0TAknDoubleSpanScrollBarModel@@QAE@XZ @ 56 NONAME ; TAknDoubleSpanScrollBarModel::TAknDoubleSpanScrollBarModel(void)
	??0TAknEditorCaseState@@QAE@XZ @ 57 NONAME ; TAknEditorCaseState::TAknEditorCaseState(void)
	??0TCreationData@EikButtonGroupFactory@@QAE@W4TUse@CEikButtonGroupContainer@@PAVMEikCommandObserver@@HPAVRWindowGroup@@IW4TOrientation@3@@Z @ 58 NONAME ; EikButtonGroupFactory::TCreationData::TCreationData(enum CEikButtonGroupContainer::TUse, class MEikCommandObserver *, int, class RWindowGroup *, unsigned int, enum CEikButtonGroupContainer::TOrientation)
	??0TEikButtonCoordinator@@QAE@XZ @ 59 NONAME ; TEikButtonCoordinator::TEikButtonCoordinator(void)
	??0TEikScrollBarFrameLayout@@QAE@XZ @ 60 NONAME ; TEikScrollBarFrameLayout::TEikScrollBarFrameLayout(void)
	??0TEikScrollBarModel@@QAE@HHH@Z @ 61 NONAME ; TEikScrollBarModel::TEikScrollBarModel(int, int, int)
	??0TListFontBoundValues@@QAE@XZ @ 62 NONAME ; TListFontBoundValues::TListFontBoundValues(void)
	??0TListItemProperties@@QAE@XZ @ 63 NONAME ; TListItemProperties::TListItemProperties(void)
	??1CAknCcpuSupport@@UAE@XZ @ 64 NONAME ; CAknCcpuSupport::~CAknCcpuSupport(void)
	??1CAknDoubleSpanScrollBar@@UAE@XZ @ 65 NONAME ; CAknDoubleSpanScrollBar::~CAknDoubleSpanScrollBar(void)
	??1CAknScreenClearerBase@@MAE@XZ @ 66 NONAME ; CAknScreenClearerBase::~CAknScreenClearerBase(void)
	??1CAknScrollButton@@UAE@XZ @ 67 NONAME ; CAknScrollButton::~CAknScrollButton(void)
	??1CEikAlignedControl@@UAE@XZ @ 68 NONAME ; CEikAlignedControl::~CEikAlignedControl(void)
	??1CEikArrowHeadScrollBar@@UAE@XZ @ 69 NONAME ; CEikArrowHeadScrollBar::~CEikArrowHeadScrollBar(void)
	??1CEikBitmapButton@@UAE@XZ @ 70 NONAME ; CEikBitmapButton::~CEikBitmapButton(void)
	??1CEikButtonBase@@UAE@XZ @ 71 NONAME ; CEikButtonBase::~CEikButtonBase(void)
	??1CEikButtonGroupContainer@@UAE@XZ @ 72 NONAME ; CEikButtonGroupContainer::~CEikButtonGroupContainer(void)
	??1CEikButtonPanel@@UAE@XZ @ 73 NONAME ; CEikButtonPanel::~CEikButtonPanel(void)
	??1CEikCommandButton@@UAE@XZ @ 74 NONAME ; CEikCommandButton::~CEikCommandButton(void)
	??1CEikCommandButtonBase@@UAE@XZ @ 75 NONAME ; CEikCommandButtonBase::~CEikCommandButtonBase(void)
	??1CEikConsoleControl@@UAE@XZ @ 76 NONAME ; CEikConsoleControl::~CEikConsoleControl(void)
	??1CEikConsoleScreen@@UAE@XZ @ 77 NONAME ; CEikConsoleScreen::~CEikConsoleScreen(void)
	??1CEikControlGroup@@UAE@XZ @ 78 NONAME ; CEikControlGroup::~CEikControlGroup(void)
	??1CEikEdwin@@UAE@XZ @ 79 NONAME ; CEikEdwin::~CEikEdwin(void)
	??1CEikFileNameLabel@@UAE@XZ @ 80 NONAME ; CEikFileNameLabel::~CEikFileNameLabel(void)
	??1CEikHotKeyTable@@UAE@XZ @ 81 NONAME ; CEikHotKeyTable::~CEikHotKeyTable(void)
	??1CEikImage@@UAE@XZ @ 82 NONAME ; CEikImage::~CEikImage(void)
	??1CEikInverterCommandButton@@UAE@XZ @ 83 NONAME ; CEikInverterCommandButton::~CEikInverterCommandButton(void)
	??1CEikKeyWindow@@UAE@XZ @ 84 NONAME ; CEikKeyWindow::~CEikKeyWindow(void)
	??1CEikLabel@@UAE@XZ @ 85 NONAME ; CEikLabel::~CEikLabel(void)
	??1CEikLabeledButton@@UAE@XZ @ 86 NONAME ; CEikLabeledButton::~CEikLabeledButton(void)
	??1CEikListBox@@UAE@XZ @ 87 NONAME ; CEikListBox::~CEikListBox(void)
	??1CEikListBoxTextEditor@@UAE@XZ @ 88 NONAME ; CEikListBoxTextEditor::~CEikListBoxTextEditor(void)
	??1CEikMenuBar@@UAE@XZ @ 89 NONAME ; CEikMenuBar::~CEikMenuBar(void)
	??1CEikMenuBarTitle@@UAE@XZ @ 90 NONAME ; CEikMenuBarTitle::~CEikMenuBarTitle(void)
	??1CEikMenuButton@@UAE@XZ @ 91 NONAME ; CEikMenuButton::~CEikMenuButton(void)
	??1CEikMenuPane@@UAE@XZ @ 92 NONAME ; CEikMenuPane::~CEikMenuPane(void)
	??1CEikMenuPaneItem@@UAE@XZ @ 93 NONAME ; CEikMenuPaneItem::~CEikMenuPaneItem(void)
	??1CEikScrollBar@@UAE@XZ @ 94 NONAME ; CEikScrollBar::~CEikScrollBar(void)
	??1CEikScrollBarFrame@@UAE@XZ @ 95 NONAME ; CEikScrollBarFrame::~CEikScrollBarFrame(void)
	??1CEikScrollButton@@UAE@XZ @ 96 NONAME ; CEikScrollButton::~CEikScrollButton(void)
	??1CEikSnakingListBox@@UAE@XZ @ 97 NONAME ; CEikSnakingListBox::~CEikSnakingListBox(void)
	??1CEikSnakingTextListBox@@UAE@XZ @ 98 NONAME ; CEikSnakingTextListBox::~CEikSnakingTextListBox(void)
	??1CEikStatusPane@@UAE@XZ @ 99 NONAME ; CEikStatusPane::~CEikStatusPane(void)
	??1CEikStatusPaneBase@@UAE@XZ @ 100 NONAME ; CEikStatusPaneBase::~CEikStatusPaneBase(void)
	??1CEikStatusPaneModelBase@@UAE@XZ @ 101 NONAME ; CEikStatusPaneModelBase::~CEikStatusPaneModelBase(void)
	??1CEikTextButton@@UAE@XZ @ 102 NONAME ; CEikTextButton::~CEikTextButton(void)
	??1CEikTextListBox@@UAE@XZ @ 103 NONAME ; CEikTextListBox::~CEikTextListBox(void)
	??1CEikToolBar@@UAE@XZ @ 104 NONAME ; CEikToolBar::~CEikToolBar(void)
	??1CEikTwoPictureCommandButton@@UAE@XZ @ 105 NONAME ; CEikTwoPictureCommandButton::~CEikTwoPictureCommandButton(void)
	??1CItemArray@CEikMenuPane@@UAE@XZ @ 106 NONAME ; CEikMenuPane::CItemArray::~CItemArray(void)
	??1CListBoxData@@UAE@XZ @ 107 NONAME ; CListBoxData::~CListBoxData(void)
	??1CListBoxView@@UAE@XZ @ 108 NONAME ; CListBoxView::~CListBoxView(void)
	??1CListItemDrawer@@UAE@XZ @ 109 NONAME ; CListItemDrawer::~CListItemDrawer(void)
	??1CSnakingListBoxView@@UAE@XZ @ 110 NONAME ; CSnakingListBoxView::~CSnakingListBoxView(void)
	??1CTextListBoxModel@@UAE@XZ @ 111 NONAME ; CTextListBoxModel::~CTextListBoxModel(void)
	??1CTextListItemDrawer@@UAE@XZ @ 112 NONAME ; CTextListItemDrawer::~CTextListItemDrawer(void)
	??1CTitleArray@CEikMenuBar@@UAE@XZ @ 113 NONAME ; CEikMenuBar::CTitleArray::~CTitleArray(void)
	??1MListBoxModel@@UAE@XZ @ 114 NONAME ; MListBoxModel::~MListBoxModel(void)
	??1MTextListBoxModel@@UAE@XZ @ 115 NONAME ; MTextListBoxModel::~MTextListBoxModel(void)
	??8TEikScrollBarModel@@QBEHV0@@Z @ 116 NONAME ; int TEikScrollBarModel::operator==(class TEikScrollBarModel) const
	?ActivateL@CEikButtonPanel@@EAEXXZ @ 117 NONAME ; void CEikButtonPanel::ActivateL(void)
	?ActivateL@CEikCommandButtonBase@@UAEXXZ @ 118 NONAME ; void CEikCommandButtonBase::ActivateL(void)
	?ActivateL@CEikEdwin@@UAEXXZ @ 119 NONAME ; void CEikEdwin::ActivateL(void)
	?ActivateL@CEikListBox@@UAEXXZ @ 120 NONAME ; void CEikListBox::ActivateL(void)
	?ActivateL@CEikTwoPictureCommandButton@@UAEXXZ @ 121 NONAME ; void CEikTwoPictureCommandButton::ActivateL(void)
	?AddButtonL@CEikButtonPanel@@QAEXPAVCEikLabeledButton@@H@Z @ 122 NONAME ; void CEikButtonPanel::AddButtonL(class CEikLabeledButton *, int)
	?AddButtonL@CEikButtonPanel@@QAEXPAVCEikLabeledButton@@HH@Z @ 123 NONAME ; void CEikButtonPanel::AddButtonL(class CEikLabeledButton *, int, int)
	?AddCommandSetToStackL@CEikButtonGroupContainer@@QAEXH@Z @ 124 NONAME ; void CEikButtonGroupContainer::AddCommandSetToStackL(int)
	?AddCommandToStackL@CEikCommandButton@@QAEXHPBVTDesC16@@PBVCFbsBitmap@@1@Z @ 125 NONAME ; void CEikCommandButton::AddCommandToStackL(int, class TDesC16 const *, class CFbsBitmap const *, class CFbsBitmap const *)
	?AddControlL@CEikControlGroup@@UAEXAAVTEikGroupControl@@@Z @ 126 NONAME ; void CEikControlGroup::AddControlL(class TEikGroupControl &)
	?AddControlL@CEikControlGroup@@UAEXPAVCCoeControl@@H@Z @ 127 NONAME ; void CEikControlGroup::AddControlL(class CCoeControl *, int)
	?AddControlL@CEikToolBar@@UAEXAAVTEikGroupControl@@@Z @ 128 NONAME ; void CEikToolBar::AddControlL(class TEikGroupControl &)
	?AddControlL@CEikToolBar@@UAEXPAVCCoeControl@@H@Z @ 129 NONAME ; void CEikToolBar::AddControlL(class CCoeControl *, int)
	?AddEdwinObserverL@CEikEdwin@@QAEXPAVMEikEdwinObserver@@@Z @ 130 NONAME ; void CEikEdwin::AddEdwinObserverL(class MEikEdwinObserver *)
	?AddFlagToUserFlags@CEikEdwin@@QAEXK@Z @ 131 NONAME ; void CEikEdwin::AddFlagToUserFlags(unsigned long)
	?AddItemL@CEikHotKeyTable@@QAEXHHH@Z @ 132 NONAME ; void CEikHotKeyTable::AddItemL(int, int, int)
	?AddItemL@CItemArray@CEikMenuPane@@QAEXPAVCEikMenuPaneItem@@@Z @ 133 NONAME ; void CEikMenuPane::CItemArray::AddItemL(class CEikMenuPaneItem *)
	?AddMenuItemL@CEikMenuPane@@QAEXABUSData@CEikMenuPaneItem@@@Z @ 134 NONAME ; void CEikMenuPane::AddMenuItemL(struct CEikMenuPaneItem::SData const &)
	?AddMenuItemL@CEikMenuPane@@QAEXABUSData@CEikMenuPaneItem@@H@Z @ 135 NONAME ; void CEikMenuPane::AddMenuItemL(struct CEikMenuPaneItem::SData const &, int)
	?AddMenuItemsL@CEikMenuPane@@QAEXHHH@Z @ 136 NONAME ; void CEikMenuPane::AddMenuItemsL(int, int, int)
	?AddTitleL@CTitleArray@CEikMenuBar@@QAEXPAVCEikMenuBarTitle@@@Z @ 137 NONAME ; void CEikMenuBar::CTitleArray::AddTitleL(class CEikMenuBarTitle *)
	?Adjacent@CEikControlGroup@@ABEHHHHHH@Z @ 138 NONAME ; int CEikControlGroup::Adjacent(int, int, int, int, int) const
	?AdjustRectHeightToWholeNumberOfItems@CEikListBox@@MBEHAAVTRect@@@Z @ 139 NONAME ; int CEikListBox::AdjustRectHeightToWholeNumberOfItems(class TRect &) const
	?AdjustRectHeightToWholeNumberOfItems@CEikSnakingListBox@@MBEHAAVTRect@@@Z @ 140 NONAME ; int CEikSnakingListBox::AdjustRectHeightToWholeNumberOfItems(class TRect &) const
	?AdjustTopItemIndex@CEikListBox@@MBEXXZ @ 141 NONAME ; void CEikListBox::AdjustTopItemIndex(void) const
	?AdjustTopItemIndex@CEikSnakingListBox@@MBEXXZ @ 142 NONAME ; void CEikSnakingListBox::AdjustTopItemIndex(void) const
	?AknEditorCurrentInputMode@CEikEdwin@@QAEHXZ @ 143 NONAME ; int CEikEdwin::AknEditorCurrentInputMode(void)
	?AknEdwinFlags@CEikEdwin@@QBEHXZ @ 144 NONAME ; int CEikEdwin::AknEdwinFlags(void) const
	?AllSameSize@CEikControlGroup@@AAEHXZ @ 145 NONAME ; int CEikControlGroup::AllSameSize(void)
	?Animate@CEikButtonBase@@UAEXXZ @ 146 NONAME ; void CEikButtonBase::Animate(void)
	?Animate@CEikLabeledButton@@QAEXXZ @ 147 NONAME ; void CEikLabeledButton::Animate(void)
	?Animate@CEikMenuButton@@UAEXXZ @ 148 NONAME ; void CEikMenuButton::Animate(void)
	?AnimateCommand@CEikButtonGroupContainer@@QAEXH@Z @ 149 NONAME ; void CEikButtonGroupContainer::AnimateCommand(int)
	?AnimateCommand@MEikButtonGroup@@UAEXH@Z @ 150 NONAME ; void MEikButtonGroup::AnimateCommand(int)
	?AppendFactoryFunctionL@CEikButtonGroupFactoryArray@@SAXP6APAVMEikButtonGroup@@HAAVTCreationData@EikButtonGroupFactory@@AAH@Z@Z @ 151 NONAME ; void CEikButtonGroupFactoryArray::AppendFactoryFunctionL(class MEikButtonGroup * (*)(int, class EikButtonGroupFactory::TCreationData &, int &))
	?ApplyCurrentSettingsL@CEikStatusPane@@QAEXXZ @ 152 NONAME ; void CEikStatusPane::ApplyCurrentSettingsL(void)
	?BackColor@CEikListBox@@IBE?AVTRgb@@XZ @ 153 NONAME ; class TRgb CEikListBox::BackColor(void) const
	?BackColor@CListBoxView@@QBE?AVTRgb@@XZ @ 154 NONAME ; class TRgb CListBoxView::BackColor(void) const
	?BaseConstructL@CEikEdwin@@IAEXXZ @ 155 NONAME ; void CEikEdwin::BaseConstructL(void)
	?BaseConstructL@CEikStatusPaneBase@@IAEXH@Z @ 156 NONAME ; void CEikStatusPaneBase::BaseConstructL(int)
	?BaseConstructL@CEikStatusPaneModelBase@@IAEXH@Z @ 157 NONAME ; void CEikStatusPaneModelBase::BaseConstructL(int)
	?Bitmap@CEikImage@@QBEPBVCFbsBitmap@@XZ @ 158 NONAME ; class CFbsBitmap const * CEikImage::Bitmap(void) const
	?Border@CEikBorderedControl@@QBE?AVTGulBorder@@XZ @ 159 NONAME ; class TGulBorder CEikBorderedControl::Border(void) const
	?BottomItemIndex@CEikListBox@@QBEHXZ @ 160 NONAME ; int CEikListBox::BottomItemIndex(void) const
	?BottomItemIndex@CListBoxView@@QBEHXZ @ 161 NONAME ; int CListBoxView::BottomItemIndex(void) const
	?BufferReserveLength@CEikLabel@@QBEHXZ @ 162 NONAME ; int CEikLabel::BufferReserveLength(void) const
	?Button@CEikLabeledButton@@QBEPAVCEikCommandButtonBase@@XZ @ 163 NONAME ; class CEikCommandButtonBase * CEikLabeledButton::Button(void) const
	?ButtonById@CEikButtonGroupContainer@@QBEPAVCEikCommandButton@@H@Z @ 164 NONAME ; class CEikCommandButton * CEikButtonGroupContainer::ButtonById(int) const
	?ButtonById@CEikButtonPanel@@QBEPAVCEikCommandButtonBase@@H@Z @ 165 NONAME ; class CEikCommandButtonBase * CEikButtonPanel::ButtonById(int) const
	?ButtonCount@CEikButtonGroupContainer@@QBEHXZ @ 166 NONAME ; int CEikButtonGroupContainer::ButtonCount(void) const
	?ButtonForKey@CEikButtonPanel@@QBEPAVCEikCommandButtonBase@@HAAH@Z @ 167 NONAME ; class CEikCommandButtonBase * CEikButtonPanel::ButtonForKey(int, int &) const
	?ButtonGroupFactory@CEikCoCtlLibrary@@SAP6APAVMEikButtonGroup@@HAAVTCreationData@EikButtonGroupFactory@@AAH@ZXZ @ 168 NONAME ; class MEikButtonGroup * (*)(int, class EikButtonGroupFactory::TCreationData &, int &) CEikCoCtlLibrary::ButtonGroupFactory(void)
	?ButtonId@CEikButtonPanel@@QBEHPAVCCoeControl@@@Z @ 169 NONAME ; int CEikButtonPanel::ButtonId(class CCoeControl *) const
	?CEikListBox_Reserved@CEikListBox@@EAEXXZ @ 170 NONAME ; void CEikListBox::CEikListBox_Reserved(void)
	?CEikListBox_Reserved@CEikSnakingListBox@@EAEXXZ @ 171 NONAME ; void CEikSnakingListBox::CEikListBox_Reserved(void)
	?CEikListBox_Reserved@CEikTextListBox@@EAEXXZ @ 172 NONAME ; void CEikTextListBox::CEikListBox_Reserved(void)
	?CalcBottomItemIndex@CListBoxView@@UAEXXZ @ 173 NONAME ; void CListBoxView::CalcBottomItemIndex(void)
	?CalcBottomItemIndex@CSnakingListBoxView@@UAEXXZ @ 174 NONAME ; void CSnakingListBoxView::CalcBottomItemIndex(void)
	?CalcDataWidth@CListBoxView@@UAEXXZ @ 175 NONAME ; void CListBoxView::CalcDataWidth(void)
	?CalcDataWidth@CSnakingListBoxView@@UAEXXZ @ 176 NONAME ; void CSnakingListBoxView::CalcDataWidth(void)
	?CalcHeightBasedOnNumOfItems@CEikListBox@@QBEHH@Z @ 177 NONAME ; int CEikListBox::CalcHeightBasedOnNumOfItems(int) const
	?CalcItemIndexFromRowAndColIndexes@CSnakingListBoxView@@QBEXAAHHH@Z @ 178 NONAME ; void CSnakingListBoxView::CalcItemIndexFromRowAndColIndexes(int &, int, int) const
	?CalcMinimumSize@CEikLabel@@QBE?AVTSize@@AAVTPtrC16@@@Z @ 179 NONAME ; class TSize CEikLabel::CalcMinimumSize(class TPtrC16 &) const
	?CalcMinimumSizeL@CEikButtonGroupContainer@@QBE?AVTSize@@H@Z @ 180 NONAME ; class TSize CEikButtonGroupContainer::CalcMinimumSizeL(int) const
	?CalcNewTopItemIndexSoItemIsVisible@CListBoxView@@UBEHH@Z @ 181 NONAME ; int CListBoxView::CalcNewTopItemIndexSoItemIsVisible(int) const
	?CalcNewTopItemIndexSoItemIsVisible@CSnakingListBoxView@@UBEHH@Z @ 182 NONAME ; int CSnakingListBoxView::CalcNewTopItemIndexSoItemIsVisible(int) const
	?CalcRowAndColIndexesFromItemIndex@CSnakingListBoxView@@QBEXHAAH0@Z @ 183 NONAME ; void CSnakingListBoxView::CalcRowAndColIndexesFromItemIndex(int, int &, int &) const
	?CalcSizeInPixels@CEikListBox@@QBE?AVTSize@@HH@Z @ 184 NONAME ; class TSize CEikListBox::CalcSizeInPixels(int, int) const
	?CalcWidthBasedOnNumOfChars@CEikListBox@@QBEHH@Z @ 185 NONAME ; int CEikListBox::CalcWidthBasedOnNumOfChars(int) const
	?CalcWidthBasedOnRequiredItemWidth@CEikListBox@@QBEHH@Z @ 186 NONAME ; int CEikListBox::CalcWidthBasedOnRequiredItemWidth(int) const
	?CalculateHScrollOffsetSoItemIsVisible@CSnakingListBoxView@@UAEHH@Z @ 187 NONAME ; int CSnakingListBoxView::CalculateHScrollOffsetSoItemIsVisible(int)
	?CalculatePopoutRect@CEikListBox@@QAEXHHAAVTRect@@H@Z @ 188 NONAME ; void CEikListBox::CalculatePopoutRect(int, int, class TRect &, int)
	?CalculateWidth@CEikEdwin@@QAEXH@Z @ 189 NONAME ; void CEikEdwin::CalculateWidth(int)
	?CanUndo@CEikEdwin@@QBEHXZ @ 190 NONAME ; int CEikEdwin::CanUndo(void) const
	?CancelFepTransaction@CEikEdwin@@QAEXXZ @ 191 NONAME ; void CEikEdwin::CancelFepTransaction(void)
	?CancelInsertCharFormat@CEikEdwin@@IAEXXZ @ 192 NONAME ; void CEikEdwin::CancelInsertCharFormat(void)
	?CancelSelectionL@CEikEdwin@@IAEXW4TEnd@1@@Z @ 193 NONAME ; void CEikEdwin::CancelSelectionL(enum CEikEdwin::TEnd)
	?CaseState@CAknEdwinState@@AAEAAVTAknEditorCaseState@@XZ @ 194 NONAME ; class TAknEditorCaseState & CAknEdwinState::CaseState(void)
	?CbaState@CAknEdwinState@@QAEAAUSEditorCbaState@1@XZ @ 195 NONAME ; struct CAknEdwinState::SEditorCbaState & CAknEdwinState::CbaState(void)
	?CcpuCanCopy@CEikEdwin@@UBEHXZ @ 196 NONAME ; int CEikEdwin::CcpuCanCopy(void) const
	?CcpuCanCut@CEikEdwin@@UBEHXZ @ 197 NONAME ; int CEikEdwin::CcpuCanCut(void) const
	?CcpuCanPaste@CEikEdwin@@UBEHXZ @ 198 NONAME ; int CEikEdwin::CcpuCanPaste(void) const
	?CcpuCanUndo@CEikEdwin@@UBEHXZ @ 199 NONAME ; int CEikEdwin::CcpuCanUndo(void) const
	?CcpuCopyL@CEikEdwin@@UAEXXZ @ 200 NONAME ; void CEikEdwin::CcpuCopyL(void)
	?CcpuCutL@CEikEdwin@@UAEXXZ @ 201 NONAME ; void CEikEdwin::CcpuCutL(void)
	?CcpuIsFocused@CEikEdwin@@UBEHXZ @ 202 NONAME ; int CEikEdwin::CcpuIsFocused(void) const
	?CcpuPasteL@CEikEdwin@@UAEXXZ @ 203 NONAME ; void CEikEdwin::CcpuPasteL(void)
	?CcpuState@CAknEdwinState@@QBEPAVMEikCcpuEditor@@XZ @ 204 NONAME ; class MEikCcpuEditor * CAknEdwinState::CcpuState(void) const
	?CcpuUndoL@CEikEdwin@@UAEXXZ @ 205 NONAME ; void CEikEdwin::CcpuUndoL(void)
	?ChangeMenuBarL@CEikMenuBar@@QAEXHHH@Z @ 206 NONAME ; void CEikMenuBar::ChangeMenuBarL(int, int, int)
	?CheckBounds@TEikScrollBarModel@@QAEXXZ @ 207 NONAME ; void TEikScrollBarModel::CheckBounds(void)
	?CheckEdwinExtensionL@CEikEdwin@@IAEXXZ @ 208 NONAME ; void CEikEdwin::CheckEdwinExtensionL(void)
	?CheckNotReadOnlyL@CEikEdwin@@QAEXXZ @ 209 NONAME ; void CEikEdwin::CheckNotReadOnlyL(void)
	?CheckRemovePictures@CEikEdwin@@QAEXHH@Z @ 210 NONAME ; void CEikEdwin::CheckRemovePictures(int, int)
	?CheckValidityOfChars@CEikEdwin@@QAEXHH@Z @ 211 NONAME ; void CEikEdwin::CheckValidityOfChars(int, int)
	?CleanupCommandPop@CEikButtonGroupContainer@@QAEXH@Z @ 212 NONAME ; void CEikButtonGroupContainer::CleanupCommandPop(int)
	?CleanupCommandPushL@CEikButtonGroupContainer@@QAEXH@Z @ 213 NONAME ; void CEikButtonGroupContainer::CleanupCommandPushL(int)
	?ClearChars@CEikConsoleControl@@QAEXABVTRect@@I@Z @ 214 NONAME ; void CEikConsoleControl::ClearChars(class TRect const &, unsigned int)
	?ClearChars@CEikConsoleScreen@@QAEXABVTRect@@I@Z @ 215 NONAME ; void CEikConsoleScreen::ClearChars(class TRect const &, unsigned int)
	?ClearFlag@TAknEditorCaseState@@QAEXW4TCaseStateFlags@1@@Z @ 216 NONAME ; void TAknEditorCaseState::ClearFlag(enum TAknEditorCaseState::TCaseStateFlags)
	?ClearFlags@CListItemDrawer@@QAEXH@Z @ 217 NONAME ; void CListItemDrawer::ClearFlags(int)
	?ClearMargins@CEikListBox@@IBEXXZ @ 218 NONAME ; void CEikListBox::ClearMargins(void) const
	?ClearMatchBuffer@CEikListBox@@IBEXXZ @ 219 NONAME ; void CEikListBox::ClearMatchBuffer(void) const
	?ClearRect@CListItemDrawer@@UBEXABVTRect@@@Z @ 220 NONAME ; void CListItemDrawer::ClearRect(class TRect const &) const
	?ClearScreen@CEikConsoleScreen@@UAEXXZ @ 221 NONAME ; void CEikConsoleScreen::ClearScreen(void)
	?ClearSelection@CEikListBox@@QAEXXZ @ 222 NONAME ; void CEikListBox::ClearSelection(void)
	?ClearSelection@CListBoxView@@QAEXXZ @ 223 NONAME ; void CListBoxView::ClearSelection(void)
	?ClearSelectionAnchorAndActiveIndex@CListBoxView@@QAEXXZ @ 224 NONAME ; void CListBoxView::ClearSelectionAnchorAndActiveIndex(void)
	?ClearSelectionL@CEikEdwin@@QAEXXZ @ 225 NONAME ; void CEikEdwin::ClearSelectionL(void)
	?ClearToEndOfLine@CEikConsoleScreen@@UAEXXZ @ 226 NONAME ; void CEikConsoleScreen::ClearToEndOfLine(void)
	?ClearUndo@CEikEdwin@@QAEXXZ @ 227 NONAME ; void CEikEdwin::ClearUndo(void)
	?ClearUnusedItemSpace@CSnakingListBoxView@@IBEXHH@Z @ 228 NONAME ; void CSnakingListBoxView::ClearUnusedItemSpace(int, int) const
	?ClipboardL@CEikEdwin@@QAEXW4TClipboardFunc@1@@Z @ 229 NONAME ; void CEikEdwin::ClipboardL(enum CEikEdwin::TClipboardFunc)
	?Close@CEikMenuPane@@QAEXXZ @ 230 NONAME ; void CEikMenuPane::Close(void)
	?Close@CEikMenuPaneTitle@@QAEXXZ @ 231 NONAME ; void CEikMenuPaneTitle::Close(void)
	?CloseCascadeMenu@CEikMenuPane@@QAEXXZ @ 232 NONAME ; void CEikMenuPane::CloseCascadeMenu(void)
	?ColumnWidth@CEikSnakingListBox@@QBEHXZ @ 233 NONAME ; int CEikSnakingListBox::ColumnWidth(void) const
	?CommandButtonOrNull@CEikButtonGroupContainer@@QBEPAVCEikCommandButton@@H@Z @ 234 NONAME ; class CEikCommandButton * CEikButtonGroupContainer::CommandButtonOrNull(int) const
	?CommandIdFromHotKey@CEikHotKeyTable@@QBEHHH@Z @ 235 NONAME ; int CEikHotKeyTable::CommandIdFromHotKey(int, int) const
	?ComponentControl@CAknDoubleSpanScrollBar@@MBEPAVCCoeControl@@H@Z @ 236 NONAME ; class CCoeControl * CAknDoubleSpanScrollBar::ComponentControl(int) const
	?ComponentControl@CEikButtonPanel@@EBEPAVCCoeControl@@H@Z @ 237 NONAME ; class CCoeControl * CEikButtonPanel::ComponentControl(int) const
	?ComponentControl@CEikCommandButtonBase@@UBEPAVCCoeControl@@H@Z @ 238 NONAME ; class CCoeControl * CEikCommandButtonBase::ComponentControl(int) const
	?ComponentControl@CEikConsoleControl@@MBEPAVCCoeControl@@H@Z @ 239 NONAME ; class CCoeControl * CEikConsoleControl::ComponentControl(int) const
	?ComponentControl@CEikControlGroup@@MBEPAVCCoeControl@@H@Z @ 240 NONAME ; class CCoeControl * CEikControlGroup::ComponentControl(int) const
	?ComponentControl@CEikEdwin@@EBEPAVCCoeControl@@H@Z @ 241 NONAME ; class CCoeControl * CEikEdwin::ComponentControl(int) const
	?ComponentControl@CEikFileNameLabel@@EBEPAVCCoeControl@@H@Z @ 242 NONAME ; class CCoeControl * CEikFileNameLabel::ComponentControl(int) const
	?ComponentControl@CEikListBox@@MBEPAVCCoeControl@@H@Z @ 243 NONAME ; class CCoeControl * CEikListBox::ComponentControl(int) const
	?ComponentControl@CEikMenuPane@@UBEPAVCCoeControl@@H@Z @ 244 NONAME ; class CCoeControl * CEikMenuPane::ComponentControl(int) const
	?ComponentControl@CEikScrollBar@@MBEPAVCCoeControl@@H@Z @ 245 NONAME ; class CCoeControl * CEikScrollBar::ComponentControl(int) const
	?ComponentControl@CEikScrollBarFrame@@QBEPAVCCoeControl@@H@Z @ 246 NONAME ; class CCoeControl * CEikScrollBarFrame::ComponentControl(int) const
	?ConstructFontL@CListBoxData@@IAEXPBVCFont@@VTFontStyle@@AAVCFontsWithStyle@1@@Z @ 247 NONAME ; void CListBoxData::ConstructFontL(class CFont const *, class TFontStyle, class CListBoxData::CFontsWithStyle &)
	?ConstructFromResourceL@CEikBitmapButton@@UAEXAAVTResourceReader@@@Z @ 248 NONAME ; void CEikBitmapButton::ConstructFromResourceL(class TResourceReader &)
	?ConstructFromResourceL@CEikButtonPanel@@UAEXAAVTResourceReader@@@Z @ 249 NONAME ; void CEikButtonPanel::ConstructFromResourceL(class TResourceReader &)
	?ConstructFromResourceL@CEikCommandButton@@UAEXAAVTResourceReader@@@Z @ 250 NONAME ; void CEikCommandButton::ConstructFromResourceL(class TResourceReader &)
	?ConstructFromResourceL@CEikEdwin@@UAEXAAVTResourceReader@@@Z @ 251 NONAME ; void CEikEdwin::ConstructFromResourceL(class TResourceReader &)
	?ConstructFromResourceL@CEikFileNameLabel@@EAEXAAVTResourceReader@@@Z @ 252 NONAME ; void CEikFileNameLabel::ConstructFromResourceL(class TResourceReader &)
	?ConstructFromResourceL@CEikHotKeyTable@@QAEXH@Z @ 253 NONAME ; void CEikHotKeyTable::ConstructFromResourceL(int)
	?ConstructFromResourceL@CEikImage@@UAEXAAVTResourceReader@@@Z @ 254 NONAME ; void CEikImage::ConstructFromResourceL(class TResourceReader &)
	?ConstructFromResourceL@CEikLabel@@UAEXAAVTResourceReader@@@Z @ 255 NONAME ; void CEikLabel::ConstructFromResourceL(class TResourceReader &)
	?ConstructFromResourceL@CEikLabeledButton@@UAEXAAVTResourceReader@@@Z @ 256 NONAME ; void CEikLabeledButton::ConstructFromResourceL(class TResourceReader &)
	?ConstructFromResourceL@CEikMenuBar@@UAEXAAVTResourceReader@@@Z @ 257 NONAME ; void CEikMenuBar::ConstructFromResourceL(class TResourceReader &)
	?ConstructFromResourceL@CEikMenuButton@@UAEXAAVTResourceReader@@@Z @ 258 NONAME ; void CEikMenuButton::ConstructFromResourceL(class TResourceReader &)
	?ConstructFromResourceL@CEikMenuPane@@MAEXAAVTResourceReader@@@Z @ 259 NONAME ; void CEikMenuPane::ConstructFromResourceL(class TResourceReader &)
	?ConstructFromResourceL@CEikTextButton@@UAEXAAVTResourceReader@@@Z @ 260 NONAME ; void CEikTextButton::ConstructFromResourceL(class TResourceReader &)
	?ConstructFromResourceL@CEikTextListBox@@UAEXAAVTResourceReader@@@Z @ 261 NONAME ; void CEikTextListBox::ConstructFromResourceL(class TResourceReader &)
	?ConstructFromResourceL@CEikToolBar@@UAEXAAVTResourceReader@@@Z @ 262 NONAME ; void CEikToolBar::ConstructFromResourceL(class TResourceReader &)
	?ConstructFromResourceL@CEikTwoPictureCommandButton@@UAEXAAVTResourceReader@@@Z @ 263 NONAME ; void CEikTwoPictureCommandButton::ConstructFromResourceL(class TResourceReader &)
	?ConstructImageFromResourceL@CEikCommandButtonBase@@QAEXAAVTResourceReader@@W4TWhichComponent@1@@Z @ 264 NONAME ; void CEikCommandButtonBase::ConstructImageFromResourceL(class TResourceReader &, enum CEikCommandButtonBase::TWhichComponent)
	?ConstructImagesFromResourceL@CEikTwoPictureCommandButton@@QAEXAAVTResourceReader@@W4TWhichComponent@CEikCommandButtonBase@@@Z @ 265 NONAME ; void CEikTwoPictureCommandButton::ConstructImagesFromResourceL(class TResourceReader &, enum CEikCommandButtonBase::TWhichComponent)
	?ConstructL@CAknCcpuSupport@@QAEXXZ @ 266 NONAME ; void CAknCcpuSupport::ConstructL(void)
	?ConstructL@CAknDoubleSpanScrollBar@@QAEXHPAVMEikScrollBarObserver@@PBVCCoeControl@@W4TOrientation@CEikScrollBar@@HH@Z @ 267 NONAME ; void CAknDoubleSpanScrollBar::ConstructL(int, class MEikScrollBarObserver *, class CCoeControl const *, enum CEikScrollBar::TOrientation, int, int)
	?ConstructL@CAknDoubleSpanScrollBar@@UAEXPAVMEikScrollBarObserver@@PBVCCoeControl@@W4TOrientation@CEikScrollBar@@HH@Z @ 268 NONAME ; void CAknDoubleSpanScrollBar::ConstructL(class MEikScrollBarObserver *, class CCoeControl const *, enum CEikScrollBar::TOrientation, int, int)
	?ConstructL@CAknScreenClearerBase@@IAEXAAVRWindowGroup@@HH@Z @ 269 NONAME ; void CAknScreenClearerBase::ConstructL(class RWindowGroup &, int, int)
	?ConstructL@CEikArrowHeadScrollBar@@UAEXPAVMEikScrollBarObserver@@PBVCCoeControl@@W4TOrientation@CEikScrollBar@@HH@Z @ 270 NONAME ; void CEikArrowHeadScrollBar::ConstructL(class MEikScrollBarObserver *, class CCoeControl const *, enum CEikScrollBar::TOrientation, int, int)
	?ConstructL@CEikButtonPanel@@QAEXXZ @ 271 NONAME ; void CEikButtonPanel::ConstructL(void)
	?ConstructL@CEikConsoleControl@@QAEXH@Z @ 272 NONAME ; void CEikConsoleControl::ConstructL(int)
	?ConstructL@CEikConsoleControl@@QAEXVTPoint@@ABVTSize@@HW4TEikConsWinUnits@@@Z @ 273 NONAME ; void CEikConsoleControl::ConstructL(class TPoint, class TSize const &, int, enum TEikConsWinUnits)
	?ConstructL@CEikConsoleScreen@@QAEXABVTDesC16@@ABVTSize@@HW4TEikConsWinUnits@@@Z @ 274 NONAME ; void CEikConsoleScreen::ConstructL(class TDesC16 const &, class TSize const &, int, enum TEikConsWinUnits)
	?ConstructL@CEikConsoleScreen@@QAEXABVTDesC16@@H@Z @ 275 NONAME ; void CEikConsoleScreen::ConstructL(class TDesC16 const &, int)
	?ConstructL@CEikConsoleScreen@@QAEXABVTDesC16@@VTPoint@@ABVTSize@@HW4TEikConsWinUnits@@@Z @ 276 NONAME ; void CEikConsoleScreen::ConstructL(class TDesC16 const &, class TPoint, class TSize const &, int, enum TEikConsWinUnits)
	?ConstructL@CEikControlGroup@@QAEXW4TStartCorner@1@W4TOrientation@1@@Z @ 277 NONAME ; void CEikControlGroup::ConstructL(enum CEikControlGroup::TStartCorner, enum CEikControlGroup::TOrientation)
	?ConstructL@CEikEdwin@@QAEXHHHH@Z @ 278 NONAME ; void CEikEdwin::ConstructL(int, int, int, int)
	?ConstructL@CEikFileNameLabel@@QAEXXZ @ 279 NONAME ; void CEikFileNameLabel::ConstructL(void)
	?ConstructL@CEikKeyWindow@@QAEXABVTPoint@@ABVTSize@@HHHHW4TType@1@PAVRWindowGroup@@@Z @ 280 NONAME ; void CEikKeyWindow::ConstructL(class TPoint const &, class TSize const &, int, int, int, int, enum CEikKeyWindow::TType, class RWindowGroup *)
	?ConstructL@CEikLabeledButton@@QAEXPAVCEikCommandButtonBase@@HH@Z @ 281 NONAME ; void CEikLabeledButton::ConstructL(class CEikCommandButtonBase *, int, int)
	?ConstructL@CEikListBox@@MAEXPBVCCoeControl@@H@Z @ 282 NONAME ; void CEikListBox::ConstructL(class CCoeControl const *, int)
	?ConstructL@CEikListBox@@QAEXPAVMListBoxModel@@PAVCListItemDrawer@@PBVCCoeControl@@H@Z @ 283 NONAME ; void CEikListBox::ConstructL(class MListBoxModel *, class CListItemDrawer *, class CCoeControl const *, int)
	?ConstructL@CEikListBox@@QAEXPAVMListBoxModel@@PAVCListItemDrawer@@PBVCCoeControl@@VTGulBorder@@H@Z @ 284 NONAME ; void CEikListBox::ConstructL(class MListBoxModel *, class CListItemDrawer *, class CCoeControl const *, class TGulBorder, int)
	?ConstructL@CEikMenuBar@@QAEXPAVMEikMenuObserver@@HH@Z @ 285 NONAME ; void CEikMenuBar::ConstructL(class MEikMenuObserver *, int, int)
	?ConstructL@CEikMenuPane@@QAEXPAV1@PAVMEikMenuObserver@@@Z @ 286 NONAME ; void CEikMenuPane::ConstructL(class CEikMenuPane *, class MEikMenuObserver *)
	?ConstructL@CEikMenuPaneTitle@@QAEXXZ @ 287 NONAME ; void CEikMenuPaneTitle::ConstructL(void)
	?ConstructL@CEikScrollBar@@UAEXPAVMEikScrollBarObserver@@PBVCCoeControl@@W4TOrientation@1@HH@Z @ 288 NONAME ; void CEikScrollBar::ConstructL(class MEikScrollBarObserver *, class CCoeControl const *, enum CEikScrollBar::TOrientation, int, int)
	?ConstructL@CEikSnakingTextListBox@@UAEXPBVCCoeControl@@H@Z @ 289 NONAME ; void CEikSnakingTextListBox::ConstructL(class CCoeControl const *, int)
	?ConstructL@CEikTextListBox@@UAEXPBVCCoeControl@@H@Z @ 290 NONAME ; void CEikTextListBox::ConstructL(class CCoeControl const *, int)
	?ConstructL@CEikToolBar@@QAEXPAVMEikCommandObserver@@HABVTRect@@@Z @ 291 NONAME ; void CEikToolBar::ConstructL(class MEikCommandObserver *, int, class TRect const &)
	?ConstructL@CListBoxData@@QAEXPBVCFont@@@Z @ 292 NONAME ; void CListBoxData::ConstructL(class CFont const *)
	?ConstructL@CListBoxView@@UAEXPAVMListBoxModel@@PAVCListItemDrawer@@PAVCWsScreenDevice@@PAVRWindowGroup@@PAVRWindow@@ABVTRect@@H@Z @ 293 NONAME ; void CListBoxView::ConstructL(class MListBoxModel *, class CListItemDrawer *, class CWsScreenDevice *, class RWindowGroup *, class RWindow *, class TRect const &, int)
	?ConstructL@CTextListBoxModel@@UAEXPAVMDesC16Array@@W4TListBoxModelItemArrayOwnership@@@Z @ 294 NONAME ; void CTextListBoxModel::ConstructL(class MDesC16Array *, enum TListBoxModelItemArrayOwnership)
	?ConstructL@CTextListItemDrawer@@QAEXPBVCFont@@@Z @ 295 NONAME ; void CTextListItemDrawer::ConstructL(class CFont const *)
	?ConstructLabelFromResourceL@CEikCommandButtonBase@@QAEXAAVTResourceReader@@W4TWhichComponent@1@@Z @ 296 NONAME ; void CEikCommandButtonBase::ConstructLabelFromResourceL(class TResourceReader &, enum CEikCommandButtonBase::TWhichComponent)
	?ContainerControlL@CEikStatusPaneBase@@QBEPAVCCoeControl@@VTUid@@@Z @ 297 NONAME ; class CCoeControl * CEikStatusPaneBase::ContainerControlL(class TUid) const
	?Control@CEikControlGroup@@QBEPAVCCoeControl@@H@Z @ 298 NONAME ; class CCoeControl * CEikControlGroup::Control(int) const
	?ControlArray@CEikControlGroup@@QBEPAV?$CArrayFix@VTEikGroupControl@@@@XZ @ 299 NONAME ; class CArrayFix<class TEikGroupControl> * CEikControlGroup::ControlArray(void) const
	?ControlById@CEikControlGroup@@QBEPAVCCoeControl@@H@Z @ 300 NONAME ; class CCoeControl * CEikControlGroup::ControlById(int) const
	?ControlFactory@CEikCoCtlLibrary@@SAP6A?AUSEikControlInfo@@H@ZXZ @ 301 NONAME ; struct SEikControlInfo (*)(int) CEikCoCtlLibrary::ControlFactory(void)
	?ControlId@CEikControlGroup@@QBEHPAVCCoeControl@@@Z @ 302 NONAME ; int CEikControlGroup::ControlId(class CCoeControl *) const
	?ControlL@CEikStatusPaneBase@@QBEPAVCCoeControl@@VTUid@@@Z @ 303 NONAME ; class CCoeControl * CEikStatusPaneBase::ControlL(class TUid) const
	?ControlMinimumLength@CEikControlGroup@@AAEHH@Z @ 304 NONAME ; int CEikControlGroup::ControlMinimumLength(int)
	?ControlMinimumSize@CEikControlGroup@@ABE?AVTSize@@H@Z @ 305 NONAME ; class TSize CEikControlGroup::ControlMinimumSize(int) const
	?ControlOrNull@CEikButtonGroupContainer@@QBEPAVCCoeControl@@H@Z @ 306 NONAME ; class CCoeControl * CEikButtonGroupContainer::ControlOrNull(int) const
	?ControlSpacing@CEikControlGroup@@QBEXAAH0@Z @ 307 NONAME ; void CEikControlGroup::ControlSpacing(int &, int &) const
	?CoordinateButtons@CEikToolBar@@QAEXHHPAVTEikButtonCoordinator@@@Z @ 308 NONAME ; void CEikToolBar::CoordinateButtons(int, int, class TEikButtonCoordinator *)
	?CopyDocumentContentL@CEikEdwin@@MAEXAAVCGlobalText@@0@Z @ 309 NONAME ; void CEikEdwin::CopyDocumentContentL(class CGlobalText &, class CGlobalText &)
	?CopyDrawStateTo@CEikButtonBase@@IBEXPAV1@@Z @ 310 NONAME ; void CEikButtonBase::CopyDrawStateTo(class CEikButtonBase *) const
	?CopyToStoreL@CEikEdwin@@QAEXAAVCStreamStore@@AAVCStreamDictionary@@@Z @ 311 NONAME ; void CEikEdwin::CopyToStoreL(class CStreamStore &, class CStreamDictionary &)
	?CountComponentControls@CAknDoubleSpanScrollBar@@MBEHXZ @ 312 NONAME ; int CAknDoubleSpanScrollBar::CountComponentControls(void) const
	?CountComponentControls@CEikButtonPanel@@EBEHXZ @ 313 NONAME ; int CEikButtonPanel::CountComponentControls(void) const
	?CountComponentControls@CEikCommandButtonBase@@UBEHXZ @ 314 NONAME ; int CEikCommandButtonBase::CountComponentControls(void) const
	?CountComponentControls@CEikConsoleControl@@MBEHXZ @ 315 NONAME ; int CEikConsoleControl::CountComponentControls(void) const
	?CountComponentControls@CEikControlGroup@@UBEHXZ @ 316 NONAME ; int CEikControlGroup::CountComponentControls(void) const
	?CountComponentControls@CEikEdwin@@EBEHXZ @ 317 NONAME ; int CEikEdwin::CountComponentControls(void) const
	?CountComponentControls@CEikFileNameLabel@@EBEHXZ @ 318 NONAME ; int CEikFileNameLabel::CountComponentControls(void) const
	?CountComponentControls@CEikListBox@@MBEHXZ @ 319 NONAME ; int CEikListBox::CountComponentControls(void) const
	?CountComponentControls@CEikMenuPane@@UBEHXZ @ 320 NONAME ; int CEikMenuPane::CountComponentControls(void) const
	?CountComponentControls@CEikScrollBar@@MBEHXZ @ 321 NONAME ; int CEikScrollBar::CountComponentControls(void) const
	?CountComponentControls@CEikScrollBarFrame@@QBEHXZ @ 322 NONAME ; int CEikScrollBarFrame::CountComponentControls(void) const
	?CountWords@CEikEdwin@@QAEHXZ @ 323 NONAME ; int CEikEdwin::CountWords(void)
	?Cr@CEikConsoleScreen@@QAEXXZ @ 324 NONAME ; void CEikConsoleScreen::Cr(void)
	?Create@CEikConsoleScreen@@UAEHABVTDesC16@@VTSize@@@Z @ 325 NONAME ; int CEikConsoleScreen::Create(class TDesC16 const &, class TSize)
	?CreateButtonL@CEikScrollBar@@EAEXAAPAVCAknScrollButton@@W4TType@2@@Z @ 326 NONAME ; void CEikScrollBar::CreateButtonL(class CAknScrollButton * &, enum CAknScrollButton::TType)
	?CreateCustomDrawL@CEikEdwin@@MAEPAVCLafEdwinCustomDrawBase@@XZ @ 327 NONAME ; class CLafEdwinCustomDrawBase * CEikEdwin::CreateCustomDrawL(void)
	?CreateDoubleSpanScrollBarsL@CEikScrollBarFrame@@QAEXHH@Z @ 328 NONAME ; void CEikScrollBarFrame::CreateDoubleSpanScrollBarsL(int, int)
	?CreateDoubleSpanScrollBarsL@CEikScrollBarFrame@@QAEXHHHH@Z @ 329 NONAME ; void CEikScrollBarFrame::CreateDoubleSpanScrollBarsL(int, int, int, int)
	?CreateIconL@CEikMenuBarTitle@@QAEXPAVCFbsBitmap@@0@Z @ 330 NONAME ; void CEikMenuBarTitle::CreateIconL(class CFbsBitmap *, class CFbsBitmap *)
	?CreateIconL@CEikMenuPaneItem@@QAEXPAVCFbsBitmap@@0@Z @ 331 NONAME ; void CEikMenuPaneItem::CreateIconL(class CFbsBitmap *, class CFbsBitmap *)
	?CreateItemDrawerL@CEikTextListBox@@MAEXXZ @ 332 NONAME ; void CEikTextListBox::CreateItemDrawerL(void)
	?CreateLayoutL@CEikEdwin@@IAEXPAVMLayDoc@@@Z @ 333 NONAME ; void CEikEdwin::CreateLayoutL(class MLayDoc *)
	?CreateMatchBufferL@CEikListBox@@IAEXXZ @ 334 NONAME ; void CEikListBox::CreateMatchBufferL(void)
	?CreatePictureFromFileL@CEikImage@@QAEXABVTDesC16@@HH@Z @ 335 NONAME ; void CEikImage::CreatePictureFromFileL(class TDesC16 const &, int, int)
	?CreateScrollBarFrameL@CEikEdwin@@AAEPAVCEikScrollBarFrame@@H@Z @ 336 NONAME ; class CEikScrollBarFrame * CEikEdwin::CreateScrollBarFrameL(int)
	?CreateScrollBarFrameL@CEikEdwin@@QAEPAVCEikScrollBarFrame@@XZ @ 337 NONAME ; class CEikScrollBarFrame * CEikEdwin::CreateScrollBarFrameL(void)
	?CreateScrollBarFrameL@CEikListBox@@QAEPAVCEikScrollBarFrame@@H@Z @ 338 NONAME ; class CEikScrollBarFrame * CEikListBox::CreateScrollBarFrameL(int)
	?CreateScrollBarFrameLayout@CEikListBox@@IBEXAAVTEikScrollBarFrameLayout@@@Z @ 339 NONAME ; void CEikListBox::CreateScrollBarFrameLayout(class TEikScrollBarFrameLayout &) const
	?CreateTextAndLayoutL@CEikEdwin@@IAEXPAVCParaFormatLayer@@PAVCCharFormatLayer@@@Z @ 340 NONAME ; void CEikEdwin::CreateTextAndLayoutL(class CParaFormatLayer *, class CCharFormatLayer *)
	?CreateTextViewL@CEikEdwin@@QAEXXZ @ 341 NONAME ; void CEikEdwin::CreateTextViewL(void)
	?CreateViewL@CEikListBox@@MAEXXZ @ 342 NONAME ; void CEikListBox::CreateViewL(void)
	?CreateWindowOnlyForArrowsL@CAknScrollButton@@QAEXPBVCCoeControl@@@Z @ 343 NONAME ; void CAknScrollButton::CreateWindowOnlyForArrowsL(class CCoeControl const *)
	?CropText@CEikLabel@@QAEXXZ @ 344 NONAME ; void CEikLabel::CropText(void)
	?Current@CEikButtonGroupContainer@@SAPAV1@XZ @ 345 NONAME ; class CEikButtonGroupContainer * CEikButtonGroupContainer::Current(void)
	?Current@CEikStatusPaneBase@@SAPAV1@XZ @ 346 NONAME ; class CEikStatusPaneBase * CEikStatusPaneBase::Current(void)
	?CurrentCase@CAknEdwinState@@QBEHXZ @ 347 NONAME ; int CAknEdwinState::CurrentCase(void) const
	?CurrentCase@TAknEditorCaseState@@QBEIXZ @ 348 NONAME ; unsigned int TAknEditorCaseState::CurrentCase(void) const
	?CurrentInlineEditSpan@CAknEdwinState@@QBE?AVTCursorSelection@@XZ @ 349 NONAME ; class TCursorSelection CAknEdwinState::CurrentInlineEditSpan(void) const
	?CurrentInputMode@CAknEdwinState@@QBEHXZ @ 350 NONAME ; int CAknEdwinState::CurrentInputMode(void) const
	?CurrentItemIndex@CEikListBox@@QBEHXZ @ 351 NONAME ; int CEikListBox::CurrentItemIndex(void) const
	?CurrentItemIndex@CListBoxView@@UBEHXZ @ 352 NONAME ; int CListBoxView::CurrentItemIndex(void) const
	?CurrentLayoutResId@CEikStatusPaneBase@@QBEHXZ @ 353 NONAME ; int CEikStatusPaneBase::CurrentLayoutResId(void) const
	?CurrentLayoutResId@CEikStatusPaneModelBase@@QBEHXZ @ 354 NONAME ; int CEikStatusPaneModelBase::CurrentLayoutResId(void) const
	?CursorPos@CEikConsoleScreen@@UBE?AVTPoint@@XZ @ 355 NONAME ; class TPoint CEikConsoleScreen::CursorPos(void) const
	?CursorPos@CEikEdwin@@QBEHXZ @ 356 NONAME ; int CEikEdwin::CursorPos(void) const
	?DataWidth@CListBoxView@@QBEHXZ @ 357 NONAME ; int CListBoxView::DataWidth(void) const
	?DefaultCase@CAknEdwinState@@QBEHXZ @ 358 NONAME ; int CAknEdwinState::DefaultCase(void) const
	?DefaultInputMode@CAknEdwinState@@QBEHXZ @ 359 NONAME ; int CAknEdwinState::DefaultInputMode(void) const
	?DefaultLanguage@CAknEdwinState@@QBEHXZ @ 360 NONAME ; int CAknEdwinState::DefaultLanguage(void) const
	?DefaultScrollBarBreadth@CEikScrollBar@@SAHXZ @ 361 NONAME ; int CEikScrollBar::DefaultScrollBarBreadth(void)
	?DelayActivation@CEikButtonGroupContainer@@QBEHXZ @ 362 NONAME ; int CEikButtonGroupContainer::DelayActivation(void) const
	?DelayActivation@CEikToolBar@@QBEHXZ @ 363 NONAME ; int CEikToolBar::DelayActivation(void) const
	?DeleteAllComponents@CEikControlGroup@@AAEXXZ @ 364 NONAME ; void CEikControlGroup::DeleteAllComponents(void)
	?DeleteBetweenMenuItems@CEikMenuPane@@QAEXHH@Z @ 365 NONAME ; void CEikMenuPane::DeleteBetweenMenuItems(int, int)
	?DeleteControl@CEikControlGroup@@QAEXHH@Z @ 366 NONAME ; void CEikControlGroup::DeleteControl(int, int)
	?DeleteHighlightL@CEikEdwin@@IAEHAAHHH@Z @ 367 NONAME ; int CEikEdwin::DeleteHighlightL(int &, int, int)
	?DeleteL@CEikEdwin@@IAEXAAHABVTCursorSelection@@HH@Z @ 368 NONAME ; void CEikEdwin::DeleteL(int &, class TCursorSelection const &, int, int)
	?DeleteMenuItem@CEikMenuPane@@QAEXH@Z @ 369 NONAME ; void CEikMenuPane::DeleteMenuItem(int)
	?DeselectItem@CListBoxView@@QAEXH@Z @ 370 NONAME ; void CListBoxView::DeselectItem(int)
	?DeselectRangeL@CListBoxView@@QAEXHH@Z @ 371 NONAME ; void CListBoxView::DeselectRangeL(int, int)
	?DimCommand@CEikButtonGroupContainer@@QAEXHH@Z @ 372 NONAME ; void CEikButtonGroupContainer::DimCommand(int, int)
	?DisablePictographs@CEikLabel@@QAEXXZ @ 373 NONAME ; void CEikLabel::DisablePictographs(void)
	?DisplayFindTextNotFound@CEikEdwin@@IAEXAAVTDes16@@@Z @ 374 NONAME ; void CEikEdwin::DisplayFindTextNotFound(class TDes16 &)
	?DistributeEvenly@CEikControlGroup@@ABEHXZ @ 375 NONAME ; int CEikControlGroup::DistributeEvenly(void) const
	?DoDrawItemText@CTextListItemDrawer@@MBEXABVTDesC16@@ABVTRect@@HHHH@Z @ 376 NONAME ; void CTextListItemDrawer::DoDrawItemText(class TDesC16 const &, class TRect const &, int, int, int, int) const
	?DoSetCommandL@CEikButtonGroupContainer@@AAEXHHPBVTDesC16@@ABV2@HHW4TCommandOp@1@@Z @ 377 NONAME ; void CEikButtonGroupContainer::DoSetCommandL(int, int, class TDesC16 const *, class TDesC16 const &, int, int, enum CEikButtonGroupContainer::TCommandOp)
	?DoSetCommandL@CEikButtonGroupContainer@@AAEXHHPBVTDesC16@@PBVCFbsBitmap@@1W4TCommandOp@1@@Z @ 378 NONAME ; void CEikButtonGroupContainer::DoSetCommandL(int, int, class TDesC16 const *, class CFbsBitmap const *, class CFbsBitmap const *, enum CEikButtonGroupContainer::TCommandOp)
	?DoSetCommandL@CEikButtonGroupContainer@@AAEXHHW4TCommandOp@1@@Z @ 379 NONAME ; void CEikButtonGroupContainer::DoSetCommandL(int, int, enum CEikButtonGroupContainer::TCommandOp)
	?DoSetCommandL@CEikButtonGroupContainer@@AAEXHPBVTDesC16@@ABV2@HHW4TCommandOp@1@@Z @ 380 NONAME ; void CEikButtonGroupContainer::DoSetCommandL(int, class TDesC16 const *, class TDesC16 const &, int, int, enum CEikButtonGroupContainer::TCommandOp)
	?DoSetCommandL@CEikButtonGroupContainer@@AAEXHPBVTDesC16@@PBVCFbsBitmap@@1W4TCommandOp@1@@Z @ 381 NONAME ; void CEikButtonGroupContainer::DoSetCommandL(int, class TDesC16 const *, class CFbsBitmap const *, class CFbsBitmap const *, enum CEikButtonGroupContainer::TCommandOp)
	?Down@CEikConsoleScreen@@QAEXI@Z @ 382 NONAME ; void CEikConsoleScreen::Down(unsigned int)
	?Draw@CAknScreenClearerBase@@EBEXABVTRect@@@Z @ 383 NONAME ; void CAknScreenClearerBase::Draw(class TRect const &) const
	?Draw@CEikBorderedControl@@MBEXABVTRect@@@Z @ 384 NONAME ; void CEikBorderedControl::Draw(class TRect const &) const
	?Draw@CEikCommandButtonBase@@MBEXABVTRect@@@Z @ 385 NONAME ; void CEikCommandButtonBase::Draw(class TRect const &) const
	?Draw@CEikConsoleControl@@MBEXABVTRect@@@Z @ 386 NONAME ; void CEikConsoleControl::Draw(class TRect const &) const
	?Draw@CEikControlGroup@@EBEXABVTRect@@@Z @ 387 NONAME ; void CEikControlGroup::Draw(class TRect const &) const
	?Draw@CEikEdwin@@UBEXABVTRect@@@Z @ 388 NONAME ; void CEikEdwin::Draw(class TRect const &) const
	?Draw@CEikFileNameLabel@@MBEXABVTRect@@@Z @ 389 NONAME ; void CEikFileNameLabel::Draw(class TRect const &) const
	?Draw@CEikImage@@EBEXABVTRect@@@Z @ 390 NONAME ; void CEikImage::Draw(class TRect const &) const
	?Draw@CEikLabel@@UBEXABVTRect@@@Z @ 391 NONAME ; void CEikLabel::Draw(class TRect const &) const
	?Draw@CEikListBox@@MBEXABVTRect@@@Z @ 392 NONAME ; void CEikListBox::Draw(class TRect const &) const
	?Draw@CEikMenuBar@@UBEXABVTRect@@@Z @ 393 NONAME ; void CEikMenuBar::Draw(class TRect const &) const
	?Draw@CEikMenuPane@@MBEXABVTRect@@@Z @ 394 NONAME ; void CEikMenuPane::Draw(class TRect const &) const
	?Draw@CEikMenuPaneTitle@@UBEXABVTRect@@@Z @ 395 NONAME ; void CEikMenuPaneTitle::Draw(class TRect const &) const
	?Draw@CEikTwoPictureCommandButton@@EBEXABVTRect@@@Z @ 396 NONAME ; void CEikTwoPictureCommandButton::Draw(class TRect const &) const
	?Draw@CListBoxView@@UBEXPBVTRect@@@Z @ 397 NONAME ; void CListBoxView::Draw(class TRect const *) const
	?Draw@CSnakingListBoxView@@UBEXPBVTRect@@@Z @ 398 NONAME ; void CSnakingListBoxView::Draw(class TRect const *) const
	?DrawActualItem@CTextListItemDrawer@@UBEXHABVTRect@@HHHH@Z @ 399 NONAME ; void CTextListItemDrawer::DrawActualItem(int, class TRect const &, int, int, int, int) const
	?DrawChars@CEikConsoleControl@@QAEXABVTDesC16@@ABVTPoint@@I@Z @ 400 NONAME ; void CEikConsoleControl::DrawChars(class TDesC16 const &, class TPoint const &, unsigned int)
	?DrawColumnRange@CSnakingListBoxView@@IBEXHH@Z @ 401 NONAME ; void CSnakingListBoxView::DrawColumnRange(int, int) const
	?DrawContents@CEikEdwin@@IAEXXZ @ 402 NONAME ; void CEikEdwin::DrawContents(void)
	?DrawCursor@CEikConsoleControl@@QAEXVTPoint@@@Z @ 403 NONAME ; void CEikConsoleControl::DrawCursor(class TPoint)
	?DrawCursor@CEikConsoleScreen@@QAEXXZ @ 404 NONAME ; void CEikConsoleScreen::DrawCursor(void)
	?DrawCursorInSight@CEikConsoleScreen@@QAEXXZ @ 405 NONAME ; void CEikConsoleScreen::DrawCursorInSight(void)
	?DrawEmptyList@CListBoxView@@UBEXABVTRect@@@Z @ 406 NONAME ; void CListBoxView::DrawEmptyList(class TRect const &) const
	?DrawFrame@CListItemDrawer@@QBEXAAVCWindowGc@@ABVTRect@@H@Z @ 407 NONAME ; void CListItemDrawer::DrawFrame(class CWindowGc &, class TRect const &, int) const
	?DrawIcon@CEikMenuBarTitle@@QBEXAAVCWindowGc@@VTRect@@H@Z @ 408 NONAME ; void CEikMenuBarTitle::DrawIcon(class CWindowGc &, class TRect, int) const
	?DrawInSight@CEikConsoleScreen@@QAEXVTPoint@@@Z @ 409 NONAME ; void CEikConsoleScreen::DrawInSight(class TPoint)
	?DrawItem@CEikListBox@@QBEXH@Z @ 410 NONAME ; void CEikListBox::DrawItem(int) const
	?DrawItem@CEikMenuBar@@QBEXH@Z @ 411 NONAME ; void CEikMenuBar::DrawItem(int) const
	?DrawItem@CListBoxData@@QBEXAAVCWindowGc@@ABVTRect@@ABVTDesC16@@ABVCFont@@HW4TTextAlign@CGraphicsContext@@@Z @ 412 NONAME ; void CListBoxData::DrawItem(class CWindowGc &, class TRect const &, class TDesC16 const &, class CFont const &, int, enum CGraphicsContext::TTextAlign) const
	?DrawItem@CListBoxView@@UBEXH@Z @ 413 NONAME ; void CListBoxView::DrawItem(int) const
	?DrawItem@CListItemDrawer@@UBEXHVTPoint@@HHHH@Z @ 414 NONAME ; void CListItemDrawer::DrawItem(int, class TPoint, int, int, int, int) const
	?DrawItemIcon@CEikMenuPaneItem@@QBEXAAVCWindowGc@@VTRect@@HH@Z @ 415 NONAME ; void CEikMenuPaneItem::DrawItemIcon(class CWindowGc &, class TRect, int, int) const
	?DrawItemMark@CListItemDrawer@@UBEXHHABVTPoint@@@Z @ 416 NONAME ; void CListItemDrawer::DrawItemMark(int, int, class TPoint const &) const
	?DrawItemRange@CSnakingListBoxView@@MBEXHH@Z @ 417 NONAME ; void CSnakingListBoxView::DrawItemRange(int, int) const
	?DrawItemText@CTextListItemDrawer@@MBEXHABVTRect@@HHH@Z @ 418 NONAME ; void CTextListItemDrawer::DrawItemText(int, class TRect const &, int, int, int) const
	?DrawMatcherCursor@CEikListBox@@IBEXXZ @ 419 NONAME ; void CEikListBox::DrawMatcherCursor(void) const
	?DrawMatcherCursor@CListBoxView@@UAEXXZ @ 420 NONAME ; void CListBoxView::DrawMatcherCursor(void)
	?DrawNow@CEikStatusPaneBase@@QAEXXZ @ 421 NONAME ; void CEikStatusPaneBase::DrawNow(void)
	?DrawScrollBarsNow@CEikScrollBarFrame@@QBEXXZ @ 422 NONAME ; void CEikScrollBarFrame::DrawScrollBarsNow(void) const
	?DrawState@CEikButtonBase@@IBE?AW4TDrawState@1@XZ @ 423 NONAME ; enum CEikButtonBase::TDrawState CEikButtonBase::DrawState(void) const
	?DynInitMenuPaneL@CAknCcpuSupport@@UAEXHPAVCEikMenuPane@@@Z @ 424 NONAME ; void CAknCcpuSupport::DynInitMenuPaneL(int, class CEikMenuPane *)
	?EditItemL@CEikListBox@@UAEXH@Z @ 425 NONAME ; void CEikListBox::EditItemL(int)
	?EditObserver@CEikEdwin@@MAEXHH@Z @ 426 NONAME ; void CEikEdwin::EditObserver(int, int)
	?Editor@CEikListBoxTextEditor@@QAEPAVCEikEdwin@@XZ @ 427 NONAME ; class CEikEdwin * CEikListBoxTextEditor::Editor(void)
	?EdwinExtension@CEikEdwin@@IAEPAVCEikEdwinExtension@1@XZ @ 428 NONAME ; class CEikEdwin::CEikEdwinExtension * CEikEdwin::EdwinExtension(void)
	?EnableCcpuSupportL@CEikEdwin@@QAEXH@Z @ 429 NONAME ; void CEikEdwin::EnableCcpuSupportL(int)
	?EnableMarqueeL@CEikMenuPane@@QAEXH@Z @ 430 NONAME ; void CEikMenuPane::EnableMarqueeL(int)
	?EnablePictographsL@CEikLabel@@QAEXAAVCAknPictographInterface@@@Z @ 431 NONAME ; void CEikLabel::EnablePictographsL(class CAknPictographInterface &)
	?EventModifiers@CEikListBox@@QAEHXZ @ 432 NONAME ; int CEikListBox::EventModifiers(void)
	?ExtensionInterface@CAknCcpuSupport@@EAEPAXVTUid@@@Z @ 433 NONAME ; void * CAknCcpuSupport::ExtensionInterface(class TUid)
	?ExtensionInterface@CAknDoubleSpanScrollBar@@EAEPAXVTUid@@@Z @ 434 NONAME ; void * CAknDoubleSpanScrollBar::ExtensionInterface(class TUid)
	?ExtensionInterface@CAknScreenClearerBase@@EAEPAXVTUid@@@Z @ 435 NONAME ; void * CAknScreenClearerBase::ExtensionInterface(class TUid)
	?ExtensionInterface@CEikAlignedControl@@EAEPAXVTUid@@@Z @ 436 NONAME ; void * CEikAlignedControl::ExtensionInterface(class TUid)
	?ExtensionInterface@CEikArrowHeadScrollBar@@EAEPAXVTUid@@@Z @ 437 NONAME ; void * CEikArrowHeadScrollBar::ExtensionInterface(class TUid)
	?ExtensionInterface@CEikBitmapButton@@EAEPAXVTUid@@@Z @ 438 NONAME ; void * CEikBitmapButton::ExtensionInterface(class TUid)
	?ExtensionInterface@CEikBorderedControl@@EAEPAXVTUid@@@Z @ 439 NONAME ; void * CEikBorderedControl::ExtensionInterface(class TUid)
	?ExtensionInterface@CEikButtonBase@@EAEPAXVTUid@@@Z @ 440 NONAME ; void * CEikButtonBase::ExtensionInterface(class TUid)
	?ExtensionInterface@CEikButtonPanel@@EAEPAXVTUid@@@Z @ 441 NONAME ; void * CEikButtonPanel::ExtensionInterface(class TUid)
	?ExtensionInterface@CEikCba@@EAEPAXVTUid@@@Z @ 442 NONAME ; void * CEikCba::ExtensionInterface(class TUid)
	?ExtensionInterface@CEikCbaButton@@EAEPAXVTUid@@@Z @ 443 NONAME ; void * CEikCbaButton::ExtensionInterface(class TUid)
	?ExtensionInterface@CEikCommandButton@@EAEPAXVTUid@@@Z @ 444 NONAME ; void * CEikCommandButton::ExtensionInterface(class TUid)
	?ExtensionInterface@CEikCommandButtonBase@@EAEPAXVTUid@@@Z @ 445 NONAME ; void * CEikCommandButtonBase::ExtensionInterface(class TUid)
	?ExtensionInterface@CEikConsoleControl@@EAEPAXVTUid@@@Z @ 446 NONAME ; void * CEikConsoleControl::ExtensionInterface(class TUid)
	?ExtensionInterface@CEikControlGroup@@EAEPAXVTUid@@@Z @ 447 NONAME ; void * CEikControlGroup::ExtensionInterface(class TUid)
	?ExtensionInterface@CEikEdwin@@EAEPAXVTUid@@@Z @ 448 NONAME ; void * CEikEdwin::ExtensionInterface(class TUid)
	?ExtensionInterface@CEikFileNameLabel@@EAEPAXVTUid@@@Z @ 449 NONAME ; void * CEikFileNameLabel::ExtensionInterface(class TUid)
	?ExtensionInterface@CEikImage@@EAEPAXVTUid@@@Z @ 450 NONAME ; void * CEikImage::ExtensionInterface(class TUid)
	?ExtensionInterface@CEikInverterCommandButton@@EAEPAXVTUid@@@Z @ 451 NONAME ; void * CEikInverterCommandButton::ExtensionInterface(class TUid)
	?ExtensionInterface@CEikKeyWindow@@EAEPAXVTUid@@@Z @ 452 NONAME ; void * CEikKeyWindow::ExtensionInterface(class TUid)
	?ExtensionInterface@CEikLabel@@EAEPAXVTUid@@@Z @ 453 NONAME ; void * CEikLabel::ExtensionInterface(class TUid)
	?ExtensionInterface@CEikLabeledButton@@EAEPAXVTUid@@@Z @ 454 NONAME ; void * CEikLabeledButton::ExtensionInterface(class TUid)
	?ExtensionInterface@CEikListBox@@EAEPAXVTUid@@@Z @ 455 NONAME ; void * CEikListBox::ExtensionInterface(class TUid)
	?ExtensionInterface@CEikListBoxTextEditor@@EAEPAXVTUid@@@Z @ 456 NONAME ; void * CEikListBoxTextEditor::ExtensionInterface(class TUid)
	?ExtensionInterface@CEikMenuBar@@EAEPAXVTUid@@@Z @ 457 NONAME ; void * CEikMenuBar::ExtensionInterface(class TUid)
	?ExtensionInterface@CEikMenuButton@@EAEPAXVTUid@@@Z @ 458 NONAME ; void * CEikMenuButton::ExtensionInterface(class TUid)
	?ExtensionInterface@CEikMenuPane@@EAEPAXVTUid@@@Z @ 459 NONAME ; void * CEikMenuPane::ExtensionInterface(class TUid)
	?ExtensionInterface@CEikMenuPaneTitle@@EAEPAXVTUid@@@Z @ 460 NONAME ; void * CEikMenuPaneTitle::ExtensionInterface(class TUid)
	?ExtensionInterface@CEikScrollBar@@EAEPAXVTUid@@@Z @ 461 NONAME ; void * CEikScrollBar::ExtensionInterface(class TUid)
	?ExtensionInterface@CEikScrollButton@@EAEPAXVTUid@@@Z @ 462 NONAME ; void * CEikScrollButton::ExtensionInterface(class TUid)
	?ExtensionInterface@CEikSnakingListBox@@EAEPAXVTUid@@@Z @ 463 NONAME ; void * CEikSnakingListBox::ExtensionInterface(class TUid)
	?ExtensionInterface@CEikSnakingTextListBox@@EAEPAXVTUid@@@Z @ 464 NONAME ; void * CEikSnakingTextListBox::ExtensionInterface(class TUid)
	?ExtensionInterface@CEikTextButton@@EAEPAXVTUid@@@Z @ 465 NONAME ; void * CEikTextButton::ExtensionInterface(class TUid)
	?ExtensionInterface@CEikTextListBox@@EAEPAXVTUid@@@Z @ 466 NONAME ; void * CEikTextListBox::ExtensionInterface(class TUid)
	?ExtensionInterface@CEikToolBar@@EAEPAXVTUid@@@Z @ 467 NONAME ; void * CEikToolBar::ExtensionInterface(class TUid)
	?ExtensionInterface@CEikTwoPictureCommandButton@@EAEPAXVTUid@@@Z @ 468 NONAME ; void * CEikTwoPictureCommandButton::ExtensionInterface(class TUid)
	?FieldPosition@TAknDoubleSpanScrollBarModel@@QBEHXZ @ 469 NONAME ; int TAknDoubleSpanScrollBarModel::FieldPosition(void) const
	?FieldSize@TAknDoubleSpanScrollBarModel@@QBEHXZ @ 470 NONAME ; int TAknDoubleSpanScrollBarModel::FieldSize(void) const
	?FindCommandIdInResourceL@CEikMenuBar@@UAEXHAAH0@Z @ 471 NONAME ; void CEikMenuBar::FindCommandIdInResourceL(int, int &, int &)
	?FindL@CEikEdwin@@QAEHPBVTDesC16@@H@Z @ 472 NONAME ; int CEikEdwin::FindL(class TDesC16 const *, int)
	?FindTextL@CEikEdwin@@QAEHPBVTDesC16@@HH@Z @ 473 NONAME ; int CEikEdwin::FindTextL(class TDesC16 const *, int, int)
	?Flags@CAknEdwinState@@QBEHXZ @ 474 NONAME ; int CAknEdwinState::Flags(void) const
	?Flags@CEikStatusPaneBase@@QBEHXZ @ 475 NONAME ; int CEikStatusPaneBase::Flags(void) const
	?FlushChars@CEikConsoleScreen@@QAEXXZ @ 476 NONAME ; void CEikConsoleScreen::FlushChars(void)
	?FocusChanged@CEikCommandButtonBase@@UAEXW4TDrawNow@@@Z @ 477 NONAME ; void CEikCommandButtonBase::FocusChanged(enum TDrawNow)
	?FocusChanged@CEikConsoleControl@@MAEXW4TDrawNow@@@Z @ 478 NONAME ; void CEikConsoleControl::FocusChanged(enum TDrawNow)
	?FocusChanged@CEikEdwin@@UAEXW4TDrawNow@@@Z @ 479 NONAME ; void CEikEdwin::FocusChanged(enum TDrawNow)
	?FocusChanged@CEikListBox@@MAEXW4TDrawNow@@@Z @ 480 NONAME ; void CEikListBox::FocusChanged(enum TDrawNow)
	?FocusChanged@CEikMenuPane@@MAEXW4TDrawNow@@@Z @ 481 NONAME ; void CEikMenuPane::FocusChanged(enum TDrawNow)
	?FocusPosition@TAknDoubleSpanScrollBarModel@@QBEHXZ @ 482 NONAME ; int TAknDoubleSpanScrollBarModel::FocusPosition(void) const
	?Font@CEikConsoleScreen@@QBEABVTFontSpec@@XZ @ 483 NONAME ; class TFontSpec const & CEikConsoleScreen::Font(void) const
	?Font@CListBoxData@@UBEPAVCFont@@ABVTListItemProperties@@@Z @ 484 NONAME ; class CFont * CListBoxData::Font(class TListItemProperties const &) const
	?Font@CListItemDrawer@@QBEPAVCFont@@H@Z @ 485 NONAME ; class CFont * CListItemDrawer::Font(int) const
	?Font@CTextListItemDrawer@@QBEPBVCFont@@H@Z @ 486 NONAME ; class CFont const * CTextListItemDrawer::Font(int) const
	?FontBoundValues@CListBoxData@@QBEABVTListFontBoundValues@@XZ @ 487 NONAME ; class TListFontBoundValues const & CListBoxData::FontBoundValues(void) const
	?FontStyle@CFontsWithStyle@CListBoxData@@QAE?AVTFontStyle@@XZ @ 488 NONAME ; class TFontStyle CListBoxData::CFontsWithStyle::FontStyle(void)
	?ForceScrollBarUpdateL@CEikEdwin@@QAEXXZ @ 489 NONAME ; void CEikEdwin::ForceScrollBarUpdateL(void)
	?FormAccessor@CAknEdwinState@@QBEPAVCAknEdwinFormAccessor@@XZ @ 490 NONAME ; class CAknEdwinFormAccessor * CAknEdwinState::FormAccessor(void) const
	?FormAccessor@CEikEdwinExtension@CEikEdwin@@QBEPAVCAknEdwinFormAccessor@@XZ @ 491 NONAME ; class CAknEdwinFormAccessor * CEikEdwin::CEikEdwinExtension::FormAccessor(void) const
	?FormCursorModifier@CEikEdwinExtension@CEikEdwin@@QBEPAVCFormCursorModifier@@XZ @ 492 NONAME ; class CFormCursorModifier * CEikEdwin::CEikEdwinExtension::FormCursorModifier(void) const
	?FormatTextL@CEikEdwin@@IAEXXZ @ 493 NONAME ; void CEikEdwin::FormatTextL(void)
	?Gc@CListItemDrawer@@QBEPAVCWindowGc@@XZ @ 494 NONAME ; class CWindowGc * CListItemDrawer::Gc(void) const
	?GetColorUseListL@CEikBorderedControl@@UBEXAAV?$CArrayFix@VTCoeColorUse@@@@@Z @ 495 NONAME ; void CEikBorderedControl::GetColorUseListL(class CArrayFix<class TCoeColorUse> &) const
	?GetColorUseListL@CEikButtonBase@@UBEXAAV?$CArrayFix@VTCoeColorUse@@@@@Z @ 496 NONAME ; void CEikButtonBase::GetColorUseListL(class CArrayFix<class TCoeColorUse> &) const
	?GetColorUseListL@CEikButtonPanel@@UBEXAAV?$CArrayFix@VTCoeColorUse@@@@@Z @ 497 NONAME ; void CEikButtonPanel::GetColorUseListL(class CArrayFix<class TCoeColorUse> &) const
	?GetColorUseListL@CEikCommandButtonBase@@UBEXAAV?$CArrayFix@VTCoeColorUse@@@@@Z @ 498 NONAME ; void CEikCommandButtonBase::GetColorUseListL(class CArrayFix<class TCoeColorUse> &) const
	?GetColorUseListL@CEikConsoleControl@@UBEXAAV?$CArrayFix@VTCoeColorUse@@@@@Z @ 499 NONAME ; void CEikConsoleControl::GetColorUseListL(class CArrayFix<class TCoeColorUse> &) const
	?GetColorUseListL@CEikControlGroup@@UBEXAAV?$CArrayFix@VTCoeColorUse@@@@@Z @ 500 NONAME ; void CEikControlGroup::GetColorUseListL(class CArrayFix<class TCoeColorUse> &) const
	?GetColorUseListL@CEikEdwin@@UBEXAAV?$CArrayFix@VTCoeColorUse@@@@@Z @ 501 NONAME ; void CEikEdwin::GetColorUseListL(class CArrayFix<class TCoeColorUse> &) const
	?GetColorUseListL@CEikFileNameLabel@@UBEXAAV?$CArrayFix@VTCoeColorUse@@@@@Z @ 502 NONAME ; void CEikFileNameLabel::GetColorUseListL(class CArrayFix<class TCoeColorUse> &) const
	?GetColorUseListL@CEikLabel@@UBEXAAV?$CArrayFix@VTCoeColorUse@@@@@Z @ 503 NONAME ; void CEikLabel::GetColorUseListL(class CArrayFix<class TCoeColorUse> &) const
	?GetColorUseListL@CEikLabeledButton@@UBEXAAV?$CArrayFix@VTCoeColorUse@@@@@Z @ 504 NONAME ; void CEikLabeledButton::GetColorUseListL(class CArrayFix<class TCoeColorUse> &) const
	?GetColorUseListL@CEikListBox@@UBEXAAV?$CArrayFix@VTCoeColorUse@@@@@Z @ 505 NONAME ; void CEikListBox::GetColorUseListL(class CArrayFix<class TCoeColorUse> &) const
	?GetColorUseListL@CEikMenuBar@@UBEXAAV?$CArrayFix@VTCoeColorUse@@@@@Z @ 506 NONAME ; void CEikMenuBar::GetColorUseListL(class CArrayFix<class TCoeColorUse> &) const
	?GetColorUseListL@CEikMenuPane@@UBEXAAV?$CArrayFix@VTCoeColorUse@@@@@Z @ 507 NONAME ; void CEikMenuPane::GetColorUseListL(class CArrayFix<class TCoeColorUse> &) const
	?GetColorUseListL@CEikMenuPaneTitle@@UBEXAAV?$CArrayFix@VTCoeColorUse@@@@@Z @ 508 NONAME ; void CEikMenuPaneTitle::GetColorUseListL(class CArrayFix<class TCoeColorUse> &) const
	?GetColorUseListL@CEikSnakingListBox@@MBEXAAV?$CArrayFix@VTCoeColorUse@@@@@Z @ 509 NONAME ; void CEikSnakingListBox::GetColorUseListL(class CArrayFix<class TCoeColorUse> &) const
	?GetColorUseListL@CEikSnakingTextListBox@@UBEXAAV?$CArrayFix@VTCoeColorUse@@@@@Z @ 510 NONAME ; void CEikSnakingTextListBox::GetColorUseListL(class CArrayFix<class TCoeColorUse> &) const
	?GetColorUseListL@CEikTextListBox@@UBEXAAV?$CArrayFix@VTCoeColorUse@@@@@Z @ 511 NONAME ; void CEikTextListBox::GetColorUseListL(class CArrayFix<class TCoeColorUse> &) const
	?GetColorUseListL@CEikToolBar@@UBEXAAV?$CArrayFix@VTCoeColorUse@@@@@Z @ 512 NONAME ; void CEikToolBar::GetColorUseListL(class CArrayFix<class TCoeColorUse> &) const
	?GetFindText@CEikEdwin@@QAEXPAVTDes16@@@Z @ 513 NONAME ; void CEikEdwin::GetFindText(class TDes16 *)
	?GetScrollBarHandle@CEikScrollBarFrame@@QBEPAVCEikScrollBar@@W4TOrientation@2@@Z @ 514 NONAME ; class CEikScrollBar * CEikScrollBarFrame::GetScrollBarHandle(enum CEikScrollBar::TOrientation) const
	?GetSelectionIndexesL@CListBoxView@@QBEXPAV?$CArrayFix@H@@@Z @ 515 NONAME ; void CListBoxView::GetSelectionIndexesL(class CArrayFix<int> *) const
	?GetShapeL@CEikStatusPaneBase@@QBEXAAVTRegion@@HH@Z @ 516 NONAME ; void CEikStatusPaneBase::GetShapeL(class TRegion &, int, int) const
	?GetText@CEikEdwin@@QBEXAAVTDes16@@@Z @ 517 NONAME ; void CEikEdwin::GetText(class TDes16 &) const
	?GetTextInHBufL@CEikEdwin@@QBEPAVHBufC16@@XZ @ 518 NONAME ; class HBufC16 * CEikEdwin::GetTextInHBufL(void) const
	?GetWordInfo@CEikEdwin@@QBEXHAAH0@Z @ 519 NONAME ; void CEikEdwin::GetWordInfo(int, int &, int &) const
	?HScroll@CListBoxView@@UAEXH@Z @ 520 NONAME ; void CListBoxView::HScroll(int)
	?HScroll@CSnakingListBoxView@@UAEXH@Z @ 521 NONAME ; void CSnakingListBoxView::HScroll(int)
	?HScrollOffset@CListBoxView@@QBEHXZ @ 522 NONAME ; int CListBoxView::HScrollOffset(void) const
	?HandleControlEventL@CEikButtonPanel@@UAEXPAVCCoeControl@@W4TCoeEvent@MCoeControlObserver@@@Z @ 523 NONAME ; void CEikButtonPanel::HandleControlEventL(class CCoeControl *, enum MCoeControlObserver::TCoeEvent)
	?HandleControlEventL@CEikScrollBar@@EAEXPAVCCoeControl@@W4TCoeEvent@MCoeControlObserver@@@Z @ 524 NONAME ; void CEikScrollBar::HandleControlEventL(class CCoeControl *, enum MCoeControlObserver::TCoeEvent)
	?HandleControlEventL@CEikToolBar@@EAEXPAVCCoeControl@@W4TCoeEvent@MCoeControlObserver@@@Z @ 525 NONAME ; void CEikToolBar::HandleControlEventL(class CCoeControl *, enum MCoeControlObserver::TCoeEvent)
	?HandleDragEventL@CEikListBox@@MAEXVTPoint@@@Z @ 526 NONAME ; void CEikListBox::HandleDragEventL(class TPoint)
	?HandleDragEventL@CEikSnakingListBox@@MAEXVTPoint@@@Z @ 527 NONAME ; void CEikSnakingListBox::HandleDragEventL(class TPoint)
	?HandleFocusChangeL@CAknCcpuSupport@@QAEXXZ @ 528 NONAME ; void CAknCcpuSupport::HandleFocusChangeL(void)
	?HandleItemAdditionL@CEikListBox@@QAEXAAV?$CArrayFix@H@@@Z @ 529 NONAME ; void CEikListBox::HandleItemAdditionL(class CArrayFix<int> &)
	?HandleItemAdditionL@CEikListBox@@QAEXXZ @ 530 NONAME ; void CEikListBox::HandleItemAdditionL(void)
	?HandleItemRemovalL@CEikListBox@@QAEXAAV?$CArrayFix@H@@@Z @ 531 NONAME ; void CEikListBox::HandleItemRemovalL(class CArrayFix<int> &)
	?HandleItemRemovalL@CEikListBox@@QAEXXZ @ 532 NONAME ; void CEikListBox::HandleItemRemovalL(void)
	?HandleLeftArrowKeyL@CEikListBox@@MAEXW4TSelectionMode@CListBoxView@@@Z @ 533 NONAME ; void CEikListBox::HandleLeftArrowKeyL(enum CListBoxView::TSelectionMode)
	?HandleLeftArrowKeyL@CEikSnakingListBox@@MAEXW4TSelectionMode@CListBoxView@@@Z @ 534 NONAME ; void CEikSnakingListBox::HandleLeftArrowKeyL(enum CListBoxView::TSelectionMode)
	?HandlePointerEventL@CAknCcpuSupport@@UAEXABUTPointerEvent@@@Z @ 535 NONAME ; void CAknCcpuSupport::HandlePointerEventL(struct TPointerEvent const &)
	?HandlePointerEventL@CAknDoubleSpanScrollBar@@UAEXABUTPointerEvent@@@Z @ 536 NONAME ; void CAknDoubleSpanScrollBar::HandlePointerEventL(struct TPointerEvent const &)
	?HandlePointerEventL@CAknScreenClearerBase@@UAEXABUTPointerEvent@@@Z @ 537 NONAME ; void CAknScreenClearerBase::HandlePointerEventL(struct TPointerEvent const &)
	?HandlePointerEventL@CEikAlignedControl@@UAEXABUTPointerEvent@@@Z @ 538 NONAME ; void CEikAlignedControl::HandlePointerEventL(struct TPointerEvent const &)
	?HandlePointerEventL@CEikArrowHeadScrollBar@@UAEXABUTPointerEvent@@@Z @ 539 NONAME ; void CEikArrowHeadScrollBar::HandlePointerEventL(struct TPointerEvent const &)
	?HandlePointerEventL@CEikBitmapButton@@UAEXABUTPointerEvent@@@Z @ 540 NONAME ; void CEikBitmapButton::HandlePointerEventL(struct TPointerEvent const &)
	?HandlePointerEventL@CEikBorderedControl@@UAEXABUTPointerEvent@@@Z @ 541 NONAME ; void CEikBorderedControl::HandlePointerEventL(struct TPointerEvent const &)
	?HandlePointerEventL@CEikButtonBase@@UAEXABUTPointerEvent@@@Z @ 542 NONAME ; void CEikButtonBase::HandlePointerEventL(struct TPointerEvent const &)
	?HandlePointerEventL@CEikButtonPanel@@UAEXABUTPointerEvent@@@Z @ 543 NONAME ; void CEikButtonPanel::HandlePointerEventL(struct TPointerEvent const &)
	?HandlePointerEventL@CEikCbaButton@@UAEXABUTPointerEvent@@@Z @ 544 NONAME ; void CEikCbaButton::HandlePointerEventL(struct TPointerEvent const &)
	?HandlePointerEventL@CEikCommandButton@@UAEXABUTPointerEvent@@@Z @ 545 NONAME ; void CEikCommandButton::HandlePointerEventL(struct TPointerEvent const &)
	?HandlePointerEventL@CEikCommandButtonBase@@UAEXABUTPointerEvent@@@Z @ 546 NONAME ; void CEikCommandButtonBase::HandlePointerEventL(struct TPointerEvent const &)
	?HandlePointerEventL@CEikConsoleControl@@UAEXABUTPointerEvent@@@Z @ 547 NONAME ; void CEikConsoleControl::HandlePointerEventL(struct TPointerEvent const &)
	?HandlePointerEventL@CEikControlGroup@@UAEXABUTPointerEvent@@@Z @ 548 NONAME ; void CEikControlGroup::HandlePointerEventL(struct TPointerEvent const &)
	?HandlePointerEventL@CEikEdwin@@UAEXABUTPointerEvent@@@Z @ 549 NONAME ; void CEikEdwin::HandlePointerEventL(struct TPointerEvent const &)
	?HandlePointerEventL@CEikFileNameLabel@@UAEXABUTPointerEvent@@@Z @ 550 NONAME ; void CEikFileNameLabel::HandlePointerEventL(struct TPointerEvent const &)
	?HandlePointerEventL@CEikImage@@UAEXABUTPointerEvent@@@Z @ 551 NONAME ; void CEikImage::HandlePointerEventL(struct TPointerEvent const &)
	?HandlePointerEventL@CEikInverterCommandButton@@UAEXABUTPointerEvent@@@Z @ 552 NONAME ; void CEikInverterCommandButton::HandlePointerEventL(struct TPointerEvent const &)
	?HandlePointerEventL@CEikKeyWindow@@UAEXABUTPointerEvent@@@Z @ 553 NONAME ; void CEikKeyWindow::HandlePointerEventL(struct TPointerEvent const &)
	?HandlePointerEventL@CEikLabel@@UAEXABUTPointerEvent@@@Z @ 554 NONAME ; void CEikLabel::HandlePointerEventL(struct TPointerEvent const &)
	?HandlePointerEventL@CEikLabeledButton@@UAEXABUTPointerEvent@@@Z @ 555 NONAME ; void CEikLabeledButton::HandlePointerEventL(struct TPointerEvent const &)
	?HandlePointerEventL@CEikListBox@@UAEXABUTPointerEvent@@@Z @ 556 NONAME ; void CEikListBox::HandlePointerEventL(struct TPointerEvent const &)
	?HandlePointerEventL@CEikListBoxTextEditor@@UAEXABUTPointerEvent@@@Z @ 557 NONAME ; void CEikListBoxTextEditor::HandlePointerEventL(struct TPointerEvent const &)
	?HandlePointerEventL@CEikMenuBar@@UAEXABUTPointerEvent@@@Z @ 558 NONAME ; void CEikMenuBar::HandlePointerEventL(struct TPointerEvent const &)
	?HandlePointerEventL@CEikMenuButton@@UAEXABUTPointerEvent@@@Z @ 559 NONAME ; void CEikMenuButton::HandlePointerEventL(struct TPointerEvent const &)
	?HandlePointerEventL@CEikMenuPane@@UAEXABUTPointerEvent@@@Z @ 560 NONAME ; void CEikMenuPane::HandlePointerEventL(struct TPointerEvent const &)
	?HandlePointerEventL@CEikMenuPaneTitle@@UAEXABUTPointerEvent@@@Z @ 561 NONAME ; void CEikMenuPaneTitle::HandlePointerEventL(struct TPointerEvent const &)
	?HandlePointerEventL@CEikScrollBar@@UAEXABUTPointerEvent@@@Z @ 562 NONAME ; void CEikScrollBar::HandlePointerEventL(struct TPointerEvent const &)
	?HandlePointerEventL@CEikScrollButton@@UAEXABUTPointerEvent@@@Z @ 563 NONAME ; void CEikScrollButton::HandlePointerEventL(struct TPointerEvent const &)
	?HandlePointerEventL@CEikSnakingListBox@@UAEXABUTPointerEvent@@@Z @ 564 NONAME ; void CEikSnakingListBox::HandlePointerEventL(struct TPointerEvent const &)
	?HandlePointerEventL@CEikSnakingTextListBox@@UAEXABUTPointerEvent@@@Z @ 565 NONAME ; void CEikSnakingTextListBox::HandlePointerEventL(struct TPointerEvent const &)
	?HandlePointerEventL@CEikTextButton@@UAEXABUTPointerEvent@@@Z @ 566 NONAME ; void CEikTextButton::HandlePointerEventL(struct TPointerEvent const &)
	?HandlePointerEventL@CEikTextListBox@@UAEXABUTPointerEvent@@@Z @ 567 NONAME ; void CEikTextListBox::HandlePointerEventL(struct TPointerEvent const &)
	?HandlePointerEventL@CEikToolBar@@UAEXABUTPointerEvent@@@Z @ 568 NONAME ; void CEikToolBar::HandlePointerEventL(struct TPointerEvent const &)
	?HandlePointerEventL@CEikTwoPictureCommandButton@@UAEXABUTPointerEvent@@@Z @ 569 NONAME ; void CEikTwoPictureCommandButton::HandlePointerEventL(struct TPointerEvent const &)
	?HandleResourceChange@CEikBorderedControl@@UAEXH@Z @ 570 NONAME ; void CEikBorderedControl::HandleResourceChange(int)
	?HandleResourceChange@CEikButtonBase@@UAEXH@Z @ 571 NONAME ; void CEikButtonBase::HandleResourceChange(int)
	?HandleResourceChange@CEikButtonPanel@@UAEXH@Z @ 572 NONAME ; void CEikButtonPanel::HandleResourceChange(int)
	?HandleResourceChange@CEikCommandButtonBase@@UAEXH@Z @ 573 NONAME ; void CEikCommandButtonBase::HandleResourceChange(int)
	?HandleResourceChange@CEikConsoleControl@@UAEXH@Z @ 574 NONAME ; void CEikConsoleControl::HandleResourceChange(int)
	?HandleResourceChange@CEikControlGroup@@UAEXH@Z @ 575 NONAME ; void CEikControlGroup::HandleResourceChange(int)
	?HandleResourceChange@CEikEdwin@@UAEXH@Z @ 576 NONAME ; void CEikEdwin::HandleResourceChange(int)
	?HandleResourceChange@CEikFileNameLabel@@UAEXH@Z @ 577 NONAME ; void CEikFileNameLabel::HandleResourceChange(int)
	?HandleResourceChange@CEikLabel@@UAEXH@Z @ 578 NONAME ; void CEikLabel::HandleResourceChange(int)
	?HandleResourceChange@CEikLabeledButton@@UAEXH@Z @ 579 NONAME ; void CEikLabeledButton::HandleResourceChange(int)
	?HandleResourceChange@CEikListBox@@UAEXH@Z @ 580 NONAME ; void CEikListBox::HandleResourceChange(int)
	?HandleResourceChange@CEikMenuBar@@UAEXH@Z @ 581 NONAME ; void CEikMenuBar::HandleResourceChange(int)
	?HandleResourceChange@CEikMenuPane@@UAEXH@Z @ 582 NONAME ; void CEikMenuPane::HandleResourceChange(int)
	?HandleResourceChange@CEikMenuPaneTitle@@UAEXH@Z @ 583 NONAME ; void CEikMenuPaneTitle::HandleResourceChange(int)
	?HandleResourceChange@CEikSnakingListBox@@MAEXH@Z @ 584 NONAME ; void CEikSnakingListBox::HandleResourceChange(int)
	?HandleResourceChange@CEikSnakingTextListBox@@UAEXH@Z @ 585 NONAME ; void CEikSnakingTextListBox::HandleResourceChange(int)
	?HandleResourceChange@CEikStatusPane@@UAEXH@Z @ 586 NONAME ; void CEikStatusPane::HandleResourceChange(int)
	?HandleResourceChange@CEikStatusPaneBase@@UAEXH@Z @ 587 NONAME ; void CEikStatusPaneBase::HandleResourceChange(int)
	?HandleResourceChange@CEikTextListBox@@UAEXH@Z @ 588 NONAME ; void CEikTextListBox::HandleResourceChange(int)
	?HandleResourceChange@CEikToolBar@@UAEXH@Z @ 589 NONAME ; void CEikToolBar::HandleResourceChange(int)
	?HandleRightArrowKeyL@CEikListBox@@MAEXW4TSelectionMode@CListBoxView@@@Z @ 590 NONAME ; void CEikListBox::HandleRightArrowKeyL(enum CListBoxView::TSelectionMode)
	?HandleRightArrowKeyL@CEikSnakingListBox@@MAEXW4TSelectionMode@CListBoxView@@@Z @ 591 NONAME ; void CEikSnakingListBox::HandleRightArrowKeyL(enum CListBoxView::TSelectionMode)
	?HandleScrollEventL@CEikConsoleControl@@UAEXPAVCEikScrollBar@@W4TEikScrollEvent@@@Z @ 592 NONAME ; void CEikConsoleControl::HandleScrollEventL(class CEikScrollBar *, enum TEikScrollEvent)
	?HandleScrollEventL@CEikEdwin@@UAEXPAVCEikScrollBar@@W4TEikScrollEvent@@@Z @ 593 NONAME ; void CEikEdwin::HandleScrollEventL(class CEikScrollBar *, enum TEikScrollEvent)
	?HandleScrollEventL@CEikListBox@@UAEXPAVCEikScrollBar@@W4TEikScrollEvent@@@Z @ 594 NONAME ; void CEikListBox::HandleScrollEventL(class CEikScrollBar *, enum TEikScrollEvent)
	?HandleSelectionChangeL@CAknCcpuSupport@@QAEXXZ @ 595 NONAME ; void CAknCcpuSupport::HandleSelectionChangeL(void)
	?HandleSizeChangedL@CEikEdwin@@IAEXXZ @ 596 NONAME ; void CEikEdwin::HandleSizeChangedL(void)
	?HandleStatusPaneSizeChangeL@CAknScreenClearerBase@@QAEXXZ @ 597 NONAME ; void CAknScreenClearerBase::HandleStatusPaneSizeChangeL(void)
	?HandleTextChangedL@CEikEdwin@@QAEXXZ @ 598 NONAME ; void CEikEdwin::HandleTextChangedL(void)
	?HandleTextPastedL@CEikEdwin@@MAEXHAAH@Z @ 599 NONAME ; void CEikEdwin::HandleTextPastedL(int, int &)
	?HandleViewRectSizeChangeL@CEikListBox@@MAEXXZ @ 600 NONAME ; void CEikListBox::HandleViewRectSizeChangeL(void)
	?HandleViewRectSizeChangeL@CEikSnakingListBox@@MAEXXZ @ 601 NONAME ; void CEikSnakingListBox::HandleViewRectSizeChangeL(void)
	?HasBorder@CEikBorderedControl@@UBEHXZ @ 602 NONAME ; int CEikBorderedControl::HasBorder(void) const
	?HideCursor@CEikConsoleControl@@QAEXXZ @ 603 NONAME ; void CEikConsoleControl::HideCursor(void)
	?HideCursor@CEikConsoleScreen@@QAEHXZ @ 604 NONAME ; int CEikConsoleScreen::HideCursor(void)
	?HideMatcherCursor@CListBoxView@@QAEXXZ @ 605 NONAME ; void CListBoxView::HideMatcherCursor(void)
	?HorizScrollGranularityInPixels@CEikListBox@@MBEHXZ @ 606 NONAME ; int CEikListBox::HorizScrollGranularityInPixels(void) const
	?HorizScrollGranularityInPixels@CEikSnakingListBox@@MBEHXZ @ 607 NONAME ; int CEikSnakingListBox::HorizScrollGranularityInPixels(void) const
	?HorizontalMargin@CEikListBox@@IBEHXZ @ 608 NONAME ; int CEikListBox::HorizontalMargin(void) const
	?HorizontalNudgeValue@CEikListBox@@MBEHXZ @ 609 NONAME ; int CEikListBox::HorizontalNudgeValue(void) const
	?HorizontalNudgeValue@CEikSnakingListBox@@MBEHXZ @ 610 NONAME ; int CEikSnakingListBox::HorizontalNudgeValue(void) const
	?HotKeyCode@CEikLabeledButton@@QBEHXZ @ 611 NONAME ; int CEikLabeledButton::HotKeyCode(void) const
	?HotKeyFromCommandId@CEikHotKeyTable@@QBEHHAAH0@Z @ 612 NONAME ; int CEikHotKeyTable::HotKeyFromCommandId(int, int &, int &) const
	?IconBitmap@CEikMenuBarTitle@@QBEPAVCFbsBitmap@@XZ @ 613 NONAME ; class CFbsBitmap * CEikMenuBarTitle::IconBitmap(void) const
	?IconBitmap@CEikMenuPaneItem@@QBEPAVCFbsBitmap@@XZ @ 614 NONAME ; class CFbsBitmap * CEikMenuPaneItem::IconBitmap(void) const
	?IconMask@CEikMenuBarTitle@@QBEPAVCFbsBitmap@@XZ @ 615 NONAME ; class CFbsBitmap * CEikMenuBarTitle::IconMask(void) const
	?IconMask@CEikMenuPaneItem@@QBEPAVCFbsBitmap@@XZ @ 616 NONAME ; class CFbsBitmap * CEikMenuPaneItem::IconMask(void) const
	?IdleL@CEikEdwin@@SAHPAX@Z @ 617 NONAME ; int CEikEdwin::IdleL(void *)
	?IndexById@CEikControlGroup@@QBEHH@Z @ 618 NONAME ; int CEikControlGroup::IndexById(int) const
	?InputCapabilities@CEikButtonBase@@UBE?AVTCoeInputCapabilities@@XZ @ 619 NONAME ; class TCoeInputCapabilities CEikButtonBase::InputCapabilities(void) const
	?InputCapabilities@CEikEdwin@@UBE?AVTCoeInputCapabilities@@XZ @ 620 NONAME ; class TCoeInputCapabilities CEikEdwin::InputCapabilities(void) const
	?InputCapabilities@CEikLabeledButton@@UBE?AVTCoeInputCapabilities@@XZ @ 621 NONAME ; class TCoeInputCapabilities CEikLabeledButton::InputCapabilities(void) const
	?InputCapabilities@CEikListBox@@UBE?AVTCoeInputCapabilities@@XZ @ 622 NONAME ; class TCoeInputCapabilities CEikListBox::InputCapabilities(void) const
	?InputCapabilities@CEikMenuBar@@EBE?AVTCoeInputCapabilities@@XZ @ 623 NONAME ; class TCoeInputCapabilities CEikMenuBar::InputCapabilities(void) const
	?InputCapabilities@CEikMenuPane@@UBE?AVTCoeInputCapabilities@@XZ @ 624 NONAME ; class TCoeInputCapabilities CEikMenuPane::InputCapabilities(void) const
	?InsertControlL@CEikControlGroup@@QAEXAAVTEikGroupControl@@H@Z @ 625 NONAME ; void CEikControlGroup::InsertControlL(class TEikGroupControl &, int)
	?InsertDeleteCharsL@CEikEdwin@@QAEXHABVTDesC16@@ABVTCursorSelection@@@Z @ 626 NONAME ; void CEikEdwin::InsertDeleteCharsL(int, class TDesC16 const &, class TCursorSelection const &)
	?InsertFieldL@CEikEdwin@@QAEXPAVCTextField@@VTUid@@@Z @ 627 NONAME ; void CEikEdwin::InsertFieldL(class CTextField *, class TUid)
	?InsertFromTextFileL@CEikEdwin@@QAEXABV?$TBuf@$0BAA@@@W4TTextOrganisation@CPlainText@@@Z @ 628 NONAME ; void CEikEdwin::InsertFromTextFileL(class TBuf<256> const &, enum CPlainText::TTextOrganisation)
	?InsertMenuItemL@CEikMenuPane@@QAEXABUSData@CEikMenuPaneItem@@H@Z @ 629 NONAME ; void CEikMenuPane::InsertMenuItemL(struct CEikMenuPaneItem::SData const &, int)
	?InterItemGap@CEikListBox@@KAHXZ @ 630 NONAME ; int CEikListBox::InterItemGap(void)
	?InvertChars@CEikConsoleControl@@QAEXABVTRect@@@Z @ 631 NONAME ; void CEikConsoleControl::InvertChars(class TRect const &)
	?IsArrowHeadScrollBar@CEikScrollBarFrame@@QBEHH@Z @ 632 NONAME ; int CEikScrollBarFrame::IsArrowHeadScrollBar(int) const
	?IsCascadeMenuPane@CEikMenuPane@@QBEHXZ @ 633 NONAME ; int CEikMenuPane::IsCascadeMenuPane(void) const
	?IsCommandDimmed@CEikButtonGroupContainer@@QBEHH@Z @ 634 NONAME ; int CEikButtonGroupContainer::IsCommandDimmed(int) const
	?IsCommandInGroup@CEikButtonGroupContainer@@QBEHH@Z @ 635 NONAME ; int CEikButtonGroupContainer::IsCommandInGroup(int) const
	?IsCommandInGroup@CEikCba@@UBEHH@Z @ 636 NONAME ; int CEikCba::IsCommandInGroup(int) const
	?IsCommandVisible@CEikButtonGroupContainer@@QBEHH@Z @ 637 NONAME ; int CEikButtonGroupContainer::IsCommandVisible(int) const
	?IsDimmed@CEikStatusPaneBase@@QBEHXZ @ 638 NONAME ; int CEikStatusPaneBase::IsDimmed(void) const
	?IsDisplayed@CEikMenuBar@@QAEHXZ @ 639 NONAME ; int CEikMenuBar::IsDisplayed(void)
	?IsFaded@CEikStatusPaneBase@@QBEHXZ @ 640 NONAME ; int CEikStatusPaneBase::IsFaded(void) const
	?IsFlagSet@TAknEditorCaseState@@QBEHW4TCaseStateFlags@1@@Z @ 641 NONAME ; int TAknEditorCaseState::IsFlagSet(enum TAknEditorCaseState::TCaseStateFlags) const
	?IsMatchBuffer@CEikListBox@@IBEHXZ @ 642 NONAME ; int CEikListBox::IsMatchBuffer(void) const
	?IsMultiselection@CEikListBox@@QAEHXZ @ 643 NONAME ; int CEikListBox::IsMultiselection(void)
	?IsNormalScrollBarUsingButton@CAknScrollButton@@QBEHXZ @ 644 NONAME ; int CAknScrollButton::IsNormalScrollBarUsingButton(void) const
	?IsPictureOwnedExternally@CEikImage@@QAEHXZ @ 645 NONAME ; int CEikImage::IsPictureOwnedExternally(void)
	?IsPressed@CEikButtonBase@@IBEHXZ @ 646 NONAME ; int CEikButtonBase::IsPressed(void) const
	?IsReadOnly@CEikEdwin@@QBEHXZ @ 647 NONAME ; int CEikEdwin::IsReadOnly(void) const
	?IsSearchString@CListBoxData@@QBEHXZ @ 648 NONAME ; int CListBoxData::IsSearchString(void) const
	?IsSecondPictureOwnedExternally@CEikTwoPictureCommandButton@@QAEHXZ @ 649 NONAME ; int CEikTwoPictureCommandButton::IsSecondPictureOwnedExternally(void)
	?IsVisible@CEikStatusPaneBase@@QBEHXZ @ 650 NONAME ; int CEikStatusPaneBase::IsVisible(void) const
	?IsVisible@CListBoxView@@QBEHXZ @ 651 NONAME ; int CListBoxView::IsVisible(void) const
	?ItemAndPos@CEikMenuPane@@QAEPAVCEikMenuPaneItem@@HAAH@Z @ 652 NONAME ; class CEikMenuPaneItem * CEikMenuPane::ItemAndPos(int, int &)
	?ItemArrayOwnershipType@CTextListBoxModel@@IBE?AW4TListBoxModelItemArrayOwnership@@XZ @ 653 NONAME ; enum TListBoxModelItemArrayOwnership CTextListBoxModel::ItemArrayOwnershipType(void) const
	?ItemData@CEikMenuPane@@QAEAAUSData@CEikMenuPaneItem@@H@Z @ 654 NONAME ; struct CEikMenuPaneItem::SData & CEikMenuPane::ItemData(int)
	?ItemEditor@CEikListBox@@QAEPAVMEikListBoxEditor@@XZ @ 655 NONAME ; class MEikListBoxEditor * CEikListBox::ItemEditor(void)
	?ItemExists@CEikListBox@@IBEHH@Z @ 656 NONAME ; int CEikListBox::ItemExists(int) const
	?ItemHeight@CEikListBox@@QBEHXZ @ 657 NONAME ; int CEikListBox::ItemHeight(void) const
	?ItemIndex@CEikListBoxTextEditor@@IBEHXZ @ 658 NONAME ; int CEikListBoxTextEditor::ItemIndex(void) const
	?ItemIsSelected@CListBoxView@@QBEHH@Z @ 659 NONAME ; int CListBoxView::ItemIsSelected(int) const
	?ItemIsVisible@CListBoxView@@QBEHH@Z @ 660 NONAME ; int CListBoxView::ItemIsVisible(int) const
	?ItemPos@CListBoxView@@UBE?AVTPoint@@H@Z @ 661 NONAME ; class TPoint CListBoxView::ItemPos(int) const
	?ItemPos@CSnakingListBoxView@@UBE?AVTPoint@@H@Z @ 662 NONAME ; class TPoint CSnakingListBoxView::ItemPos(int) const
	?ItemSize@CListBoxView@@UBE?AVTSize@@H@Z @ 663 NONAME ; class TSize CListBoxView::ItemSize(int) const
	?ItemSize@CSnakingListBoxView@@UBE?AVTSize@@H@Z @ 664 NONAME ; class TSize CSnakingListBoxView::ItemSize(int) const
	?ItemText@CEikListBoxTextEditor@@UAE?AVTPtrC16@@XZ @ 665 NONAME ; class TPtrC16 CEikListBoxTextEditor::ItemText(void)
	?ItemText@CTextListBoxModel@@UBE?AVTPtrC16@@H@Z @ 666 NONAME ; class TPtrC16 CTextListBoxModel::ItemText(int) const
	?ItemTextArray@CTextListBoxModel@@QBEPAVMDesC16Array@@XZ @ 667 NONAME ; class MDesC16Array * CTextListBoxModel::ItemTextArray(void) const
	?ItemWidthInPixels@CListItemDrawer@@UBEHH@Z @ 668 NONAME ; int CListItemDrawer::ItemWidthInPixels(int) const
	?ItemWidthInPixels@CTextListItemDrawer@@UBEHH@Z @ 669 NONAME ; int CTextListItemDrawer::ItemWidthInPixels(int) const
	?KeyCode@CEikConsoleScreen@@UBE?AW4TKeyCode@@XZ @ 670 NONAME ; enum TKeyCode CEikConsoleScreen::KeyCode(void) const
	?KeyModifiers@CEikConsoleScreen@@UBEIXZ @ 671 NONAME ; unsigned int CEikConsoleScreen::KeyModifiers(void) const
	?Label@CEikCommandButton@@QBEPAVCEikLabel@@XZ @ 672 NONAME ; class CEikLabel * CEikCommandButton::Label(void) const
	?Label@CEikLabeledButton@@QBEPAVCEikLabel@@XZ @ 673 NONAME ; class CEikLabel * CEikLabeledButton::Label(void) const
	?Label@CEikTextButton@@QBEPAVCEikLabel@@W4TWhichComponent@CEikCommandButtonBase@@@Z @ 674 NONAME ; class CEikLabel * CEikTextButton::Label(enum CEikCommandButtonBase::TWhichComponent) const
	?LabeledButtonById@CEikButtonPanel@@QBEPAVCEikLabeledButton@@H@Z @ 675 NONAME ; class CEikLabeledButton * CEikButtonPanel::LabeledButtonById(int) const
	?LargestControlSize@CEikControlGroup@@ABE?AVTSize@@XZ @ 676 NONAME ; class TSize CEikControlGroup::LargestControlSize(void) const
	?LastCharMatched@CEikListBox@@IBEHXZ @ 677 NONAME ; int CEikListBox::LastCharMatched(void) const
	?LaunchPopupMenuL@CEikMenuButton@@QAEXPAVMEikMenuObserver@@@Z @ 678 NONAME ; void CEikMenuButton::LaunchPopupMenuL(class MEikMenuObserver *)
	?LayoutComponents@CEikCommandButtonBase@@QAEXXZ @ 679 NONAME ; void CEikCommandButtonBase::LayoutComponents(void)
	?LayoutControls@CEikControlGroup@@QAEXXZ @ 680 NONAME ; void CEikControlGroup::LayoutControls(void)
	?LayoutWidth@CEikEdwin@@QBEHXZ @ 681 NONAME ; int CEikEdwin::LayoutWidth(void) const
	?Left@CEikConsoleScreen@@QAEXI@Z @ 682 NONAME ; void CEikConsoleScreen::Left(unsigned int)
	?Lf@CEikConsoleScreen@@QAEXXZ @ 683 NONAME ; void CEikConsoleScreen::Lf(void)
	?LineCursorWidth@CEikEdwin@@UBEHXZ @ 684 NONAME ; int CEikEdwin::LineCursorWidth(void) const
	?ListBoxMargins@CEikListBox@@IBE?AVTMargins8@@XZ @ 685 NONAME ; class TMargins8 CEikListBox::ListBoxMargins(void) const
	?ListBoxModel@CEikListBoxTextEditor@@IAEPAVMListBoxModel@@XZ @ 686 NONAME ; class MListBoxModel * CEikListBoxTextEditor::ListBoxModel(void)
	?LoadLayoutL@CEikStatusPaneModelBase@@IAEPAVCEikStatusPaneLayout@@H@Z @ 687 NONAME ; class CEikStatusPaneLayout * CEikStatusPaneModelBase::LoadLayoutL(int)
	?LocalLanguage@CAknEdwinState@@QBE?AW4TLanguage@@XZ @ 688 NONAME ; enum TLanguage CAknEdwinState::LocalLanguage(void) const
	?Location@CEikButtonGroupContainer@@QBE?AW4TLocation@1@XZ @ 689 NONAME ; enum CEikButtonGroupContainer::TLocation CEikButtonGroupContainer::Location(void) const
	?LogicalToVisualConversionUsed@CEikLabel@@QBEHXZ @ 690 NONAME ; int CEikLabel::LogicalToVisualConversionUsed(void) const
	?LowerPartialFormattingLength@CEikEdwin@@QBEHXZ @ 691 NONAME ; int CEikEdwin::LowerPartialFormattingLength(void) const
	?MEikListBoxEditor_Reserved_1@CEikListBoxTextEditor@@EAEXXZ @ 692 NONAME ; void CEikListBoxTextEditor::MEikListBoxEditor_Reserved_1(void)
	?MEikListBoxEditor_Reserved_1@MEikListBoxEditor@@EAEXXZ @ 693 NONAME ; void MEikListBoxEditor::MEikListBoxEditor_Reserved_1(void)
	?MListBoxModel_Reserved@CTextListBoxModel@@EAEPAXXZ @ 694 NONAME ; void * CTextListBoxModel::MListBoxModel_Reserved(void)
	?MListBoxModel_Reserved@MListBoxModel@@EAEPAXXZ @ 695 NONAME ; void * MListBoxModel::MListBoxModel_Reserved(void)
	?MListBoxModel_Reserved@MTextListBoxModel@@EAEPAXXZ @ 696 NONAME ; void * MTextListBoxModel::MListBoxModel_Reserved(void)
	?MakeButtonVisible@CEikButtonPanel@@QAEXHH@Z @ 697 NONAME ; void CEikButtonPanel::MakeButtonVisible(int, int)
	?MakeCommandVisible@CEikButtonGroupContainer@@QAEXHH@Z @ 698 NONAME ; void CEikButtonGroupContainer::MakeCommandVisible(int, int)
	?MakeViewClassInstanceL@CEikListBox@@MAEPAVCListBoxView@@XZ @ 699 NONAME ; class CListBoxView * CEikListBox::MakeViewClassInstanceL(void)
	?MakeViewClassInstanceL@CEikSnakingListBox@@UAEPAVCListBoxView@@XZ @ 700 NONAME ; class CListBoxView * CEikSnakingListBox::MakeViewClassInstanceL(void)
	?MakeVisible@CAknDoubleSpanScrollBar@@UAEXH@Z @ 701 NONAME ; void CAknDoubleSpanScrollBar::MakeVisible(int)
	?MakeVisible@CEikScrollBar@@UAEXH@Z @ 702 NONAME ; void CEikScrollBar::MakeVisible(int)
	?MakeVisible@CEikStatusPane@@UAEXH@Z @ 703 NONAME ; void CEikStatusPane::MakeVisible(int)
	?MakeVisible@CEikStatusPaneBase@@UAEXH@Z @ 704 NONAME ; void CEikStatusPaneBase::MakeVisible(int)
	?Margins@CEikEdwin@@QBE?AVTMargins8@@XZ @ 705 NONAME ; class TMargins8 CEikEdwin::Margins(void) const
	?Margins@CEikMenuPaneTitle@@QBE?AVTMargins@@XZ @ 706 NONAME ; class TMargins CEikMenuPaneTitle::Margins(void) const
	?MarkColumn@CListItemDrawer@@QBEHXZ @ 707 NONAME ; int CListItemDrawer::MarkColumn(void) const
	?MarkGutter@CListItemDrawer@@QBEHXZ @ 708 NONAME ; int CListItemDrawer::MarkGutter(void) const
	?Mask@CEikImage@@QBEPBVCFbsBitmap@@XZ @ 709 NONAME ; class CFbsBitmap const * CEikImage::Mask(void) const
	?MatchBuffer@CEikListBox@@IBEPAVRIncrMatcherBase@@XZ @ 710 NONAME ; class RIncrMatcherBase * CEikListBox::MatchBuffer(void) const
	?MatchTypedCharL@CEikListBox@@IAEXI@Z @ 711 NONAME ; void CEikListBox::MatchTypedCharL(unsigned int)
	?MatchableTextArray@CTextListBoxModel@@UBEPBVMDesC16Array@@XZ @ 712 NONAME ; class MDesC16Array const * CTextListBoxModel::MatchableTextArray(void) const
	?MatcherCursorAscent@CListItemDrawer@@UBEHH@Z @ 713 NONAME ; int CListItemDrawer::MatcherCursorAscent(int) const
	?MatcherCursorAscent@CTextListItemDrawer@@UBEHH@Z @ 714 NONAME ; int CTextListItemDrawer::MatcherCursorAscent(int) const
	?MatcherCursorPos@CListBoxView@@QBEHXZ @ 715 NONAME ; int CListBoxView::MatcherCursorPos(void) const
	?MatcherCursorRect@CListItemDrawer@@UBE?AVTRect@@ABVTDesC16@@HHH@Z @ 716 NONAME ; class TRect CListItemDrawer::MatcherCursorRect(class TDesC16 const &, int, int, int) const
	?MatcherCursorRect@CTextListItemDrawer@@UBE?AVTRect@@ABVTDesC16@@HHH@Z @ 717 NONAME ; class TRect CTextListItemDrawer::MatcherCursorRect(class TDesC16 const &, int, int, int) const
	?MaxCommands@CEikButtonGroupContainer@@QBEHXZ @ 718 NONAME ; int CEikButtonGroupContainer::MaxCommands(void) const
	?MaxThumbPos@TEikScrollBarModel@@QBEHXZ @ 719 NONAME ; int TEikScrollBarModel::MaxThumbPos(void) const
	?MaximumHeight@CEikEdwin@@QBEHXZ @ 720 NONAME ; int CEikEdwin::MaximumHeight(void) const
	?MaximumHeightInLines@CEikEdwin@@QBEHXZ @ 721 NONAME ; int CEikEdwin::MaximumHeightInLines(void) const
	?MenuBar@CAknEdwinState@@QBEPAVCEikMenuBar@@XZ @ 722 NONAME ; class CEikMenuBar * CAknEdwinState::MenuBar(void) const
	?MenuItemExists@CEikMenuPane@@QAEHHAAH@Z @ 723 NONAME ; int CEikMenuPane::MenuItemExists(int, int &)
	?MenuPane@CEikMenuBar@@QAEPAVCEikMenuPane@@XZ @ 724 NONAME ; class CEikMenuPane * CEikMenuBar::MenuPane(void)
	?MinVisibleLength@CEikScrollBar@@SAHH@Z @ 725 NONAME ; int CEikScrollBar::MinVisibleLength(int)
	?MinimumCellSize@CListItemDrawer@@UBE?AVTSize@@XZ @ 726 NONAME ; class TSize CListItemDrawer::MinimumCellSize(void) const
	?MinimumCellSize@CTextListItemDrawer@@UBE?AVTSize@@XZ @ 727 NONAME ; class TSize CTextListItemDrawer::MinimumCellSize(void) const
	?MinimumHeight@CEikEdwin@@QBEHXZ @ 728 NONAME ; int CEikEdwin::MinimumHeight(void) const
	?MinimumSize@CEikButtonGroupContainer@@UAE?AVTSize@@XZ @ 729 NONAME ; class TSize CEikButtonGroupContainer::MinimumSize(void)
	?MinimumSize@CEikButtonGroupStack@@SA?AVTSize@@XZ @ 730 NONAME ; class TSize CEikButtonGroupStack::MinimumSize(void)
	?MinimumSize@CEikButtonPanel@@UAE?AVTSize@@XZ @ 731 NONAME ; class TSize CEikButtonPanel::MinimumSize(void)
	?MinimumSize@CEikCommandButtonBase@@UAE?AVTSize@@XZ @ 732 NONAME ; class TSize CEikCommandButtonBase::MinimumSize(void)
	?MinimumSize@CEikControlGroup@@UAE?AVTSize@@XZ @ 733 NONAME ; class TSize CEikControlGroup::MinimumSize(void)
	?MinimumSize@CEikEdwin@@UAE?AVTSize@@XZ @ 734 NONAME ; class TSize CEikEdwin::MinimumSize(void)
	?MinimumSize@CEikFileNameLabel@@UAE?AVTSize@@XZ @ 735 NONAME ; class TSize CEikFileNameLabel::MinimumSize(void)
	?MinimumSize@CEikImage@@UAE?AVTSize@@XZ @ 736 NONAME ; class TSize CEikImage::MinimumSize(void)
	?MinimumSize@CEikLabel@@UAE?AVTSize@@XZ @ 737 NONAME ; class TSize CEikLabel::MinimumSize(void)
	?MinimumSize@CEikLabeledButton@@UAE?AVTSize@@XZ @ 738 NONAME ; class TSize CEikLabeledButton::MinimumSize(void)
	?MinimumSize@CEikListBox@@UAE?AVTSize@@XZ @ 739 NONAME ; class TSize CEikListBox::MinimumSize(void)
	?Model@CEikListBox@@QBEPAVMListBoxModel@@XZ @ 740 NONAME ; class MListBoxModel * CEikListBox::Model(void) const
	?Model@CEikSnakingTextListBox@@QBEPAVCTextListBoxModel@@XZ @ 741 NONAME ; class CTextListBoxModel * CEikSnakingTextListBox::Model(void) const
	?Model@CEikTextListBox@@QBEPAVCTextListBoxModel@@XZ @ 742 NONAME ; class CTextListBoxModel * CEikTextListBox::Model(void) const
	?MopSupplyObject@CEikEdwin@@MAE?AVPtr@TTypeUid@@V3@@Z @ 743 NONAME ; class TTypeUid::Ptr CEikEdwin::MopSupplyObject(class TTypeUid)
	?MopSupplyObject@CEikMenuPane@@MAE?AVPtr@TTypeUid@@V3@@Z @ 744 NONAME ; class TTypeUid::Ptr CEikMenuPane::MopSupplyObject(class TTypeUid)
	?MoveCursorL@CEikEdwin@@QAEXW4TMovementType@TCursorPosition@@H@Z @ 745 NONAME ; void CEikEdwin::MoveCursorL(enum TCursorPosition::TMovementType, int)
	?MoveCursorL@CListBoxView@@UAEXW4TCursorMovement@1@W4TSelectionMode@1@@Z @ 746 NONAME ; void CListBoxView::MoveCursorL(enum CListBoxView::TCursorMovement, enum CListBoxView::TSelectionMode)
	?MoveCursorL@CSnakingListBoxView@@UAEXW4TCursorMovement@CListBoxView@@W4TSelectionMode@3@@Z @ 747 NONAME ; void CSnakingListBoxView::MoveCursorL(enum CListBoxView::TCursorMovement, enum CListBoxView::TSelectionMode)
	?MoveCursorToChunkStartL@CEikEdwin@@IAEXHW4TChunkSize@1@W4TEnd@1@@Z @ 748 NONAME ; void CEikEdwin::MoveCursorToChunkStartL(int, enum CEikEdwin::TChunkSize, enum CEikEdwin::TEnd)
	?MoveDisplayL@CEikEdwin@@QAEXW4TMovementType@TCursorPosition@@@Z @ 749 NONAME ; void CEikEdwin::MoveDisplayL(enum TCursorPosition::TMovementType)
	?MoveHighlightTo@CEikMenuPane@@QAEXH@Z @ 750 NONAME ; void CEikMenuPane::MoveHighlightTo(int)
	?MoveHighlightToL@CEikMenuBar@@QAEXHH@Z @ 751 NONAME ; void CEikMenuBar::MoveHighlightToL(int, int)
	?MoveHorizThumbTo@CEikScrollBarFrame@@QAEXH@Z @ 752 NONAME ; void CEikScrollBarFrame::MoveHorizThumbTo(int)
	?MoveThumbsBy@CEikScrollBarFrame@@QAEXHH@Z @ 753 NONAME ; void CEikScrollBarFrame::MoveThumbsBy(int, int)
	?MoveToNextColumnL@CSnakingListBoxView@@IAEXW4TSelectionMode@CListBoxView@@@Z @ 754 NONAME ; void CSnakingListBoxView::MoveToNextColumnL(enum CListBoxView::TSelectionMode)
	?MoveToNextOrPreviousItemL@CEikSnakingListBox@@IAEXVTPoint@@@Z @ 755 NONAME ; void CEikSnakingListBox::MoveToNextOrPreviousItemL(class TPoint)
	?MoveToPreviousColumnL@CSnakingListBoxView@@IAEXW4TSelectionMode@CListBoxView@@@Z @ 756 NONAME ; void CSnakingListBoxView::MoveToPreviousColumnL(enum CListBoxView::TSelectionMode)
	?MoveTopLeft@CEikConsoleScreen@@QAEXVTPoint@@@Z @ 757 NONAME ; void CEikConsoleScreen::MoveTopLeft(class TPoint)
	?MoveVertThumbTo@CEikScrollBarFrame@@QAEXH@Z @ 758 NONAME ; void CEikScrollBarFrame::MoveVertThumbTo(int)
	?NavigateToNextItem@CEikMenuPane@@QAEXXZ @ 759 NONAME ; void CEikMenuPane::NavigateToNextItem(void)
	?NewL@CAknLocalScreenClearer@@SAPAV1@H@Z @ 760 NONAME ; class CAknLocalScreenClearer * CAknLocalScreenClearer::NewL(int)
	?NewL@CAknScrollButton@@SAPAV1@W4TType@1@@Z @ 761 NONAME ; class CAknScrollButton * CAknScrollButton::NewL(enum CAknScrollButton::TType)
	?NewL@CEikArrowHeadScrollButton@@SAPAV1@PBVCCoeControl@@W4TType@CEikScrollButton@@@Z @ 762 NONAME ; class CEikArrowHeadScrollButton * CEikArrowHeadScrollButton::NewL(class CCoeControl const *, enum CEikScrollButton::TType)
	?NewL@CEikButtonGroupContainer@@SAPAV1@W4TUse@1@W4TOrientation@1@PAVMEikCommandObserver@@HAAVRWindowGroup@@I@Z @ 763 NONAME ; class CEikButtonGroupContainer * CEikButtonGroupContainer::NewL(enum CEikButtonGroupContainer::TUse, enum CEikButtonGroupContainer::TOrientation, class MEikCommandObserver *, int, class RWindowGroup &, unsigned int)
	?NewL@CEikButtonGroupContainer@@SAPAV1@W4TUse@1@W4TOrientation@1@PAVMEikCommandObserver@@HABVCCoeControl@@I@Z @ 764 NONAME ; class CEikButtonGroupContainer * CEikButtonGroupContainer::NewL(enum CEikButtonGroupContainer::TUse, enum CEikButtonGroupContainer::TOrientation, class MEikCommandObserver *, int, class CCoeControl const &, unsigned int)
	?NewL@CEikButtonGroupContainer@@SAPAV1@W4TUse@1@W4TOrientation@1@PAVMEikCommandObserver@@HI@Z @ 765 NONAME ; class CEikButtonGroupContainer * CEikButtonGroupContainer::NewL(enum CEikButtonGroupContainer::TUse, enum CEikButtonGroupContainer::TOrientation, class MEikCommandObserver *, int, unsigned int)
	?NewL@CEikStatusPane@@SAPAV1@AAVCEikonEnv@@PAVRWindowGroup@@HH@Z @ 766 NONAME ; class CEikStatusPane * CEikStatusPane::NewL(class CEikonEnv &, class RWindowGroup *, int, int)
	?NewLC@CAknLocalScreenClearer@@SAPAV1@H@Z @ 767 NONAME ; class CAknLocalScreenClearer * CAknLocalScreenClearer::NewLC(int)
	?NewLC@CAknLocalScreenClearer@@SAPAV1@XZ @ 768 NONAME ; class CAknLocalScreenClearer * CAknLocalScreenClearer::NewLC(void)
	?NonPrintingCharsVisibility@CEikEdwin@@QBE?AVTNonPrintingCharVisibility@@XZ @ 769 NONAME ; class TNonPrintingCharVisibility CEikEdwin::NonPrintingCharsVisibility(void) const
	?NotifyEditorStateObserverOfStateChangeL@CEikEdwin@@QAEXXZ @ 770 NONAME ; void CEikEdwin::NotifyEditorStateObserverOfStateChangeL(void)
	?NotifyInvalidOperationOnReadOnlyL@CEikEdwin@@EAEXXZ @ 771 NONAME ; void CEikEdwin::NotifyInvalidOperationOnReadOnlyL(void)
	?NotifyNewDocumentL@CEikEdwin@@QAEXXZ @ 772 NONAME ; void CEikEdwin::NotifyNewDocumentL(void)
	?NotifyNewFormatL@CEikEdwin@@QAEXXZ @ 773 NONAME ; void CEikEdwin::NotifyNewFormatL(void)
	?NumberOfItems@CTextListBoxModel@@UBEHXZ @ 774 NONAME ; int CTextListBoxModel::NumberOfItems(void) const
	?NumberOfItemsInPane@CEikMenuPane@@QBEHXZ @ 775 NONAME ; int CEikMenuPane::NumberOfItemsInPane(void) const
	?NumberOfItemsPerColumn@CSnakingListBoxView@@UBEHXZ @ 776 NONAME ; int CSnakingListBoxView::NumberOfItemsPerColumn(void) const
	?NumberOfItemsThatFitInRect@CListBoxView@@UBEHABVTRect@@@Z @ 777 NONAME ; int CListBoxView::NumberOfItemsThatFitInRect(class TRect const &) const
	?NumberOfItemsThatFitInRect@CSnakingListBoxView@@UBEHABVTRect@@@Z @ 778 NONAME ; int CSnakingListBoxView::NumberOfItemsThatFitInRect(class TRect const &) const
	?NumericKeymap@CAknEdwinState@@QBE?AW4TAknEditorNumericKeymap@@XZ @ 779 NONAME ; enum TAknEditorNumericKeymap CAknEdwinState::NumericKeymap(void) const
	?ObjectProvider@CAknEdwinState@@QBEPAVMObjectProvider@@XZ @ 780 NONAME ; class MObjectProvider * CAknEdwinState::ObjectProvider(void) const
	?OfferCommandListL@CEikButtonGroupContainer@@QAEXABV?$RArray@H@@@Z @ 781 NONAME ; void CEikButtonGroupContainer::OfferCommandListL(class RArray<int> const &)
	?OfferCommandListL@CEikButtonGroupContainer@@QAEXH@Z @ 782 NONAME ; void CEikButtonGroupContainer::OfferCommandListL(int)
	?OfferCommandListL@CEikCba@@UAEXABV?$RArray@H@@@Z @ 783 NONAME ; void CEikCba::OfferCommandListL(class RArray<int> const &)
	?OfferCommandListL@CEikCba@@UAEXH@Z @ 784 NONAME ; void CEikCba::OfferCommandListL(int)
	?OfferKeyEventL@CAknCcpuSupport@@UAE?AW4TKeyResponse@@ABUTKeyEvent@@W4TEventCode@@@Z @ 785 NONAME ; enum TKeyResponse CAknCcpuSupport::OfferKeyEventL(struct TKeyEvent const &, enum TEventCode)
	?OfferKeyEventL@CEikButtonBase@@UAE?AW4TKeyResponse@@ABUTKeyEvent@@W4TEventCode@@@Z @ 786 NONAME ; enum TKeyResponse CEikButtonBase::OfferKeyEventL(struct TKeyEvent const &, enum TEventCode)
	?OfferKeyEventL@CEikButtonGroupContainer@@UAE?AW4TKeyResponse@@ABUTKeyEvent@@W4TEventCode@@@Z @ 787 NONAME ; enum TKeyResponse CEikButtonGroupContainer::OfferKeyEventL(struct TKeyEvent const &, enum TEventCode)
	?OfferKeyEventL@CEikButtonPanel@@UAE?AW4TKeyResponse@@ABUTKeyEvent@@W4TEventCode@@@Z @ 788 NONAME ; enum TKeyResponse CEikButtonPanel::OfferKeyEventL(struct TKeyEvent const &, enum TEventCode)
	?OfferKeyEventL@CEikCommandButtonBase@@UAE?AW4TKeyResponse@@ABUTKeyEvent@@W4TEventCode@@@Z @ 789 NONAME ; enum TKeyResponse CEikCommandButtonBase::OfferKeyEventL(struct TKeyEvent const &, enum TEventCode)
	?OfferKeyEventL@CEikEdwin@@UAE?AW4TKeyResponse@@ABUTKeyEvent@@W4TEventCode@@@Z @ 790 NONAME ; enum TKeyResponse CEikEdwin::OfferKeyEventL(struct TKeyEvent const &, enum TEventCode)
	?OfferKeyEventL@CEikLabeledButton@@UAE?AW4TKeyResponse@@ABUTKeyEvent@@W4TEventCode@@@Z @ 791 NONAME ; enum TKeyResponse CEikLabeledButton::OfferKeyEventL(struct TKeyEvent const &, enum TEventCode)
	?OfferKeyEventL@CEikListBox@@UAE?AW4TKeyResponse@@ABUTKeyEvent@@W4TEventCode@@@Z @ 792 NONAME ; enum TKeyResponse CEikListBox::OfferKeyEventL(struct TKeyEvent const &, enum TEventCode)
	?OfferKeyEventL@CEikListBoxTextEditor@@UAE?AW4TKeyResponse@@ABUTKeyEvent@@W4TEventCode@@@Z @ 793 NONAME ; enum TKeyResponse CEikListBoxTextEditor::OfferKeyEventL(struct TKeyEvent const &, enum TEventCode)
	?OfferKeyEventL@CEikMenuBar@@UAE?AW4TKeyResponse@@ABUTKeyEvent@@W4TEventCode@@@Z @ 794 NONAME ; enum TKeyResponse CEikMenuBar::OfferKeyEventL(struct TKeyEvent const &, enum TEventCode)
	?OfferKeyEventL@CEikMenuPane@@QAE?AW4TKeyResponse@@ABUTKeyEvent@@W4TEventCode@@H@Z @ 795 NONAME ; enum TKeyResponse CEikMenuPane::OfferKeyEventL(struct TKeyEvent const &, enum TEventCode, int)
	?OfferKeyEventL@CEikMenuPane@@UAE?AW4TKeyResponse@@ABUTKeyEvent@@W4TEventCode@@@Z @ 796 NONAME ; enum TKeyResponse CEikMenuPane::OfferKeyEventL(struct TKeyEvent const &, enum TEventCode)
	?OkToChangeStatusPaneNow@CEikStatusPane@@UAEHXZ @ 797 NONAME ; int CEikStatusPane::OkToChangeStatusPaneNow(void)
	?OkToChangeStatusPaneNow@CEikStatusPaneBase@@UAEHXZ @ 798 NONAME ; int CEikStatusPaneBase::OkToChangeStatusPaneNow(void)
	?OkToDeleteSelectionL@CEikEdwin@@IAEHXZ @ 799 NONAME ; int CEikEdwin::OkToDeleteSelectionL(void)
	?OnReformatL@CEikEdwin@@UAEXPBVCTextView@@@Z @ 800 NONAME ; void CEikEdwin::OnReformatL(class CTextView const *)
	?OnlyASCIIChars@CEikEdwin@@QBEHXZ @ 801 NONAME ; int CEikEdwin::OnlyASCIIChars(void) const
	?Orientation@CEikControlGroup@@QBE?AW4TOrientation@1@XZ @ 802 NONAME ; enum CEikControlGroup::TOrientation CEikControlGroup::Orientation(void) const
	?PaneCapabilities@CEikStatusPaneBase@@QBE?AVTPaneCapabilities@1@VTUid@@@Z @ 803 NONAME ; class CEikStatusPaneBase::TPaneCapabilities CEikStatusPaneBase::PaneCapabilities(class TUid) const
	?PaneRectL@CEikStatusPaneBase@@QBE?AVTRect@@VTUid@@@Z @ 804 NONAME ; class TRect CEikStatusPaneBase::PaneRectL(class TUid) const
	?PasteFromStoreL@CEikEdwin@@QAEXAAVCStreamStore@@AAVCStreamDictionary@@@Z @ 805 NONAME ; void CEikEdwin::PasteFromStoreL(class CStreamStore &, class CStreamDictionary &)
	?PermittedCases@CAknEdwinState@@QBEHXZ @ 806 NONAME ; int CAknEdwinState::PermittedCases(void) const
	?PermittedInputModes@CAknEdwinState@@QBEHXZ @ 807 NONAME ; int CAknEdwinState::PermittedInputModes(void) const
	?Picture@CEikBitmapButton@@QBEPAVCEikImage@@W4TWhichComponent@CEikCommandButtonBase@@@Z @ 808 NONAME ; class CEikImage * CEikBitmapButton::Picture(enum CEikCommandButtonBase::TWhichComponent) const
	?Picture@CEikCommandButton@@QBEPAVCEikImage@@XZ @ 809 NONAME ; class CEikImage * CEikCommandButton::Picture(void) const
	?Picture@CEikTwoPictureCommandButton@@QBEPAVCEikImage@@XZ @ 810 NONAME ; class CEikImage * CEikTwoPictureCommandButton::Picture(void) const
	?PixelGapBetweenLines@CEikLabel@@QBEHXZ @ 811 NONAME ; int CEikLabel::PixelGapBetweenLines(void) const
	?PlaceDataOnClipboardL@CEikEdwin@@IAEXXZ @ 812 NONAME ; void CEikEdwin::PlaceDataOnClipboardL(void)
	?PlainHotKey@CEikLabeledButton@@QBEHXZ @ 813 NONAME ; int CEikLabeledButton::PlainHotKey(void) const
	?PopCommandFromStack@CEikCommandButton@@QAEHXZ @ 814 NONAME ; int CEikCommandButton::PopCommandFromStack(void)
	?PositionById@CEikButtonGroupContainer@@QBEHH@Z @ 815 NONAME ; int CEikButtonGroupContainer::PositionById(int) const
	?PrepareContext@CEikCommandButtonBase@@EBEXAAVCWindowGc@@@Z @ 816 NONAME ; void CEikCommandButtonBase::PrepareContext(class CWindowGc &) const
	?PrepareContext@CEikInverterCommandButton@@EBEXAAVCWindowGc@@@Z @ 817 NONAME ; void CEikInverterCommandButton::PrepareContext(class CWindowGc &) const
	?PrepareContext@CEikTwoPictureCommandButton@@EBEXAAVCWindowGc@@@Z @ 818 NONAME ; void CEikTwoPictureCommandButton::PrepareContext(class CWindowGc &) const
	?PrepareForAppExit@CEikStatusPane@@QAEXXZ @ 819 NONAME ; void CEikStatusPane::PrepareForAppExit(void)
	?PreviousCase@TAknEditorCaseState@@QBEIXZ @ 820 NONAME ; unsigned int TAknEditorCaseState::PreviousCase(void) const
	?PreviousCaseUsedToEnterText@TAknEditorCaseState@@QBEIXZ @ 821 NONAME ; unsigned int TAknEditorCaseState::PreviousCaseUsedToEnterText(void) const
	?ProcessCommandL@CAknCcpuSupport@@UAEXH@Z @ 822 NONAME ; void CAknCcpuSupport::ProcessCommandL(int)
	?ProcessCommandL@CEikMenuButton@@EAEXH@Z @ 823 NONAME ; void CEikMenuButton::ProcessCommandL(int)
	?Properties@CListItemDrawer@@UBE?AVTListItemProperties@@H@Z @ 824 NONAME ; class TListItemProperties CListItemDrawer::Properties(int) const
	?Read@CEikConsoleScreen@@UAEXAAVTRequestStatus@@@Z @ 825 NONAME ; void CEikConsoleScreen::Read(class TRequestStatus &)
	?ReadAknResourceL@CEikEdwin@@IAEXAAVTResourceReader@@@Z @ 826 NONAME ; void CEikEdwin::ReadAknResourceL(class TResourceReader &)
	?ReadCancel@CEikConsoleScreen@@UAEXXZ @ 827 NONAME ; void CEikConsoleScreen::ReadCancel(void)
	?ReasonForFocusLostL@CEikListBox@@IAE?AW4TReasonForFocusLost@1@XZ @ 828 NONAME ; enum CEikListBox::TReasonForFocusLost CEikListBox::ReasonForFocusLostL(void)
	?ReceiveDataOverIrL@CEikEdwin@@QAEXXZ @ 829 NONAME ; void CEikEdwin::ReceiveDataOverIrL(void)
	?Redraw@CEikConsoleScreen@@QAEXABVTRect@@@Z @ 830 NONAME ; void CEikConsoleScreen::Redraw(class TRect const &)
	?RedrawDisabled@CListBoxView@@QBEHXZ @ 831 NONAME ; int CListBoxView::RedrawDisabled(void) const
	?ReduceRect@CEikButtonGroupContainer@@QBEXAAVTRect@@@Z @ 832 NONAME ; void CEikButtonGroupContainer::ReduceRect(class TRect &) const
	?ReduceRect@CEikMenuBar@@QBEXAAVTRect@@@Z @ 833 NONAME ; void CEikMenuBar::ReduceRect(class TRect &) const
	?ReduceRect@CEikStatusPaneBase@@QBEXAAVTRect@@@Z @ 834 NONAME ; void CEikStatusPaneBase::ReduceRect(class TRect &) const
	?ReduceRect@CEikToolBar@@UBEXAAVTRect@@@Z @ 835 NONAME ; void CEikToolBar::ReduceRect(class TRect &) const
	?RegenerateFonts@CListBoxData@@IAEHAAVCFontsWithStyle@1@H@Z @ 836 NONAME ; int CListBoxData::RegenerateFonts(class CListBoxData::CFontsWithStyle &, int)
	?Release@CEikListBoxTextEditor@@MAEXXZ @ 837 NONAME ; void CEikListBoxTextEditor::Release(void)
	?ReleaseFonts@CFontsWithStyle@CListBoxData@@QAEXXZ @ 838 NONAME ; void CListBoxData::CFontsWithStyle::ReleaseFonts(void)
	?RemoveCommandFromStack@CEikButtonGroupContainer@@QAEXHH@Z @ 839 NONAME ; void CEikButtonGroupContainer::RemoveCommandFromStack(int, int)
	?RemoveCommandFromStack@CEikCommandButton@@QAEHH@Z @ 840 NONAME ; int CEikCommandButton::RemoveCommandFromStack(int)
	?RemoveCommandObserver@CEikButtonGroupContainer@@QAEXH@Z @ 841 NONAME ; void CEikButtonGroupContainer::RemoveCommandObserver(int)
	?RemoveEditMenuObserver@CEikMenuBar@@QAEXPAVMEikMenuObserver@@@Z @ 842 NONAME ; void CEikMenuBar::RemoveEditMenuObserver(class MEikMenuObserver *)
	?RemoveEdwinObserver@CEikEdwin@@QAEXPAVMEikEdwinObserver@@@Z @ 843 NONAME ; void CEikEdwin::RemoveEdwinObserver(class MEikEdwinObserver *)
	?RemoveFactoryFunction@CEikButtonGroupFactoryArray@@SAXP6APAVMEikButtonGroup@@HAAVTCreationData@EikButtonGroupFactory@@AAH@Z@Z @ 844 NONAME ; void CEikButtonGroupFactoryArray::RemoveFactoryFunction(class MEikButtonGroup * (*)(int, class EikButtonGroupFactory::TCreationData &, int &))
	?RemoveFlagFromUserFlags@CEikEdwin@@QAEXK@Z @ 845 NONAME ; void CEikEdwin::RemoveFlagFromUserFlags(unsigned long)
	?RemoveItem@CEikHotKeyTable@@QAEXH@Z @ 846 NONAME ; void CEikHotKeyTable::RemoveItem(int)
	?ReplaceAllL@CEikEdwin@@QAEXPAUSEdwinFindModel@@@Z @ 847 NONAME ; void CEikEdwin::ReplaceAllL(struct SEdwinFindModel *)
	?ReplaceCommand@CEikButtonGroupContainer@@QAEXHH@Z @ 848 NONAME ; void CEikButtonGroupContainer::ReplaceCommand(int, int)
	?ReplaceCommand@CEikCba@@UAEXHH@Z @ 849 NONAME ; void CEikCba::ReplaceCommand(int, int)
	?ReplaceL@CEikEdwin@@QAEXPAUSEdwinFindModel@@@Z @ 850 NONAME ; void CEikEdwin::ReplaceL(struct SEdwinFindModel *)
	?ReportAknEdStateEventL@CAknEdwinState@@QAEXW4EAknEdwinStateEvent@MAknEdStateObserver@@@Z @ 851 NONAME ; void CAknEdwinState::ReportAknEdStateEventL(enum MAknEdStateObserver::EAknEdwinStateEvent)
	?ReportEdwinEventL@CEikEdwin@@IAEXW4TEdwinEvent@MEikEdwinObserver@@@Z @ 852 NONAME ; void CEikEdwin::ReportEdwinEventL(enum MEikEdwinObserver::TEdwinEvent)
	?ReportListBoxEventL@CEikListBox@@MAEXW4TListBoxEvent@MEikListBoxObserver@@@Z @ 853 NONAME ; void CEikListBox::ReportListBoxEventL(enum MEikListBoxObserver::TListBoxEvent)
	?Reserved_1@CEikMenuBar@@AAEXXZ @ 854 NONAME ; void CEikMenuBar::Reserved_1(void)
	?Reserved_1@CEikMenuPane@@AAEXXZ @ 855 NONAME ; void CEikMenuPane::Reserved_1(void)
	?Reserved_1@CEikSnakingListBox@@AAEXXZ @ 856 NONAME ; void CEikSnakingListBox::Reserved_1(void)
	?Reserved_1@CEikStatusPaneModelBase@@EAEXXZ @ 857 NONAME ; void CEikStatusPaneModelBase::Reserved_1(void)
	?Reserved_1@CListBoxData@@EAEXXZ @ 858 NONAME ; void CListBoxData::Reserved_1(void)
	?Reserved_1@CListItemDrawer@@EAEPAXXZ @ 859 NONAME ; void * CListItemDrawer::Reserved_1(void)
	?Reserved_1@CSnakingListBoxView@@EAEPAXXZ @ 860 NONAME ; void * CSnakingListBoxView::Reserved_1(void)
	?Reserved_1@CTextListItemDrawer@@EAEPAXXZ @ 861 NONAME ; void * CTextListItemDrawer::Reserved_1(void)
	?Reserved_1@MEikButtonGroup@@AAEXXZ @ 862 NONAME ; void MEikButtonGroup::Reserved_1(void)
	?Reserved_2@CEikButtonBase@@EAEXXZ @ 863 NONAME ; void CEikButtonBase::Reserved_2(void)
	?Reserved_2@CEikButtonPanel@@EAEXXZ @ 864 NONAME ; void CEikButtonPanel::Reserved_2(void)
	?Reserved_2@CEikCommandButtonBase@@EAEXXZ @ 865 NONAME ; void CEikCommandButtonBase::Reserved_2(void)
	?Reserved_2@CEikConsoleControl@@EAEXXZ @ 866 NONAME ; void CEikConsoleControl::Reserved_2(void)
	?Reserved_2@CEikControlGroup@@EAEXXZ @ 867 NONAME ; void CEikControlGroup::Reserved_2(void)
	?Reserved_2@CEikEdwin@@EAEXXZ @ 868 NONAME ; void CEikEdwin::Reserved_2(void)
	?Reserved_2@CEikImage@@EAEXXZ @ 869 NONAME ; void CEikImage::Reserved_2(void)
	?Reserved_2@CEikLabel@@EAEXXZ @ 870 NONAME ; void CEikLabel::Reserved_2(void)
	?Reserved_2@CEikMenuBar@@EAEXXZ @ 871 NONAME ; void CEikMenuBar::Reserved_2(void)
	?Reserved_2@CEikMenuPane@@EAEXXZ @ 872 NONAME ; void CEikMenuPane::Reserved_2(void)
	?Reserved_2@CEikScrollBar@@EAEXXZ @ 873 NONAME ; void CEikScrollBar::Reserved_2(void)
	?Reserved_2@CEikSnakingListBox@@EAEXXZ @ 874 NONAME ; void CEikSnakingListBox::Reserved_2(void)
	?Reserved_2@CEikToolBar@@EAEXXZ @ 875 NONAME ; void CEikToolBar::Reserved_2(void)
	?Reserved_2@CListBoxData@@EAEXXZ @ 876 NONAME ; void CListBoxData::Reserved_2(void)
	?Reserved_3@CEikButtonBase@@EAEXXZ @ 877 NONAME ; void CEikButtonBase::Reserved_3(void)
	?Reserved_3@CEikCommandButtonBase@@EAEXXZ @ 878 NONAME ; void CEikCommandButtonBase::Reserved_3(void)
	?Reserved_3@CEikEdwin@@EAEXXZ @ 879 NONAME ; void CEikEdwin::Reserved_3(void)
	?Reserved_4@CEikCommandButtonBase@@EAEXXZ @ 880 NONAME ; void CEikCommandButtonBase::Reserved_4(void)
	?Reserved_MtsmObject@CEikButtonGroupContainer@@UAEXXZ @ 881 NONAME ; void CEikButtonGroupContainer::Reserved_MtsmObject(void)
	?Reserved_MtsmPosition@CEikButtonGroupContainer@@UAEXXZ @ 882 NONAME ; void CEikButtonGroupContainer::Reserved_MtsmPosition(void)
	?Reset@CEikControlGroup@@QAEXXZ @ 883 NONAME ; void CEikControlGroup::Reset(void)
	?Reset@CEikHotKeyTable@@QAEXXZ @ 884 NONAME ; void CEikHotKeyTable::Reset(void)
	?Reset@CEikListBox@@QAEXXZ @ 885 NONAME ; void CEikListBox::Reset(void)
	?Reset@CEikMenuPane@@QAEXXZ @ 886 NONAME ; void CEikMenuPane::Reset(void)
	?ResetGc@CListItemDrawer@@MBEXXZ @ 887 NONAME ; void CListItemDrawer::ResetGc(void) const
	?ResetGc@CTextListItemDrawer@@MBEXXZ @ 888 NONAME ; void CTextListItemDrawer::ResetGc(void) const
	?ResetItemEditor@CEikListBox@@QAEXXZ @ 889 NONAME ; void CEikListBox::ResetItemEditor(void)
	?ResetMinimumSize@CEikButtonPanel@@QAEXXZ @ 890 NONAME ; void CEikButtonPanel::ResetMinimumSize(void)
	?ResourceFile@CEikCoCtlLibrary@@SA?AV?$TBuf@$0BAA@@@XZ @ 891 NONAME ; class TBuf<256> CEikCoCtlLibrary::ResourceFile(void)
	?RestoreClientRectFromViewRect@CEikListBox@@MBEXAAVTRect@@@Z @ 892 NONAME ; void CEikListBox::RestoreClientRectFromViewRect(class TRect &) const
	?RestoreClientRectFromViewRect@CEikSnakingListBox@@MBEXAAVTRect@@@Z @ 893 NONAME ; void CEikSnakingListBox::RestoreClientRectFromViewRect(class TRect &) const
	?RestoreCommonListBoxPropertiesL@CEikListBox@@IAEXAAVTResourceReader@@@Z @ 894 NONAME ; void CEikListBox::RestoreCommonListBoxPropertiesL(class TResourceReader &)
	?RetrieveL@CEikConsoleScreen@@QAEPAVHBufC16@@ABVTRect@@@Z @ 895 NONAME ; class HBufC16 * CEikConsoleScreen::RetrieveL(class TRect const &)
	?Right@CEikConsoleScreen@@QAEXI@Z @ 896 NONAME ; void CEikConsoleScreen::Right(unsigned int)
	?RunCharMapDialogL@CEikEdwin@@QAEXXZ @ 897 NONAME ; void CEikEdwin::RunCharMapDialogL(void)
	?ScaleableText@CEikMenuPaneItem@@QBE?AVTPtrC16@@XZ @ 898 NONAME ; class TPtrC16 CEikMenuPaneItem::ScaleableText(void) const
	?ScreenSize@CEikConsoleScreen@@UBE?AVTSize@@XZ @ 899 NONAME ; class TSize CEikConsoleScreen::ScreenSize(void) const
	?ScrollBarBreadth@CEikScrollBar@@QBEHXZ @ 900 NONAME ; int CEikScrollBar::ScrollBarBreadth(void) const
	?ScrollBarBreadth@CEikScrollBarFrame@@QBEHW4TOrientation@CEikScrollBar@@@Z @ 901 NONAME ; int CEikScrollBarFrame::ScrollBarBreadth(enum CEikScrollBar::TOrientation) const
	?ScrollBarExists@CEikScrollBarFrame@@QBEHW4TOrientation@CEikScrollBar@@@Z @ 902 NONAME ; int CEikScrollBarFrame::ScrollBarExists(enum CEikScrollBar::TOrientation) const
	?ScrollBarFrame@CEikListBox@@QAEQAVCEikScrollBarFrame@@XZ @ 903 NONAME ; class CEikScrollBarFrame * const CEikListBox::ScrollBarFrame(void)
	?ScrollBarSetter@CEikEdwinExtension@CEikEdwin@@QAEPAVCIdle@@XZ @ 904 NONAME ; class CIdle * CEikEdwin::CEikEdwinExtension::ScrollBarSetter(void)
	?ScrollBarUseful@TEikScrollBarModel@@QBEHXZ @ 905 NONAME ; int TEikScrollBarModel::ScrollBarUseful(void) const
	?ScrollBarVisibility@CEikScrollBarFrame@@QBE?AW4TScrollBarVisibility@1@W4TOrientation@CEikScrollBar@@@Z @ 906 NONAME ; enum CEikScrollBarFrame::TScrollBarVisibility CEikScrollBarFrame::ScrollBarVisibility(enum CEikScrollBar::TOrientation) const
	?ScrollChars@CEikConsoleControl@@QAEXABVTRect@@ABVTPoint@@@Z @ 907 NONAME ; void CEikConsoleControl::ScrollChars(class TRect const &, class TPoint const &)
	?ScrollChars@CEikConsoleScreen@@QAEXABVTRect@@ABVTPoint@@@Z @ 908 NONAME ; void CEikConsoleScreen::ScrollChars(class TRect const &, class TPoint const &)
	?ScrollSpan@TAknDoubleSpanScrollBarModel@@QBEHXZ @ 909 NONAME ; int TAknDoubleSpanScrollBarModel::ScrollSpan(void) const
	?ScrollToMakeItemVisible@CEikListBox@@QBEXH@Z @ 910 NONAME ; void CEikListBox::ScrollToMakeItemVisible(int) const
	?ScrollToMakeItemVisible@CListBoxView@@UAEHH@Z @ 911 NONAME ; int CListBoxView::ScrollToMakeItemVisible(int)
	?ScrollToMakeItemVisible@CSnakingListBoxView@@UAEHH@Z @ 912 NONAME ; int CSnakingListBoxView::ScrollToMakeItemVisible(int)
	?SelectAllL@CEikEdwin@@QAEXXZ @ 913 NONAME ; void CEikEdwin::SelectAllL(void)
	?SelectCursor@CEikConsoleScreen@@QAEXXZ @ 914 NONAME ; void CEikConsoleScreen::SelectCursor(void)
	?SelectItemL@CListBoxView@@QAEXH@Z @ 915 NONAME ; void CListBoxView::SelectItemL(int)
	?SelectRangeL@CListBoxView@@IAEXHH@Z @ 916 NONAME ; void CListBoxView::SelectRangeL(int, int)
	?SelectedItem@CEikMenuBar@@QAEHXZ @ 917 NONAME ; int CEikMenuBar::SelectedItem(void)
	?SelectedItem@CEikMenuPane@@QBEHXZ @ 918 NONAME ; int CEikMenuPane::SelectedItem(void) const
	?SelectedTitle@CEikMenuBar@@QAEHXZ @ 919 NONAME ; int CEikMenuBar::SelectedTitle(void)
	?Selection@CEikConsoleScreen@@QAE?AVTRect@@XZ @ 920 NONAME ; class TRect CEikConsoleScreen::Selection(void)
	?Selection@CEikEdwin@@QBE?AVTCursorSelection@@XZ @ 921 NONAME ; class TCursorSelection CEikEdwin::Selection(void) const
	?SelectionIndexes@CEikListBox@@QBEPBV?$CArrayFix@H@@XZ @ 922 NONAME ; class CArrayFix<int> const * CEikListBox::SelectionIndexes(void) const
	?SelectionIndexes@CListBoxView@@QBEPBV?$CArrayFix@H@@XZ @ 923 NONAME ; class CArrayFix<int> const * CListBoxView::SelectionIndexes(void) const
	?SelectionLength@CEikEdwin@@QBEHXZ @ 924 NONAME ; int CEikEdwin::SelectionLength(void) const
	?SendDataOverIrL@CEikEdwin@@QAEXXZ @ 925 NONAME ; void CEikEdwin::SendDataOverIrL(void)
	?SetAdjacent@CEikBorderedControl@@UAEXH@Z @ 926 NONAME ; void CEikBorderedControl::SetAdjacent(int)
	?SetAdjustsHorizontalModel@CEikScrollBarFrame@@QAEXH@Z @ 927 NONAME ; void CEikScrollBarFrame::SetAdjustsHorizontalModel(int)
	?SetAdjustsVerticalModel@CEikScrollBarFrame@@QAEXH@Z @ 928 NONAME ; void CEikScrollBarFrame::SetAdjustsVerticalModel(int)
	?SetAknEditorAllowedInputModes@CEikEdwin@@QAEXH@Z @ 929 NONAME ; void CEikEdwin::SetAknEditorAllowedInputModes(int)
	?SetAknEditorCase@CEikEdwin@@QAEXH@Z @ 930 NONAME ; void CEikEdwin::SetAknEditorCase(int)
	?SetAknEditorCurrentCase@CEikEdwin@@QAEXH@Z @ 931 NONAME ; void CEikEdwin::SetAknEditorCurrentCase(int)
	?SetAknEditorCurrentInputMode@CEikEdwin@@QAEXH@Z @ 932 NONAME ; void CEikEdwin::SetAknEditorCurrentInputMode(int)
	?SetAknEditorFlags@CEikEdwin@@QAEXH@Z @ 933 NONAME ; void CEikEdwin::SetAknEditorFlags(int)
	?SetAknEditorInputMode@CEikEdwin@@QAEXH@Z @ 934 NONAME ; void CEikEdwin::SetAknEditorInputMode(int)
	?SetAknEditorLocalLanguage@CEikEdwin@@QAEXW4TLanguage@@@Z @ 935 NONAME ; void CEikEdwin::SetAknEditorLocalLanguage(enum TLanguage)
	?SetAknEditorNumericKeymap@CEikEdwin@@QAEXW4TAknEditorNumericKeymap@@@Z @ 936 NONAME ; void CEikEdwin::SetAknEditorNumericKeymap(enum TAknEditorNumericKeymap)
	?SetAknEditorPermittedCaseModes@CEikEdwin@@QAEXH@Z @ 937 NONAME ; void CEikEdwin::SetAknEditorPermittedCaseModes(int)
	?SetAknEditorSpecialCharacterTable@CEikEdwin@@QAEXH@Z @ 938 NONAME ; void CEikEdwin::SetAknEditorSpecialCharacterTable(int)
	?SetAlignment@CEikAlignedControl@@QAEXW4TGulAlignmentValue@@@Z @ 939 NONAME ; void CEikAlignedControl::SetAlignment(enum TGulAlignmentValue)
	?SetAlignment@CEikEdwin@@QAEXH@Z @ 940 NONAME ; void CEikEdwin::SetAlignment(int)
	?SetAllButtonsDimmed@CEikScrollBar@@QAEXH@Z @ 941 NONAME ; void CEikScrollBar::SetAllButtonsDimmed(int)
	?SetAllMarginsTo@CEikAlignedControl@@QAEXH@Z @ 942 NONAME ; void CEikAlignedControl::SetAllMarginsTo(int)
	?SetAllPrintable@CEikConsoleScreen@@QAEXI@Z @ 943 NONAME ; void CEikConsoleScreen::SetAllPrintable(unsigned int)
	?SetAllowPictures@CEikEdwin@@QAEXH@Z @ 944 NONAME ; void CEikEdwin::SetAllowPictures(int)
	?SetAllowTristate@CEikButtonBase@@IAEXXZ @ 945 NONAME ; void CEikButtonBase::SetAllowTristate(void)
	?SetAllowUndo@CEikEdwin@@QAEXH@Z @ 946 NONAME ; void CEikEdwin::SetAllowUndo(int)
	?SetAmountToFormatL@CEikEdwin@@QAEXH@Z @ 947 NONAME ; void CEikEdwin::SetAmountToFormatL(int)
	?SetAnchor@CListBoxView@@QAEXH@Z @ 948 NONAME ; void CListBoxView::SetAnchor(int)
	?SetArrowHeadScrollBar@CEikMenuPane@@QAEXH@Z @ 949 NONAME ; void CEikMenuPane::SetArrowHeadScrollBar(int)
	?SetAtt@CEikConsoleScreen@@QAEXI@Z @ 950 NONAME ; void CEikConsoleScreen::SetAtt(unsigned int)
	?SetAtt@CEikConsoleScreen@@QAEXII@Z @ 951 NONAME ; void CEikConsoleScreen::SetAtt(unsigned int, unsigned int)
	?SetAvkonWrap@CEikEdwin@@QAEXH@Z @ 952 NONAME ; void CEikEdwin::SetAvkonWrap(int)
	?SetBackColor@CListBoxView@@QAEXVTRgb@@@Z @ 953 NONAME ; void CListBoxView::SetBackColor(class TRgb)
	?SetBackgroundColorL@CEikEdwin@@QAEXVTRgb@@@Z @ 954 NONAME ; void CEikEdwin::SetBackgroundColorL(class TRgb)
	?SetBehavior@CEikButtonBase@@QAEXW4TButtonBehavior@@@Z @ 955 NONAME ; void CEikButtonBase::SetBehavior(enum TButtonBehavior)
	?SetBitmap@CEikImage@@QAEXPBVCFbsBitmap@@@Z @ 956 NONAME ; void CEikImage::SetBitmap(class CFbsBitmap const *)
	?SetBitmapsOwnedExternally@CEikMenuBarTitle@@QAEXH@Z @ 957 NONAME ; void CEikMenuBarTitle::SetBitmapsOwnedExternally(int)
	?SetBitmapsOwnedExternally@CEikMenuPaneItem@@QAEXH@Z @ 958 NONAME ; void CEikMenuPaneItem::SetBitmapsOwnedExternally(int)
	?SetBorder@CEikBorderedControl@@QAEXH@Z @ 959 NONAME ; void CEikBorderedControl::SetBorder(int)
	?SetBorder@CEikBorderedControl@@QAEXW4TBorderType@TGulBorder@@@Z @ 960 NONAME ; void CEikBorderedControl::SetBorder(enum TGulBorder::TBorderType)
	?SetBorderViewMargins@CEikEdwin@@QAEXVTMargins8@@@Z @ 961 NONAME ; void CEikEdwin::SetBorderViewMargins(class TMargins8)
	?SetBoundingRect@CEikButtonGroupContainer@@QAEXABVTRect@@@Z @ 962 NONAME ; void CEikButtonGroupContainer::SetBoundingRect(class TRect const &)
	?SetBoundingRect@CEikToolBar@@UAEXABVTRect@@@Z @ 963 NONAME ; void CEikToolBar::SetBoundingRect(class TRect const &)
	?SetBreadthInPixels@CEikControlGroup@@QAEXH@Z @ 964 NONAME ; void CEikControlGroup::SetBreadthInPixels(int)
	?SetBrushStyle@CEikImage@@QAEXW4TBrushStyle@CGraphicsContext@@@Z @ 965 NONAME ; void CEikImage::SetBrushStyle(enum CGraphicsContext::TBrushStyle)
	?SetBrushStyle@CEikLabel@@QAEXW4TBrushStyle@CGraphicsContext@@@Z @ 966 NONAME ; void CEikLabel::SetBrushStyle(enum CGraphicsContext::TBrushStyle)
	?SetBrushStyleFromContext@CEikLabel@@QAEXXZ @ 967 NONAME ; void CEikLabel::SetBrushStyleFromContext(void)
	?SetBufferReserveLengthL@CEikLabel@@QAEXH@Z @ 968 NONAME ; void CEikLabel::SetBufferReserveLengthL(int)
	?SetButtonGroupFlags@CEikCba@@QAEXH@Z @ 969 NONAME ; void CEikCba::SetButtonGroupFlags(int)
	?SetButtonLayout@CEikCommandButton@@QAEXW4TLayout@1@@Z @ 970 NONAME ; void CEikCommandButton::SetButtonLayout(enum CEikCommandButton::TLayout)
	?SetButtonLayout@CEikCommandButtonBase@@QAEXW4TLayout@1@@Z @ 971 NONAME ; void CEikCommandButtonBase::SetButtonLayout(enum CEikCommandButtonBase::TLayout)
	?SetButtonPositionL@CEikScrollBar@@MAEXPAVCAknScrollButton@@@Z @ 972 NONAME ; void CEikScrollBar::SetButtonPositionL(class CAknScrollButton *)
	?SetButtonStateOn@CEikToolBar@@QAEXHH@Z @ 973 NONAME ; void CEikToolBar::SetButtonStateOn(int, int)
	?SetCba@CAknEdwinState@@QAEXXZ @ 974 NONAME ; void CAknEdwinState::SetCba(void)
	?SetCellWidthInChars@CTextListItemDrawer@@QAEXH@Z @ 975 NONAME ; void CTextListItemDrawer::SetCellWidthInChars(int)
	?SetCharFormatLayer@CEikEdwin@@QAEXPAVCCharFormatLayer@@@Z @ 976 NONAME ; void CEikEdwin::SetCharFormatLayer(class CCharFormatLayer *)
	?SetChosenButton@TEikButtonCoordinator@@QAEXPAVCEikButtonBase@@@Z @ 977 NONAME ; void TEikButtonCoordinator::SetChosenButton(class CEikButtonBase *)
	?SetClientMargin@TEikScrollBarFrameLayout@@QAEXH@Z @ 978 NONAME ; void TEikScrollBarFrameLayout::SetClientMargin(int)
	?SetColumnWidth@CEikSnakingListBox@@QAEXH@Z @ 979 NONAME ; void CEikSnakingListBox::SetColumnWidth(int)
	?SetColumnWidth@CSnakingListBoxView@@QAEXH@Z @ 980 NONAME ; void CSnakingListBoxView::SetColumnWidth(int)
	?SetCommandL@CEikCommandButton@@QAEXHPBVTDesC16@@PBVCFbsBitmap@@1@Z @ 981 NONAME ; void CEikCommandButton::SetCommandL(int, class TDesC16 const *, class CFbsBitmap const *, class CFbsBitmap const *)
	?SetCommandObserver@CEikButtonPanel@@QAEXPAVMEikCommandObserver@@@Z @ 982 NONAME ; void CEikButtonPanel::SetCommandObserver(class MEikCommandObserver *)
	?SetCommandObserver@CEikToolBar@@QAEXPAVMEikCommandObserver@@@Z @ 983 NONAME ; void CEikToolBar::SetCommandObserver(class MEikCommandObserver *)
	?SetCommandSetL@CEikButtonGroupContainer@@QAEXH@Z @ 984 NONAME ; void CEikButtonGroupContainer::SetCommandSetL(int)
	?SetConsWin@CEikConsoleScreen@@QAEXPAVCEikConsoleControl@@@Z @ 985 NONAME ; void CEikConsoleScreen::SetConsWin(class CEikConsoleControl *)
	?SetContainerWindowL@CEikCommandButtonBase@@UAEXABVCCoeControl@@@Z @ 986 NONAME ; void CEikCommandButtonBase::SetContainerWindowL(class CCoeControl const &)
	?SetContainerWindowL@CEikEdwin@@QAEXXZ @ 987 NONAME ; void CEikEdwin::SetContainerWindowL(void)
	?SetContainerWindowL@CEikEdwin@@UAEXABVCCoeControl@@@Z @ 988 NONAME ; void CEikEdwin::SetContainerWindowL(class CCoeControl const &)
	?SetContainerWindowL@CEikLabeledButton@@UAEXABVCCoeControl@@@Z @ 989 NONAME ; void CEikLabeledButton::SetContainerWindowL(class CCoeControl const &)
	?SetContainerWindowL@CEikListBox@@UAEXABVCCoeControl@@@Z @ 990 NONAME ; void CEikListBox::SetContainerWindowL(class CCoeControl const &)
	?SetContainingCba@CEikScrollBar@@QAEXPAVCEikCba@@@Z @ 991 NONAME ; void CEikScrollBar::SetContainingCba(class CEikCba *)
	?SetControlLayout@CEikControlGroup@@QAEXW4TStartCorner@1@W4TOrientation@1@@Z @ 992 NONAME ; void CEikControlGroup::SetControlLayout(enum CEikControlGroup::TStartCorner, enum CEikControlGroup::TOrientation)
	?SetControlSpacing@CEikControlGroup@@QAEXHH@Z @ 993 NONAME ; void CEikControlGroup::SetControlSpacing(int, int)
	?SetControlsAllSameSize@CEikControlGroup@@QAEXXZ @ 994 NONAME ; void CEikControlGroup::SetControlsAllSameSize(void)
	?SetCoordinator@CEikButtonBase@@QAEXPAVTEikButtonCoordinator@@@Z @ 995 NONAME ; void CEikButtonBase::SetCoordinator(class TEikButtonCoordinator *)
	?SetCurrentCase@CAknEdwinState@@QAEXH@Z @ 996 NONAME ; void CAknEdwinState::SetCurrentCase(int)
	?SetCurrentCase@TAknEditorCaseState@@QAEXI@Z @ 997 NONAME ; void TAknEditorCaseState::SetCurrentCase(unsigned int)
	?SetCurrentCaseWithNoInitialisation@CAknEdwinState@@AAEXH@Z @ 998 NONAME ; void CAknEdwinState::SetCurrentCaseWithNoInitialisation(int)
	?SetCurrentInputMode@CAknEdwinState@@QAEXH@Z @ 999 NONAME ; void CAknEdwinState::SetCurrentInputMode(int)
	?SetCurrentItemIndex@CEikListBox@@QBEXH@Z @ 1000 NONAME ; void CEikListBox::SetCurrentItemIndex(int) const
	?SetCurrentItemIndex@CListBoxView@@QAEXH@Z @ 1001 NONAME ; void CListBoxView::SetCurrentItemIndex(int)
	?SetCurrentItemIndexAndDraw@CEikListBox@@QBEXH@Z @ 1002 NONAME ; void CEikListBox::SetCurrentItemIndexAndDraw(int) const
	?SetCursorHeight@CEikConsoleControl@@QAEXI@Z @ 1003 NONAME ; void CEikConsoleControl::SetCursorHeight(unsigned int)
	?SetCursorHeight@CEikConsoleScreen@@UAEXH@Z @ 1004 NONAME ; void CEikConsoleScreen::SetCursorHeight(int)
	?SetCursorPosAbs@CEikConsoleScreen@@UAEXABVTPoint@@@Z @ 1005 NONAME ; void CEikConsoleScreen::SetCursorPosAbs(class TPoint const &)
	?SetCursorPosL@CEikEdwin@@QAEXHH@Z @ 1006 NONAME ; void CEikEdwin::SetCursorPosL(int, int)
	?SetCursorPosRel@CEikConsoleScreen@@UAEXABVTPoint@@@Z @ 1007 NONAME ; void CEikConsoleScreen::SetCursorPosRel(class TPoint const &)
	?SetData@CListItemDrawer@@QAEXPAVCListBoxData@@@Z @ 1008 NONAME ; void CListItemDrawer::SetData(class CListBoxData *)
	?SetDecreaseButtonsDimmed@CEikScrollBar@@QAEXH@Z @ 1009 NONAME ; void CEikScrollBar::SetDecreaseButtonsDimmed(int)
	?SetDefault@CEikCommandButtonBase@@QAEXH@Z @ 1010 NONAME ; void CEikCommandButtonBase::SetDefault(int)
	?SetDefaultCase@CAknEdwinState@@QAEXH@Z @ 1011 NONAME ; void CAknEdwinState::SetDefaultCase(int)
	?SetDefaultCommand@CEikButtonGroupContainer@@QAEXH@Z @ 1012 NONAME ; void CEikButtonGroupContainer::SetDefaultCommand(int)
	?SetDefaultInputMode@CAknEdwinState@@QAEXH@Z @ 1013 NONAME ; void CAknEdwinState::SetDefaultInputMode(int)
	?SetDefaultLanguage@CAknEdwinState@@QAEXH@Z @ 1014 NONAME ; void CAknEdwinState::SetDefaultLanguage(int)
	?SetDimmed@CEikCommandButtonBase@@UAEXH@Z @ 1015 NONAME ; void CEikCommandButtonBase::SetDimmed(int)
	?SetDimmed@CEikEdwin@@UAEXH@Z @ 1016 NONAME ; void CEikEdwin::SetDimmed(int)
	?SetDimmed@CEikLabeledButton@@UAEXH@Z @ 1017 NONAME ; void CEikLabeledButton::SetDimmed(int)
	?SetDimmed@CEikListBox@@UAEXH@Z @ 1018 NONAME ; void CEikListBox::SetDimmed(int)
	?SetDimmed@CEikStatusPane@@UAEXH@Z @ 1019 NONAME ; void CEikStatusPane::SetDimmed(int)
	?SetDimmed@CEikStatusPaneBase@@UAEXH@Z @ 1020 NONAME ; void CEikStatusPaneBase::SetDimmed(int)
	?SetDimmed@CEikToolBar@@UAEXH@Z @ 1021 NONAME ; void CEikToolBar::SetDimmed(int)
	?SetDimmed@CListBoxView@@QAEXH@Z @ 1022 NONAME ; void CListBoxView::SetDimmed(int)
	?SetDisableRedraw@CListBoxView@@QAEXH@Z @ 1023 NONAME ; void CListBoxView::SetDisableRedraw(int)
	?SetDisplayContent@CEikCommandButton@@QAEXW4TDisplayContent@1@@Z @ 1024 NONAME ; void CEikCommandButton::SetDisplayContent(enum CEikCommandButton::TDisplayContent)
	?SetDisplayContent@CEikCommandButtonBase@@QAEXW4TDisplayContent@1@@Z @ 1025 NONAME ; void CEikCommandButtonBase::SetDisplayContent(enum CEikCommandButtonBase::TDisplayContent)
	?SetDocumentContentL@CEikEdwin@@QAEXAAVCGlobalText@@W4TSetContent@1@@Z @ 1026 NONAME ; void CEikEdwin::SetDocumentContentL(class CGlobalText &, enum CEikEdwin::TSetContent)
	?SetDocumentOwnership@CEikEdwin@@QAEXW4TOwnershipType@1@@Z @ 1027 NONAME ; void CEikEdwin::SetDocumentOwnership(enum CEikEdwin::TOwnershipType)
	?SetDrawMark@CListItemDrawer@@QAEXH@Z @ 1028 NONAME ; void CListItemDrawer::SetDrawMark(int)
	?SetEditMenuObserver@CEikMenuBar@@QAEXPAVMEikMenuObserver@@@Z @ 1029 NONAME ; void CEikMenuBar::SetEditMenuObserver(class MEikMenuObserver *)
	?SetEdwin@CAknEdwinFormAccessor@@QAEXPAVCEikEdwin@@@Z @ 1030 NONAME ; void CAknEdwinFormAccessor::SetEdwin(class CEikEdwin *)
	?SetEdwinObserver@CEikEdwin@@QAEXPAVMEikEdwinObserver@@@Z @ 1031 NONAME ; void CEikEdwin::SetEdwinObserver(class MEikEdwinObserver *)
	?SetEdwinSizeObserver@CEikEdwin@@QAEXPAVMEikEdwinSizeObserver@@@Z @ 1032 NONAME ; void CEikEdwin::SetEdwinSizeObserver(class MEikEdwinSizeObserver *)
	?SetEmphasis@CEikImage@@QAEXH@Z @ 1033 NONAME ; void CEikImage::SetEmphasis(int)
	?SetEmphasis@CEikLabel@@QAEXW4TTextEmphasis@1@@Z @ 1034 NONAME ; void CEikLabel::SetEmphasis(enum CEikLabel::TTextEmphasis)
	?SetEmphasis@CEikMenuButton@@EAEXPAVCCoeControl@@H@Z @ 1035 NONAME ; void CEikMenuButton::SetEmphasis(class CCoeControl *, int)
	?SetEmphasized@CListBoxView@@QAEXH@Z @ 1036 NONAME ; void CListBoxView::SetEmphasized(int)
	?SetExcessSpace@CEikCommandButton@@QAEXW4TExcess@1@@Z @ 1037 NONAME ; void CEikCommandButton::SetExcessSpace(enum CEikCommandButton::TExcess)
	?SetExcessSpace@CEikCommandButtonBase@@QAEXW4TExcess@1@@Z @ 1038 NONAME ; void CEikCommandButtonBase::SetExcessSpace(enum CEikCommandButtonBase::TExcess)
	?SetFaded@CEikStatusPane@@UAEXH@Z @ 1039 NONAME ; void CEikStatusPane::SetFaded(int)
	?SetFaded@CEikStatusPaneBase@@UAEXH@Z @ 1040 NONAME ; void CEikStatusPaneBase::SetFaded(int)
	?SetFieldPosition@TAknDoubleSpanScrollBarModel@@QAEXH@Z @ 1041 NONAME ; void TAknDoubleSpanScrollBarModel::SetFieldPosition(int)
	?SetFieldSize@TAknDoubleSpanScrollBarModel@@QAEXH@Z @ 1042 NONAME ; void TAknDoubleSpanScrollBarModel::SetFieldSize(int)
	?SetFixedLayoutRect@CAknDoubleSpanScrollBar@@QAEXVTRect@@@Z @ 1043 NONAME ; void CAknDoubleSpanScrollBar::SetFixedLayoutRect(class TRect)
	?SetFlag@TAknEditorCaseState@@QAEXW4TCaseStateFlags@1@@Z @ 1044 NONAME ; void TAknEditorCaseState::SetFlag(enum TAknEditorCaseState::TCaseStateFlags)
	?SetFlags@CAknEdwinState@@QAEXH@Z @ 1045 NONAME ; void CAknEdwinState::SetFlags(int)
	?SetFlags@CEikStatusPaneBase@@QAEXH@Z @ 1046 NONAME ; void CEikStatusPaneBase::SetFlags(int)
	?SetFlags@CListItemDrawer@@QAEXH@Z @ 1047 NONAME ; void CListItemDrawer::SetFlags(int)
	?SetFocusPosToThumbPos@CEikScrollBar@@QAEXH@Z @ 1048 NONAME ; void CEikScrollBar::SetFocusPosToThumbPos(int)
	?SetFocusPosition@TAknDoubleSpanScrollBarModel@@QAEXH@Z @ 1049 NONAME ; void TAknDoubleSpanScrollBarModel::SetFocusPosition(int)
	?SetFont@CEikLabel@@QAEXPBVCFont@@@Z @ 1050 NONAME ; void CEikLabel::SetFont(class CFont const *)
	?SetFont@CEikListBoxTextEditor@@QAEXPBVCFont@@@Z @ 1051 NONAME ; void CEikListBoxTextEditor::SetFont(class CFont const *)
	?SetFont@CTextListItemDrawer@@QAEXPBVCFont@@@Z @ 1052 NONAME ; void CTextListItemDrawer::SetFont(class CFont const *)
	?SetFontHeight@CListBoxData@@QAEHH@Z @ 1053 NONAME ; int CListBoxData::SetFontHeight(int)
	?SetFontL@CEikConsoleControl@@QAEXABVTFontSpec@@PBVCFbsFont@@@Z @ 1054 NONAME ; void CEikConsoleControl::SetFontL(class TFontSpec const &, class CFbsFont const *)
	?SetFontL@CEikConsoleScreen@@QAEXABVTFontSpec@@@Z @ 1055 NONAME ; void CEikConsoleScreen::SetFontL(class TFontSpec const &)
	?SetFontStyle@CFontsWithStyle@CListBoxData@@QAEXVTFontStyle@@@Z @ 1056 NONAME ; void CListBoxData::CFontsWithStyle::SetFontStyle(class TFontStyle)
	?SetFormAccessor@CAknEdwinState@@QAEXPAVCAknEdwinFormAccessor@@@Z @ 1057 NONAME ; void CAknEdwinState::SetFormAccessor(class CAknEdwinFormAccessor *)
	?SetFormAccessor@CEikEdwinExtension@CEikEdwin@@QAEXPAVCAknEdwinFormAccessor@@@Z @ 1058 NONAME ; void CEikEdwin::CEikEdwinExtension::SetFormAccessor(class CAknEdwinFormAccessor *)
	?SetGc@CListItemDrawer@@UAEXPAVCWindowGc@@@Z @ 1059 NONAME ; void CListItemDrawer::SetGc(class CWindowGc *)
	?SetGc@CTextListItemDrawer@@UAEXPAVCWindowGc@@@Z @ 1060 NONAME ; void CTextListItemDrawer::SetGc(class CWindowGc *)
	?SetHScrollOffset@CListBoxView@@QAEXH@Z @ 1061 NONAME ; void CListBoxView::SetHScrollOffset(int)
	?SetHistorySizeL@CEikConsoleScreen@@QAEXII@Z @ 1062 NONAME ; void CEikConsoleScreen::SetHistorySizeL(unsigned int, unsigned int)
	?SetHorizontal@CEikButtonPanel@@QAEXXZ @ 1063 NONAME ; void CEikButtonPanel::SetHorizontal(void)
	?SetHorizontalMargin@CEikListBox@@IAEXH@Z @ 1064 NONAME ; void CEikListBox::SetHorizontalMargin(int)
	?SetHotKeyTable@CEikMenuBar@@QAEPAVCEikHotKeyTable@@PAV2@@Z @ 1065 NONAME ; class CEikHotKeyTable * CEikMenuBar::SetHotKeyTable(class CEikHotKeyTable *)
	?SetIcon@CEikMenuBarTitle@@QAEXPAVCGulIcon@@@Z @ 1066 NONAME ; void CEikMenuBarTitle::SetIcon(class CGulIcon *)
	?SetIcon@CEikMenuPaneItem@@QAEXPAVCGulIcon@@@Z @ 1067 NONAME ; void CEikMenuPaneItem::SetIcon(class CGulIcon *)
	?SetIconBitmapL@CEikMenuBarTitle@@QAEXPAVCFbsBitmap@@@Z @ 1068 NONAME ; void CEikMenuBarTitle::SetIconBitmapL(class CFbsBitmap *)
	?SetIconBitmapL@CEikMenuPaneItem@@QAEXPAVCFbsBitmap@@@Z @ 1069 NONAME ; void CEikMenuPaneItem::SetIconBitmapL(class CFbsBitmap *)
	?SetIconMaskL@CEikMenuBarTitle@@QAEXPAVCFbsBitmap@@@Z @ 1070 NONAME ; void CEikMenuBarTitle::SetIconMaskL(class CFbsBitmap *)
	?SetIconMaskL@CEikMenuPaneItem@@QAEXPAVCFbsBitmap@@@Z @ 1071 NONAME ; void CEikMenuPaneItem::SetIconMaskL(class CFbsBitmap *)
	?SetIgnoreNextPointerUp@CEikButtonBase@@QAEXXZ @ 1072 NONAME ; void CEikButtonBase::SetIgnoreNextPointerUp(void)
	?SetImage@EikSoftkeyImage@@SAXPAVCEikButtonGroupContainer@@AAVCEikImage@@H@Z @ 1073 NONAME ; void EikSoftkeyImage::SetImage(class CEikButtonGroupContainer *, class CEikImage &, int)
	?SetInclusiveMargin@TEikScrollBarFrameLayout@@QAEXH@Z @ 1074 NONAME ; void TEikScrollBarFrameLayout::SetInclusiveMargin(int)
	?SetIncreaseButtonsDimmed@CEikScrollBar@@QAEXH@Z @ 1075 NONAME ; void CEikScrollBar::SetIncreaseButtonsDimmed(int)
	?SetInlineEditSpan@CAknEdwinState@@QAEXVTCursorSelection@@@Z @ 1076 NONAME ; void CAknEdwinState::SetInlineEditSpan(class TCursorSelection)
	?SetInputCapabilitiesL@CEikEdwin@@QAEXABVTCoeInputCapabilities@@@Z @ 1077 NONAME ; void CEikEdwin::SetInputCapabilitiesL(class TCoeInputCapabilities const &)
	?SetItemArray@CEikMenuPane@@QAEXPAVCItemArray@1@@Z @ 1078 NONAME ; void CEikMenuPane::SetItemArray(class CEikMenuPane::CItemArray *)
	?SetItemArrayOwnedExternally@CEikMenuPane@@QAEXH@Z @ 1079 NONAME ; void CEikMenuPane::SetItemArrayOwnedExternally(int)
	?SetItemButtonState@CEikMenuPane@@QAEXHH@Z @ 1080 NONAME ; void CEikMenuPane::SetItemButtonState(int, int)
	?SetItemCellSize@CListItemDrawer@@UAEXABVTSize@@@Z @ 1081 NONAME ; void CListItemDrawer::SetItemCellSize(class TSize const &)
	?SetItemDimmed@CEikMenuPane@@QAEXHH@Z @ 1082 NONAME ; void CEikMenuPane::SetItemDimmed(int, int)
	?SetItemEditor@CEikListBox@@QAEXPAVMEikListBoxEditor@@@Z @ 1083 NONAME ; void CEikListBox::SetItemEditor(class MEikListBoxEditor *)
	?SetItemHeight@CListBoxView@@UAEXH@Z @ 1084 NONAME ; void CListBoxView::SetItemHeight(int)
	?SetItemHeight@CSnakingListBoxView@@UAEXH@Z @ 1085 NONAME ; void CSnakingListBoxView::SetItemHeight(int)
	?SetItemHeightL@CEikListBox@@UAEXH@Z @ 1086 NONAME ; void CEikListBox::SetItemHeightL(int)
	?SetItemTextArray@CTextListBoxModel@@QAEXPAVMDesC16Array@@@Z @ 1087 NONAME ; void CTextListBoxModel::SetItemTextArray(class MDesC16Array *)
	?SetItemTextL@CEikMenuPane@@QAEXHABVTDesC16@@@Z @ 1088 NONAME ; void CEikMenuPane::SetItemTextL(int, class TDesC16 const &)
	?SetItemTextL@CEikMenuPane@@QAEXHH@Z @ 1089 NONAME ; void CEikMenuPane::SetItemTextL(int, int)
	?SetKeepCursorInSight@CEikConsoleScreen@@QAEXI@Z @ 1090 NONAME ; void CEikConsoleScreen::SetKeepCursorInSight(unsigned int)
	?SetLabel@EikSoftkeyImage@@SAXPAVCEikButtonGroupContainer@@H@Z @ 1091 NONAME ; void EikSoftkeyImage::SetLabel(class CEikButtonGroupContainer *, int)
	?SetLabelAlignment@CEikLabel@@QAEXH@Z @ 1092 NONAME ; void CEikLabel::SetLabelAlignment(int)
	?SetLaunchingButton@CEikListBox@@QAEXPAVCEikButtonBase@@@Z @ 1093 NONAME ; void CEikListBox::SetLaunchingButton(class CEikButtonBase *)
	?SetLaunchingButton@CEikMenuPane@@QAEXPAVCEikButtonBase@@@Z @ 1094 NONAME ; void CEikMenuPane::SetLaunchingButton(class CEikButtonBase *)
	?SetLayoutL@CEikStatusPaneModelBase@@UAEXHH@Z @ 1095 NONAME ; void CEikStatusPaneModelBase::SetLayoutL(int, int)
	?SetLengthAndModelL@CEikScrollBar@@QAEXHPBVTEikScrollBarModel@@@Z @ 1096 NONAME ; void CEikScrollBar::SetLengthAndModelL(int, class TEikScrollBarModel const *)
	?SetLengthInPixels@CEikControlGroup@@QAEXH@Z @ 1097 NONAME ; void CEikControlGroup::SetLengthInPixels(int)
	?SetLengthL@CEikScrollBar@@QAEXH@Z @ 1098 NONAME ; void CEikScrollBar::SetLengthL(int)
	?SetLineCursorDetailsL@CEikEdwin@@IAEXXZ @ 1099 NONAME ; void CEikEdwin::SetLineCursorDetailsL(void)
	?SetListBoxEditorObserver@CEikListBoxTextEditor@@QAEXPAVMListBoxEditorObserver@@@Z @ 1100 NONAME ; void CEikListBoxTextEditor::SetListBoxEditorObserver(class MListBoxEditorObserver *)
	?SetListBoxObserver@CEikListBox@@QAEXPAVMEikListBoxObserver@@@Z @ 1101 NONAME ; void CEikListBox::SetListBoxObserver(class MEikListBoxObserver *)
	?SetListEmptyTextL@CListBoxView@@QAEXABVTDesC16@@@Z @ 1102 NONAME ; void CListBoxView::SetListEmptyTextL(class TDesC16 const &)
	?SetLocalLanguage@CAknEdwinState@@QAEXW4TLanguage@@@Z @ 1103 NONAME ; void CAknEdwinState::SetLocalLanguage(enum TLanguage)
	?SetMarkColumnWidth@CListItemDrawer@@UAEXH@Z @ 1104 NONAME ; void CListItemDrawer::SetMarkColumnWidth(int)
	?SetMarkGutter@CListItemDrawer@@UAEXH@Z @ 1105 NONAME ; void CListItemDrawer::SetMarkGutter(int)
	?SetMask@CEikImage@@QAEXPBVCFbsBitmap@@@Z @ 1106 NONAME ; void CEikImage::SetMask(class CFbsBitmap const *)
	?SetMatcherCursor@CListBoxView@@QAEXH@Z @ 1107 NONAME ; void CListBoxView::SetMatcherCursor(int)
	?SetMatcherCursorColor@CListBoxView@@QAEXVTRgb@@@Z @ 1108 NONAME ; void CListBoxView::SetMatcherCursorColor(class TRgb)
	?SetMatcherCursorPos@CListBoxView@@QAEXH@Z @ 1109 NONAME ; void CListBoxView::SetMatcherCursorPos(int)
	?SetMaximumHeight@CEikEdwin@@QAEXH@Z @ 1110 NONAME ; void CEikEdwin::SetMaximumHeight(int)
	?SetMaximumHeightInLines@CEikEdwin@@QAEXH@Z @ 1111 NONAME ; void CEikEdwin::SetMaximumHeightInLines(int)
	?SetMenu@CAknEdwinState@@QAEXXZ @ 1112 NONAME ; void CAknEdwinState::SetMenu(void)
	?SetMenuCursor@CEikMenuBar@@QAE?AUSCursor@1@ABU21@@Z @ 1113 NONAME ; struct CEikMenuBar::SCursor CEikMenuBar::SetMenuCursor(struct CEikMenuBar::SCursor const &)
	?SetMenuPaneId@CEikMenuButton@@QAEXH@Z @ 1114 NONAME ; void CEikMenuButton::SetMenuPaneId(int)
	?SetMenuTitleArray@CEikMenuBar@@QAEXPAVCTitleArray@1@@Z @ 1115 NONAME ; void CEikMenuBar::SetMenuTitleArray(class CEikMenuBar::CTitleArray *)
	?SetMenuTitleResourceId@CEikMenuBar@@QAEXH@Z @ 1116 NONAME ; void CEikMenuBar::SetMenuTitleResourceId(int)
	?SetMinButtonWidth@CEikButtonPanel@@QAEXH@Z @ 1117 NONAME ; void CEikButtonPanel::SetMinButtonWidth(int)
	?SetMinimumHeight@CEikEdwin@@QAEXH@Z @ 1118 NONAME ; void CEikEdwin::SetMinimumHeight(int)
	?SetModel@CEikScrollBar@@QAEXPBVTEikScrollBarModel@@@Z @ 1119 NONAME ; void CEikScrollBar::SetModel(class TEikScrollBarModel const *)
	?SetModelL@CEikScrollBar@@QAEXPBVTEikScrollBarModel@@@Z @ 1120 NONAME ; void CEikScrollBar::SetModelL(class TEikScrollBarModel const *)
	?SetModelThumbPosition@CEikScrollBar@@QAEXH@Z @ 1121 NONAME ; void CEikScrollBar::SetModelThumbPosition(int)
	?SetNewBitmaps@CEikImage@@QAEXPBVCFbsBitmap@@0@Z @ 1122 NONAME ; void CEikImage::SetNewBitmaps(class CFbsBitmap const *, class CFbsBitmap const *)
	?SetNonPrintingCharsVisibility@CEikEdwin@@QAEXVTNonPrintingCharVisibility@@@Z @ 1123 NONAME ; void CEikEdwin::SetNonPrintingCharsVisibility(class TNonPrintingCharVisibility)
	?SetNumberOfLines@CEikControlGroup@@QAEXHH@Z @ 1124 NONAME ; void CEikControlGroup::SetNumberOfLines(int, int)
	?SetNumericKeymap@CAknEdwinState@@QAEXW4TAknEditorNumericKeymap@@@Z @ 1125 NONAME ; void CAknEdwinState::SetNumericKeymap(enum TAknEditorNumericKeymap)
	?SetObjectProvider@CAknEdwinState@@QAEXPAVMObjectProvider@@@Z @ 1126 NONAME ; void CAknEdwinState::SetObjectProvider(class MObjectProvider *)
	?SetObserver@CAknEdwinState@@QAEXPAVMAknEdStateObserver@@@Z @ 1127 NONAME ; void CAknEdwinState::SetObserver(class MAknEdStateObserver *)
	?SetOnlyASCIIChars@CEikEdwin@@QAEXH@Z @ 1128 NONAME ; void CEikEdwin::SetOnlyASCIIChars(int)
	?SetOwnershipType@CTextListBoxModel@@QAEXW4TListBoxModelItemArrayOwnership@@@Z @ 1129 NONAME ; void CTextListBoxModel::SetOwnershipType(enum TListBoxModelItemArrayOwnership)
	?SetPaintedSelection@CListBoxView@@QAEXH@Z @ 1130 NONAME ; void CListBoxView::SetPaintedSelection(int)
	?SetParaFormatLayer@CEikEdwin@@QAEXPAVCParaFormatLayer@@@Z @ 1131 NONAME ; void CEikEdwin::SetParaFormatLayer(class CParaFormatLayer *)
	?SetPasteFromIrStore@CEikEdwin@@QAEXH@Z @ 1132 NONAME ; void CEikEdwin::SetPasteFromIrStore(int)
	?SetPermittedCases@CAknEdwinState@@QAEXH@Z @ 1133 NONAME ; void CAknEdwinState::SetPermittedCases(int)
	?SetPermittedInputModes@CAknEdwinState@@QAEXH@Z @ 1134 NONAME ; void CAknEdwinState::SetPermittedInputModes(int)
	?SetPictographAnimationCallBack@CEikEdwin@@QAEXAAVTCallBack@@@Z @ 1135 NONAME ; void CEikEdwin::SetPictographAnimationCallBack(class TCallBack &)
	?SetPicture@CEikImage@@QAEXPBVCFbsBitmap@@0@Z @ 1136 NONAME ; void CEikImage::SetPicture(class CFbsBitmap const *, class CFbsBitmap const *)
	?SetPictureFromFileL@CEikBitmapButton@@QAEXABVTDesC16@@HHW4TWhichComponent@CEikCommandButtonBase@@@Z @ 1137 NONAME ; void CEikBitmapButton::SetPictureFromFileL(class TDesC16 const &, int, int, enum CEikCommandButtonBase::TWhichComponent)
	?SetPictureFromFileL@CEikCommandButton@@QAEXABVTDesC16@@HH@Z @ 1138 NONAME ; void CEikCommandButton::SetPictureFromFileL(class TDesC16 const &, int, int)
	?SetPictureFromFileL@CEikCommandButtonBase@@IAEXABVTDesC16@@HHAAPAVCEikAlignedControl@@@Z @ 1139 NONAME ; void CEikCommandButtonBase::SetPictureFromFileL(class TDesC16 const &, int, int, class CEikAlignedControl * &)
	?SetPictureFromFileL@CEikTwoPictureCommandButton@@QAEXABVTDesC16@@HH@Z @ 1140 NONAME ; void CEikTwoPictureCommandButton::SetPictureFromFileL(class TDesC16 const &, int, int)
	?SetPictureL@CEikBitmapButton@@QAEXPBVCFbsBitmap@@0W4TWhichComponent@CEikCommandButtonBase@@@Z @ 1141 NONAME ; void CEikBitmapButton::SetPictureL(class CFbsBitmap const *, class CFbsBitmap const *, enum CEikCommandButtonBase::TWhichComponent)
	?SetPictureL@CEikCommandButton@@QAEXPBVCFbsBitmap@@0@Z @ 1142 NONAME ; void CEikCommandButton::SetPictureL(class CFbsBitmap const *, class CFbsBitmap const *)
	?SetPictureL@CEikCommandButtonBase@@IAEXPBVCFbsBitmap@@0AAPAVCEikAlignedControl@@@Z @ 1143 NONAME ; void CEikCommandButtonBase::SetPictureL(class CFbsBitmap const *, class CFbsBitmap const *, class CEikAlignedControl * &)
	?SetPictureOwnedExternally@CEikImage@@QAEXH@Z @ 1144 NONAME ; void CEikImage::SetPictureOwnedExternally(int)
	?SetPixelGapBetweenLines@CEikLabel@@QAEXH@Z @ 1145 NONAME ; void CEikLabel::SetPixelGapBetweenLines(int)
	?SetPosition@CAknScrollButton@@QAEXHH@Z @ 1146 NONAME ; void CAknScrollButton::SetPosition(int, int)
	?SetPreviousCase@TAknEditorCaseState@@QAEXI@Z @ 1147 NONAME ; void TAknEditorCaseState::SetPreviousCase(unsigned int)
	?SetPreviousCaseUsedToEnterText@TAknEditorCaseState@@QAEXI@Z @ 1148 NONAME ; void TAknEditorCaseState::SetPreviousCaseUsedToEnterText(unsigned int)
	?SetPureCRLF@CEikConsoleScreen@@QAEXI@Z @ 1149 NONAME ; void CEikConsoleScreen::SetPureCRLF(unsigned int)
	?SetReadOnly@CEikEdwin@@QAEXH@Z @ 1150 NONAME ; void CEikEdwin::SetReadOnly(int)
	?SetReasonForFocusLostL@CEikListBox@@IAEXW4TReasonForFocusLost@1@@Z @ 1151 NONAME ; void CEikListBox::SetReasonForFocusLostL(enum CEikListBox::TReasonForFocusLost)
	?SetRedrawer@CEikConsoleControl@@QAEXPAVCEikConsoleScreen@@@Z @ 1152 NONAME ; void CEikConsoleControl::SetRedrawer(class CEikConsoleScreen *)
	?SetReportOnPointerDown@CEikButtonBase@@IAEXXZ @ 1153 NONAME ; void CEikButtonBase::SetReportOnPointerDown(void)
	?SetRightWrapGutter@CEikEdwin@@QAEXH@Z @ 1154 NONAME ; void CEikEdwin::SetRightWrapGutter(int)
	?SetScaleableTextL@CEikMenuPaneItem@@QAEXABVTDesC16@@@Z @ 1155 NONAME ; void CEikMenuPaneItem::SetScaleableTextL(class TDesC16 const &)
	?SetScrollBarFrame@CEikListBox@@QAEXPAVCEikScrollBarFrame@@W4TScrollBarOwnerShip@1@@Z @ 1156 NONAME ; void CEikListBox::SetScrollBarFrame(class CEikScrollBarFrame *, enum CEikListBox::TScrollBarOwnerShip)
	?SetScrollBarFrameObserver@CEikScrollBarFrame@@QAEXPAVMEikScrollBarObserver@@@Z @ 1157 NONAME ; void CEikScrollBarFrame::SetScrollBarFrameObserver(class MEikScrollBarObserver *)
	?SetScrollBarOnLeft@CEikMenuPane@@QAEXH@Z @ 1158 NONAME ; void CEikMenuPane::SetScrollBarOnLeft(int)
	?SetScrollBarSetter@CEikEdwinExtension@CEikEdwin@@QAEXPAVCIdle@@@Z @ 1159 NONAME ; void CEikEdwin::CEikEdwinExtension::SetScrollBarSetter(class CIdle *)
	?SetScrollBarVisibilityL@CEikConsoleControl@@QAEHW4TScrollBarVisibility@CEikScrollBarFrame@@0@Z @ 1160 NONAME ; int CEikConsoleControl::SetScrollBarVisibilityL(enum CEikScrollBarFrame::TScrollBarVisibility, enum CEikScrollBarFrame::TScrollBarVisibility)
	?SetScrollBarVisibilityL@CEikConsoleScreen@@QAEXW4TScrollBarVisibility@CEikScrollBarFrame@@0@Z @ 1161 NONAME ; void CEikConsoleScreen::SetScrollBarVisibilityL(enum CEikScrollBarFrame::TScrollBarVisibility, enum CEikScrollBarFrame::TScrollBarVisibility)
	?SetScrollBarVisibilityL@CEikScrollBarFrame@@QAEXW4TScrollBarVisibility@1@0@Z @ 1162 NONAME ; void CEikScrollBarFrame::SetScrollBarVisibilityL(enum CEikScrollBarFrame::TScrollBarVisibility, enum CEikScrollBarFrame::TScrollBarVisibility)
	?SetScrollLock@CEikConsoleScreen@@QAEXI@Z @ 1163 NONAME ; void CEikConsoleScreen::SetScrollLock(unsigned int)
	?SetScrollSpan@TAknDoubleSpanScrollBarModel@@QAEXH@Z @ 1164 NONAME ; void TAknDoubleSpanScrollBarModel::SetScrollSpan(int)
	?SetSearchStringL@CListBoxData@@QAEXPBVTDesC16@@@Z @ 1165 NONAME ; void CListBoxData::SetSearchStringL(class TDesC16 const *)
	?SetSearchStringL@CTextListItemDrawer@@QAEXPBVTDesC16@@@Z @ 1166 NONAME ; void CTextListItemDrawer::SetSearchStringL(class TDesC16 const *)
	?SetSecondPicture@CEikTwoPictureCommandButton@@QAEXPBVCFbsBitmap@@0@Z @ 1167 NONAME ; void CEikTwoPictureCommandButton::SetSecondPicture(class CFbsBitmap const *, class CFbsBitmap const *)
	?SetSecondPictureFromFileL@CEikTwoPictureCommandButton@@QAEXABVTDesC16@@HH@Z @ 1168 NONAME ; void CEikTwoPictureCommandButton::SetSecondPictureFromFileL(class TDesC16 const &, int, int)
	?SetSecondPictureOwnedExternally@CEikTwoPictureCommandButton@@QAEXH@Z @ 1169 NONAME ; void CEikTwoPictureCommandButton::SetSecondPictureOwnedExternally(int)
	?SetSelectedItem@CEikMenuPane@@QAEXH@Z @ 1170 NONAME ; void CEikMenuPane::SetSelectedItem(int)
	?SetSelectedTitle@CEikMenuPaneTitle@@QAEXH@Z @ 1171 NONAME ; void CEikMenuPaneTitle::SetSelectedTitle(int)
	?SetSelection@CEikConsoleScreen@@QAEXABVTRect@@@Z @ 1172 NONAME ; void CEikConsoleScreen::SetSelection(class TRect const &)
	?SetSelectionIndexesL@CEikListBox@@QAEXPAV?$CArrayFix@H@@@Z @ 1173 NONAME ; void CEikListBox::SetSelectionIndexesL(class CArrayFix<int> *)
	?SetSelectionIndexesL@CListBoxView@@QAEXPBV?$CArrayFix@H@@@Z @ 1174 NONAME ; void CListBoxView::SetSelectionIndexesL(class CArrayFix<int> const *)
	?SetSelectionL@CEikEdwin@@QAEXHH@Z @ 1175 NONAME ; void CEikEdwin::SetSelectionL(int, int)
	?SetShortcutValueFromPrevList@CEikListBox@@UAEXH@Z @ 1176 NONAME ; void CEikListBox::SetShortcutValueFromPrevList(int)
	?SetSkinBackgroundControlContextL@CEikEdwin@@QAEXPAVMAknsControlContext@@@Z @ 1177 NONAME ; void CEikEdwin::SetSkinBackgroundControlContextL(class MAknsControlContext *)
	?SetSkinBackgroundControlContextL@CListBoxData@@IAEXPAVMAknsControlContext@@@Z @ 1178 NONAME ; void CListBoxData::SetSkinBackgroundControlContextL(class MAknsControlContext *)
	?SetSkinBackgroundId@CEikCba@@QAEXABVTAknsItemID@@@Z @ 1179 NONAME ; void CEikCba::SetSkinBackgroundId(class TAknsItemID const &)
	?SetSkinEnabledL@CListBoxData@@IAEXH@Z @ 1180 NONAME ; void CListBoxData::SetSkinEnabledL(int)
	?SetSkinEnabledL@CListItemDrawer@@QAEXH@Z @ 1181 NONAME ; void CListItemDrawer::SetSkinEnabledL(int)
	?SetSpecialCharacterTableResourceId@CAknEdwinState@@QAEXH@Z @ 1182 NONAME ; void CAknEdwinState::SetSpecialCharacterTableResourceId(int)
	?SetState@CEikButtonBase@@QAEXW4TState@1@@Z @ 1183 NONAME ; void CEikButtonBase::SetState(enum CEikButtonBase::TState)
	?SetStrikethrough@CEikLabel@@QAEXH@Z @ 1184 NONAME ; void CEikLabel::SetStrikethrough(int)
	?SetSymbolFont@CListItemDrawer@@QAEXPBVCFont@@@Z @ 1185 NONAME ; void CListItemDrawer::SetSymbolFont(class CFont const *)
	?SetTextColor@CListBoxView@@QAEXVTRgb@@@Z @ 1186 NONAME ; void CListBoxView::SetTextColor(class TRgb)
	?SetTextL@CEikCommandButton@@QAEXABVTDesC16@@@Z @ 1187 NONAME ; void CEikCommandButton::SetTextL(class TDesC16 const &)
	?SetTextL@CEikCommandButtonBase@@IAEXABVTDesC16@@AAPAVCEikAlignedControl@@@Z @ 1188 NONAME ; void CEikCommandButtonBase::SetTextL(class TDesC16 const &, class CEikAlignedControl * &)
	?SetTextL@CEikEdwin@@QAEXPBVTDesC16@@@Z @ 1189 NONAME ; void CEikEdwin::SetTextL(class TDesC16 const *)
	?SetTextL@CEikLabel@@QAEXABVTDesC16@@@Z @ 1190 NONAME ; void CEikLabel::SetTextL(class TDesC16 const &)
	?SetTextL@CEikTextButton@@QAEXABVTDesC16@@W4TWhichComponent@CEikCommandButtonBase@@@Z @ 1191 NONAME ; void CEikTextButton::SetTextL(class TDesC16 const &, enum CEikCommandButtonBase::TWhichComponent)
	?SetTextL@CEikTwoPictureCommandButton@@QAEXABVTDesC16@@@Z @ 1192 NONAME ; void CEikTwoPictureCommandButton::SetTextL(class TDesC16 const &)
	?SetTextLimit@CEikEdwin@@QAEXH@Z @ 1193 NONAME ; void CEikEdwin::SetTextLimit(int)
	?SetTitle@CEikConsoleScreen@@UAEXABVTDesC16@@@Z @ 1194 NONAME ; void CEikConsoleScreen::SetTitle(class TDesC16 const &)
	?SetTitleArrayOwnedExternally@CEikMenuBar@@QAEXH@Z @ 1195 NONAME ; void CEikMenuBar::SetTitleArrayOwnedExternally(int)
	?SetTitleL@CEikConsoleScreen@@QAEXABVTDesC16@@@Z @ 1196 NONAME ; void CEikConsoleScreen::SetTitleL(class TDesC16 const &)
	?SetTopItemIndex@CEikListBox@@UBEXH@Z @ 1197 NONAME ; void CEikListBox::SetTopItemIndex(int) const
	?SetTopItemIndex@CEikSnakingListBox@@UBEXH@Z @ 1198 NONAME ; void CEikSnakingListBox::SetTopItemIndex(int) const
	?SetTopItemIndex@CListBoxView@@UAEXH@Z @ 1199 NONAME ; void CListBoxView::SetTopItemIndex(int)
	?SetTopItemIndex@CSnakingListBoxView@@UAEXH@Z @ 1200 NONAME ; void CSnakingListBoxView::SetTopItemIndex(int)
	?SetTwoPicturesL@CEikTwoPictureCommandButton@@QAEXPBVCFbsBitmap@@000@Z @ 1201 NONAME ; void CEikTwoPictureCommandButton::SetTwoPicturesL(class CFbsBitmap const *, class CFbsBitmap const *, class CFbsBitmap const *, class CFbsBitmap const *)
	?SetTypeOfHScrollBar@CEikScrollBarFrame@@QAEXW4TScrollBarType@1@@Z @ 1202 NONAME ; void CEikScrollBarFrame::SetTypeOfHScrollBar(enum CEikScrollBarFrame::TScrollBarType)
	?SetTypeOfScrollBarUsingButton@CAknScrollButton@@QAEXW4TTypeOfScrollBar@1@@Z @ 1203 NONAME ; void CAknScrollButton::SetTypeOfScrollBarUsingButton(enum CAknScrollButton::TTypeOfScrollBar)
	?SetTypeOfVScrollBar@CEikScrollBarFrame@@QAEXW4TScrollBarType@1@@Z @ 1204 NONAME ; void CEikScrollBarFrame::SetTypeOfVScrollBar(enum CEikScrollBarFrame::TScrollBarType)
	?SetUnderlining@CEikLabel@@QAEXH@Z @ 1205 NONAME ; void CEikLabel::SetUnderlining(int)
	?SetUndoBufferL@CEikEdwin@@QAEHABVTCursorSelection@@@Z @ 1206 NONAME ; int CEikEdwin::SetUndoBufferL(class TCursorSelection const &)
	?SetUndoableText@CEikEdwin@@QAEXABVTCursorSelection@@@Z @ 1207 NONAME ; void CEikEdwin::SetUndoableText(class TCursorSelection const &)
	?SetVFocusPosToThumbPos@CEikScrollBarFrame@@QAEXH@Z @ 1208 NONAME ; void CEikScrollBarFrame::SetVFocusPosToThumbPos(int)
	?SetVerticalInterItemGap@CListItemDrawer@@QAEXH@Z @ 1209 NONAME ; void CListItemDrawer::SetVerticalInterItemGap(int)
	?SetVerticalMargin@CEikListBox@@IAEXH@Z @ 1210 NONAME ; void CEikListBox::SetVerticalMargin(int)
	?SetViewRect@CListBoxView@@QAEXABVTRect@@@Z @ 1211 NONAME ; void CListBoxView::SetViewRect(class TRect const &)
	?SetViewRect@CListItemDrawer@@UAEXABVTRect@@@Z @ 1212 NONAME ; void CListItemDrawer::SetViewRect(class TRect const &)
	?SetViewRectFromClientRect@CEikListBox@@IAEXABVTRect@@@Z @ 1213 NONAME ; void CEikListBox::SetViewRectFromClientRect(class TRect const &)
	?SetViewRectHeightAdjustment@CEikListBox@@IAEXH@Z @ 1214 NONAME ; void CEikListBox::SetViewRectHeightAdjustment(int)
	?SetWindowSize@TAknDoubleSpanScrollBarModel@@QAEXH@Z @ 1215 NONAME ; void TAknDoubleSpanScrollBarModel::SetWindowSize(int)
	?SetWordDelimiters@CEikEdwin@@QAEXHH@Z @ 1216 NONAME ; void CEikEdwin::SetWordDelimiters(int, int)
	?SetWordWrapL@CEikEdwin@@QAEXH@Z @ 1217 NONAME ; void CEikEdwin::SetWordWrapL(int)
	?SetWysiwygModeOff@CEikEdwin@@QAEXXZ @ 1218 NONAME ; void CEikEdwin::SetWysiwygModeOff(void)
	?SetWysiwygModeOn@CEikEdwin@@QAEXHPAVMGraphicsDeviceMap@@@Z @ 1219 NONAME ; void CEikEdwin::SetWysiwygModeOn(int, class MGraphicsDeviceMap *)
	?SetZoomFactorL@CEikEdwin@@QAEXPAVTZoomFactor@@@Z @ 1220 NONAME ; void CEikEdwin::SetZoomFactorL(class TZoomFactor *)
	?SetupGc@CListBoxData@@QBEXABVTListItemProperties@@AAVCWindowGc@@@Z @ 1221 NONAME ; void CListBoxData::SetupGc(class TListItemProperties const &, class CWindowGc &) const
	?SetupGc@CListItemDrawer@@IBEXH@Z @ 1222 NONAME ; void CListItemDrawer::SetupGc(int) const
	?ShortcutValueForNextList@CEikListBox@@UAEHXZ @ 1223 NONAME ; int CEikListBox::ShortcutValueForNextList(void)
	?ShowsHotKey@CEikLabeledButton@@QBEHXZ @ 1224 NONAME ; int CEikLabeledButton::ShowsHotKey(void) const
	?SimulateArrowKeyEventL@CEikListBox@@IAEXW4TKeyCode@@@Z @ 1225 NONAME ; void CEikListBox::SimulateArrowKeyEventL(enum TKeyCode)
	?SizeChanged@CAknDoubleSpanScrollBar@@EAEXXZ @ 1226 NONAME ; void CAknDoubleSpanScrollBar::SizeChanged(void)
	?SizeChanged@CEikButtonPanel@@EAEXXZ @ 1227 NONAME ; void CEikButtonPanel::SizeChanged(void)
	?SizeChanged@CEikCommandButtonBase@@EAEXXZ @ 1228 NONAME ; void CEikCommandButtonBase::SizeChanged(void)
	?SizeChanged@CEikConsoleControl@@MAEXXZ @ 1229 NONAME ; void CEikConsoleControl::SizeChanged(void)
	?SizeChanged@CEikControlGroup@@EAEXXZ @ 1230 NONAME ; void CEikControlGroup::SizeChanged(void)
	?SizeChanged@CEikEdwin@@EAEXXZ @ 1231 NONAME ; void CEikEdwin::SizeChanged(void)
	?SizeChanged@CEikFileNameLabel@@EAEXXZ @ 1232 NONAME ; void CEikFileNameLabel::SizeChanged(void)
	?SizeChanged@CEikListBox@@MAEXXZ @ 1233 NONAME ; void CEikListBox::SizeChanged(void)
	?SizeChanged@CEikSnakingListBox@@MAEXXZ @ 1234 NONAME ; void CEikSnakingListBox::SizeChanged(void)
	?SkinBackgroundControlContext@CListBoxData@@QBEPAVMAknsControlContext@@XZ @ 1235 NONAME ; class MAknsControlContext * CListBoxData::SkinBackgroundControlContext(void) const
	?SkinBackgroundControlContext@CListItemDrawer@@QBEPAVMAknsControlContext@@XZ @ 1236 NONAME ; class MAknsControlContext * CListItemDrawer::SkinBackgroundControlContext(void) const
	?SpecialCharacterTableResourceId@CAknEdwinState@@QBEHXZ @ 1237 NONAME ; int CAknEdwinState::SpecialCharacterTableResourceId(void) const
	?StartConstructFromResourceL@CEikCommandButtonBase@@QAEXAAVTResourceReader@@@Z @ 1238 NONAME ; void CEikCommandButtonBase::StartConstructFromResourceL(class TResourceReader &)
	?StartCorner@CEikControlGroup@@ABE?AW4TStartCorner@1@XZ @ 1239 NONAME ; enum CEikControlGroup::TStartCorner CEikControlGroup::StartCorner(void) const
	?StartDisplayingMenuPane@CEikMenuPane@@QAEXPBVCEikHotKeyTable@@ABVTPoint@@PBVCEikMenuPaneTitle@@HW4TPopupTargetPosType@@@Z @ 1240 NONAME ; void CEikMenuPane::StartDisplayingMenuPane(class CEikHotKeyTable const *, class TPoint const &, class CEikMenuPaneTitle const *, int, enum TPopupTargetPosType)
	?StartEditingL@CEikListBoxTextEditor@@UAEXABVCCoeControl@@ABVTRect@@HH@Z @ 1241 NONAME ; void CEikListBoxTextEditor::StartEditingL(class CCoeControl const &, class TRect const &, int, int)
	?State@CEikButtonBase@@QBE?AW4TState@1@XZ @ 1242 NONAME ; enum CEikButtonBase::TState CEikButtonBase::State(void) const
	?StateChanged@CEikButtonBase@@EAEXXZ @ 1243 NONAME ; void CEikButtonBase::StateChanged(void)
	?StateChanged@CEikCommandButtonBase@@MAEXXZ @ 1244 NONAME ; void CEikCommandButtonBase::StateChanged(void)
	?StateChanged@CEikTwoPictureCommandButton@@EAEXXZ @ 1245 NONAME ; void CEikTwoPictureCommandButton::StateChanged(void)
	?StaticConstructL@CEikToolBar@@QAEXPAVMEikCommandObserver@@H@Z @ 1246 NONAME ; void CEikToolBar::StaticConstructL(class MEikCommandObserver *, int)
	?StopDisplayingMenuBar@CEikMenuBar@@QAEXXZ @ 1247 NONAME ; void CEikMenuBar::StopDisplayingMenuBar(void)
	?StopEditingL@CEikListBox@@QAEXH@Z @ 1248 NONAME ; void CEikListBox::StopEditingL(int)
	?StopEditingL@CEikListBoxTextEditor@@UAEXXZ @ 1249 NONAME ; void CEikListBoxTextEditor::StopEditingL(void)
	?SupportsUndo@CEikEdwin@@QBEHXZ @ 1250 NONAME ; int CEikEdwin::SupportsUndo(void) const
	?SwapControlL@CEikStatusPaneBase@@QAEPAVCCoeControl@@VTUid@@PAV2@@Z @ 1251 NONAME ; class CCoeControl * CEikStatusPaneBase::SwapControlL(class TUid, class CCoeControl *)
	?SwitchLayoutL@CEikStatusPaneBase@@UAEXH@Z @ 1252 NONAME ; void CEikStatusPaneBase::SwitchLayoutL(int)
	?Text@CEikEdwin@@QBEPAVCPlainText@@XZ @ 1253 NONAME ; class CPlainText * CEikEdwin::Text(void) const
	?TextColor@CListBoxView@@QBE?AVTRgb@@XZ @ 1254 NONAME ; class TRgb CListBoxView::TextColor(void) const
	?TextLayout@CEikEdwin@@QBEPAVCTextLayout@@XZ @ 1255 NONAME ; class CTextLayout * CEikEdwin::TextLayout(void) const
	?TextLength@CEikEdwin@@QBEHXZ @ 1256 NONAME ; int CEikEdwin::TextLength(void) const
	?TextView@CEikEdwin@@QBEPAVCTextView@@XZ @ 1257 NONAME ; class CTextView * CEikEdwin::TextView(void) const
	?TextWrapper@CEikEdwinExtension@CEikEdwin@@QAEABVTAvkonEditorCustomWrap@@XZ @ 1258 NONAME ; class TAvkonEditorCustomWrap const & CEikEdwin::CEikEdwinExtension::TextWrapper(void)
	?ThumbPosition@CEikScrollBar@@QBEHXZ @ 1259 NONAME ; int CEikScrollBar::ThumbPosition(void) const
	?Tile@CEikScrollBarFrame@@QAEHPAVTEikScrollBarModel@@@Z @ 1260 NONAME ; int CEikScrollBarFrame::Tile(class TEikScrollBarModel *)
	?Tile@CEikScrollBarFrame@@QAEXPAVTEikScrollBarModel@@0@Z @ 1261 NONAME ; void CEikScrollBarFrame::Tile(class TEikScrollBarModel *, class TEikScrollBarModel *)
	?Tile@CEikScrollBarFrame@@QAEXPAVTEikScrollBarModel@@AAVTRect@@@Z @ 1262 NONAME ; void CEikScrollBarFrame::Tile(class TEikScrollBarModel *, class TRect &)
	?TileL@CEikScrollBarFrame@@QAEHPAVTEikScrollBarModel@@0AAVTRect@@1ABVTEikScrollBarFrameLayout@@@Z @ 1263 NONAME ; int CEikScrollBarFrame::TileL(class TEikScrollBarModel *, class TEikScrollBarModel *, class TRect &, class TRect &, class TEikScrollBarFrameLayout const &)
	?TitleArray@CEikMenuBar@@QAEPAVCTitleArray@1@XZ @ 1264 NONAME ; class CEikMenuBar::CTitleArray * CEikMenuBar::TitleArray(void)
	?ToggleItemL@CListBoxView@@QAEXH@Z @ 1265 NONAME ; void CListBoxView::ToggleItemL(int)
	?TopItemIndex@CEikListBox@@QBEHXZ @ 1266 NONAME ; int CEikListBox::TopItemIndex(void) const
	?TopItemIndex@CListBoxView@@QBEHXZ @ 1267 NONAME ; int CListBoxView::TopItemIndex(void) const
	?TrappedDraw@CEikEdwin@@IBEXABVTRect@@@Z @ 1268 NONAME ; void CEikEdwin::TrappedDraw(class TRect const &) const
	?TrappedSizeChanged@CEikEdwin@@IAEXXZ @ 1269 NONAME ; void CEikEdwin::TrappedSizeChanged(void)
	?TryDisplayMenuBarL@CEikMenuBar@@QAEXXZ @ 1270 NONAME ; void CEikMenuBar::TryDisplayMenuBarL(void)
	?TryDisplayMenuBarWithoutFepMenusL@CEikMenuBar@@QAEXXZ @ 1271 NONAME ; void CEikMenuBar::TryDisplayMenuBarWithoutFepMenusL(void)
	?Type@CAknScrollButton@@QBE?AW4TType@1@XZ @ 1272 NONAME ; enum CAknScrollButton::TType CAknScrollButton::Type(void) const
	?Type@CEikScrollButton@@QBE?AW4TType@1@XZ @ 1273 NONAME ; enum CEikScrollButton::TType CEikScrollButton::Type(void) const
	?TypeOfHScrollBar@CEikScrollBarFrame@@QBE?AW4TScrollBarType@1@XZ @ 1274 NONAME ; enum CEikScrollBarFrame::TScrollBarType CEikScrollBarFrame::TypeOfHScrollBar(void) const
	?TypeOfVScrollBar@CEikScrollBarFrame@@QBE?AW4TScrollBarType@1@XZ @ 1275 NONAME ; enum CEikScrollBarFrame::TScrollBarType CEikScrollBarFrame::TypeOfVScrollBar(void) const
	?UndoL@CEikEdwin@@QAEXXZ @ 1276 NONAME ; void CEikEdwin::UndoL(void)
	?UndoLastChar@CEikListBox@@IAEXXZ @ 1277 NONAME ; void CEikListBox::UndoLastChar(void)
	?Up@CEikConsoleScreen@@QAEXI@Z @ 1278 NONAME ; void CEikConsoleScreen::Up(unsigned int)
	?UpdateAllFieldsL@CEikEdwin@@QAEXXZ @ 1279 NONAME ; void CEikEdwin::UpdateAllFieldsL(void)
	?UpdateArea@CEikConsoleControl@@QAEXXZ @ 1280 NONAME ; void CEikConsoleControl::UpdateArea(void)
	?UpdateCommandObserverL@CEikButtonGroupContainer@@QAEXHAAVMEikCommandObserver@@@Z @ 1281 NONAME ; void CEikButtonGroupContainer::UpdateCommandObserverL(int, class MEikCommandObserver &)
	?UpdateComponentAlignment@CEikCommandButton@@UAEXXZ @ 1282 NONAME ; void CEikCommandButton::UpdateComponentAlignment(void)
	?UpdateComponentAlignment@CEikCommandButtonBase@@UAEXXZ @ 1283 NONAME ; void CEikCommandButtonBase::UpdateComponentAlignment(void)
	?UpdateCurrentFieldL@CEikEdwin@@QAEXXZ @ 1284 NONAME ; void CEikEdwin::UpdateCurrentFieldL(void)
	?UpdateCurrentItem@CEikListBox@@MBEXH@Z @ 1285 NONAME ; void CEikListBox::UpdateCurrentItem(int) const
	?UpdateFontBoundValues@CListBoxData@@IAEXABVCFont@@@Z @ 1286 NONAME ; void CListBoxData::UpdateFontBoundValues(class CFont const &)
	?UpdateHScrollOffsetBasedOnTopItemIndex@CSnakingListBoxView@@IAEXXZ @ 1287 NONAME ; void CSnakingListBoxView::UpdateHScrollOffsetBasedOnTopItemIndex(void)
	?UpdateHotKey@CEikButtonGroupContainer@@QAEXHW4THotKeyFlags@1@H@Z @ 1288 NONAME ; void CEikButtonGroupContainer::UpdateHotKey(int, enum CEikButtonGroupContainer::THotKeyFlags, int)
	?UpdateHotKey@CEikLabeledButton@@QAEXHW4TFlags@1@@Z @ 1289 NONAME ; void CEikLabeledButton::UpdateHotKey(int, enum CEikLabeledButton::TFlags)
	?UpdateItemDrawerColors@CEikListBox@@IAEXXZ @ 1290 NONAME ; void CEikListBox::UpdateItemDrawerColors(void)
	?UpdateL@CEikFileNameLabel@@QAEXXZ @ 1291 NONAME ; void CEikFileNameLabel::UpdateL(void)
	?UpdateLayoutWidth@CEikEdwin@@QAEXH@Z @ 1292 NONAME ; void CEikEdwin::UpdateLayoutWidth(int)
	?UpdateModelL@CEikListBoxTextEditor@@UAEHXZ @ 1293 NONAME ; int CEikListBoxTextEditor::UpdateModelL(void)
	?UpdateScrollBarThumbs@CEikListBox@@MBEXXZ @ 1294 NONAME ; void CEikListBox::UpdateScrollBarThumbs(void) const
	?UpdateScrollBars@CEikConsoleScreen@@QAEHXZ @ 1295 NONAME ; int CEikConsoleScreen::UpdateScrollBars(void)
	?UpdateScrollBarsL@CEikEdwin@@QAEXXZ @ 1296 NONAME ; void CEikEdwin::UpdateScrollBarsL(void)
	?UpdateScrollBarsL@CEikListBox@@UAEXXZ @ 1297 NONAME ; void CEikListBox::UpdateScrollBarsL(void)
	?UpdateScrollbarsL@CEikConsoleControl@@QAEHABVTSize@@0VTPoint@@@Z @ 1298 NONAME ; int CEikConsoleControl::UpdateScrollbarsL(class TSize const &, class TSize const &, class TPoint)
	?UpdateSelectionL@CListBoxView@@UAEXW4TSelectionMode@1@@Z @ 1299 NONAME ; void CListBoxView::UpdateSelectionL(enum CListBoxView::TSelectionMode)
	?UpdateViewColors@CEikListBox@@IAEXXZ @ 1300 NONAME ; void CEikListBox::UpdateViewColors(void)
	?UpperFullFormattingLength@CEikEdwin@@QBEHXZ @ 1301 NONAME ; int CEikEdwin::UpperFullFormattingLength(void) const
	?UseLogicalToVisualConversion@CEikLabel@@QAEXH@Z @ 1302 NONAME ; void CEikLabel::UseLogicalToVisualConversion(int)
	?UserFlags@CEikEdwin@@QBEKXZ @ 1303 NONAME ; unsigned long CEikEdwin::UserFlags(void) const
	?VScrollTo@CListBoxView@@UAEXH@Z @ 1304 NONAME ; void CListBoxView::VScrollTo(int)
	?VScrollTo@CListBoxView@@UAEXHAAVTRect@@@Z @ 1305 NONAME ; void CListBoxView::VScrollTo(int, class TRect &)
	?VerticalInterItemGap@CEikListBox@@QBEHXZ @ 1306 NONAME ; int CEikListBox::VerticalInterItemGap(void) const
	?VerticalInterItemGap@CListItemDrawer@@IBEHXZ @ 1307 NONAME ; int CListItemDrawer::VerticalInterItemGap(void) const
	?VerticalMargin@CEikListBox@@IBEHXZ @ 1308 NONAME ; int CEikListBox::VerticalMargin(void) const
	?VerticalMoveToItemL@CListBoxView@@UAEXHW4TSelectionMode@1@@Z @ 1309 NONAME ; void CListBoxView::VerticalMoveToItemL(int, enum CListBoxView::TSelectionMode)
	?VerticalScrollBar@CEikScrollBarFrame@@QBEPAVCEikScrollBar@@XZ @ 1310 NONAME ; class CEikScrollBar * CEikScrollBarFrame::VerticalScrollBar(void) const
	?View@CEikListBox@@QBEPAVCListBoxView@@XZ @ 1311 NONAME ; class CListBoxView * CEikListBox::View(void) const
	?ViewRect@CListBoxView@@QBE?AVTRect@@XZ @ 1312 NONAME ; class TRect CListBoxView::ViewRect(void) const
	?ViewRectHeightAdjustment@CEikListBox@@IBEHXZ @ 1313 NONAME ; int CEikListBox::ViewRectHeightAdjustment(void) const
	?VisibleSize@CEikConsoleControl@@QBE?AVTSize@@XZ @ 1314 NONAME ; class TSize CEikConsoleControl::VisibleSize(void) const
	?VisibleWidth@CListBoxView@@UBEHABVTRect@@@Z @ 1315 NONAME ; int CListBoxView::VisibleWidth(class TRect const &) const
	?VisibleWidth@CSnakingListBoxView@@UBEHABVTRect@@@Z @ 1316 NONAME ; int CSnakingListBoxView::VisibleWidth(class TRect const &) const
	?WindowSize@TAknDoubleSpanScrollBarModel@@QBEHXZ @ 1317 NONAME ; int TAknDoubleSpanScrollBarModel::WindowSize(void) const
	?Write@CEikConsoleScreen@@UAEXABVTDesC16@@@Z @ 1318 NONAME ; void CEikConsoleScreen::Write(class TDesC16 const &)
	?WriteInternalStateL@CEikAlignedControl@@MBEXAAVRWriteStream@@@Z @ 1319 NONAME ; void CEikAlignedControl::WriteInternalStateL(class RWriteStream &) const
	?WriteInternalStateL@CEikBorderedControl@@MBEXAAVRWriteStream@@@Z @ 1320 NONAME ; void CEikBorderedControl::WriteInternalStateL(class RWriteStream &) const
	?WriteInternalStateL@CEikButtonBase@@UBEXAAVRWriteStream@@@Z @ 1321 NONAME ; void CEikButtonBase::WriteInternalStateL(class RWriteStream &) const
	?WriteInternalStateL@CEikButtonGroupContainer@@UBEXAAVRWriteStream@@@Z @ 1322 NONAME ; void CEikButtonGroupContainer::WriteInternalStateL(class RWriteStream &) const
	?WriteInternalStateL@CEikButtonPanel@@MBEXAAVRWriteStream@@@Z @ 1323 NONAME ; void CEikButtonPanel::WriteInternalStateL(class RWriteStream &) const
	?WriteInternalStateL@CEikCommandButtonBase@@MBEXAAVRWriteStream@@@Z @ 1324 NONAME ; void CEikCommandButtonBase::WriteInternalStateL(class RWriteStream &) const
	?WriteInternalStateL@CEikConsoleControl@@MBEXAAVRWriteStream@@@Z @ 1325 NONAME ; void CEikConsoleControl::WriteInternalStateL(class RWriteStream &) const
	?WriteInternalStateL@CEikControlGroup@@MBEXAAVRWriteStream@@@Z @ 1326 NONAME ; void CEikControlGroup::WriteInternalStateL(class RWriteStream &) const
	?WriteInternalStateL@CEikEdwin@@UBEXAAVRWriteStream@@@Z @ 1327 NONAME ; void CEikEdwin::WriteInternalStateL(class RWriteStream &) const
	?WriteInternalStateL@CEikHotKeyControl@@MBEXAAVRWriteStream@@@Z @ 1328 NONAME ; void CEikHotKeyControl::WriteInternalStateL(class RWriteStream &) const
	?WriteInternalStateL@CEikImage@@MBEXAAVRWriteStream@@@Z @ 1329 NONAME ; void CEikImage::WriteInternalStateL(class RWriteStream &) const
	?WriteInternalStateL@CEikInverterCommandButton@@MBEXAAVRWriteStream@@@Z @ 1330 NONAME ; void CEikInverterCommandButton::WriteInternalStateL(class RWriteStream &) const
	?WriteInternalStateL@CEikLabel@@MBEXAAVRWriteStream@@@Z @ 1331 NONAME ; void CEikLabel::WriteInternalStateL(class RWriteStream &) const
	?WriteInternalStateL@CEikLabeledButton@@MBEXAAVRWriteStream@@@Z @ 1332 NONAME ; void CEikLabeledButton::WriteInternalStateL(class RWriteStream &) const
	?WriteInternalStateL@CEikListBoxTextEditor@@MBEXAAVRWriteStream@@@Z @ 1333 NONAME ; void CEikListBoxTextEditor::WriteInternalStateL(class RWriteStream &) const
	?WriteInternalStateL@CEikMenuButton@@MBEXAAVRWriteStream@@@Z @ 1334 NONAME ; void CEikMenuButton::WriteInternalStateL(class RWriteStream &) const
	?WriteInternalStateL@CEikTextListBox@@MBEXAAVRWriteStream@@@Z @ 1335 NONAME ; void CEikTextListBox::WriteInternalStateL(class RWriteStream &) const
	?WriteInternalStateL@CEikToolBar@@MBEXAAVRWriteStream@@@Z @ 1336 NONAME ; void CEikToolBar::WriteInternalStateL(class RWriteStream &) const
	?WriteInternalStateL@CEikTwoPictureCommandButton@@MBEXAAVRWriteStream@@@Z @ 1337 NONAME ; void CEikTwoPictureCommandButton::WriteInternalStateL(class RWriteStream &) const
	?XYPosToItemIndex@CListBoxView@@UBEHVTPoint@@AAH@Z @ 1338 NONAME ; int CListBoxView::XYPosToItemIndex(class TPoint, int &) const
	?XYPosToItemIndex@CSnakingListBoxView@@UBEHVTPoint@@AAH@Z @ 1339 NONAME ; int CSnakingListBoxView::XYPosToItemIndex(class TPoint, int &) const
	?NewL@CAknScrollButton@@SAPAV1@W4TType@1@W4TTypeOfScrollBar@1@@Z @ 1340 NONAME ; class CAknScrollButton * CAknScrollButton::NewL(enum CAknScrollButton::TType, enum CAknScrollButton::TTypeOfScrollBar)
	??0CAknButton@@IAE@H@Z @ 1341 NONAME ; CAknButton::CAknButton(int)
	??0CAknButtonState@@IAE@H@Z @ 1342 NONAME ; CAknButtonState::CAknButtonState(int)
	??0CAknTouchPane@@AAE@XZ @ 1343 NONAME ABSENT
	??1CAknButton@@UAE@XZ @ 1344 NONAME ; CAknButton::~CAknButton(void)
	??1CAknButtonState@@UAE@XZ @ 1345 NONAME ; CAknButtonState::~CAknButtonState(void)
	??1CAknToolbar@@UAE@XZ @ 1346 NONAME ; CAknToolbar::~CAknToolbar(void)
	??1CAknTouchPane@@UAE@XZ @ 1347 NONAME ; CAknTouchPane::~CAknTouchPane(void)
	?ActivateL@CAknButton@@UAEXXZ @ 1348 NONAME ; void CAknButton::ActivateL(void)
	?AddControlToTouchPaneL@CAknTouchPane@@QAEXPAVCCoeControl@@H@Z @ 1349 NONAME ABSENT
	?AddItemChangeObserverL@CEikListBox@@QAEXPAVMListBoxItemChangeObserver@@@Z @ 1350 NONAME ; void CEikListBox::AddItemChangeObserverL(class MListBoxItemChangeObserver *)
	?AddItemL@CAknToolbar@@QAEXPAVCCoeControl@@HHH@Z @ 1351 NONAME ; void CAknToolbar::AddItemL(class CCoeControl *, int, int, int)
	?AddItemL@CAknToolbar@@QAEXPAVCCoeControl@@HHHH@Z @ 1352 NONAME ; void CAknToolbar::AddItemL(class CCoeControl *, int, int, int, int)
	?AddMenuItemL@CAknStylusPopUpMenu@@QAEXABVTDesC16@@H@Z @ 1353 NONAME ; void CAknStylusPopUpMenu::AddMenuItemL(class TDesC16 const &, int)
	?AddStateL@CAknButton@@UAEXABVTDesC16@@HHHHHHHH00HABVTAknsItemID@@111@Z @ 1354 NONAME ; void CAknButton::AddStateL(class TDesC16 const &, int, int, int, int, int, int, int, int, class TDesC16 const &, class TDesC16 const &, int, class TAknsItemID const &, class TAknsItemID const &, class TAknsItemID const &, class TAknsItemID const &)
	?AddStateL@CAknButton@@UAEXPAVCGulIcon@@000ABVTDesC16@@1H@Z @ 1355 NONAME ; void CAknButton::AddStateL(class CGulIcon *, class CGulIcon *, class CGulIcon *, class CGulIcon *, class TDesC16 const &, class TDesC16 const &, int)
	?AllowInputMethodActivation@CAknTouchPane@@QAEXH@Z @ 1356 NONAME ; void CAknTouchPane::AllowInputMethodActivation(int)
	?ButtonFlags@CAknButton@@QBEHXZ @ 1357 NONAME ; int CAknButton::ButtonFlags(void) const
	?CascadeMenuPane@CEikMenuPane@@QAEPAV1@XZ @ 1358 NONAME ; class CEikMenuPane * CEikMenuPane::CascadeMenuPane(void)
	?ChangeState@CAknButton@@IAEHH@Z @ 1359 NONAME ; int CAknButton::ChangeState(int)
	?CommonPrepareForAppExit@CEikStatusPaneBase@@IAEXXZ @ 1360 NONAME ; void CEikStatusPaneBase::CommonPrepareForAppExit(void)
	?ComponentControl@CAknToolbar@@UBEPAVCCoeControl@@H@Z @ 1361 NONAME ; class CCoeControl * CAknToolbar::ComponentControl(int) const
	?ComponentControl@CAknTouchPane@@UBEPAVCCoeControl@@H@Z @ 1362 NONAME ; class CCoeControl * CAknTouchPane::ComponentControl(int) const
	?ConstructFromResourceL@CAknButton@@QAEXH@Z @ 1363 NONAME ; void CAknButton::ConstructFromResourceL(int)
	?ConstructFromResourceL@CAknButton@@UAEXAAVTResourceReader@@@Z @ 1364 NONAME ; void CAknButton::ConstructFromResourceL(class TResourceReader &)
	?ConstructFromResourceL@CAknButtonState@@MAEXAAVTResourceReader@@@Z @ 1365 NONAME ; void CAknButtonState::ConstructFromResourceL(class TResourceReader &)
	?ConstructFromResourceL@CAknStylusPopUpMenu@@QAEXAAVTResourceReader@@@Z @ 1366 NONAME ; void CAknStylusPopUpMenu::ConstructFromResourceL(class TResourceReader &)
	?ConstructFromResourceL@CAknToolbar@@EAEXAAVTResourceReader@@@Z @ 1367 NONAME ; void CAknToolbar::ConstructFromResourceL(class TResourceReader &)
	?ConstructL@CAknButton@@IAEXABVTDesC16@@HHHHHHHH00HABVTAknsItemID@@111@Z @ 1368 NONAME ; void CAknButton::ConstructL(class TDesC16 const &, int, int, int, int, int, int, int, int, class TDesC16 const &, class TDesC16 const &, int, class TAknsItemID const &, class TAknsItemID const &, class TAknsItemID const &, class TAknsItemID const &)
	?ConstructL@CAknButton@@IAEXPAVCGulIcon@@000ABVTDesC16@@1H@Z @ 1369 NONAME ; void CAknButton::ConstructL(class CGulIcon *, class CGulIcon *, class CGulIcon *, class CGulIcon *, class TDesC16 const &, class TDesC16 const &, int)
	?ConstructL@CAknButton@@IAEXXZ @ 1370 NONAME ; void CAknButton::ConstructL(void)
	?ConstructL@CAknButtonState@@IAEXABVTDesC16@@HHHHHHHH00ABVTAknsItemID@@111@Z @ 1371 NONAME ; void CAknButtonState::ConstructL(class TDesC16 const &, int, int, int, int, int, int, int, int, class TDesC16 const &, class TDesC16 const &, class TAknsItemID const &, class TAknsItemID const &, class TAknsItemID const &, class TAknsItemID const &)
	?ConstructL@CAknButtonState@@IAEXPAVCGulIcon@@000ABVTDesC16@@1@Z @ 1372 NONAME ; void CAknButtonState::ConstructL(class CGulIcon *, class CGulIcon *, class CGulIcon *, class CGulIcon *, class TDesC16 const &, class TDesC16 const &)
	?ConstructMenuSctRowL@CEikMenuPane@@QAEXAAVTDes16@@@Z @ 1373 NONAME ; void CEikMenuPane::ConstructMenuSctRowL(class TDes16 &)
	?ControlFromTouchPane@CAknTouchPane@@QAEPAVCCoeControl@@H@Z @ 1374 NONAME ABSENT
	?ControlOrNull@CAknToolbar@@QBEPAVCCoeControl@@H@Z @ 1375 NONAME ; class CCoeControl * CAknToolbar::ControlOrNull(int) const
	?CountComponentControls@CAknToolbar@@UBEHXZ @ 1376 NONAME ; int CAknToolbar::CountComponentControls(void) const
	?CountComponentControls@CAknTouchPane@@UBEHXZ @ 1377 NONAME ; int CAknTouchPane::CountComponentControls(void) const
	?CreateScrollBarFrameL@CEikListBox@@QAEPAVCEikScrollBarFrame@@HH@Z @ 1378 NONAME ; class CEikScrollBarFrame * CEikListBox::CreateScrollBarFrameL(int, int)
	?CurrentPopupToolbar@CEikAppUiFactory@@QBEPAVCAknToolbar@@XZ @ 1379 NONAME ; class CAknToolbar * CEikAppUiFactory::CurrentPopupToolbar(void) const
	?DimmedIcon@CAknButtonState@@QBEPBVCGulIcon@@XZ @ 1380 NONAME ; class CGulIcon const * CAknButtonState::DimmedIcon(void) const
	?DisableClearer@CEikStatusPaneBase@@IAEXH@Z @ 1381 NONAME ; void CEikStatusPaneBase::DisableClearer(int)
	?DisablePictographs@CAknButton@@QAEXXZ @ 1382 NONAME ; void CAknButton::DisablePictographs(void)
	?Draw@CAknButton@@EBEXABVTRect@@@Z @ 1383 NONAME ; void CAknButton::Draw(class TRect const &) const
	?Draw@CAknToolbar@@EBEXABVTRect@@@Z @ 1384 NONAME ; void CAknToolbar::Draw(class TRect const &) const
	?Draw@CAknToolbar@@UBEXAAVCWindowGc@@ABVCCoeControl@@ABVTRect@@@Z @ 1385 NONAME ; void CAknToolbar::Draw(class CWindowGc &, class CCoeControl const &, class TRect const &) const
	?Draw@CAknTouchPane@@UBEXAAVCWindowGc@@ABVCCoeControl@@ABVTRect@@@Z @ 1386 NONAME ; void CAknTouchPane::Draw(class CWindowGc &, class CCoeControl const &, class TRect const &) const
	?DrawBackground@CEikScrollBarFrame@@QAEHHH@Z @ 1387 NONAME ; int CEikScrollBarFrame::DrawBackground(int, int)
	?DrawBackgroundState@CEikScrollBarFrame@@QAEHAAH0@Z @ 1388 NONAME ; int CEikScrollBarFrame::DrawBackgroundState(int &, int &)
	?DynInitToolbarL@MAknToolbarObserver@@UAEXHPAVCAknToolbar@@@Z @ 1389 NONAME ; void MAknToolbarObserver::DynInitToolbarL(int, class CAknToolbar *)
	?EnablePictographsL@CAknButton@@QAEXAAVCAknPictographInterface@@@Z @ 1390 NONAME ; void CAknButton::EnablePictographsL(class CAknPictographInterface &)
	?ExtensionInterface@CAknButton@@MAEPAXVTUid@@@Z @ 1391 NONAME ; void * CAknButton::ExtensionInterface(class TUid)
	?ExtensionInterface@CAknToolbar@@MAEPAXVTUid@@@Z @ 1392 NONAME ; void * CAknToolbar::ExtensionInterface(class TUid)
	?FireItemChange@CEikListBox@@IAEXXZ @ 1393 NONAME ; void CEikListBox::FireItemChange(void)
	?Flags@CAknButtonState@@QBEHXZ @ 1394 NONAME ; int CAknButtonState::Flags(void) const
	?FocusChanged@CAknButton@@MAEXW4TDrawNow@@@Z @ 1395 NONAME ; void CAknButton::FocusChanged(enum TDrawNow)
	?FocusChanged@CAknToolbar@@MAEXW4TDrawNow@@@Z @ 1396 NONAME ; void CAknToolbar::FocusChanged(enum TDrawNow)
	?GetCurrentIcon@CAknButton@@IBEPBVCGulIcon@@XZ @ 1397 NONAME ; class CGulIcon const * CAknButton::GetCurrentIcon(void) const
	?GetCurrentText@CAknButton@@IBEABVTDesC16@@XZ @ 1398 NONAME ; class TDesC16 const & CAknButton::GetCurrentText(void) const
	?HandleControlEventL@CAknStylusPopUpMenu@@UAEXPAVCCoeControl@@W4TCoeEvent@MCoeControlObserver@@@Z @ 1399 NONAME ; void CAknStylusPopUpMenu::HandleControlEventL(class CCoeControl *, enum MCoeControlObserver::TCoeEvent)
	?HandleControlEventL@CAknToolbar@@UAEXPAVCCoeControl@@W4TCoeEvent@MCoeControlObserver@@@Z @ 1400 NONAME ; void CAknToolbar::HandleControlEventL(class CCoeControl *, enum MCoeControlObserver::TCoeEvent)
	?HandleControlEventL@CAknTouchPane@@UAEXPAVCCoeControl@@W4TCoeEvent@MCoeControlObserver@@@Z @ 1401 NONAME ; void CAknTouchPane::HandleControlEventL(class CCoeControl *, enum MCoeControlObserver::TCoeEvent)
	?HandlePointerEventL@CAknButton@@UAEXABUTPointerEvent@@@Z @ 1402 NONAME ; void CAknButton::HandlePointerEventL(struct TPointerEvent const &)
	?HandlePointerEventL@CAknToolbar@@UAEXABUTPointerEvent@@@Z @ 1403 NONAME ; void CAknToolbar::HandlePointerEventL(struct TPointerEvent const &)
	?HandlePointerEventL@CAknTouchPane@@MAEXABUTPointerEvent@@@Z @ 1404 NONAME ; void CAknTouchPane::HandlePointerEventL(struct TPointerEvent const &)
	?HandleResourceChange@CAknButton@@UAEXH@Z @ 1405 NONAME ; void CAknButton::HandleResourceChange(int)
	?HandleResourceChange@CAknToolbar@@UAEXH@Z @ 1406 NONAME ; void CAknToolbar::HandleResourceChange(int)
	?HandleResourceChange@CAknTouchPane@@UAEXH@Z @ 1407 NONAME ; void CAknTouchPane::HandleResourceChange(int)
	?HasHelp@CAknButtonState@@IBEHXZ @ 1408 NONAME ; int CAknButtonState::HasHelp(void) const
	?HasText@CAknButtonState@@IBEHXZ @ 1409 NONAME ; int CAknButtonState::HasText(void) const
	?HelpText@CAknButtonState@@QBEABVTDesC16@@XZ @ 1410 NONAME ; class TDesC16 const & CAknButtonState::HelpText(void) const
	?HideHelp@CAknButton@@IAEXXZ @ 1411 NONAME ; void CAknButton::HideHelp(void)
	?HighlightRect@CAknButton@@QBE?AVTRect@@XZ @ 1412 NONAME ; class TRect CAknButton::HighlightRect(void) const
	?HighlightRect@CEikListBox@@QBE?AVTRect@@XZ @ 1413 NONAME ; class TRect CEikListBox::HighlightRect(void) const
	?HoverIcon@CAknButtonState@@QBEPBVCGulIcon@@XZ @ 1414 NONAME ; class CGulIcon const * CAknButtonState::HoverIcon(void) const
	?Icon@CAknButtonState@@QBEPBVCGulIcon@@XZ @ 1415 NONAME ; class CGulIcon const * CAknButtonState::Icon(void) const
	?InputCapabilities@CAknToolbar@@UBE?AVTCoeInputCapabilities@@XZ @ 1416 NONAME ; class TCoeInputCapabilities CAknToolbar::InputCapabilities(void) const
	?IsDimmed@CAknButton@@QBEHXZ @ 1417 NONAME ; int CAknButton::IsDimmed(void) const
	?IsShown@CAknToolbar@@QBEHXZ @ 1418 NONAME ; int CAknToolbar::IsShown(void) const
	?IsSupportedItemType@CAknToolbar@@QBEHH@Z @ 1419 NONAME ; int CAknToolbar::IsSupportedItemType(int) const
	?ItemCellSize@CListItemDrawer@@QBE?AVTSize@@XZ @ 1420 NONAME ; class TSize CListItemDrawer::ItemCellSize(void) const
	?ItemDataByIndexL@CEikMenuPane@@QAEAAUSData@CEikMenuPaneItem@@H@Z @ 1421 NONAME ; struct CEikMenuPaneItem::SData & CEikMenuPane::ItemDataByIndexL(int)
	?MAknToolbarObserver_Reserved_1@MAknToolbarObserver@@MAEHXZ @ 1422 NONAME ; int MAknToolbarObserver::MAknToolbarObserver_Reserved_1(void)
	?MAknToolbarObserver_Reserved_2@MAknToolbarObserver@@MAEHXZ @ 1423 NONAME ; int MAknToolbarObserver::MAknToolbarObserver_Reserved_2(void)
	?MakeVisible@CAknButton@@UAEXH@Z @ 1424 NONAME ; void CAknButton::MakeVisible(int)
	?MakeVisible@CAknTouchPane@@UAEXH@Z @ 1425 NONAME ; void CAknTouchPane::MakeVisible(int)
	?MenuItemCommandId@CEikMenuPane@@QBEHH@Z @ 1426 NONAME ; int CEikMenuPane::MenuItemCommandId(int) const
	?MinimumSize@CAknButton@@UAE?AVTSize@@XZ @ 1427 NONAME ; class TSize CAknButton::MinimumSize(void)
	?MopSupplyObject@CAknToolbar@@MAE?AVPtr@TTypeUid@@V3@@Z @ 1428 NONAME ; class TTypeUid::Ptr CAknToolbar::MopSupplyObject(class TTypeUid)
	?NewL@CAknButton@@SAPAV1@AAVTResourceReader@@@Z @ 1429 NONAME ; class CAknButton * CAknButton::NewL(class TResourceReader &)
	?NewL@CAknButton@@SAPAV1@ABVTDesC16@@HHHHHHHH00HHABVTAknsItemID@@111@Z @ 1430 NONAME ; class CAknButton * CAknButton::NewL(class TDesC16 const &, int, int, int, int, int, int, int, int, class TDesC16 const &, class TDesC16 const &, int, int, class TAknsItemID const &, class TAknsItemID const &, class TAknsItemID const &, class TAknsItemID const &)
	?NewL@CAknButton@@SAPAV1@H@Z @ 1431 NONAME ; class CAknButton * CAknButton::NewL(int)
	?NewL@CAknButton@@SAPAV1@PAVCGulIcon@@000ABVTDesC16@@1HH@Z @ 1432 NONAME ; class CAknButton * CAknButton::NewL(class CGulIcon *, class CGulIcon *, class CGulIcon *, class CGulIcon *, class TDesC16 const &, class TDesC16 const &, int, int)
	?NewL@CAknButton@@SAPAV1@XZ @ 1433 NONAME ; class CAknButton * CAknButton::NewL(void)
	?NewL@CAknStylusPopUpMenu@@SAPAV1@PAVMEikMenuObserver@@ABVTPoint@@@Z @ 1434 NONAME ; class CAknStylusPopUpMenu * CAknStylusPopUpMenu::NewL(class MEikMenuObserver *, class TPoint const &)
	?NewL@CAknStylusPopUpMenu@@SAPAV1@PAVMEikMenuObserver@@ABVTPoint@@PAVCAknPreviewPopUpController@@@Z @ 1435 NONAME ; class CAknStylusPopUpMenu * CAknStylusPopUpMenu::NewL(class MEikMenuObserver *, class TPoint const &, class CAknPreviewPopUpController *)
	?NewL@CAknToolbar@@SAPAV1@H@Z @ 1436 NONAME ; class CAknToolbar * CAknToolbar::NewL(int)
	?NewL@CAknTouchPane@@SAPAV1@H@Z @ 1437 NONAME ; class CAknTouchPane * CAknTouchPane::NewL(int)
	?NewL@CAknTouchPane@@SAPAV1@XZ @ 1438 NONAME ; class CAknTouchPane * CAknTouchPane::NewL(void)
	?NewLC@CAknButton@@SAPAV1@AAVTResourceReader@@@Z @ 1439 NONAME ; class CAknButton * CAknButton::NewLC(class TResourceReader &)
	?NewLC@CAknButton@@SAPAV1@ABVTDesC16@@HHHHHHHH00HHABVTAknsItemID@@111@Z @ 1440 NONAME ; class CAknButton * CAknButton::NewLC(class TDesC16 const &, int, int, int, int, int, int, int, int, class TDesC16 const &, class TDesC16 const &, int, int, class TAknsItemID const &, class TAknsItemID const &, class TAknsItemID const &, class TAknsItemID const &)
	?NewLC@CAknButton@@SAPAV1@H@Z @ 1441 NONAME ; class CAknButton * CAknButton::NewLC(int)
	?NewLC@CAknButton@@SAPAV1@PAVCGulIcon@@000ABVTDesC16@@1HH@Z @ 1442 NONAME ; class CAknButton * CAknButton::NewLC(class CGulIcon *, class CGulIcon *, class CGulIcon *, class CGulIcon *, class TDesC16 const &, class TDesC16 const &, int, int)
	?NewLC@CAknButton@@SAPAV1@XZ @ 1443 NONAME ; class CAknButton * CAknButton::NewLC(void)
	?NewLC@CAknStylusPopUpMenu@@SAPAV1@PAVMEikMenuObserver@@ABVTPoint@@PAVCAknPreviewPopUpController@@@Z @ 1444 NONAME ; class CAknStylusPopUpMenu * CAknStylusPopUpMenu::NewLC(class MEikMenuObserver *, class TPoint const &, class CAknPreviewPopUpController *)
	?NewLC@CAknToolbar@@SAPAV1@H@Z @ 1445 NONAME ; class CAknToolbar * CAknToolbar::NewLC(int)
	?OfferKeyEventL@CAknButton@@UAE?AW4TKeyResponse@@ABUTKeyEvent@@W4TEventCode@@@Z @ 1446 NONAME ; enum TKeyResponse CAknButton::OfferKeyEventL(struct TKeyEvent const &, enum TEventCode)
	?OfferKeyEventL@CAknToolbar@@UAE?AW4TKeyResponse@@ABUTKeyEvent@@W4TEventCode@@@Z @ 1447 NONAME ; enum TKeyResponse CAknToolbar::OfferKeyEventL(struct TKeyEvent const &, enum TEventCode)
	?OfferKeyEventL@CAknTouchPane@@UAE?AW4TKeyResponse@@ABUTKeyEvent@@W4TEventCode@@@Z @ 1448 NONAME ; enum TKeyResponse CAknTouchPane::OfferKeyEventL(struct TKeyEvent const &, enum TEventCode)
	?PopupToolbar@CEikAppUiFactory@@QBEPAVCAknToolbar@@XZ @ 1449 NONAME ; class CAknToolbar * CEikAppUiFactory::PopupToolbar(void) const
	?PositionChanged@CAknToolbar@@UAEXXZ @ 1450 NONAME ; void CAknToolbar::PositionChanged(void)
	?PositionChanged@CAknTouchPane@@MAEXXZ @ 1451 NONAME ; void CAknTouchPane::PositionChanged(void)
	?PrepareForFocusGainL@CAknButton@@UAEXXZ @ 1452 NONAME ; void CAknButton::PrepareForFocusGainL(void)
	?PrepareForFocusLossL@CAknButton@@UAEXXZ @ 1453 NONAME ; void CAknButton::PrepareForFocusLossL(void)
	?PressedIcon@CAknButtonState@@QBEPBVCGulIcon@@XZ @ 1454 NONAME ; class CGulIcon const * CAknButtonState::PressedIcon(void) const
	?ProcessCommandL@CAknToolbar@@UAEXH@Z @ 1455 NONAME ; void CAknToolbar::ProcessCommandL(int)
	?ReduceRect@CAknTouchPane@@QBEXAAVTRect@@@Z @ 1456 NONAME ; void CAknTouchPane::ReduceRect(class TRect &) const
	?RefreshL@CAknTouchPane@@QAEXXZ @ 1457 NONAME ; void CAknTouchPane::RefreshL(void)
	?RemoveControlFromTouchPane@CAknTouchPane@@QAEPAVCCoeControl@@H@Z @ 1458 NONAME ABSENT
	?RemoveItem@CAknToolbar@@QAEXH@Z @ 1459 NONAME ; void CAknToolbar::RemoveItem(int)
	?RemoveItemChangeObserver@CEikListBox@@QAEHPAVMListBoxItemChangeObserver@@@Z @ 1460 NONAME ; int CEikListBox::RemoveItemChangeObserver(class MListBoxItemChangeObserver *)
	?RemoveMenuItem@CAknStylusPopUpMenu@@QAEXH@Z @ 1461 NONAME ; void CAknStylusPopUpMenu::RemoveMenuItem(int)
	?SetBackgroundIds@CAknButton@@QAEXABVTAknsItemID@@0000@Z @ 1462 NONAME ; void CAknButton::SetBackgroundIds(class TAknsItemID const &, class TAknsItemID const &, class TAknsItemID const &, class TAknsItemID const &, class TAknsItemID const &)
	?SetButtonFlags@CAknButton@@QAEXH@Z @ 1463 NONAME ; void CAknButton::SetButtonFlags(int)
	?SetCloseOnAllCommands@CAknToolbar@@QAEXH@Z @ 1464 NONAME ; void CAknToolbar::SetCloseOnAllCommands(int)
	?SetCloseOnCommand@CAknToolbar@@QAEXHH@Z @ 1465 NONAME ; void CAknToolbar::SetCloseOnCommand(int, int)
	?SetCurrentState@CAknButton@@UAEXHH@Z @ 1466 NONAME ; void CAknButton::SetCurrentState(int, int)
	?SetDimmed@CAknButton@@UAEXH@Z @ 1467 NONAME ; void CAknButton::SetDimmed(int)
	?SetDimmed@CAknToolbar@@UAEXH@Z @ 1468 NONAME ; void CAknToolbar::SetDimmed(int)
	?SetDimmedHelpTextL@CAknButton@@QAEXABVTDesC16@@@Z @ 1469 NONAME ; void CAknButton::SetDimmedHelpTextL(class TDesC16 const &)
	?SetDimmedIcon@CAknButtonState@@QAEXPAVCGulIcon@@@Z @ 1470 NONAME ; void CAknButtonState::SetDimmedIcon(class CGulIcon *)
	?SetEmphasis@CAknToolbar@@QAEXH@Z @ 1471 NONAME ; void CAknToolbar::SetEmphasis(int)
	?SetFlags@CAknButtonState@@QAEXH@Z @ 1472 NONAME ; void CAknButtonState::SetFlags(int)
	?SetFrameAndCenterIds@CAknButton@@QAEXABVTAknsItemID@@000000000@Z @ 1473 NONAME ; void CAknButton::SetFrameAndCenterIds(class TAknsItemID const &, class TAknsItemID const &, class TAknsItemID const &, class TAknsItemID const &, class TAknsItemID const &, class TAknsItemID const &, class TAknsItemID const &, class TAknsItemID const &, class TAknsItemID const &, class TAknsItemID const &)
	?SetVisibilityMode@CAknTouchPane@@QAEXW4TVisibilityMode@1@@Z @ 1474 NONAME ; void CAknTouchPane::SetVisibilityMode(enum CAknTouchPane::TVisibilityMode)
	?SetHelpNoteTimeouts@CAknButton@@QAEXHH@Z @ 1475 NONAME ; void CAknButton::SetHelpNoteTimeouts(int, int)
	?SetHelpTextL@CAknButtonState@@QAEXABVTDesC16@@@Z @ 1476 NONAME ; void CAknButtonState::SetHelpTextL(class TDesC16 const &)
	?SetHighlightRect@CAknButton@@QAEXABVTRect@@@Z @ 1477 NONAME ; void CAknButton::SetHighlightRect(class TRect const &)
	?SetHighlightStyleL@CEikEdwin@@QAEXW4TAknsHighlightStyle@@@Z @ 1478 NONAME ; void CEikEdwin::SetHighlightStyleL(enum TAknsHighlightStyle)
	?SetHoverIcon@CAknButtonState@@QAEXPAVCGulIcon@@@Z @ 1479 NONAME ; void CAknButtonState::SetHoverIcon(class CGulIcon *)
	?SetIcon@CAknButtonState@@QAEXPAVCGulIcon@@@Z @ 1480 NONAME ; void CAknButtonState::SetIcon(class CGulIcon *)
	?SetIconScaleMode@CAknButton@@QAEXW4TScaleMode@@@Z @ 1481 NONAME ; void CAknButton::SetIconScaleMode(enum TScaleMode)
	?SetInitialFocusedItem@CAknToolbar@@QAEXH@Z @ 1482 NONAME ; void CAknToolbar::SetInitialFocusedItem(int)
	?SetItemDimmed@CAknToolbar@@QAEXHHH@Z @ 1483 NONAME ; void CAknToolbar::SetItemDimmed(int, int, int)
	?SetKeyRepeatInterval@CAknButton@@QAEXHH@Z @ 1484 NONAME ; void CAknButton::SetKeyRepeatInterval(int, int)
	?SetLongPressInterval@CAknButton@@QAEXH@Z @ 1485 NONAME ; void CAknButton::SetLongPressInterval(int)
	?SetObserver@CAknTouchPane@@QAEXPAVMAknTouchPaneObserver@@@Z @ 1486 NONAME ; void CAknTouchPane::SetObserver(class MAknTouchPaneObserver *)
	?SetPosition@CAknStylusPopUpMenu@@QAEXABVTPoint@@@Z @ 1487 NONAME ; void CAknStylusPopUpMenu::SetPosition(class TPoint const &)
	?SetPressedIcon@CAknButtonState@@QAEXPAVCGulIcon@@@Z @ 1488 NONAME ; void CAknButtonState::SetPressedIcon(class CGulIcon *)
	?SetRequestExit@CAknButton@@QAEXH@Z @ 1489 NONAME ; void CAknButton::SetRequestExit(int)
	?SetSuppressNotifyDraw@CEikEdwin@@QAEXH@Z @ 1490 NONAME ; void CEikEdwin::SetSuppressNotifyDraw(int)
	?SetTextColorIds@CAknButton@@QAEXABVTAknsItemID@@H@Z @ 1491 NONAME ; void CAknButton::SetTextColorIds(class TAknsItemID const &, int)
	?SetTextFont@CAknButton@@QAEXPBVCFont@@@Z @ 1492 NONAME ; void CAknButton::SetTextFont(class CFont const *)
	?SetTextHorizontalAlignment@CAknButton@@QAEXW4TTextAlign@CGraphicsContext@@@Z @ 1493 NONAME ; void CAknButton::SetTextHorizontalAlignment(enum CGraphicsContext::TTextAlign)
	?SetTextL@CAknButtonState@@QAEXABVTDesC16@@@Z @ 1494 NONAME ; void CAknButtonState::SetTextL(class TDesC16 const &)
	?SetTextSkinColorIdL@CEikEdwin@@QAEXH@Z @ 1495 NONAME ; void CEikEdwin::SetTextSkinColorIdL(int)
	?SetTextUnderlineStyle@CAknButton@@QAEXW4TFontUnderline@@@Z @ 1496 NONAME ; void CAknButton::SetTextUnderlineStyle(enum TFontUnderline)
	?SetTextVerticalAlignment@CAknButton@@QAEXW4TAlignment@1@@Z @ 1497 NONAME ; void CAknButton::SetTextVerticalAlignment(enum CAknButton::TAlignment)
	?SetToolbarObserver@CAknToolbar@@QAEXPAVMAknToolbarObserver@@@Z @ 1498 NONAME ; void CAknToolbar::SetToolbarObserver(class MAknToolbarObserver *)
	?SetToolbarVisibility@CAknToolbar@@QAEXH@Z @ 1499 NONAME ; void CAknToolbar::SetToolbarVisibility(int)
	?SetTooltipPosition@CAknButton@@QAEXW4TTooltipPosition@1@@Z @ 1500 NONAME ; void CAknButton::SetTooltipPosition(enum CAknButton::TTooltipPosition)
	?SetUpperFullFormattingLength@CEikEdwin@@QAEXH@Z @ 1501 NONAME ; void CEikEdwin::SetUpperFullFormattingLength(int)
	?SetViewPopupToolbar@CEikAppUiFactory@@QAEXPAVCAknToolbar@@@Z @ 1502 NONAME ; void CEikAppUiFactory::SetViewPopupToolbar(class CAknToolbar *)
	?SetWithSliding@CAknToolbar@@QAEXH@Z @ 1503 NONAME ; void CAknToolbar::SetWithSliding(int)
	?ShowHelpL@CAknButton@@IAEXXZ @ 1504 NONAME ; void CAknButton::ShowHelpL(void)
	?ShowMenu@CAknStylusPopUpMenu@@QAEXXZ @ 1505 NONAME ; void CAknStylusPopUpMenu::ShowMenu(void)
	?SizeChanged@CAknButton@@MAEXXZ @ 1506 NONAME ; void CAknButton::SizeChanged(void)
	?SizeChanged@CAknButtonState@@MAEXABVTRect@@W4TScaleMode@@@Z @ 1507 NONAME ; void CAknButtonState::SizeChanged(class TRect const &, enum TScaleMode)
	?SizeChanged@CAknToolbar@@MAEXXZ @ 1508 NONAME ; void CAknToolbar::SizeChanged(void)
	?SizeChanged@CAknTouchPane@@MAEXXZ @ 1509 NONAME ; void CAknTouchPane::SizeChanged(void)
	?State@CAknButton@@QBEPAVCAknButtonState@@H@Z @ 1510 NONAME ; class CAknButtonState * CAknButton::State(int) const
	?State@CAknButton@@QBEPAVCAknButtonState@@XZ @ 1511 NONAME ; class CAknButtonState * CAknButton::State(void) const
	?StateIndex@CAknButton@@QBEHXZ @ 1512 NONAME ; int CAknButton::StateIndex(void) const
	?Text@CAknButtonState@@QBEABVTDesC16@@XZ @ 1513 NONAME ; class TDesC16 const & CAknButtonState::Text(void) const
	?ToolbarObserver@CAknToolbar@@QAEPAVMAknToolbarObserver@@XZ @ 1514 NONAME ; class MAknToolbarObserver * CAknToolbar::ToolbarObserver(void)
	?TouchPane@CEikAppUiFactory@@QBEPAVCAknTouchPane@@XZ @ 1515 NONAME ; class CAknTouchPane * CEikAppUiFactory::TouchPane(void) const
	?SetFepPenSupportInterface@CAknTouchPane@@QAEXPAVMAknFepPenSupportInterface@@@Z @ 1516 NONAME ; void CAknTouchPane::SetFepPenSupportInterface(class MAknFepPenSupportInterface *)
	?SetInputMethodIconActivated@CAknTouchPane@@QAEXH@Z @ 1517 NONAME ; void CAknTouchPane::SetInputMethodIconActivated(int)
	?SetSuppressFormatting@CEikEdwin@@QAEXH@Z @ 1518 NONAME ; void CEikEdwin::SetSuppressFormatting(int)
	?SetAmountToFormatL@CEikEdwin@@QAEXHH@Z @ 1519 NONAME ; void CEikEdwin::SetAmountToFormatL(int, int)
	?HandleResourceChange@CAknLocalScreenClearer@@UAEXH@Z @ 1520 NONAME ; void CAknLocalScreenClearer::HandleResourceChange(int)
	?SetContextMenuTitleResourceId@CEikMenuBar@@QAEXH@Z @ 1521 NONAME ; void CEikMenuBar::SetContextMenuTitleResourceId(int)
	?TryDisplayContextMenuBarL@CEikMenuBar@@QAEXXZ @ 1522 NONAME ; void CEikMenuBar::TryDisplayContextMenuBarL(void)
	?IsBackgroundDrawingSuppressed@CEikEdwin@@QBEHXZ @ 1523 NONAME ; int CEikEdwin::IsBackgroundDrawingSuppressed(void) const
	?SetSuppressBackgroundDrawing@CEikEdwin@@QAEXH@Z @ 1524 NONAME ; void CEikEdwin::SetSuppressBackgroundDrawing(int)
	?CreateScrollBarFrameL@CEikListBox@@QAEPAVCEikScrollBarFrame@@HHH@Z @ 1525 NONAME ; class CEikScrollBarFrame * CEikListBox::CreateScrollBarFrameL(int, int, int)
	?ConstructMenuSctRowL@CEikMenuPane@@QAEXAAVTDes16@@H@Z @ 1526 NONAME ; void CEikMenuPane::ConstructMenuSctRowL(class TDes16 &, int)
	?SetMenuType@CEikMenuBar@@QAEXW4TMenuType@1@@Z @ 1527 NONAME ; void CEikMenuBar::SetMenuType(enum CEikMenuBar::TMenuType)
	?SetScrollPopupInfoTextL@CAknDoubleSpanScrollBar@@QAEXABVTDesC16@@@Z @ 1528 NONAME ; void CAknDoubleSpanScrollBar::SetScrollPopupInfoTextL(class TDesC16 const &)
	?SetOrientation@CAknToolbar@@QAEXW4TAknOrientation@@@Z @ 1529 NONAME ; void CAknToolbar::SetOrientation(enum TAknOrientation)
	?GetTextLinesRect@CEikEdwin@@QBE?AVTRect@@XZ @ 1530 NONAME ; class TRect CEikEdwin::GetTextLinesRect(void) const
	?SetTextLinesRect@CEikEdwin@@QAEXABVTRect@@@Z @ 1531 NONAME ; void CEikEdwin::SetTextLinesRect(class TRect const &)
	?AnimateCommandByPosition@CEikButtonGroupContainer@@QAEXW4TCommandPosition@1@@Z @ 1532 NONAME ; void CEikButtonGroupContainer::AnimateCommandByPosition(enum CEikButtonGroupContainer::TCommandPosition)
	?DimCommandByPosition@CEikButtonGroupContainer@@QAEXW4TCommandPosition@1@H@Z @ 1533 NONAME ; void CEikButtonGroupContainer::DimCommandByPosition(enum CEikButtonGroupContainer::TCommandPosition, int)
	?EnableMSKObserver@CEikListBox@@QAEXH@Z @ 1534 NONAME ; void CEikListBox::EnableMSKObserver(int)
	?IsCommandDimmedByPosition@CEikButtonGroupContainer@@QBEHW4TCommandPosition@1@@Z @ 1535 NONAME ; int CEikButtonGroupContainer::IsCommandDimmedByPosition(enum CEikButtonGroupContainer::TCommandPosition) const
	?IsCommandVisibleByPosition@CEikButtonGroupContainer@@QBEHW4TCommandPosition@1@@Z @ 1536 NONAME ; int CEikButtonGroupContainer::IsCommandVisibleByPosition(enum CEikButtonGroupContainer::TCommandPosition) const
	?MakeCommandVisibleByPosition@CEikButtonGroupContainer@@QAEXW4TCommandPosition@1@H@Z @ 1537 NONAME ; void CEikButtonGroupContainer::MakeCommandVisibleByPosition(enum CEikButtonGroupContainer::TCommandPosition, int)
	?HideItem@CAknToolbar@@QAEXHHH@Z @ 1538 NONAME ; void CAknToolbar::HideItem(int, int, int)
	?SetIconHorizontalAlignment@CAknButton@@QAEXW4TAlignment@1@@Z @ 1539 NONAME ; void CAknButton::SetIconHorizontalAlignment(enum CAknButton::TAlignment)
	?SetIconVerticalAlignment@CAknButton@@QAEXW4TAlignment@1@@Z @ 1540 NONAME ; void CAknButton::SetIconVerticalAlignment(enum CAknButton::TAlignment)
	?SetItemDimmed@CAknStylusPopUpMenu@@QAEXHH@Z @ 1541 NONAME ; void CAknStylusPopUpMenu::SetItemDimmed(int, int)
	?MiddleSoftkeyCommandId@CAknEdwinState@@QBEHXZ @ 1542 NONAME ; int CAknEdwinState::MiddleSoftkeyCommandId(void) const
	?SetMiddleSoftkeyCommandId@CAknEdwinState@@QAEXH@Z @ 1543 NONAME ; void CAknEdwinState::SetMiddleSoftkeyCommandId(int)
	?UpdateBackground@CAknToolbar@@QAEXXZ @ 1544 NONAME ; void CAknToolbar::UpdateBackground(void)
	?ConstructMenuSctRowFromDialogL@CEikMenuPane@@QAEXAAVTDes16@@H@Z @ 1545 NONAME ; void CEikMenuPane::ConstructMenuSctRowFromDialogL(class TDes16 &, int)
	?DisableToolbarL@CAknToolbar@@QAEXH@Z @ 1546 NONAME ; void CAknToolbar::DisableToolbarL(int)
	?SetToolbarVisibility@CAknToolbar@@QAEXHH@Z @ 1547 NONAME ; void CAknToolbar::SetToolbarVisibility(int, int)
	?IsToolbarDisabled@CAknToolbar@@QBEHXZ @ 1548 NONAME ; int CAknToolbar::IsToolbarDisabled(void) const
	?SetIconSize@CAknButton@@QAEHABVTSize@@@Z @ 1549 NONAME ; int CAknButton::SetIconSize(class TSize const &)
	?SetMargins@CAknButton@@QAEXABVTMargins8@@@Z @ 1550 NONAME ; void CAknButton::SetMargins(class TMargins8 const &)
	?RedrawItem@CEikListBox@@QAEXH@Z @ 1551 NONAME ; void CEikListBox::RedrawItem(int)
	?FocusedItem@CAknToolbar@@QBEHXZ @ 1552 NONAME ; int CAknToolbar::FocusedItem(void) const
	?SetFocusedItemL@CAknToolbar@@QAEXH@Z @ 1553 NONAME ; void CAknToolbar::SetFocusedItemL(int)
	?SetTextAndIconAlignment@CAknButton@@QAEXW4TTextAndIconAlignment@1@@Z @ 1554 NONAME ; void CAknButton::SetTextAndIconAlignment(enum CAknButton::TTextAndIconAlignment)
	?AddSelectionObserverL@CEikListBox@@QAEXPAVMListBoxSelectionObserver@@@Z @ 1555 NONAME ; void CEikListBox::AddSelectionObserverL(class MListBoxSelectionObserver *)
	?RemoveSelectionObserver@CEikListBox@@QAEXPAVMListBoxSelectionObserver@@@Z @ 1556 NONAME ; void CEikListBox::RemoveSelectionObserver(class MListBoxSelectionObserver *)
	?ConstructMenuSctRowFromDialogL@CEikMenuPane@@QAEXHAAVTDes16@@H@Z @ 1557 NONAME ; void CEikMenuPane::ConstructMenuSctRowFromDialogL(int, class TDes16 &, int)
	?UpdatedCommandObserverExists@CEikButtonGroupContainer@@QBEHW4TCommandPosition@1@@Z @ 1558 NONAME ; int CEikButtonGroupContainer::UpdatedCommandObserverExists(enum CEikButtonGroupContainer::TCommandPosition) const
	?SetCcpuState@CAknEdwinState@@QAEXPAVMEikCcpuEditor@@@Z @ 1559 NONAME ; void CAknEdwinState::SetCcpuState(class MEikCcpuEditor *)
	?EventModifiers@CAknToolbar@@QBEHXZ @ 1560 NONAME ; int CAknToolbar::EventModifiers(void) const
	?ToolbarFlags@CAknToolbar@@QBEHXZ @ 1561 NONAME ; int CAknToolbar::ToolbarFlags(void) const
	?SetSoftkeyResourceIdL@CAknToolbar@@QAEXH@Z @ 1562 NONAME ; void CAknToolbar::SetSoftkeyResourceIdL(int)
	?SetScrollRect@CEikEdwin@@QAEXABVTRect@@@Z @ 1563 NONAME ; void CEikEdwin::SetScrollRect(class TRect const &)
	?CurrentFixedToolbar@CEikAppUiFactory@@QBEPAVCAknToolbar@@XZ @ 1564 NONAME ; class CAknToolbar * CEikAppUiFactory::CurrentFixedToolbar(void) const
	?SetViewFixedToolbar@CEikAppUiFactory@@QAEXPAVCAknToolbar@@@Z @ 1565 NONAME ; void CEikAppUiFactory::SetViewFixedToolbar(class CAknToolbar *)
	?AddItemL@CAknToolbarExtension@@QAEXPAVCCoeControl@@HHHH@Z @ 1566 NONAME ; void CAknToolbarExtension::AddItemL(class CCoeControl *, int, int, int, int)
	?ControlOrNull@CAknToolbarExtension@@QBEPAVCCoeControl@@H@Z @ 1567 NONAME ; class CCoeControl * CAknToolbarExtension::ControlOrNull(int) const
	?NewL@CAknToolbarExtension@@SAPAV1@H@Z @ 1568 NONAME ; class CAknToolbarExtension * CAknToolbarExtension::NewL(int)
	?NewLC@CAknToolbarExtension@@SAPAV1@H@Z @ 1569 NONAME ; class CAknToolbarExtension * CAknToolbarExtension::NewLC(int)
	?RemoveItemL@CAknToolbarExtension@@QAEXH@Z @ 1570 NONAME ; void CAknToolbarExtension::RemoveItemL(int)
	?ToolbarExtension@CAknToolbar@@QBEPAVCAknToolbarExtension@@XZ @ 1571 NONAME ; class CAknToolbarExtension * CAknToolbar::ToolbarExtension(void) const
	?IsShown@CAknToolbarExtension@@QBEHXZ @ 1572 NONAME ; int CAknToolbarExtension::IsShown(void) const
	?SetShown@CAknToolbarExtension@@QAEXH@Z @ 1573 NONAME ; void CAknToolbarExtension::SetShown(int)
	?PositionChanged@CAknButton@@UAEXXZ @ 1574 NONAME ; void CAknButton::PositionChanged(void)
	?SetItemDimmed@CAknToolbarExtension@@QAEXHH@Z @ 1575 NONAME ; void CAknToolbarExtension::SetItemDimmed(int, int)
	?HideItemL@CAknToolbarExtension@@QAEXHH@Z @ 1576 NONAME ; void CAknToolbarExtension::HideItemL(int, int)
	?ResetState@CAknButton@@QAEXXZ @ 1577 NONAME ; void CAknButton::ResetState(void)
	?MakeTransparent@EikSoftkeyPostingTransparency@@SAHAAVCEikButtonGroupContainer@@H@Z @ 1578 NONAME ; int EikSoftkeyPostingTransparency::MakeTransparent(class CEikButtonGroupContainer &, int)
	?HideItemsAndDrawOnlyBackground@CAknToolbar@@QAEXH@Z @ 1579 NONAME ; void CAknToolbar::HideItemsAndDrawOnlyBackground(int)
	?SetPosition@CAknStylusPopUpMenu@@QAEXABVTPoint@@W4TPositionType@1@@Z @ 1580 NONAME ; void CAknStylusPopUpMenu::SetPosition(class TPoint const &, enum CAknStylusPopUpMenu::TPositionType)
	?HideItemsAndDrawOnlyBackground@CAknToolbar@@QAEXHH@Z @ 1581 NONAME ; void CAknToolbar::HideItemsAndDrawOnlyBackground(int, int)
	?IsEmpty@CEikCba@@QBEHXZ @ 1582 NONAME ; int CEikCba::IsEmpty(void) const
	?SetCursorVisible@CEikEdwin@@QAEXH@Z @ 1583 NONAME ; void CEikEdwin::SetCursorVisible(int)
	?CompositeInlineTextSource@CAknEdwinFormExtendedInterfaceProvider@@QBEAAVCAknCompositeInlineTextSource@@XZ @ 1584 NONAME ; class CAknCompositeInlineTextSource & CAknEdwinFormExtendedInterfaceProvider::CompositeInlineTextSource(void) const
	?InstallInlineTextSourceL@CAknCompositeInlineTextSource@@QAEXPAVCAknInlineTextSource@@@Z @ 1585 NONAME ; void CAknCompositeInlineTextSource::InstallInlineTextSourceL(class CAknInlineTextSource *)
	?NewL@CAknEdwinFormExtendedInterfaceProvider@@SAPAV1@XZ @ 1586 NONAME ; class CAknEdwinFormExtendedInterfaceProvider * CAknEdwinFormExtendedInterfaceProvider::NewL(void)
	?NewL@CAknPlainPhoneNumberInlineTextSource@@SAPAV1@ABVCPlainText@@@Z @ 1587 NONAME ; class CAknPlainPhoneNumberInlineTextSource * CAknPlainPhoneNumberInlineTextSource::NewL(class CPlainText const &)
	?SetPointerEventFilterDisabledL@CEikListBox@@QAEXABV?$CArrayFix@H@@@Z @ 1588 NONAME ; void CEikListBox::SetPointerEventFilterDisabledL(class CArrayFix<int> const &)
	?SetExtensionAreaType@CEikScrollBar@@QAEXW4TScrollBarExtensionAreaType@1@@Z @ 1589 NONAME ; void CEikScrollBar::SetExtensionAreaType(enum CEikScrollBar::TScrollBarExtensionAreaType)
	?DisableScrolling@CEikListBox@@QAEXH@Z @ 1590 NONAME ; void CEikListBox::DisableScrolling(int)
	?SetItemsInSingleLine@CEikListBox@@QAEXH@Z @ 1591 NONAME ; void CEikListBox::SetItemsInSingleLine(int)
	?BackgroundDrawingSuppressed@CEikListBox@@QBEHXZ @ 1592 NONAME ; int CEikListBox::BackgroundDrawingSuppressed(void) const
	?SetItemOffsetInPixels@CListBoxView@@QAEXH@Z @ 1593 NONAME ; void CListBoxView::SetItemOffsetInPixels(int)
	?HandlePhysicsScrollEventL@CEikListBox@@QAEXH@Z @ 1594 NONAME ; void CEikListBox::HandlePhysicsScrollEventL(int)
	?ItemOffsetInPixels@CListBoxView@@QBEHXZ @ 1595 NONAME ; int CListBoxView::ItemOffsetInPixels(void) const
	?ScrollingDisabled@CEikListBox@@QAEHXZ @ 1596 NONAME ; int CEikListBox::ScrollingDisabled(void)
	?SuspendEffects@CEikListBox@@QAEXH@Z @ 1597 NONAME ; void CEikListBox::SuspendEffects(int)
	?ItemIsPartiallyVisible@CListBoxView@@QBEHH@Z @ 1598 NONAME ; int CListBoxView::ItemIsPartiallyVisible(int) const
	?AknEditorFlags@CEikEdwin@@QAEHXZ @ 1599 NONAME ; int CEikEdwin::AknEditorFlags(void)
	?SetContentObserver@AknCbaContentObserver@@SAXPAVCEikCba@@VTCallBack@@@Z @ 1600 NONAME ; void AknCbaContentObserver::SetContentObserver(class CEikCba *, class TCallBack)
	?SetConstructingMenuBarOwnerL@AknItemActionMenuRegister@@SAXPAVMObjectProvider@@@Z @ 1601 NONAME ; void AknItemActionMenuRegister::SetConstructingMenuBarOwnerL(class MObjectProvider *)
	?RegisterCollectionL@CAknItemActionMenu@@SAPAV1@AAVMAknCollection@@@Z @ 1602 NONAME ; class CAknItemActionMenu * CAknItemActionMenu::RegisterCollectionL(class MAknCollection &)
	?RemoveCollection@CAknItemActionMenu@@QAEXAAVMAknCollection@@@Z @ 1603 NONAME ; void CAknItemActionMenu::RemoveCollection(class MAknCollection &)
	?ShowMenuL@CAknItemActionMenu@@QAEXABVTPoint@@I@Z @ 1604 NONAME ; void CAknItemActionMenu::ShowMenuL(class TPoint const &, unsigned int)
	?InitMenuL@CAknItemActionMenu@@QAEHXZ @ 1605 NONAME ; int CAknItemActionMenu::InitMenuL(void)
	?SetItemSpecific@CEikMenuPane@@QAEXHH@Z @ 1606 NONAME ; void CEikMenuPane::SetItemSpecific(int, int)
	?DisableSingleClick@CEikListBox@@QAEXH@Z @ 1607 NONAME ; void CEikListBox::DisableSingleClick(int)
	?ItemSpecificCommandsEnabled@CEikMenuBar@@QBEHXZ @ 1608 NONAME ; int CEikMenuBar::ItemSpecificCommandsEnabled(void) const
	?UpdateMSKIconL@CEikCba@@QAEHABVTAknsItemID@@ABVTDesC16@@JJH@Z @ 1609 NONAME
	?GetMenuType@CEikMenuBar@@QBE?AW4TMenuType@1@XZ @ 1610 NONAME ; enum CEikMenuBar::TMenuType CEikMenuBar::GetMenuType(void) const
	?EnableKineticScrollingL@CEikEdwin@@QAEXH@Z @ 1611 NONAME ; void CEikEdwin::EnableKineticScrollingL(int)
	?SetSkinBackgroundId@CAknToolbar@@QAEXABVTAknsItemID@@@Z @ 1612 NONAME ; void CAknToolbar::SetSkinBackgroundId(class TAknsItemID const &)
	?CollectionChanged@CAknItemActionMenu@@QAEXAAVMAknCollection@@@Z @ 1613 NONAME ; void CAknItemActionMenu::CollectionChanged(class MAknCollection &)
	?DisableItemSpecificMenu@CEikListBox@@QAEXXZ @ 1614 NONAME ; void CEikListBox::DisableItemSpecificMenu(void)
	?SetOverridingMenuBarOwnerL@AknItemActionMenuRegister@@SAXPAVMObjectProvider@@I@Z @ 1615 NONAME ; void AknItemActionMenuRegister::SetOverridingMenuBarOwnerL(class MObjectProvider *, unsigned int)
	?MakeVisible@CEikListBox@@UAEXH@Z @ 1616 NONAME ; void CEikListBox::MakeVisible(int)
	?EnableItemSpecificSoftkey@CEikCba@@QAEXH@Z @ 1617 NONAME ; void CEikCba::EnableItemSpecificSoftkey(int)

