EXPORTS
	_Z9LibEntryLR13CTestModuleIf @ 1 NONAME
	_ZTI16CTestSettingItem @ 2 NONAME ; #<TI>#
	_ZTI16CTestSettingPage @ 3 NONAME ; #<TI>#
	_ZTI17CTestMenuObserver @ 4 NONAME ; #<TI>#
	_ZTI18CTestParentControl @ 5 NONAME ; #<TI>#
	_ZTI20CSettingItemObserver @ 6 NONAME ; #<TI>#
	_ZTI20CTestDateSettingPage @ 7 NONAME ; #<TI>#
	_ZTI20CTestMfneSettingPage @ 8 NONAME ; #<TI>#
	_ZTI20CTestSettingItemList @ 9 NONAME ; #<TI>#
	_ZTI20CTestTextSettingItem @ 10 NONAME ; #<TI>#
	_ZTI20CTestTextSettingPage @ 11 NONAME ; #<TI>#
	_ZTI20CTestTimeSettingPage @ 12 NONAME ; #<TI>#
	_ZTI21CTestEdwinSettingPage @ 13 NONAME ; #<TI>#
	_ZTI21CTestSettingItemArray @ 14 NONAME ; #<TI>#
	_ZTI22CTestSliderSettingItem @ 15 NONAME ; #<TI>#
	_ZTI22CTestSliderSettingPage @ 16 NONAME ; #<TI>#
	_ZTI22CTestVolumeSettingItem @ 17 NONAME ; #<TI>#
	_ZTI22CTestVolumeSettingPage @ 18 NONAME ; #<TI>#
	_ZTI23CTestBigSettingItemBase @ 19 NONAME ; #<TI>#
	_ZTI23CTestIntegerSettingItem @ 20 NONAME ; #<TI>#
	_ZTI23CTestIntegerSettingPage @ 21 NONAME ; #<TI>#
	_ZTI23CTestIpFieldSettingPage @ 22 NONAME ; #<TI>#
	_ZTI24CTestCheckBoxSettingPage @ 23 NONAME ; #<TI>#
	_ZTI24CTestDurationSettingPage @ 24 NONAME ; #<TI>#
	_ZTI24CTestPasswordSettingItem @ 25 NONAME ; #<TI>#
	_ZTI24CTestPasswordSettingPage @ 26 NONAME ; #<TI>#
	_ZTI26CTestTimeOffsetSettingPage @ 27 NONAME ; #<TI>#
	_ZTI27CTestBinaryPopupSettingItem @ 28 NONAME ; #<TI>#
	_ZTI27CTestRadioButtonSettingPage @ 29 NONAME ; #<TI>#
	_ZTI29CTestAlphaPasswordSettingPage @ 30 NONAME ; #<TI>#
	_ZTI30CTestEnumeratedTextSettingItem @ 31 NONAME ; #<TI>#
	_ZTI32CTestNumbericPasswordSettingPage @ 32 NONAME ; #<TI>#
	_ZTI35CTestEnumeratedTextPopupSettingItem @ 33 NONAME ; #<TI>#
	_ZTV16CTestSettingItem @ 34 NONAME ; #<VT>#
	_ZTV16CTestSettingPage @ 35 NONAME ; #<VT>#
	_ZTV17CTestMenuObserver @ 36 NONAME ; #<VT>#
	_ZTV18CTestParentControl @ 37 NONAME ; #<VT>#
	_ZTV20CSettingItemObserver @ 38 NONAME ; #<VT>#
	_ZTV20CTestDateSettingPage @ 39 NONAME ; #<VT>#
	_ZTV20CTestMfneSettingPage @ 40 NONAME ; #<VT>#
	_ZTV20CTestSettingItemList @ 41 NONAME ; #<VT>#
	_ZTV20CTestTextSettingItem @ 42 NONAME ; #<VT>#
	_ZTV20CTestTextSettingPage @ 43 NONAME ; #<VT>#
	_ZTV20CTestTimeSettingPage @ 44 NONAME ; #<VT>#
	_ZTV21CTestEdwinSettingPage @ 45 NONAME ; #<VT>#
	_ZTV21CTestSettingItemArray @ 46 NONAME ; #<VT>#
	_ZTV22CTestSliderSettingItem @ 47 NONAME ; #<VT>#
	_ZTV22CTestSliderSettingPage @ 48 NONAME ; #<VT>#
	_ZTV22CTestVolumeSettingItem @ 49 NONAME ; #<VT>#
	_ZTV22CTestVolumeSettingPage @ 50 NONAME ; #<VT>#
	_ZTV23CTestBigSettingItemBase @ 51 NONAME ; #<VT>#
	_ZTV23CTestIntegerSettingItem @ 52 NONAME ; #<VT>#
	_ZTV23CTestIntegerSettingPage @ 53 NONAME ; #<VT>#
	_ZTV23CTestIpFieldSettingPage @ 54 NONAME ; #<VT>#
	_ZTV24CTestCheckBoxSettingPage @ 55 NONAME ; #<VT>#
	_ZTV24CTestDurationSettingPage @ 56 NONAME ; #<VT>#
	_ZTV24CTestPasswordSettingItem @ 57 NONAME ; #<VT>#
	_ZTV24CTestPasswordSettingPage @ 58 NONAME ; #<VT>#
	_ZTV26CTestTimeOffsetSettingPage @ 59 NONAME ; #<VT>#
	_ZTV27CTestBinaryPopupSettingItem @ 60 NONAME ; #<VT>#
	_ZTV27CTestRadioButtonSettingPage @ 61 NONAME ; #<VT>#
	_ZTV29CTestAlphaPasswordSettingPage @ 62 NONAME ; #<VT>#
	_ZTV30CTestEnumeratedTextSettingItem @ 63 NONAME ; #<VT>#
	_ZTV32CTestNumbericPasswordSettingPage @ 64 NONAME ; #<VT>#
	_ZTV35CTestEnumeratedTextPopupSettingItem @ 65 NONAME ; #<VT>#

