EXPORTS
	?AddColorIconL@CAknTreeList@@QAEHABVTAknsItemID@@0HABVTDesC16@@HHVTRgb@@W4TScaleMode@@@Z @ 1 NONAME ; int CAknTreeList::AddColorIconL(class TAknsItemID const &, class TAknsItemID const &, int, class TDesC16 const &, int, int, class TRgb, enum TScaleMode)
	?AddIconL@CAknTreeList@@QAEHABVTAknsItemID@@ABVTDesC16@@HHW4TScaleMode@@@Z @ 2 NONAME ; int CAknTreeList::AddIconL(class TAknsItemID const &, class TDesC16 const &, int, int, enum TScaleMode)
	?AddLeafL@CAknSingleStyleTreeList@@QAEHHABVTDesC16@@KH@Z @ 3 NONAME ; int CAknSingleStyleTreeList::AddLeafL(int, class TDesC16 const &, unsigned long, int)
	?AddNodeL@CAknSingleStyleTreeList@@QAEHHABVTDesC16@@KH@Z @ 4 NONAME ; int CAknSingleStyleTreeList::AddNodeL(int, class TDesC16 const &, unsigned long, int)
	?AddObserverL@CAknTreeList@@QAEXPAVMAknTreeListObserver@@@Z @ 5 NONAME ; void CAknTreeList::AddObserverL(class MAknTreeListObserver *)
	?AssignColorIconL@CAknTreeList@@QAEXHABVTAknsItemID@@0HABVTDesC16@@HHVTRgb@@W4TScaleMode@@@Z @ 6 NONAME ; void CAknTreeList::AssignColorIconL(int, class TAknsItemID const &, class TAknsItemID const &, int, class TDesC16 const &, int, int, class TRgb, enum TScaleMode)
	?AssignIconL@CAknTreeList@@QAEXHABVTAknsItemID@@ABVTDesC16@@HHW4TScaleMode@@@Z @ 7 NONAME ; void CAknTreeList::AssignIconL(int, class TAknsItemID const &, class TDesC16 const &, int, int, enum TScaleMode)
	?Child@CAknTreeList@@QBEHHH@Z @ 8 NONAME ; int CAknTreeList::Child(int, int) const
	?ChildCount@CAknTreeList@@QBEHH@Z @ 9 NONAME ; int CAknTreeList::ChildCount(int) const
	?CollapseNode@CAknTreeList@@QAEXHH@Z @ 10 NONAME ; void CAknTreeList::CollapseNode(int, int)
	?Contains@CAknTreeList@@QBEHH@Z @ 11 NONAME ; int CAknTreeList::Contains(int) const
	?ExpandNode@CAknTreeList@@QAEXHH@Z @ 12 NONAME ; void CAknTreeList::ExpandNode(int, int)
	?Flags@CAknTreeList@@QBEKXZ @ 13 NONAME ; unsigned long CAknTreeList::Flags(void) const
	?FocusedItem@CAknTreeList@@QBEHXZ @ 14 NONAME ; int CAknTreeList::FocusedItem(void) const
	?GetMarkedItemsL@CAknTreeList@@QBEXAAV?$RArray@H@@@Z @ 15 NONAME ; void CAknTreeList::GetMarkedItemsL(class RArray<int> &) const
	?GetMarkedItemsL@CAknTreeList@@QBEXHAAV?$RArray@H@@@Z @ 16 NONAME ; void CAknTreeList::GetMarkedItemsL(int, class RArray<int> &) const
	?HighlightRect@CAknTreeList@@QBE?AVTRect@@XZ @ 17 NONAME ; class TRect CAknTreeList::HighlightRect(void) const
	?Icon@CAknSingleStyleTreeList@@QBEHHW4TIconType@1@@Z @ 18 NONAME ; int CAknSingleStyleTreeList::Icon(int, enum CAknSingleStyleTreeList::TIconType) const
	?IsEmpty@CAknTreeList@@QBEHH@Z @ 19 NONAME ; int CAknTreeList::IsEmpty(int) const
	?IsExpanded@CAknTreeList@@QBEHH@Z @ 20 NONAME ; int CAknTreeList::IsExpanded(int) const
	?IsLeaf@CAknTreeList@@QBEHH@Z @ 21 NONAME ; int CAknTreeList::IsLeaf(int) const
	?IsMarked@CAknTreeList@@QBEHH@Z @ 22 NONAME ; int CAknTreeList::IsMarked(int) const
	?IsNode@CAknTreeList@@QBEHH@Z @ 23 NONAME ; int CAknTreeList::IsNode(int) const
	?IsPersistent@CAknTreeList@@QBEHH@Z @ 24 NONAME ; int CAknTreeList::IsPersistent(int) const
	?MoveItemL@CAknTreeList@@QAEXHHH@Z @ 25 NONAME ; void CAknTreeList::MoveItemL(int, int, int)
	?NewL@CAknSingleStyleTreeList@@SAPAV1@ABVCCoeControl@@@Z @ 26 NONAME ; class CAknSingleStyleTreeList * CAknSingleStyleTreeList::NewL(class CCoeControl const &)
	?NewL@CAknSingleStyleTreeList@@SAPAV1@XZ @ 27 NONAME ; class CAknSingleStyleTreeList * CAknSingleStyleTreeList::NewL(void)
	?NewLC@CAknSingleStyleTreeList@@SAPAV1@ABVCCoeControl@@@Z @ 28 NONAME ; class CAknSingleStyleTreeList * CAknSingleStyleTreeList::NewLC(class CCoeControl const &)
	?NewLC@CAknSingleStyleTreeList@@SAPAV1@XZ @ 29 NONAME ; class CAknSingleStyleTreeList * CAknSingleStyleTreeList::NewLC(void)
	?Parent@CAknTreeList@@QBEHH@Z @ 30 NONAME ; int CAknTreeList::Parent(int) const
	?RemoveIconL@CAknTreeList@@QAEXH@Z @ 31 NONAME ; void CAknTreeList::RemoveIconL(int)
	?RemoveItem@CAknTreeList@@QAEXHH@Z @ 32 NONAME ; void CAknTreeList::RemoveItem(int, int)
	?RemoveObserver@CAknTreeList@@QAEXPAVMAknTreeListObserver@@@Z @ 33 NONAME ; void CAknTreeList::RemoveObserver(class MAknTreeListObserver *)
	?SetFlags@CAknTreeList@@UAEXK@Z @ 34 NONAME ; void CAknTreeList::SetFlags(unsigned long)
	?SetFocusedItem@CAknTreeList@@QAEXHHH@Z @ 35 NONAME ; void CAknTreeList::SetFocusedItem(int, int, int)
	?SetIcon@CAknSingleStyleTreeList@@QAEXHW4TIconType@1@HH@Z @ 36 NONAME ; void CAknSingleStyleTreeList::SetIcon(int, enum CAknSingleStyleTreeList::TIconType, int, int)
	?SetMarked@CAknTreeList@@QAEXHHH@Z @ 37 NONAME ; void CAknTreeList::SetMarked(int, int, int)
	?SetNonEmpty@CAknTreeList@@QAEXHHH@Z @ 38 NONAME ; void CAknTreeList::SetNonEmpty(int, int, int)
	?SetPersistent@CAknTreeList@@QAEXHH@Z @ 39 NONAME ; void CAknTreeList::SetPersistent(int, int)
	?SetTextL@CAknSingleStyleTreeList@@QAEXHABVTDesC16@@H@Z @ 40 NONAME ; void CAknSingleStyleTreeList::SetTextL(int, class TDesC16 const &, int)
	?Sort@CAknTreeList@@QAEXPAVMAknCustomTreeOrdering@@H@Z @ 41 NONAME ; void CAknTreeList::Sort(class MAknCustomTreeOrdering *, int)
	?SortL@CAknSingleStyleTreeList@@QAEXW4TOrdering@1@H@Z @ 42 NONAME ; void CAknSingleStyleTreeList::SortL(enum CAknSingleStyleTreeList::TOrdering, int)
	?Text@CAknSingleStyleTreeList@@QBEABVTDesC16@@H@Z @ 43 NONAME ; class TDesC16 const & CAknSingleStyleTreeList::Text(int) const
	?AddCoreDataRowL@CAknSingleColumnStyleTreeList@@QAEHHABVTDesC16@@00KH@Z @ 44 NONAME ; int CAknSingleColumnStyleTreeList::AddCoreDataRowL(int, class TDesC16 const &, class TDesC16 const &, class TDesC16 const &, unsigned long, int)
	?AddCoreDataRowL@CAknSingleColumnStyleTreeList@@QAEHHABVTDesC16@@0KH@Z @ 45 NONAME ; int CAknSingleColumnStyleTreeList::AddCoreDataRowL(int, class TDesC16 const &, class TDesC16 const &, unsigned long, int)
	?AddIconL@CAknTreeList@@QAEHPAVCFbsBitmap@@0HW4TScaleMode@@@Z @ 46 NONAME ; int CAknTreeList::AddIconL(class CFbsBitmap *, class CFbsBitmap *, int, enum TScaleMode)
	?AddSimpleDataRowL@CAknSingleColumnStyleTreeList@@QAEHHABVTDesC16@@KH@Z @ 47 NONAME ; int CAknSingleColumnStyleTreeList::AddSimpleDataRowL(int, class TDesC16 const &, unsigned long, int)
	?AddSubtitleRowL@CAknSingleColumnStyleTreeList@@QAEHHABVTDesC16@@KH@Z @ 48 NONAME ; int CAknSingleColumnStyleTreeList::AddSubtitleRowL(int, class TDesC16 const &, unsigned long, int)
	?AssignIconL@CAknTreeList@@QAEXHPAVCFbsBitmap@@0HW4TScaleMode@@@Z @ 49 NONAME ; void CAknTreeList::AssignIconL(int, class CFbsBitmap *, class CFbsBitmap *, int, enum TScaleMode)
	?EnableTabModeFunctionIndicatorsL@CAknTreeList@@QAEXH@Z @ 50 NONAME ; void CAknTreeList::EnableTabModeFunctionIndicatorsL(int)
	?EnableThirdColumn@CAknSingleColumnStyleTreeList@@QAEXHHH@Z @ 51 NONAME ; void CAknSingleColumnStyleTreeList::EnableThirdColumn(int, int, int)
	?Icon@CAknSingleColumnStyleTreeList@@QBEHHW4TIconType@1@@Z @ 52 NONAME ; int CAknSingleColumnStyleTreeList::Icon(int, enum CAknSingleColumnStyleTreeList::TIconType) const
	?IsEmphasised@CAknSingleColumnStyleTreeList@@QBEHH@Z @ 53 NONAME ; int CAknSingleColumnStyleTreeList::IsEmphasised(int) const
	?IsThirdColumnEnabled@CAknSingleColumnStyleTreeList@@QBEHH@Z @ 54 NONAME ; int CAknSingleColumnStyleTreeList::IsThirdColumnEnabled(int) const
	?ItemType@CAknSingleColumnStyleTreeList@@QBE?AW4TItemType@1@H@Z @ 55 NONAME ; enum CAknSingleColumnStyleTreeList::TItemType CAknSingleColumnStyleTreeList::ItemType(int) const
	?NewL@CAknSingleColumnStyleTreeList@@SAPAV1@ABVCCoeControl@@@Z @ 56 NONAME ; class CAknSingleColumnStyleTreeList * CAknSingleColumnStyleTreeList::NewL(class CCoeControl const &)
	?NewL@CAknSingleColumnStyleTreeList@@SAPAV1@XZ @ 57 NONAME ; class CAknSingleColumnStyleTreeList * CAknSingleColumnStyleTreeList::NewL(void)
	?NewLC@CAknSingleColumnStyleTreeList@@SAPAV1@ABVCCoeControl@@@Z @ 58 NONAME ; class CAknSingleColumnStyleTreeList * CAknSingleColumnStyleTreeList::NewLC(class CCoeControl const &)
	?NewLC@CAknSingleColumnStyleTreeList@@SAPAV1@XZ @ 59 NONAME ; class CAknSingleColumnStyleTreeList * CAknSingleColumnStyleTreeList::NewLC(void)
	?SetEmphasis@CAknSingleColumnStyleTreeList@@QAEXHHH@Z @ 60 NONAME ; void CAknSingleColumnStyleTreeList::SetEmphasis(int, int, int)
	?SetIcon@CAknSingleColumnStyleTreeList@@QAEXHW4TIconType@1@HH@Z @ 61 NONAME ; void CAknSingleColumnStyleTreeList::SetIcon(int, enum CAknSingleColumnStyleTreeList::TIconType, int, int)
	?SetTextL@CAknSingleColumnStyleTreeList@@QAEXHABVTDesC16@@H@Z @ 62 NONAME ; void CAknSingleColumnStyleTreeList::SetTextL(int, class TDesC16 const &, int)
	?SetTextL@CAknSingleColumnStyleTreeList@@QAEXHABVTDesC16@@HH@Z @ 63 NONAME ; void CAknSingleColumnStyleTreeList::SetTextL(int, class TDesC16 const &, int, int)
	?TabModeFunctionIndicators@CAknTreeList@@QBEHXZ @ 64 NONAME ; int CAknTreeList::TabModeFunctionIndicators(void) const
	?Text@CAknSingleColumnStyleTreeList@@QBEABVTDesC16@@H@Z @ 65 NONAME ; class TDesC16 const & CAknSingleColumnStyleTreeList::Text(int) const
	?Text@CAknSingleColumnStyleTreeList@@QBEABVTDesC16@@HH@Z @ 66 NONAME ; class TDesC16 const & CAknSingleColumnStyleTreeList::Text(int, int) const
	?EnableMarking@CAknTreeList@@QAEXHH@Z @ 67 NONAME ; void CAknTreeList::EnableMarking(int, int)
	?Sort@CAknTreeList@@QAEXHHH@Z @ 68 NONAME ; void CAknTreeList::Sort(int, int, int)
	?FocusedItemIndex@CAknTreeList@@QBEHXZ @ 69 NONAME ; int CAknTreeList::FocusedItemIndex(void) const
	?SetFocusedItem@CAknTreeList@@QAEXH@Z @ 70 NONAME ; void CAknTreeList::SetFocusedItem(int)
	?Sort@CAknTreeList@@QAEXHW4TFocusBehaviour@1@HH@Z @ 71 NONAME ; void CAknTreeList::Sort(int, enum CAknTreeList::TFocusBehaviour, int, int)
	?Sort@CAknTreeList@@QAEXPAVMAknCustomTreeOrdering@@W4TFocusBehaviour@1@H@Z @ 72 NONAME ; void CAknTreeList::Sort(class MAknCustomTreeOrdering *, enum CAknTreeList::TFocusBehaviour, int)
	?SetEmptyTextL@CAknTreeList@@QAEXABVTDesC16@@@Z @ 73 NONAME ; void CAknTreeList::SetEmptyTextL(class TDesC16 const &)
	?VisibleItemIndex@CAknTreeList@@QBEHH@Z @ 74 NONAME ; int CAknTreeList::VisibleItemIndex(int) const

