EXPORTS
	??1CAknBatteryNotify@@EAE@XZ @ 1 NONAME ; CAknBatteryNotify::~CAknBatteryNotify(void)
	??1CAknGlobalConfirmationQuery@@UAE@XZ @ 2 NONAME ; CAknGlobalConfirmationQuery::~CAknGlobalConfirmationQuery(void)
	??1CAknGlobalListQuery@@UAE@XZ @ 3 NONAME ; CAknGlobalListQuery::~CAknGlobalListQuery(void)
	??1CAknGlobalMsgQuery@@UAE@XZ @ 4 NONAME ; CAknGlobalMsgQuery::~CAknGlobalMsgQuery(void)
	??1CAknGlobalNote@@UAE@XZ @ 5 NONAME ; CAknGlobalNote::~CAknGlobalNote(void)
	??1CAknGlobalProgressDialog@@UAE@XZ @ 6 NONAME ; CAknGlobalProgressDialog::~CAknGlobalProgressDialog(void)
	??1CAknIncallBubble@@UAE@XZ @ 7 NONAME ; CAknIncallBubble::~CAknIncallBubble(void)
	??1CAknNotifyBase@@UAE@XZ @ 8 NONAME ; CAknNotifyBase::~CAknNotifyBase(void)
	??1CAknPopupNotify@@UAE@XZ @ 9 NONAME ; CAknPopupNotify::~CAknPopupNotify(void)
	??1CAknSignalNotify@@EAE@XZ @ 10 NONAME ; CAknSignalNotify::~CAknSignalNotify(void)
	??1CAknSignalNotifyAddition@@EAE@XZ @ 11 NONAME ; CAknSignalNotifyAddition::~CAknSignalNotifyAddition(void)
	??1CAknSmallIndicator@@UAE@XZ @ 12 NONAME ; CAknSmallIndicator::~CAknSmallIndicator(void)
	??1CAknSoftNotifier@@UAE@XZ @ 13 NONAME ; CAknSoftNotifier::~CAknSoftNotifier(void)
	?AddCustomNotificationL@CAknSoftNotifier@@QAEXAAVCAknSoftNotificationParameters@@H@Z @ 14 NONAME ; void CAknSoftNotifier::AddCustomNotificationL(class CAknSoftNotificationParameters &, int)
	?AddNotificationL@CAknSoftNotifier@@QAEXW4TAknSoftNotificationType@@H@Z @ 15 NONAME ; void CAknSoftNotifier::AddNotificationL(enum TAknSoftNotificationType, int)
	?AddNotificationL@CAknSoftNotifier@@QAEXW4TAknSoftNotificationType@@PAVTPtrC16@@@Z @ 16 NONAME ; void CAknSoftNotifier::AddNotificationL(enum TAknSoftNotificationType, class TPtrC16 *)
	?SetBatteryStateL@CAknBatteryNotify@@AAEXH@Z @ 17 NONAME ; void CAknBatteryNotify::SetBatteryStateL(int)
	?CAknNotifyBase_Reserved@CAknGlobalNote@@AAEXXZ @ 18 NONAME ; void CAknGlobalNote::CAknNotifyBase_Reserved(void)
	?CAknNotifyBase_Reserved@CAknIncallBubble@@AAEXXZ @ 19 NONAME ; void CAknIncallBubble::CAknNotifyBase_Reserved(void)
	?CAknNotifyBase_Reserved@CAknNotifyBase@@AAEXXZ @ 20 NONAME ; void CAknNotifyBase::CAknNotifyBase_Reserved(void)
	?CAknNotifyBase_Reserved@CAknPopupNotify@@AAEXXZ @ 21 NONAME ; void CAknPopupNotify::CAknNotifyBase_Reserved(void)
	?CAknNotifyBase_Reserved@CAknSignalNotify@@AAEXXZ @ 22 NONAME ; void CAknSignalNotify::CAknNotifyBase_Reserved(void)
	?CAknNotifyBase_Reserved@CAknSmallIndicator@@AAEXXZ @ 23 NONAME ; void CAknSmallIndicator::CAknNotifyBase_Reserved(void)
	?CAknNotifyBase_Reserved@CAknSoftNotifier@@AAEXXZ @ 24 NONAME ; void CAknSoftNotifier::CAknNotifyBase_Reserved(void)
	?CancelConfirmationQuery@CAknGlobalConfirmationQuery@@QAEXXZ @ 25 NONAME ; void CAknGlobalConfirmationQuery::CancelConfirmationQuery(void)
	?CancelCustomSoftNotificationL@CAknSoftNotifier@@QAEXAAVCAknSoftNotificationParameters@@@Z @ 26 NONAME ; void CAknSoftNotifier::CancelCustomSoftNotificationL(class CAknSoftNotificationParameters &)
	?CancelListQuery@CAknGlobalListQuery@@QAEXXZ @ 27 NONAME ; void CAknGlobalListQuery::CancelListQuery(void)
	?CancelMsgQuery@CAknGlobalMsgQuery@@QAEXXZ @ 28 NONAME ; void CAknGlobalMsgQuery::CancelMsgQuery(void)
	?CancelNoteL@CAknGlobalNote@@QAEXH@Z @ 29 NONAME ; void CAknGlobalNote::CancelNoteL(int)
	?CancelProgressDialog@CAknGlobalProgressDialog@@QAEXXZ @ 30 NONAME ; void CAknGlobalProgressDialog::CancelProgressDialog(void)
	?CancelSoftNotificationL@CAknSoftNotifier@@QAEXW4TAknSoftNotificationType@@@Z @ 31 NONAME ; void CAknSoftNotifier::CancelSoftNotificationL(enum TAknSoftNotificationType)
	?Connect@CAknSignalNotifyAddition@@AAEXXZ @ 32 NONAME ; void CAknSignalNotifyAddition::Connect(void)
	?MoveSelectionDown@CAknGlobalListQuery@@QAEXXZ @ 33 NONAME ; void CAknGlobalListQuery::MoveSelectionDown(void)
	?MoveSelectionUp@CAknGlobalListQuery@@QAEXXZ @ 34 NONAME ; void CAknGlobalListQuery::MoveSelectionUp(void)
	?NewL@CAknBatteryNotify@@CAPAV1@XZ @ 35 NONAME ; class CAknBatteryNotify * CAknBatteryNotify::NewL(void)
	?NewL@CAknGlobalConfirmationQuery@@SAPAV1@XZ @ 36 NONAME ; class CAknGlobalConfirmationQuery * CAknGlobalConfirmationQuery::NewL(void)
	?NewL@CAknGlobalListQuery@@SAPAV1@XZ @ 37 NONAME ; class CAknGlobalListQuery * CAknGlobalListQuery::NewL(void)
	?NewL@CAknGlobalMsgQuery@@SAPAV1@XZ @ 38 NONAME ; class CAknGlobalMsgQuery * CAknGlobalMsgQuery::NewL(void)
	?NewL@CAknGlobalNote@@SAPAV1@XZ @ 39 NONAME ; class CAknGlobalNote * CAknGlobalNote::NewL(void)
	?NewL@CAknGlobalProgressDialog@@SAPAV1@XZ @ 40 NONAME ; class CAknGlobalProgressDialog * CAknGlobalProgressDialog::NewL(void)
	?NewL@CAknIncallBubble@@SAPAV1@XZ @ 41 NONAME ; class CAknIncallBubble * CAknIncallBubble::NewL(void)
	?NewL@CAknPopupNotify@@SAPAV1@XZ @ 42 NONAME ; class CAknPopupNotify * CAknPopupNotify::NewL(void)
	?NewL@CAknSignalNotify@@CAPAV1@XZ @ 43 NONAME ; class CAknSignalNotify * CAknSignalNotify::NewL(void)
	?NewL@CAknSignalNotifyAddition@@CAPAV1@XZ @ 44 NONAME ; class CAknSignalNotifyAddition * CAknSignalNotifyAddition::NewL(void)
	?NewL@CAknSmallIndicator@@SAPAV1@VTUid@@@Z @ 45 NONAME ; class CAknSmallIndicator * CAknSmallIndicator::NewL(class TUid)
	?NewL@CAknSoftNotifier@@SAPAV1@XZ @ 46 NONAME ; class CAknSoftNotifier * CAknSoftNotifier::NewL(void)
	?NewLC@CAknBatteryNotify@@CAPAV1@XZ @ 47 NONAME ; class CAknBatteryNotify * CAknBatteryNotify::NewLC(void)
	?NewLC@CAknGlobalConfirmationQuery@@SAPAV1@XZ @ 48 NONAME ; class CAknGlobalConfirmationQuery * CAknGlobalConfirmationQuery::NewLC(void)
	?NewLC@CAknGlobalListQuery@@SAPAV1@XZ @ 49 NONAME ; class CAknGlobalListQuery * CAknGlobalListQuery::NewLC(void)
	?NewLC@CAknGlobalMsgQuery@@SAPAV1@XZ @ 50 NONAME ; class CAknGlobalMsgQuery * CAknGlobalMsgQuery::NewLC(void)
	?NewLC@CAknGlobalNote@@SAPAV1@XZ @ 51 NONAME ; class CAknGlobalNote * CAknGlobalNote::NewLC(void)
	?NewLC@CAknGlobalProgressDialog@@SAPAV1@XZ @ 52 NONAME ; class CAknGlobalProgressDialog * CAknGlobalProgressDialog::NewLC(void)
	?NewLC@CAknIncallBubble@@SAPAV1@XZ @ 53 NONAME ; class CAknIncallBubble * CAknIncallBubble::NewLC(void)
	?NewLC@CAknPopupNotify@@SAPAV1@XZ @ 54 NONAME ; class CAknPopupNotify * CAknPopupNotify::NewLC(void)
	?NewLC@CAknSignalNotify@@CAPAV1@XZ @ 55 NONAME ; class CAknSignalNotify * CAknSignalNotify::NewLC(void)
	?NewLC@CAknSignalNotifyAddition@@CAPAV1@XZ @ 56 NONAME ; class CAknSignalNotifyAddition * CAknSignalNotifyAddition::NewLC(void)
	?NewLC@CAknSmallIndicator@@SAPAV1@VTUid@@@Z @ 57 NONAME ; class CAknSmallIndicator * CAknSmallIndicator::NewLC(class TUid)
	?NewLC@CAknSoftNotifier@@SAPAV1@XZ @ 58 NONAME ; class CAknSoftNotifier * CAknSoftNotifier::NewLC(void)
	?NotChargingL@CAknBatteryNotify@@AAEXXZ @ 59 NONAME ; void CAknBatteryNotify::NotChargingL(void)
	?PopupMessageL@CAknPopupNotify@@QAEXABVTDesC16@@@Z @ 60 NONAME ; void CAknPopupNotify::PopupMessageL(class TDesC16 const &)
	?ProcessFinished@CAknGlobalProgressDialog@@QAEXXZ @ 61 NONAME ; void CAknGlobalProgressDialog::ProcessFinished(void)
	?SelectItem@CAknGlobalListQuery@@QAEXXZ @ 62 NONAME ; void CAknGlobalListQuery::SelectItem(void)
	?SetAnimation@CAknGlobalNote@@QAEXH@Z @ 63 NONAME ; void CAknGlobalNote::SetAnimation(int)
	?SetBatteryLevelL@CAknBatteryNotify@@AAEXH@Z @ 64 NONAME ; void CAknBatteryNotify::SetBatteryLevelL(int)
	?SetCdmaStateL@CAknSignalNotify@@AAEXH@Z @ 65 NONAME ; void CAknSignalNotify::SetCdmaStateL(int)
	?SetCommonPacketDataStateL@CAknSignalNotify@@AAEXH@Z @ 66 NONAME ; void CAknSignalNotify::SetCommonPacketDataStateL(int)
	?SetCustomNotificationCountL@CAknSoftNotifier@@QAEXAAVCAknSoftNotificationParameters@@H@Z @ 67 NONAME ; void CAknSoftNotifier::SetCustomNotificationCountL(class CAknSoftNotificationParameters &, int)
	?SetExitDelay@CAknGlobalMsgQuery@@QAEXH@Z @ 68 NONAME ; void CAknGlobalMsgQuery::SetExitDelay(int)
	?SetGprsStateL@CAknSignalNotify@@AAEXH@Z @ 69 NONAME ; void CAknSignalNotify::SetGprsStateL(int)
	?SetGraphic@CAknGlobalNote@@QAEXHH@Z @ 70 NONAME ; void CAknGlobalNote::SetGraphic(int, int)
	?SetHeadingL@CAknGlobalListQuery@@QAEXABVTDesC16@@@Z @ 71 NONAME ; void CAknGlobalListQuery::SetHeadingL(class TDesC16 const &)
	?SetIconL@CAknGlobalProgressDialog@@QAEXABVTDesC16@@0HH@Z @ 72 NONAME ; void CAknGlobalProgressDialog::SetIconL(class TDesC16 const &, class TDesC16 const &, int, int)
	?SetIdleStateL@CAknSoftNotifier@@AAEXH@Z @ 73 NONAME ; void CAknSoftNotifier::SetIdleStateL(int)
	?SetImageL@CAknGlobalProgressDialog@@QAEXABVTDesC16@@HH@Z @ 74 NONAME ; void CAknGlobalProgressDialog::SetImageL(class TDesC16 const &, int, int)
	?SetImageSkinId@CAknGlobalConfirmationQuery@@QAEXAAVTAknsItemID@@@Z @ 75 NONAME ; void CAknGlobalConfirmationQuery::SetImageSkinId(class TAknsItemID &)
	?SetImageSkinId@CAknGlobalMsgQuery@@QAEXAAVTAknsItemID@@@Z @ 76 NONAME ; void CAknGlobalMsgQuery::SetImageSkinId(class TAknsItemID &)
	?SetImageSkinIds@CAknGlobalProgressDialog@@QAEXAAVTAknsItemID@@0@Z @ 77 NONAME ; void CAknGlobalProgressDialog::SetImageSkinIds(class TAknsItemID &, class TAknsItemID &)
	?SetIncallBubbleFlagsL@CAknIncallBubble@@QAEXH@Z @ 78 NONAME ; void CAknIncallBubble::SetIncallBubbleFlagsL(int)
	?SetIndicatorStateL@CAknSmallIndicator@@QAEXH@Z @ 79 NONAME ; void CAknSmallIndicator::SetIndicatorStateL(int)
	?SetNaviPaneBackgroundTypeL@CAknSignalNotifyAddition@@AAEXH@Z @ 80 NONAME ; void CAknSignalNotifyAddition::SetNaviPaneBackgroundTypeL(int)
	?SetNotificationCountL@CAknSoftNotifier@@QAEXW4TAknSoftNotificationType@@HPAVTPtrC16@@@Z @ 81 NONAME ; void CAknSoftNotifier::SetNotificationCountL(enum TAknSoftNotificationType, int, class TPtrC16 *)
	?SetPriority@CAknGlobalNote@@QAEXH@Z @ 82 NONAME ; void CAknGlobalNote::SetPriority(int)
	?SetSignalLevelL@CAknSignalNotify@@AAEXH@Z @ 83 NONAME ; void CAknSignalNotify::SetSignalLevelL(int)
	?SetSoftkeys@CAknGlobalNote@@QAEXH@Z @ 84 NONAME ; void CAknGlobalNote::SetSoftkeys(int)
	?SetTextProcessing@CAknGlobalNote@@QAEXH@Z @ 85 NONAME ; void CAknGlobalNote::SetTextProcessing(int)
	?SetTone@CAknGlobalNote@@QAEXH@Z @ 86 NONAME ; void CAknGlobalNote::SetTone(int)
	?SetWcdmaStateL@CAknSignalNotify@@AAEXH@Z @ 87 NONAME ; void CAknSignalNotify::SetWcdmaStateL(int)
	?ShowConfirmationQueryL@CAknGlobalConfirmationQuery@@QAEXAAVTRequestStatus@@ABVTDesC16@@HH1HHW4TTone@CAknQueryDialog@@H@Z @ 88 NONAME ; void CAknGlobalConfirmationQuery::ShowConfirmationQueryL(class TRequestStatus &, class TDesC16 const &, int, int, class TDesC16 const &, int, int, enum CAknQueryDialog::TTone, int)
	?ShowListQueryL@CAknGlobalListQuery@@QAEXPBVMDesC16Array@@AAVTRequestStatus@@H@Z @ 89 NONAME ; void CAknGlobalListQuery::ShowListQueryL(class MDesC16Array const *, class TRequestStatus &, int)
	?ShowMsgQueryL@CAknGlobalMsgQuery@@QAEXAAVTRequestStatus@@ABVTDesC16@@H11HHW4TTone@CAknQueryDialog@@@Z @ 90 NONAME ; void CAknGlobalMsgQuery::ShowMsgQueryL(class TRequestStatus &, class TDesC16 const &, int, class TDesC16 const &, class TDesC16 const &, int, int, enum CAknQueryDialog::TTone)
	?ShowNoteL@CAknGlobalNote@@QAEHAAVTRequestStatus@@W4TAknGlobalNoteType@@ABVTDesC16@@@Z @ 91 NONAME ; int CAknGlobalNote::ShowNoteL(class TRequestStatus &, enum TAknGlobalNoteType, class TDesC16 const &)
	?ShowNoteL@CAknGlobalNote@@QAEHW4TAknGlobalNoteType@@ABVTDesC16@@@Z @ 92 NONAME ; int CAknGlobalNote::ShowNoteL(enum TAknGlobalNoteType, class TDesC16 const &)
	?ShowProgressDialogL@CAknGlobalProgressDialog@@QAEXAAVTRequestStatus@@ABVTDesC16@@HHW4TTone@CAknNoteDialog@@@Z @ 93 NONAME ; void CAknGlobalProgressDialog::ShowProgressDialogL(class TRequestStatus &, class TDesC16 const &, int, int, enum CAknNoteDialog::TTone)
	?StartChargingL@CAknBatteryNotify@@AAEXXZ @ 94 NONAME ; void CAknBatteryNotify::StartChargingL(void)
	?StopChargingL@CAknBatteryNotify@@AAEXXZ @ 95 NONAME ; void CAknBatteryNotify::StopChargingL(void)
	?UpdateConfirmationQuery@CAknGlobalConfirmationQuery@@QAEXH@Z @ 96 NONAME ; void CAknGlobalConfirmationQuery::UpdateConfirmationQuery(int)
	?UpdateListQuery@CAknGlobalListQuery@@AAEXXZ @ 97 NONAME ; void CAknGlobalListQuery::UpdateListQuery(void)
	?UpdateMsgQuery@CAknGlobalMsgQuery@@QAEXH@Z @ 98 NONAME ; void CAknGlobalMsgQuery::UpdateMsgQuery(int)
	?UpdateProgressDialog@CAknGlobalProgressDialog@@QAEXHH@Z @ 99 NONAME ; void CAknGlobalProgressDialog::UpdateProgressDialog(int, int)
	?SetIncallBubbleAllowedInIdleL@CAknIncallBubble@@QAEXH@Z @ 100 NONAME ; void CAknIncallBubble::SetIncallBubbleAllowedInIdleL(int)
	?DoGlobaNoteBufferL@CAknGlobalNote@@SAXFFHFFHFHHABVTDesC16@@PAVCBufFlat@@@Z @ 101 NONAME ; void CAknGlobalNote::DoGlobaNoteBufferL(short, short, int, short, short, int, short, int, int, class TDesC16 const &, class CBufFlat *)
	?SetEdgeStateL@CAknSignalNotify@@AAEXH@Z @ 102 NONAME ; void CAknSignalNotify::SetEdgeStateL(int)
	?SetIncallBubbleAllowedInUsualL@CAknIncallBubble@@QAEXH@Z @ 103 NONAME ; void CAknIncallBubble::SetIncallBubbleAllowedInUsualL(int)
	?SetSecondaryDisplayData@CAknGlobalConfirmationQuery@@QAEXPAVCAknSDData@@@Z @ 104 NONAME ; void CAknGlobalConfirmationQuery::SetSecondaryDisplayData(class CAknSDData *)
	?SetSecondaryDisplayData@CAknGlobalListQuery@@QAEXPAVCAknSDData@@@Z @ 105 NONAME ; void CAknGlobalListQuery::SetSecondaryDisplayData(class CAknSDData *)
	?SetSecondaryDisplayData@CAknGlobalMsgQuery@@QAEXPAVCAknSDData@@@Z @ 106 NONAME ; void CAknGlobalMsgQuery::SetSecondaryDisplayData(class CAknSDData *)
	?SetSecondaryDisplayData@CAknGlobalProgressDialog@@QAEXPAVCAknSDData@@@Z @ 107 NONAME ; void CAknGlobalProgressDialog::SetSecondaryDisplayData(class CAknSDData *)
	?SetSecondaryDisplayData@CAknNotifyBase@@QAEXPAVCAknSDData@@@Z @ 108 NONAME ; void CAknNotifyBase::SetSecondaryDisplayData(class CAknSDData *)
	?ExternalizeL@CAknSDData@@QBEXAAVRWriteStream@@@Z @ 109 NONAME ; void CAknSDData::ExternalizeL(class RWriteStream &) const
	?InternalizeL@CAknSDData@@QAEXAAVRReadStream@@@Z @ 110 NONAME ; void CAknSDData::InternalizeL(class RReadStream &)
	?InsertGlobalListQueryItemIdsL@CAknSDData@@QAEXAAV?$RArray@H@@@Z @ 111 NONAME ; void CAknSDData::InsertGlobalListQueryItemIdsL(class RArray<int> &)
	?SetHsdpaStateL@CAknSignalNotify@@AAEXH@Z @ 112 NONAME ; void CAknSignalNotify::SetHsdpaStateL(int)
	?HandleIndicatorTapL@CAknSmallIndicator@@QAEXXZ @ 113 NONAME ; void CAknSmallIndicator::HandleIndicatorTapL(void)
	??1CAknGlobalListMsgQuery@@UAE@XZ @ 114 NONAME ; CAknGlobalListMsgQuery::~CAknGlobalListMsgQuery(void)
	?CancelListMsgQuery@CAknGlobalListMsgQuery@@QAEXXZ @ 115 NONAME ; void CAknGlobalListMsgQuery::CancelListMsgQuery(void)
	?MoveSelectionDown@CAknGlobalListMsgQuery@@QAEXXZ @ 116 NONAME ; void CAknGlobalListMsgQuery::MoveSelectionDown(void)
	?MoveSelectionUp@CAknGlobalListMsgQuery@@QAEXXZ @ 117 NONAME ; void CAknGlobalListMsgQuery::MoveSelectionUp(void)
	?NewL@CAknGlobalListMsgQuery@@SAPAV1@XZ @ 118 NONAME ; class CAknGlobalListMsgQuery * CAknGlobalListMsgQuery::NewL(void)
	?NewLC@CAknGlobalListMsgQuery@@SAPAV1@XZ @ 119 NONAME ; class CAknGlobalListMsgQuery * CAknGlobalListMsgQuery::NewLC(void)
	?SelectItem@CAknGlobalListMsgQuery@@QAEXXZ @ 120 NONAME ; void CAknGlobalListMsgQuery::SelectItem(void)
	?SetImageSkinId@CAknGlobalListMsgQuery@@QAEXABVTAknsItemID@@@Z @ 121 NONAME ; void CAknGlobalListMsgQuery::SetImageSkinId(class TAknsItemID const &)
	?SetSecondaryDisplayData@CAknGlobalListMsgQuery@@QAEXPAVCAknSDData@@@Z @ 122 NONAME ; void CAknGlobalListMsgQuery::SetSecondaryDisplayData(class CAknSDData *)
	?ShowListMsgQueryL@CAknGlobalListMsgQuery@@QAEXPBVMDesC16Array@@AAVTRequestStatus@@ABVTDesC16@@2HHHH2HHW4TTone@CAknQueryDialog@@@Z @ 123 NONAME ; void CAknGlobalListMsgQuery::ShowListMsgQueryL(class MDesC16Array const *, class TRequestStatus &, class TDesC16 const &, class TDesC16 const &, int, int, int, int, class TDesC16 const &, int, int, enum CAknQueryDialog::TTone)
	?AknTracePrint@@YAXPBDZZ @ 124 NONAME ; void AknTracePrint(const char* aFmt, ...)
	?AknTracePrint@@YAXV?$TRefByValue@$$CBVTDesC16@@@@ZZ @ 125 NONAME ; void AknTracePrint(TRefByValue<const TDesC16> aFmt, ...)
