EXPORTS
	??0?$AknListBoxLinesTemplate@VCAknColumnListBox@@@@QAE@H@Z @ 1 NONAME ; AknListBoxLinesTemplate<class CAknColumnListBox>::AknListBoxLinesTemplate<class CAknColumnListBox>(int)
	??0?$AknListBoxLinesTemplate@VCEikFormattedCellListBox@@@@QAE@H@Z @ 2 NONAME ; AknListBoxLinesTemplate<class CEikFormattedCellListBox>::AknListBoxLinesTemplate<class CEikFormattedCellListBox>(int)
	??0?$AknListBoxLinesTemplate@VCEikSettingsListBox@@@@QAE@H@Z @ 3 NONAME ; AknListBoxLinesTemplate<class CEikSettingsListBox>::AknListBoxLinesTemplate<class CEikSettingsListBox>(int)
	??0AknListBoxShortCuts@@QAE@XZ @ 4 NONAME ; AknListBoxShortCuts::AknListBoxShortCuts(void)
	??0AknListBoxShortCutsImplementation@@QAE@PAVCEikListBox@@@Z @ 5 NONAME ; AknListBoxShortCutsImplementation::AknListBoxShortCutsImplementation(class CEikListBox *)
	??0CAknAlphaPasswordSettingPage@@QAE@HAAVTDes16@@ABVTDesC16@@@Z @ 6 NONAME ; CAknAlphaPasswordSettingPage::CAknAlphaPasswordSettingPage(int, class TDes16 &, class TDesC16 const &)
	??0CAknAlphaPasswordSettingPage@@QAE@PBVTDesC16@@HHHHAAVTDes16@@ABV1@@Z @ 7 NONAME ; CAknAlphaPasswordSettingPage::CAknAlphaPasswordSettingPage(class TDesC16 const *, int, int, int, int, class TDes16 &, class TDesC16 const &)
	??0CAknAnimatedView@@QAE@XZ @ 8 NONAME ; CAknAnimatedView::CAknAnimatedView(void)
	??0CAknAnimationData@@QAE@XZ @ 9 NONAME ; CAknAnimationData::CAknAnimationData(void)
	??0CAknAppServiceBase@@QAE@XZ @ 10 NONAME ; CAknAppServiceBase::CAknAppServiceBase(void)
	??0CAknAppUiBase@@QAE@XZ @ 11 NONAME ; CAknAppUiBase::CAknAppUiBase(void)
	??0CAknBatteryPane@@QAE@XZ @ 12 NONAME ; CAknBatteryPane::CAknBatteryPane(void)
	??0CAknBigSettingItemBase@@QAE@H@Z @ 13 NONAME ; CAknBigSettingItemBase::CAknBigSettingItemBase(int)
	??0CAknBinaryPopupSettingItem@@QAE@HAAH@Z @ 14 NONAME ; CAknBinaryPopupSettingItem::CAknBinaryPopupSettingItem(int, int &)
	??0CAknCharMap@@QAE@XZ @ 15 NONAME ; CAknCharMap::CAknCharMap(void)
	??0CAknCharMapDialog@@QAE@HAAVTDes16@@H@Z @ 16 NONAME ; CAknCharMapDialog::CAknCharMapDialog(int, class TDes16 &, int)
	??0CAknCheckBoxSettingPage@@QAE@HPAVCSelectionItemList@@@Z @ 17 NONAME ; CAknCheckBoxSettingPage::CAknCheckBoxSettingPage(int, class CSelectionItemList *)
	??0CAknCheckBoxSettingPage@@QAE@PBVTDesC16@@HHHHPAVCSelectionItemList@@@Z @ 18 NONAME ; CAknCheckBoxSettingPage::CAknCheckBoxSettingPage(class TDesC16 const *, int, int, int, int, class CSelectionItemList *)
	??0CAknConfirmationNote@@QAE@H@Z @ 19 NONAME ; CAknConfirmationNote::CAknConfirmationNote(int)
	??0CAknConfirmationNote@@QAE@PAPAV0@@Z @ 20 NONAME ; CAknConfirmationNote::CAknConfirmationNote(class CAknConfirmationNote * *)
	??0CAknConfirmationNote@@QAE@XZ @ 21 NONAME ; CAknConfirmationNote::CAknConfirmationNote(void)
	??0CAknContextPane@@QAE@XZ @ 22 NONAME ; CAknContextPane::CAknContextPane(void)
	??0CAknControl@@QAE@XZ @ 23 NONAME ; CAknControl::CAknControl(void)
	??0CAknDateSettingPage@@QAE@HAAVTTime@@@Z @ 24 NONAME ; CAknDateSettingPage::CAknDateSettingPage(int, class TTime &)
	??0CAknDateSettingPage@@QAE@PBVTDesC16@@HHHHAAVTTime@@@Z @ 25 NONAME ; CAknDateSettingPage::CAknDateSettingPage(class TDesC16 const *, int, int, int, int, class TTime &)
	??0CAknDialog@@QAE@XZ @ 26 NONAME ; CAknDialog::CAknDialog(void)
	??0CAknDocument@@IAE@AAVCEikApplication@@@Z @ 27 NONAME ; CAknDocument::CAknDocument(class CEikApplication &)
	??0CAknDouble2GraphicLargeGraphicStyleListBox@@QAE@XZ @ 28 NONAME ; CAknDouble2GraphicLargeGraphicStyleListBox::CAknDouble2GraphicLargeGraphicStyleListBox(void)
	??0CAknDouble2GraphicLargeStyleListBox@@QAE@XZ @ 29 NONAME ; CAknDouble2GraphicLargeStyleListBox::CAknDouble2GraphicLargeStyleListBox(void)
	??0CAknDouble2GraphicStyleListBox@@QAE@XZ @ 30 NONAME ; CAknDouble2GraphicStyleListBox::CAknDouble2GraphicStyleListBox(void)
	??0CAknDouble2LargeStyleListBox@@QAE@XZ @ 31 NONAME ; CAknDouble2LargeStyleListBox::CAknDouble2LargeStyleListBox(void)
	??0CAknDoubleGraphicStyleListBox@@QAE@XZ @ 32 NONAME ; CAknDoubleGraphicStyleListBox::CAknDoubleGraphicStyleListBox(void)
	??0CAknDoubleLargeStyleListBox@@QAE@XZ @ 33 NONAME ; CAknDoubleLargeStyleListBox::CAknDoubleLargeStyleListBox(void)
	??0CAknDoubleNumberStyleListBox@@QAE@XZ @ 34 NONAME ; CAknDoubleNumberStyleListBox::CAknDoubleNumberStyleListBox(void)
	??0CAknDoubleStyleListBox@@QAE@XZ @ 35 NONAME ; CAknDoubleStyleListBox::CAknDoubleStyleListBox(void)
	??0CAknDoubleTimeStyleListBox@@QAE@XZ @ 36 NONAME ; CAknDoubleTimeStyleListBox::CAknDoubleTimeStyleListBox(void)
	??0CAknDurationQueryDialog@@QAE@AAVTTimeIntervalSeconds@@ABW4TTone@CAknQueryDialog@@@Z @ 37 NONAME ; CAknDurationQueryDialog::CAknDurationQueryDialog(class TTimeIntervalSeconds &, enum CAknQueryDialog::TTone const &)
	??0CAknDurationSettingPage@@QAE@HAAVTTimeIntervalSeconds@@@Z @ 38 NONAME ; CAknDurationSettingPage::CAknDurationSettingPage(int, class TTimeIntervalSeconds &)
	??0CAknDurationSettingPage@@QAE@PBVTDesC16@@HHHHAAVTTimeIntervalSeconds@@@Z @ 39 NONAME ; CAknDurationSettingPage::CAknDurationSettingPage(class TDesC16 const *, int, int, int, int, class TTimeIntervalSeconds &)
	??0CAknEcsDetector@@IAE@XZ @ 40 NONAME ; CAknEcsDetector::CAknEcsDetector(void)
	??0CAknEdwinSettingPage@@IAE@H@Z @ 41 NONAME ; CAknEdwinSettingPage::CAknEdwinSettingPage(int)
	??0CAknEdwinSettingPage@@IAE@PBVTDesC16@@HHHH@Z @ 42 NONAME ; CAknEdwinSettingPage::CAknEdwinSettingPage(class TDesC16 const *, int, int, int, int)
	??0CAknEnumeratedItemBase@@QAE@HPAX@Z @ 43 NONAME ; CAknEnumeratedItemBase::CAknEnumeratedItemBase(int, void *)
	??0CAknEnumeratedTextPopupSettingItem@@QAE@HAAH@Z @ 44 NONAME ; CAknEnumeratedTextPopupSettingItem::CAknEnumeratedTextPopupSettingItem(int, int &)
	??0CAknEnumeratedTextSettingItem@@QAE@H@Z @ 45 NONAME ; CAknEnumeratedTextSettingItem::CAknEnumeratedTextSettingItem(int)
	??0CAknEnv@@AAE@XZ @ 46 NONAME ; CAknEnv::CAknEnv(void)
	??0CAknErrorNote@@QAE@H@Z @ 47 NONAME ; CAknErrorNote::CAknErrorNote(int)
	??0CAknErrorNote@@QAE@PAPAV0@@Z @ 48 NONAME ; CAknErrorNote::CAknErrorNote(class CAknErrorNote * *)
	??0CAknErrorNote@@QAE@XZ @ 49 NONAME ; CAknErrorNote::CAknErrorNote(void)
	??0CAknExtMultilineQueryControl@@QAE@XZ @ 50 NONAME ; CAknExtMultilineQueryControl::CAknExtMultilineQueryControl(void)
	??0CAknExtQueryControl@@QAE@XZ @ 51 NONAME ; CAknExtQueryControl::CAknExtQueryControl(void)
	??0CAknFloatingPointQueryDialog@@QAE@AANABW4TTone@CAknQueryDialog@@@Z @ 52 NONAME ; CAknFloatingPointQueryDialog::CAknFloatingPointQueryDialog(double &, enum CAknQueryDialog::TTone const &)
	??0CAknForm@@QAE@XZ @ 53 NONAME ; CAknForm::CAknForm(void)
	??0CAknGMSStyleGrid@@QAE@H@Z @ 54 NONAME ; CAknGMSStyleGrid::CAknGMSStyleGrid(int)
	??0CAknGMSStyleGrid@@QAE@XZ @ 55 NONAME ; CAknGMSStyleGrid::CAknGMSStyleGrid(void)
	??0CAknGMSStyleGridView@@QAE@XZ @ 56 NONAME ; CAknGMSStyleGridView::CAknGMSStyleGridView(void)
	??0CAknGrid@@QAE@XZ @ 57 NONAME ; CAknGrid::CAknGrid(void)
	??0CAknGridM@@QAE@XZ @ 58 NONAME ; CAknGridM::CAknGridM(void)
	??0CAknGridView@@QAE@XZ @ 59 NONAME ; CAknGridView::CAknGridView(void)
	??0CAknIconArray@@QAE@H@Z @ 60 NONAME ; CAknIconArray::CAknIconArray(int)
	??0CAknIndicatorContainer@@QAE@H@Z @ 61 NONAME ; CAknIndicatorContainer::CAknIndicatorContainer(int)
	??0CAknIndicatorContainer@@QAE@XZ @ 62 NONAME ; CAknIndicatorContainer::CAknIndicatorContainer(void)
	??0CAknInformationNote@@QAE@H@Z @ 63 NONAME ; CAknInformationNote::CAknInformationNote(int)
	??0CAknInformationNote@@QAE@PAPAV0@@Z @ 64 NONAME ; CAknInformationNote::CAknInformationNote(class CAknInformationNote * *)
	??0CAknInformationNote@@QAE@XZ @ 65 NONAME ; CAknInformationNote::CAknInformationNote(void)
	??0CAknIntegerEdwinSettingItem@@QAE@HAAH@Z @ 66 NONAME ; CAknIntegerEdwinSettingItem::CAknIntegerEdwinSettingItem(int, int &)
	??0CAknIntegerSettingItem@@QAE@HAAH@Z @ 67 NONAME ; CAknIntegerSettingItem::CAknIntegerSettingItem(int, int &)
	??0CAknIntegerSettingPage@@QAE@HAAHH@Z @ 68 NONAME ; CAknIntegerSettingPage::CAknIntegerSettingPage(int, int &, int)
	??0CAknIntegerSettingPage@@QAE@PBVTDesC16@@HHHHAAHH@Z @ 69 NONAME ; CAknIntegerSettingPage::CAknIntegerSettingPage(class TDesC16 const *, int, int, int, int, int &, int)
	??0CAknIpFieldSettingItem@@QAE@HAAVTInetAddr@@@Z @ 70 NONAME ; CAknIpFieldSettingItem::CAknIpFieldSettingItem(int, class TInetAddr &)
	??0CAknIpFieldSettingPage@@QAE@HAAVTInetAddr@@@Z @ 71 NONAME ; CAknIpFieldSettingPage::CAknIpFieldSettingPage(int, class TInetAddr &)
	??0CAknIpFieldSettingPage@@QAE@PBVTDesC16@@HHHHAAVTInetAddr@@@Z @ 72 NONAME ; CAknIpFieldSettingPage::CAknIpFieldSettingPage(class TDesC16 const *, int, int, int, int, class TInetAddr &)
	??0CAknListBoxFilterItems@@QAE@PAVCEikListBox@@PAVCAknSearchField@@PAVMListBoxModel@@PAVCListBoxView@@@Z @ 73 NONAME ; CAknListBoxFilterItems::CAknListBoxFilterItems(class CEikListBox *, class CAknSearchField *, class MListBoxModel *, class CListBoxView *)
	??0CAknListQueryControl@@QAE@XZ @ 74 NONAME ; CAknListQueryControl::CAknListQueryControl(void)
	??0CAknListQueryDialog@@QAE@PAH@Z @ 75 NONAME ; CAknListQueryDialog::CAknListQueryDialog(int *)
	??0CAknListQueryDialog@@QAE@PAV?$CArrayFix@H@@@Z @ 76 NONAME ; CAknListQueryDialog::CAknListQueryDialog(class CArrayFix<int> *)
	??0CAknMarkableListDialog@@IAE@AAHPAV?$CArrayFix@H@@PAVMDesC16Array@@HHPAVMEikCommandObserver@@@Z @ 77 NONAME ; CAknMarkableListDialog::CAknMarkableListDialog(int &, class CArrayFix<int> *, class MDesC16Array *, int, int, class MEikCommandObserver *)
	??0CAknMarkableListDialog@@IAE@AAHPAV?$CArrayFix@H@@PAVMDesC16Array@@PAVMEikCommandObserver@@@Z @ 78 NONAME ; CAknMarkableListDialog::CAknMarkableListDialog(int &, class CArrayFix<int> *, class MDesC16Array *, class MEikCommandObserver *)
	??0CAknMessageQueryDialog@@QAE@PAVTDesC16@@0@Z @ 79 NONAME ; CAknMessageQueryDialog::CAknMessageQueryDialog(class TDesC16 *, class TDesC16 *)
	??0CAknMessageQueryDialog@@QAE@PAVTDesC16@@0PAVCEikImage@@@Z @ 80 NONAME ; CAknMessageQueryDialog::CAknMessageQueryDialog(class TDesC16 *, class TDesC16 *, class CEikImage *)
	??0CAknMessageQueryDialog@@QAE@PAVTDesC16@@0PAVCEikImage@@W4TTone@CAknQueryDialog@@@Z @ 81 NONAME ; CAknMessageQueryDialog::CAknMessageQueryDialog(class TDesC16 *, class TDesC16 *, class CEikImage *, enum CAknQueryDialog::TTone)
	??0CAknMessageQueryDialog@@QAE@PAVTDesC16@@0W4TTone@CAknQueryDialog@@@Z @ 82 NONAME ; CAknMessageQueryDialog::CAknMessageQueryDialog(class TDesC16 *, class TDesC16 *, enum CAknQueryDialog::TTone)
	??0CAknMessageQueryDialog@@QAE@W4TTone@CAknQueryDialog@@@Z @ 83 NONAME ; CAknMessageQueryDialog::CAknMessageQueryDialog(enum CAknQueryDialog::TTone)
	??0CAknMessageQueryDialog@@QAE@XZ @ 84 NONAME ; CAknMessageQueryDialog::CAknMessageQueryDialog(void)
	??0CAknMfneSettingPage@@IAE@H@Z @ 85 NONAME ; CAknMfneSettingPage::CAknMfneSettingPage(int)
	??0CAknMfneSettingPage@@IAE@PBVTDesC16@@HHHH@Z @ 86 NONAME ; CAknMfneSettingPage::CAknMfneSettingPage(class TDesC16 const *, int, int, int, int)
	??0CAknMultiLineDataQueryDialog@@IAE@ABW4TTone@CAknQueryDialog@@@Z @ 87 NONAME ; CAknMultiLineDataQueryDialog::CAknMultiLineDataQueryDialog(enum CAknQueryDialog::TTone const &)
	??0CAknMultiLineDataQueryDialog@@QAE@PAH0PAVTDesC16@@1ABW4TTone@CAknQueryDialog@@@Z @ 88 NONAME ; CAknMultiLineDataQueryDialog::CAknMultiLineDataQueryDialog(int *, int *, class TDesC16 *, class TDesC16 *, enum CAknQueryDialog::TTone const &)
	??0CAknMultiLineDataQueryDialog@@QAE@PAVTDes16@@0PAVTDesC16@@1ABW4TTone@CAknQueryDialog@@@Z @ 89 NONAME ; CAknMultiLineDataQueryDialog::CAknMultiLineDataQueryDialog(class TDes16 *, class TDes16 *, class TDesC16 *, class TDesC16 *, enum CAknQueryDialog::TTone const &)
	??0CAknMultiLineDataQueryDialog@@QAE@PAVTDes16@@PAHPAVTDesC16@@2ABW4TTone@CAknQueryDialog@@@Z @ 90 NONAME ; CAknMultiLineDataQueryDialog::CAknMultiLineDataQueryDialog(class TDes16 *, int *, class TDesC16 *, class TDesC16 *, enum CAknQueryDialog::TTone const &)
	??0CAknMultiLineDataQueryDialog@@QAE@PAVTDes16@@PAVTTime@@PAVTDesC16@@2ABW4TTone@CAknQueryDialog@@@Z @ 91 NONAME ; CAknMultiLineDataQueryDialog::CAknMultiLineDataQueryDialog(class TDes16 *, class TTime *, class TDesC16 *, class TDesC16 *, enum CAknQueryDialog::TTone const &)
	??0CAknMultiLineDataQueryDialog@@QAE@PAVTDes16@@PAVTTimeIntervalSeconds@@PAVTDesC16@@2ABW4TTone@CAknQueryDialog@@@Z @ 92 NONAME ; CAknMultiLineDataQueryDialog::CAknMultiLineDataQueryDialog(class TDes16 *, class TTimeIntervalSeconds *, class TDesC16 *, class TDesC16 *, enum CAknQueryDialog::TTone const &)
	??0CAknMultiLineDataQueryDialog@@QAE@PAVTTime@@0PAVTDesC16@@1ABW4TTone@CAknQueryDialog@@@Z @ 93 NONAME ; CAknMultiLineDataQueryDialog::CAknMultiLineDataQueryDialog(class TTime *, class TTime *, class TDesC16 *, class TDesC16 *, enum CAknQueryDialog::TTone const &)
	??0CAknMultiLineDataQueryDialog@@QAE@PAVTTime@@PAVTTimeIntervalSeconds@@PAVTDesC16@@2ABW4TTone@CAknQueryDialog@@@Z @ 94 NONAME ; CAknMultiLineDataQueryDialog::CAknMultiLineDataQueryDialog(class TTime *, class TTimeIntervalSeconds *, class TDesC16 *, class TDesC16 *, enum CAknQueryDialog::TTone const &)
	??0CAknMultilineQueryControl@@QAE@XZ @ 95 NONAME ; CAknMultilineQueryControl::CAknMultilineQueryControl(void)
	??0CAknNaviLabel@@QAE@XZ @ 96 NONAME ; CAknNaviLabel::CAknNaviLabel(void)
	??0CAknNavigationControlContainer@@QAE@XZ @ 97 NONAME ; CAknNavigationControlContainer::CAknNavigationControlContainer(void)
	??0CAknNoteControl@@QAE@XZ @ 98 NONAME ; CAknNoteControl::CAknNoteControl(void)
	??0CAknNoteDialog@@QAE@ABW4TTone@0@ABW4TTimeout@0@@Z @ 99 NONAME ; CAknNoteDialog::CAknNoteDialog(enum CAknNoteDialog::TTone const &, enum CAknNoteDialog::TTimeout const &)
	??0CAknNoteDialog@@QAE@PAPAVCEikDialog@@ABW4TTone@0@ABW4TTimeout@0@@Z @ 100 NONAME ; CAknNoteDialog::CAknNoteDialog(class CEikDialog * *, enum CAknNoteDialog::TTone const &, enum CAknNoteDialog::TTimeout const &)
	??0CAknNoteDialog@@QAE@XZ @ 101 NONAME ; CAknNoteDialog::CAknNoteDialog(void)
	??0CAknNoteWrapper@@QAE@PAPAV0@@Z @ 102 NONAME ; CAknNoteWrapper::CAknNoteWrapper(class CAknNoteWrapper * *)
	??0CAknNoteWrapper@@QAE@XZ @ 103 NONAME ; CAknNoteWrapper::CAknNoteWrapper(void)
	??0CAknNumberQueryDialog@@QAE@AAHABW4TTone@CAknQueryDialog@@@Z @ 104 NONAME ; CAknNumberQueryDialog::CAknNumberQueryDialog(int &, enum CAknQueryDialog::TTone const &)
	??0CAknNumericPasswordSettingPage@@QAE@HAAVTDes16@@ABVTDesC16@@@Z @ 105 NONAME ; CAknNumericPasswordSettingPage::CAknNumericPasswordSettingPage(int, class TDes16 &, class TDesC16 const &)
	??0CAknNumericPasswordSettingPage@@QAE@PBVTDesC16@@HHHHAAVTDes16@@ABV1@@Z @ 106 NONAME ; CAknNumericPasswordSettingPage::CAknNumericPasswordSettingPage(class TDesC16 const *, int, int, int, int, class TDes16 &, class TDesC16 const &)
	??0CAknNumericSecretEditor@@QAE@XZ @ 107 NONAME ; CAknNumericSecretEditor::CAknNumericSecretEditor(void)
	??0CAknPasswordSettingItem@@QAE@HW4TAknPasswordSettingItemMode@0@AAVTDes16@@@Z @ 108 NONAME ; CAknPasswordSettingItem::CAknPasswordSettingItem(int, enum CAknPasswordSettingItem::TAknPasswordSettingItemMode, class TDes16 &)
	??0CAknPasswordSettingPage@@QAE@HAAVTDes16@@ABVTDesC16@@@Z @ 109 NONAME ; CAknPasswordSettingPage::CAknPasswordSettingPage(int, class TDes16 &, class TDesC16 const &)
	??0CAknPasswordSettingPage@@QAE@PBVTDesC16@@HHHHAAVTDes16@@ABV1@@Z @ 110 NONAME ; CAknPasswordSettingPage::CAknPasswordSettingPage(class TDesC16 const *, int, int, int, int, class TDes16 &, class TDesC16 const &)
	??0CAknPhoneNumberEditor@@QAE@XZ @ 111 NONAME ; CAknPhoneNumberEditor::CAknPhoneNumberEditor(void)
	??0CAknPopupField@@QAE@XZ @ 112 NONAME ; CAknPopupField::CAknPopupField(void)
	??0CAknPopupFieldList@@IAE@XZ @ 113 NONAME ; CAknPopupFieldList::CAknPopupFieldList(void)
	??0CAknPopupFieldText@@QAE@XZ @ 114 NONAME ; CAknPopupFieldText::CAknPopupFieldText(void)
	??0CAknPopupForm@@QAE@ABW4TTone@@HABW4TPopupFormType@@@Z @ 115 NONAME ; CAknPopupForm::CAknPopupForm(enum TTone const &, int, enum TPopupFormType const &)
	??0CAknPopupForm@@QAE@XZ @ 116 NONAME ; CAknPopupForm::CAknPopupForm(void)
	??0CAknPopupHeadingPane@@QAE@XZ @ 117 NONAME ; CAknPopupHeadingPane::CAknPopupHeadingPane(void)
	??0CAknPopupList@@IAE@XZ @ 118 NONAME ; CAknPopupList::CAknPopupList(void)
	??0CAknPopupSettingList@@QAE@XZ @ 119 NONAME ; CAknPopupSettingList::CAknPopupSettingList(void)
	??0CAknPopupSettingPage@@QAE@HAAVMAknQueryValue@@@Z @ 120 NONAME ; CAknPopupSettingPage::CAknPopupSettingPage(int, class MAknQueryValue &)
	??0CAknPopupSettingPage@@QAE@PBVTDesC16@@HHHHAAVMAknQueryValue@@@Z @ 121 NONAME ; CAknPopupSettingPage::CAknPopupSettingPage(class TDesC16 const *, int, int, int, int, class MAknQueryValue &)
	??0CAknProgressDialog@@QAE@HHHPAPAVCEikDialog@@@Z @ 122 NONAME ; CAknProgressDialog::CAknProgressDialog(int, int, int, class CEikDialog * *)
	??0CAknProgressDialog@@QAE@PAPAVCEikDialog@@@Z @ 123 NONAME ; CAknProgressDialog::CAknProgressDialog(class CEikDialog * *)
	??0CAknProgressDialog@@QAE@PAPAVCEikDialog@@H@Z @ 124 NONAME ; CAknProgressDialog::CAknProgressDialog(class CEikDialog * *, int)
	??0CAknQueryControl@@QAE@XZ @ 125 NONAME ; CAknQueryControl::CAknQueryControl(void)
	??0CAknQueryDialog@@QAE@AAVTDesC16@@ABW4TTone@0@@Z @ 126 NONAME ; CAknQueryDialog::CAknQueryDialog(class TDesC16 &, enum CAknQueryDialog::TTone const &)
	??0CAknQueryDialog@@QAE@ABW4TTone@0@@Z @ 127 NONAME ; CAknQueryDialog::CAknQueryDialog(enum CAknQueryDialog::TTone const &)
	??0CAknQueryDialog@@QAE@XZ @ 128 NONAME ; CAknQueryDialog::CAknQueryDialog(void)
	??0CAknRadioButtonSettingPage@@QAE@HAAHPBVMDesC16Array@@@Z @ 129 NONAME ; CAknRadioButtonSettingPage::CAknRadioButtonSettingPage(int, int &, class MDesC16Array const *)
	??0CAknRadioButtonSettingPage@@QAE@PBVTDesC16@@HHHHAAHPBVMDesC16Array@@@Z @ 130 NONAME ; CAknRadioButtonSettingPage::CAknRadioButtonSettingPage(class TDesC16 const *, int, int, int, int, int &, class MDesC16Array const *)
	??0CAknSelectionListDialog@@IAE@AAHPAVMDesC16Array@@PAVMEikCommandObserver@@@Z @ 131 NONAME ; CAknSelectionListDialog::CAknSelectionListDialog(int &, class MDesC16Array *, class MEikCommandObserver *)
	??0CAknSettingItem@@QAE@H@Z @ 132 NONAME ; CAknSettingItem::CAknSettingItem(int)
	??0CAknSettingItemArray@@QAE@HHH@Z @ 133 NONAME ; CAknSettingItemArray::CAknSettingItemArray(int, int, int)
	??0CAknSettingItemList@@QAE@XZ @ 134 NONAME ; CAknSettingItemList::CAknSettingItemList(void)
	??0CAknSettingNumberStyleListBox@@QAE@XZ @ 135 NONAME ; CAknSettingNumberStyleListBox::CAknSettingNumberStyleListBox(void)
	??0CAknSettingPage@@QAE@H@Z @ 136 NONAME ; CAknSettingPage::CAknSettingPage(int)
	??0CAknSettingPage@@QAE@PBVTDesC16@@HHHH@Z @ 137 NONAME ; CAknSettingPage::CAknSettingPage(class TDesC16 const *, int, int, int, int)
	??0CAknSettingStyleListBox@@QAE@XZ @ 138 NONAME ; CAknSettingStyleListBox::CAknSettingStyleListBox(void)
	??0CAknSignalPane@@QAE@XZ @ 139 NONAME ; CAknSignalPane::CAknSignalPane(void)
	??0CAknSingle2GraphicStyleListBox@@QAE@XZ @ 140 NONAME ; CAknSingle2GraphicStyleListBox::CAknSingle2GraphicStyleListBox(void)
	??0CAknSingleGraphicHeadingPopupMenuStyleListBox@@QAE@XZ @ 141 NONAME ; CAknSingleGraphicHeadingPopupMenuStyleListBox::CAknSingleGraphicHeadingPopupMenuStyleListBox(void)
	??0CAknSingleGraphicHeadingStyleListBox@@QAE@XZ @ 142 NONAME ; CAknSingleGraphicHeadingStyleListBox::CAknSingleGraphicHeadingStyleListBox(void)
	??0CAknSingleGraphicStyleListBox@@QAE@XZ @ 143 NONAME ; CAknSingleGraphicStyleListBox::CAknSingleGraphicStyleListBox(void)
	??0CAknSingleHeadingPopupMenuStyleListBox@@QAE@XZ @ 144 NONAME ; CAknSingleHeadingPopupMenuStyleListBox::CAknSingleHeadingPopupMenuStyleListBox(void)
	??0CAknSingleHeadingStyleListBox@@QAE@XZ @ 145 NONAME ; CAknSingleHeadingStyleListBox::CAknSingleHeadingStyleListBox(void)
	??0CAknSingleLargeStyleListBox@@QAE@XZ @ 146 NONAME ; CAknSingleLargeStyleListBox::CAknSingleLargeStyleListBox(void)
	??0CAknSingleNumberHeadingStyleListBox@@QAE@XZ @ 147 NONAME ; CAknSingleNumberHeadingStyleListBox::CAknSingleNumberHeadingStyleListBox(void)
	??0CAknSingleNumberStyleListBox@@QAE@XZ @ 148 NONAME ; CAknSingleNumberStyleListBox::CAknSingleNumberStyleListBox(void)
	??0CAknSingleStyleListBox@@QAE@XZ @ 149 NONAME ; CAknSingleStyleListBox::CAknSingleStyleListBox(void)
	??0CAknSlider@@QAE@XZ @ 150 NONAME ; CAknSlider::CAknSlider(void)
	??0CAknSliderSettingItem@@QAE@HAAH@Z @ 151 NONAME ; CAknSliderSettingItem::CAknSliderSettingItem(int, int &)
	??0CAknSliderSettingPage@@QAE@HAAH@Z @ 152 NONAME ; CAknSliderSettingPage::CAknSliderSettingPage(int, int &)
	??0CAknSliderSettingPage@@QAE@PBVTDesC16@@HHHHAAH@Z @ 153 NONAME ; CAknSliderSettingPage::CAknSliderSettingPage(class TDesC16 const *, int, int, int, int, int &)
	??0CAknStaticNoteDialog@@QAE@PAPAVCEikDialog@@@Z @ 154 NONAME ; CAknStaticNoteDialog::CAknStaticNoteDialog(class CEikDialog * *)
	??0CAknStaticNoteDialog@@QAE@XZ @ 155 NONAME ; CAknStaticNoteDialog::CAknStaticNoteDialog(void)
	??0CAknTabGroup@@AAE@XZ @ 156 NONAME ; CAknTabGroup::CAknTabGroup(void)
	??0CAknTextQueryDialog@@QAE@AAVTDes16@@AAVTDesC16@@ABW4TTone@CAknQueryDialog@@@Z @ 157 NONAME ; CAknTextQueryDialog::CAknTextQueryDialog(class TDes16 &, class TDesC16 &, enum CAknQueryDialog::TTone const &)
	??0CAknTextQueryDialog@@QAE@AAVTDes16@@ABW4TTone@CAknQueryDialog@@@Z @ 158 NONAME ; CAknTextQueryDialog::CAknTextQueryDialog(class TDes16 &, enum CAknQueryDialog::TTone const &)
	??0CAknTextSettingItem@@QAE@HAAVTDes16@@@Z @ 159 NONAME ; CAknTextSettingItem::CAknTextSettingItem(int, class TDes16 &)
	??0CAknTextSettingPage@@QAE@HAAVTDes16@@H@Z @ 160 NONAME ; CAknTextSettingPage::CAknTextSettingPage(int, class TDes16 &, int)
	??0CAknTextSettingPage@@QAE@PBVTDesC16@@HHHHAAVTDes16@@H@Z @ 161 NONAME ; CAknTextSettingPage::CAknTextSettingPage(class TDesC16 const *, int, int, int, int, class TDes16 &, int)
	??0CAknTimeOffsetSettingItem@@QAE@HAAVTTimeIntervalSeconds@@@Z @ 162 NONAME ; CAknTimeOffsetSettingItem::CAknTimeOffsetSettingItem(int, class TTimeIntervalSeconds &)
	??0CAknTimeOffsetSettingPage@@QAE@HAAVTTimeIntervalSeconds@@@Z @ 163 NONAME ; CAknTimeOffsetSettingPage::CAknTimeOffsetSettingPage(int, class TTimeIntervalSeconds &)
	??0CAknTimeOffsetSettingPage@@QAE@PBVTDesC16@@HHHHAAVTTimeIntervalSeconds@@@Z @ 164 NONAME ; CAknTimeOffsetSettingPage::CAknTimeOffsetSettingPage(class TDesC16 const *, int, int, int, int, class TTimeIntervalSeconds &)
	??0CAknTimeOrDateSettingItem@@QAE@HW4TAknTimeOrDateSettingItemMode@0@AAVTTime@@@Z @ 165 NONAME ; CAknTimeOrDateSettingItem::CAknTimeOrDateSettingItem(int, enum CAknTimeOrDateSettingItem::TAknTimeOrDateSettingItemMode, class TTime &)
	??0CAknTimeQueryDialog@@QAE@AAVTTime@@AAVTDesC16@@ABW4TTone@CAknQueryDialog@@@Z @ 166 NONAME ; CAknTimeQueryDialog::CAknTimeQueryDialog(class TTime &, class TDesC16 &, enum CAknQueryDialog::TTone const &)
	??0CAknTimeQueryDialog@@QAE@AAVTTime@@ABW4TTone@CAknQueryDialog@@@Z @ 167 NONAME ; CAknTimeQueryDialog::CAknTimeQueryDialog(class TTime &, enum CAknQueryDialog::TTone const &)
	??0CAknTimeSettingPage@@QAE@HAAVTTime@@@Z @ 168 NONAME ; CAknTimeSettingPage::CAknTimeSettingPage(int, class TTime &)
	??0CAknTimeSettingPage@@QAE@PBVTDesC16@@HHHHAAVTTime@@@Z @ 169 NONAME ; CAknTimeSettingPage::CAknTimeSettingPage(class TDesC16 const *, int, int, int, int, class TTime &)
	??0CAknTitlePane@@QAE@XZ @ 170 NONAME ; CAknTitlePane::CAknTitlePane(void)
	??0CAknTransparentCameraSettingPage@@QAE@HAAHPBVMDesC16Array@@@Z @ 171 NONAME ; CAknTransparentCameraSettingPage::CAknTransparentCameraSettingPage(int, int &, class MDesC16Array const *)
	??0CAknTransparentCameraSettingPage@@QAE@PBVTDesC16@@HHHHAAHPBVMDesC16Array@@@Z @ 172 NONAME ; CAknTransparentCameraSettingPage::CAknTransparentCameraSettingPage(class TDesC16 const *, int, int, int, int, int &, class MDesC16Array const *)
	??0CAknView@@QAE@XZ @ 173 NONAME ; CAknView::CAknView(void)
	??0CAknVolumeControl@@QAE@XZ @ 174 NONAME ; CAknVolumeControl::CAknVolumeControl(void)
	??0CAknVolumeSettingItem@@QAE@HAAH@Z @ 175 NONAME ; CAknVolumeSettingItem::CAknVolumeSettingItem(int, int &)
	??0CAknVolumeSettingPage@@QAE@HAAH@Z @ 176 NONAME ; CAknVolumeSettingPage::CAknVolumeSettingPage(int, int &)
	??0CAknVolumeSettingPage@@QAE@PBVTDesC16@@HHHHAAH@Z @ 177 NONAME ; CAknVolumeSettingPage::CAknVolumeSettingPage(class TDesC16 const *, int, int, int, int, int &)
	??0CAknWaitDialog@@QAE@PAPAVCEikDialog@@@Z @ 178 NONAME ; CAknWaitDialog::CAknWaitDialog(class CEikDialog * *)
	??0CAknWaitDialog@@QAE@PAPAVCEikDialog@@H@Z @ 179 NONAME ; CAknWaitDialog::CAknWaitDialog(class CEikDialog * *, int)
	??0CAknWarningNote@@QAE@H@Z @ 180 NONAME ; CAknWarningNote::CAknWarningNote(int)
	??0CAknWarningNote@@QAE@PAPAV0@@Z @ 181 NONAME ; CAknWarningNote::CAknWarningNote(class CAknWarningNote * *)
	??0CAknWarningNote@@QAE@XZ @ 182 NONAME ; CAknWarningNote::CAknWarningNote(void)
	??0CDoubleLargeStyleItemDrawer@@QAE@PAVMTextListBoxModel@@PBVCFont@@PAVCFormattedCellListBoxData@@PAVCEikListBox@@@Z @ 183 NONAME ; CDoubleLargeStyleItemDrawer::CDoubleLargeStyleItemDrawer(class MTextListBoxModel *, class CFont const *, class CFormattedCellListBoxData *, class CEikListBox *)
	??0CEikFormattedCellListBox@@QAE@XZ @ 184 NONAME ; CEikFormattedCellListBox::CEikFormattedCellListBox(void)
	??0CEikSettingsListBox@@QAE@XZ @ 185 NONAME ; CEikSettingsListBox::CEikSettingsListBox(void)
	??0CFormattedCellListBoxData@@IAE@XZ @ 186 NONAME ; CFormattedCellListBoxData::CFormattedCellListBoxData(void)
	??0CFormattedCellListBoxItemDrawer@@QAE@PAVMTextListBoxModel@@PBVCFont@@PAVCFormattedCellListBoxData@@@Z @ 187 NONAME ; CFormattedCellListBoxItemDrawer::CFormattedCellListBoxItemDrawer(class MTextListBoxModel *, class CFont const *, class CFormattedCellListBoxData *)
	??0CListBoxNumbers@@QAE@PAVCEikTextListBox@@@Z @ 188 NONAME ; CListBoxNumbers::CListBoxNumbers(class CEikTextListBox *)
	??0CSelectableItem@@QAE@AAVTDesC16@@H@Z @ 189 NONAME ; CSelectableItem::CSelectableItem(class TDesC16 &, int)
	??0CSelectionItemList@@QAE@H@Z @ 190 NONAME ; CSelectionItemList::CSelectionItemList(int)
	??0CSettingsListBoxItemDrawer@@QAE@PAVMTextListBoxModel@@PBVCFont@@PAVCSettingsListBoxData@@@Z @ 191 NONAME ; CSettingsListBoxItemDrawer::CSettingsListBoxItemDrawer(class MTextListBoxModel *, class CFont const *, class CSettingsListBoxData *)
	??0CSingleHeadingStyleItemDrawer@@QAE@PAVMTextListBoxModel@@PBVCFont@@PAVCColumnListBoxData@@@Z @ 192 NONAME ; CSingleHeadingStyleItemDrawer::CSingleHeadingStyleItemDrawer(class MTextListBoxModel *, class CFont const *, class CColumnListBoxData *)
	??0CWordWrappedFormattedCellItemDrawer@@QAE@PAVMTextListBoxModel@@PBVCFont@@PAVCFormattedCellListBoxData@@PAVCEikListBox@@HH@Z @ 193 NONAME ; CWordWrappedFormattedCellItemDrawer::CWordWrappedFormattedCellItemDrawer(class MTextListBoxModel *, class CFont const *, class CFormattedCellListBoxData *, class CEikListBox *, int, int)
	??0RAknEikAppUiSession@@QAE@XZ @ 194 NONAME ; RAknEikAppUiSession::RAknEikAppUiSession(void)
	??0TAknDesCArrayDecorator@@QAE@XZ @ 195 NONAME ; TAknDesCArrayDecorator::TAknDesCArrayDecorator(void)
	??0TAknLayoutRect@@QAE@XZ @ 196 NONAME ; TAknLayoutRect::TAknLayoutRect(void)
	??0TAknLayoutText@@QAE@XZ @ 197 NONAME ; TAknLayoutText::TAknLayoutText(void)
	??0TAknPopupWindowLayoutDef@@QAE@XZ @ 198 NONAME ; TAknPopupWindowLayoutDef::TAknPopupWindowLayoutDef(void)
	??0TAknSyncControlDrawer@@QAE@XZ @ 199 NONAME ; TAknSyncControlDrawer::TAknSyncControlDrawer(void)
	??0TAknTextDecorationMetrics@@QAE@ABVTAknFontSpecification@@@Z @ 200 NONAME ; TAknTextDecorationMetrics::TAknTextDecorationMetrics(class TAknFontSpecification const &)
	??0TAknTextDecorationMetrics@@QAE@H@Z @ 201 NONAME ; TAknTextDecorationMetrics::TAknTextDecorationMetrics(int)
	??0TAknTextDecorationMetrics@@QAE@PBVCFont@@@Z @ 202 NONAME ; TAknTextDecorationMetrics::TAknTextDecorationMetrics(class CFont const *)
	??0TColors@CFormattedCellListBoxData@@QAE@XZ @ 203 NONAME ; CFormattedCellListBoxData::TColors::TColors(void)
	??0TFormat@CAknPhoneNumberEditor@@QAE@AAVTResourceReader@@@Z @ 204 NONAME ; CAknPhoneNumberEditor::TFormat::TFormat(class TResourceReader &)
	??0TFormat@CAknPhoneNumberEditor@@QAE@ABVTRect@@HHHHPBVCFont@@@Z @ 205 NONAME ; CAknPhoneNumberEditor::TFormat::TFormat(class TRect const &, int, int, int, int, class CFont const *)
	??0TFormat@CAknPhoneNumberEditor@@QAE@XZ @ 206 NONAME ; CAknPhoneNumberEditor::TFormat::TFormat(void)
	??1AknListBoxShortCuts@@UAE@XZ @ 207 NONAME ; AknListBoxShortCuts::~AknListBoxShortCuts(void)
	??1AknListBoxShortCutsImplementation@@UAE@XZ @ 208 NONAME ; AknListBoxShortCutsImplementation::~AknListBoxShortCutsImplementation(void)
	??1CAknAlphaPasswordSettingPage@@MAE@XZ @ 209 NONAME ; CAknAlphaPasswordSettingPage::~CAknAlphaPasswordSettingPage(void)
	??1CAknAnimatedView@@UAE@XZ @ 210 NONAME ; CAknAnimatedView::~CAknAnimatedView(void)
	??1CAknAnimationData@@UAE@XZ @ 211 NONAME ; CAknAnimationData::~CAknAnimationData(void)
	??1CAknAppServer@@UAE@XZ @ 212 NONAME ; CAknAppServer::~CAknAppServer(void)
	??1CAknAppServiceBase@@UAE@XZ @ 213 NONAME ; CAknAppServiceBase::~CAknAppServiceBase(void)
	??1CAknAppUi@@UAE@XZ @ 214 NONAME ; CAknAppUi::~CAknAppUi(void)
	??1CAknAppUiBase@@UAE@XZ @ 215 NONAME ; CAknAppUiBase::~CAknAppUiBase(void)
	??1CAknBatteryPane@@UAE@XZ @ 216 NONAME ; CAknBatteryPane::~CAknBatteryPane(void)
	??1CAknBitmapAnimation@@UAE@XZ @ 217 NONAME ; CAknBitmapAnimation::~CAknBitmapAnimation(void)
	??1CAknCharMap@@UAE@XZ @ 218 NONAME ; CAknCharMap::~CAknCharMap(void)
	??1CAknCheckBoxSettingPage@@MAE@XZ @ 219 NONAME ; CAknCheckBoxSettingPage::~CAknCheckBoxSettingPage(void)
	??1CAknColourSelectionGrid@@UAE@XZ @ 220 NONAME ; CAknColourSelectionGrid::~CAknColourSelectionGrid(void)
	??1CAknContextPane@@UAE@XZ @ 221 NONAME ; CAknContextPane::~CAknContextPane(void)
	??1CAknControl@@UAE@XZ @ 222 NONAME ; CAknControl::~CAknControl(void)
	??1CAknDateSettingPage@@MAE@XZ @ 223 NONAME ; CAknDateSettingPage::~CAknDateSettingPage(void)
	??1CAknDialog@@UAE@XZ @ 224 NONAME ; CAknDialog::~CAknDialog(void)
	??1CAknDrawSynchronizer@@UAE@XZ @ 225 NONAME ; CAknDrawSynchronizer::~CAknDrawSynchronizer(void)
	??1CAknDurationQueryDialog@@UAE@XZ @ 226 NONAME ; CAknDurationQueryDialog::~CAknDurationQueryDialog(void)
	??1CAknDurationSettingPage@@MAE@XZ @ 227 NONAME ; CAknDurationSettingPage::~CAknDurationSettingPage(void)
	??1CAknEcsDetector@@UAE@XZ @ 228 NONAME ; CAknEcsDetector::~CAknEcsDetector(void)
	??1CAknEnumeratedItemBase@@UAE@XZ @ 229 NONAME ; CAknEnumeratedItemBase::~CAknEnumeratedItemBase(void)
	??1CAknEnumeratedTextPopupSettingItem@@UAE@XZ @ 230 NONAME ; CAknEnumeratedTextPopupSettingItem::~CAknEnumeratedTextPopupSettingItem(void)
	??1CAknEnumeratedTextSettingItem@@UAE@XZ @ 231 NONAME ; CAknEnumeratedTextSettingItem::~CAknEnumeratedTextSettingItem(void)
	??1CAknEnv@@UAE@XZ @ 232 NONAME ; CAknEnv::~CAknEnv(void)
	??1CAknExtMultilineQueryControl@@UAE@XZ @ 233 NONAME ; CAknExtMultilineQueryControl::~CAknExtMultilineQueryControl(void)
	??1CAknExtQueryControl@@UAE@XZ @ 234 NONAME ; CAknExtQueryControl::~CAknExtQueryControl(void)
	??1CAknFilteredTextListBoxModel@@UAE@XZ @ 235 NONAME ; CAknFilteredTextListBoxModel::~CAknFilteredTextListBoxModel(void)
	??1CAknFixedPointQueryDialog@@UAE@XZ @ 236 NONAME ; CAknFixedPointQueryDialog::~CAknFixedPointQueryDialog(void)
	??1CAknFloatingPointQueryDialog@@UAE@XZ @ 237 NONAME ; CAknFloatingPointQueryDialog::~CAknFloatingPointQueryDialog(void)
	??1CAknForm@@UAE@XZ @ 238 NONAME ; CAknForm::~CAknForm(void)
	??1CAknGMSStyleGrid@@UAE@XZ @ 239 NONAME ; CAknGMSStyleGrid::~CAknGMSStyleGrid(void)
	??1CAknGenericReader@@UAE@XZ @ 240 NONAME ; CAknGenericReader::~CAknGenericReader(void)
	??1CAknGrid@@UAE@XZ @ 241 NONAME ; CAknGrid::~CAknGrid(void)
	??1CAknGridM@@UAE@XZ @ 242 NONAME ; CAknGridM::~CAknGridM(void)
	??1CAknGridView@@UAE@XZ @ 243 NONAME ; CAknGridView::~CAknGridView(void)
	??1CAknIconArray@@UAE@XZ @ 244 NONAME ; CAknIconArray::~CAknIconArray(void)
	??1CAknIndicatorContainer@@UAE@XZ @ 245 NONAME ; CAknIndicatorContainer::~CAknIndicatorContainer(void)
	??1CAknInputFrame@@UAE@XZ @ 246 NONAME ; CAknInputFrame::~CAknInputFrame(void)
	??1CAknIntegerSettingItem@@UAE@XZ @ 247 NONAME ; CAknIntegerSettingItem::~CAknIntegerSettingItem(void)
	??1CAknIpAddressQueryDialog@@UAE@XZ @ 248 NONAME ; CAknIpAddressQueryDialog::~CAknIpAddressQueryDialog(void)
	??1CAknIpFieldSettingItem@@UAE@XZ @ 249 NONAME ; CAknIpFieldSettingItem::~CAknIpFieldSettingItem(void)
	??1CAknIpFieldSettingPage@@MAE@XZ @ 250 NONAME ; CAknIpFieldSettingPage::~CAknIpFieldSettingPage(void)
	??1CAknKeySoundSystem@@UAE@XZ @ 251 NONAME ; CAknKeySoundSystem::~CAknKeySoundSystem(void)
	??1CAknLayoutData@@UAE@XZ @ 252 NONAME ABSENT ; CAknLayoutData::~CAknLayoutData(void)
	??1CAknLegacyMode@@UAE@XZ @ 253 NONAME ; CAknLegacyMode::~CAknLegacyMode(void)
	??1CAknListBoxFilterItems@@UAE@XZ @ 254 NONAME ; CAknListBoxFilterItems::~CAknListBoxFilterItems(void)
	??1CAknListBoxLayoutDecorator@@UAE@XZ @ 255 NONAME ; CAknListBoxLayoutDecorator::~CAknListBoxLayoutDecorator(void)
	??1CAknListQueryControl@@UAE@XZ @ 256 NONAME ; CAknListQueryControl::~CAknListQueryControl(void)
	??1CAknListQueryDialog@@UAE@XZ @ 257 NONAME ; CAknListQueryDialog::~CAknListQueryDialog(void)
	??1CAknMarkableListDialog@@UAE@XZ @ 258 NONAME ; CAknMarkableListDialog::~CAknMarkableListDialog(void)
	??1CAknMessageQueryDialog@@UAE@XZ @ 259 NONAME ; CAknMessageQueryDialog::~CAknMessageQueryDialog(void)
	??1CAknMfneSettingPage@@UAE@XZ @ 260 NONAME ; CAknMfneSettingPage::~CAknMfneSettingPage(void)
	??1CAknMultiLineDataQueryDialog@@UAE@XZ @ 261 NONAME ; CAknMultiLineDataQueryDialog::~CAknMultiLineDataQueryDialog(void)
	??1CAknMultiLineIpQueryDialog@@UAE@XZ @ 262 NONAME ; CAknMultiLineIpQueryDialog::~CAknMultiLineIpQueryDialog(void)
	??1CAknMultilineQueryControl@@UAE@XZ @ 263 NONAME ; CAknMultilineQueryControl::~CAknMultilineQueryControl(void)
	??1CAknNaviLabel@@UAE@XZ @ 264 NONAME ; CAknNaviLabel::~CAknNaviLabel(void)
	??1CAknNavigationControlContainer@@UAE@XZ @ 265 NONAME ; CAknNavigationControlContainer::~CAknNavigationControlContainer(void)
	??1CAknNavigationDecorator@@UAE@XZ @ 266 NONAME ; CAknNavigationDecorator::~CAknNavigationDecorator(void)
	??1CAknNoteControl@@UAE@XZ @ 267 NONAME ; CAknNoteControl::~CAknNoteControl(void)
	??1CAknNoteDialog@@UAE@XZ @ 268 NONAME ; CAknNoteDialog::~CAknNoteDialog(void)
	??1CAknNumberQueryDialog@@UAE@XZ @ 269 NONAME ; CAknNumberQueryDialog::~CAknNumberQueryDialog(void)
	??1CAknNumericPasswordSettingPage@@MAE@XZ @ 270 NONAME ; CAknNumericPasswordSettingPage::~CAknNumericPasswordSettingPage(void)
	??1CAknPhoneNumberEditor@@UAE@XZ @ 271 NONAME ; CAknPhoneNumberEditor::~CAknPhoneNumberEditor(void)
	??1CAknPopupField@@UAE@XZ @ 272 NONAME ; CAknPopupField::~CAknPopupField(void)
	??1CAknPopupFieldList@@MAE@XZ @ 273 NONAME ; CAknPopupFieldList::~CAknPopupFieldList(void)
	??1CAknPopupFieldText@@UAE@XZ @ 274 NONAME ; CAknPopupFieldText::~CAknPopupFieldText(void)
	??1CAknPopupForm@@UAE@XZ @ 275 NONAME ; CAknPopupForm::~CAknPopupForm(void)
	??1CAknPopupHeadingPane@@UAE@XZ @ 276 NONAME ; CAknPopupHeadingPane::~CAknPopupHeadingPane(void)
	??1CAknPopupList@@MAE@XZ @ 277 NONAME ; CAknPopupList::~CAknPopupList(void)
	??1CAknPopupSettingList@@UAE@XZ @ 278 NONAME ; CAknPopupSettingList::~CAknPopupSettingList(void)
	??1CAknPopupSettingPage@@MAE@XZ @ 279 NONAME ; CAknPopupSettingPage::~CAknPopupSettingPage(void)
	??1CAknProgressDialog@@UAE@XZ @ 280 NONAME ; CAknProgressDialog::~CAknProgressDialog(void)
	??1CAknQueryControl@@UAE@XZ @ 281 NONAME ; CAknQueryControl::~CAknQueryControl(void)
	??1CAknQueryDialog@@UAE@XZ @ 282 NONAME ; CAknQueryDialog::~CAknQueryDialog(void)
	??1CAknQueryValueDate@@UAE@XZ @ 283 NONAME ; CAknQueryValueDate::~CAknQueryValueDate(void)
	??1CAknQueryValueDateArray@@UAE@XZ @ 284 NONAME ; CAknQueryValueDateArray::~CAknQueryValueDateArray(void)
	??1CAknQueryValueDuration@@UAE@XZ @ 285 NONAME ; CAknQueryValueDuration::~CAknQueryValueDuration(void)
	??1CAknQueryValueDurationArray@@UAE@XZ @ 286 NONAME ; CAknQueryValueDurationArray::~CAknQueryValueDurationArray(void)
	??1CAknQueryValueNumber@@UAE@XZ @ 287 NONAME ; CAknQueryValueNumber::~CAknQueryValueNumber(void)
	??1CAknQueryValueNumberArray@@UAE@XZ @ 288 NONAME ; CAknQueryValueNumberArray::~CAknQueryValueNumberArray(void)
	??1CAknQueryValuePhone@@UAE@XZ @ 289 NONAME ; CAknQueryValuePhone::~CAknQueryValuePhone(void)
	??1CAknQueryValuePhoneArray@@UAE@XZ @ 290 NONAME ; CAknQueryValuePhoneArray::~CAknQueryValuePhoneArray(void)
	??1CAknQueryValueText@@UAE@XZ @ 291 NONAME ; CAknQueryValueText::~CAknQueryValueText(void)
	??1CAknQueryValueTextArray@@UAE@XZ @ 292 NONAME ; CAknQueryValueTextArray::~CAknQueryValueTextArray(void)
	??1CAknQueryValueTime@@UAE@XZ @ 293 NONAME ; CAknQueryValueTime::~CAknQueryValueTime(void)
	??1CAknQueryValueTimeArray@@UAE@XZ @ 294 NONAME ; CAknQueryValueTimeArray::~CAknQueryValueTimeArray(void)
	??1CAknRadioButtonSettingPage@@MAE@XZ @ 295 NONAME ; CAknRadioButtonSettingPage::~CAknRadioButtonSettingPage(void)
	??1CAknSearchField@@UAE@XZ @ 296 NONAME ; CAknSearchField::~CAknSearchField(void)
	??1CAknSelectionListDialog@@MAE@XZ @ 297 NONAME ; CAknSelectionListDialog::~CAknSelectionListDialog(void)
	??1CAknSettingItem@@UAE@XZ @ 298 NONAME ; CAknSettingItem::~CAknSettingItem(void)
	??1CAknSettingItemArray@@UAE@XZ @ 299 NONAME ; CAknSettingItemArray::~CAknSettingItemArray(void)
	??1CAknSettingItemList@@UAE@XZ @ 300 NONAME ; CAknSettingItemList::~CAknSettingItemList(void)
	??1CAknSettingPage@@UAE@XZ @ 301 NONAME ; CAknSettingPage::~CAknSettingPage(void)
	??1CAknSignalPane@@UAE@XZ @ 302 NONAME ; CAknSignalPane::~CAknSignalPane(void)
	??1CAknSkinnableClock@@UAE@XZ @ 303 NONAME ; CAknSkinnableClock::~CAknSkinnableClock(void)
	??1CAknSlider@@UAE@XZ @ 304 NONAME ; CAknSlider::~CAknSlider(void)
	??1CAknSliderSettingPage@@MAE@XZ @ 305 NONAME ; CAknSliderSettingPage::~CAknSliderSettingPage(void)
	??1CAknSoundInfo@@UAE@XZ @ 306 NONAME ; CAknSoundInfo::~CAknSoundInfo(void)
	??1CAknStaticNoteDialog@@UAE@XZ @ 307 NONAME ; CAknStaticNoteDialog::~CAknStaticNoteDialog(void)
	??1CAknTabGroup@@UAE@XZ @ 308 NONAME ; CAknTabGroup::~CAknTabGroup(void)
	??1CAknTextQueryDialog@@UAE@XZ @ 309 NONAME ; CAknTextQueryDialog::~CAknTextQueryDialog(void)
	??1CAknTextSettingItem@@UAE@XZ @ 310 NONAME ; CAknTextSettingItem::~CAknTextSettingItem(void)
	??1CAknTextSettingPage@@MAE@XZ @ 311 NONAME ; CAknTextSettingPage::~CAknTextSettingPage(void)
	??1CAknTimeOffsetSettingItem@@UAE@XZ @ 312 NONAME ; CAknTimeOffsetSettingItem::~CAknTimeOffsetSettingItem(void)
	??1CAknTimeOffsetSettingPage@@MAE@XZ @ 313 NONAME ; CAknTimeOffsetSettingPage::~CAknTimeOffsetSettingPage(void)
	??1CAknTimeOrDateSettingItem@@UAE@XZ @ 314 NONAME ; CAknTimeOrDateSettingItem::~CAknTimeOrDateSettingItem(void)
	??1CAknTimeQueryDialog@@UAE@XZ @ 315 NONAME ; CAknTimeQueryDialog::~CAknTimeQueryDialog(void)
	??1CAknTimeSettingPage@@MAE@XZ @ 316 NONAME ; CAknTimeSettingPage::~CAknTimeSettingPage(void)
	??1CAknTitlePane@@UAE@XZ @ 317 NONAME ; CAknTitlePane::~CAknTitlePane(void)
	??1CAknTransparentCameraSettingPage@@UAE@XZ @ 318 NONAME ; CAknTransparentCameraSettingPage::~CAknTransparentCameraSettingPage(void)
	??1CAknView@@UAE@XZ @ 319 NONAME ; CAknView::~CAknView(void)
	??1CAknViewAppUi@@UAE@XZ @ 320 NONAME ; CAknViewAppUi::~CAknViewAppUi(void)
	??1CAknVolumeControl@@UAE@XZ @ 321 NONAME ; CAknVolumeControl::~CAknVolumeControl(void)
	??1CAknVolumeSettingPage@@MAE@XZ @ 322 NONAME ; CAknVolumeSettingPage::~CAknVolumeSettingPage(void)
	??1CAknWaitNoteWrapper@@UAE@XZ @ 323 NONAME ; CAknWaitNoteWrapper::~CAknWaitNoteWrapper(void)
	??1CFormattedCellListBoxData@@UAE@XZ @ 324 NONAME ; CFormattedCellListBoxData::~CFormattedCellListBoxData(void)
	??1CFormattedCellListBoxItemDrawer@@UAE@XZ @ 325 NONAME ; CFormattedCellListBoxItemDrawer::~CFormattedCellListBoxItemDrawer(void)
	??1CSettingsListBoxItemDrawer@@UAE@XZ @ 326 NONAME ; CSettingsListBoxItemDrawer::~CSettingsListBoxItemDrawer(void)
	??1CSingleHeadingStyleItemDrawer@@UAE@XZ @ 327 NONAME ; CSingleHeadingStyleItemDrawer::~CSingleHeadingStyleItemDrawer(void)
	?AcceptSettingL@CAknDateSettingPage@@MAEXXZ @ 328 NONAME ; void CAknDateSettingPage::AcceptSettingL(void)
	?AcceptSettingL@CAknDurationSettingPage@@MAEXXZ @ 329 NONAME ; void CAknDurationSettingPage::AcceptSettingL(void)
	?AcceptSettingL@CAknIpFieldSettingPage@@MAEXXZ @ 330 NONAME ; void CAknIpFieldSettingPage::AcceptSettingL(void)
	?AcceptSettingL@CAknPasswordSettingPage@@MAEXXZ @ 331 NONAME ; void CAknPasswordSettingPage::AcceptSettingL(void)
	?AcceptSettingL@CAknSettingPage@@MAEXXZ @ 332 NONAME ; void CAknSettingPage::AcceptSettingL(void)
	?AcceptSettingL@CAknSliderSettingPage@@MAEXXZ @ 333 NONAME ; void CAknSliderSettingPage::AcceptSettingL(void)
	?AcceptSettingL@CAknTextSettingPage@@MAEXXZ @ 334 NONAME ; void CAknTextSettingPage::AcceptSettingL(void)
	?AcceptSettingL@CAknTimeOffsetSettingPage@@MAEXXZ @ 335 NONAME ; void CAknTimeOffsetSettingPage::AcceptSettingL(void)
	?AcceptSettingL@CAknTimeSettingPage@@MAEXXZ @ 336 NONAME ; void CAknTimeSettingPage::AcceptSettingL(void)
	?AcceptSettingL@CAknVolumeSettingPage@@MAEXXZ @ 337 NONAME ; void CAknVolumeSettingPage::AcceptSettingL(void)
	?Activate@CAknAnimatedGc@@MAEXAAVRDrawableWindow@@@Z @ 338 NONAME ; void CAknAnimatedGc::Activate(class RDrawableWindow &)
	?ActivateL@CAknCharMap@@UAEXXZ @ 339 NONAME ; void CAknCharMap::ActivateL(void)
	?ActivateL@CAknListQueryDialog@@UAEXXZ @ 340 NONAME ; void CAknListQueryDialog::ActivateL(void)
	?ActivateL@CAknPopupForm@@UAEXXZ @ 341 NONAME ; void CAknPopupForm::ActivateL(void)
	?ActivateLocalViewL@CAknViewAppUi@@QAEXVTUid@@0ABVTDesC8@@@Z @ 342 NONAME ; void CAknViewAppUi::ActivateLocalViewL(class TUid, class TUid, class TDesC8 const &)
	?ActivateLocalViewL@CAknViewAppUi@@QAEXVTUid@@@Z @ 343 NONAME ; void CAknViewAppUi::ActivateLocalViewL(class TUid)
	?ActivateMenuListL@CAknPopupSettingList@@IAEXXZ @ 344 NONAME ; void CAknPopupSettingList::ActivateMenuListL(void)
	?ActivateSelectionListL@CAknPopupField@@QAEXXZ @ 345 NONAME ; void CAknPopupField::ActivateSelectionListL(void)
	?ActivateThisTextL@CAknItemFinder@@UAEXABVCRichText@@HH@Z @ 346 ABSENT
	?ActivateViewL@CAknView@@QAEXABVTVwsViewId@@@Z @ 347 NONAME ; void CAknView::ActivateViewL(class TVwsViewId const &)
	?ActivateViewL@CAknView@@QAEXABVTVwsViewId@@VTUid@@ABVTDesC8@@@Z @ 348 NONAME ; void CAknView::ActivateViewL(class TVwsViewId const &, class TUid, class TDesC8 const &)
	?ActiveTabId@CAknTabGroup@@QBEHXZ @ 349 NONAME ; int CAknTabGroup::ActiveTabId(void) const
	?ActiveTabIndex@CAknTabGroup@@QBEHXZ @ 350 NONAME ; int CAknTabGroup::ActiveTabIndex(void) const
	?ActualDataIndex@CAknGridView@@QBEHH@Z @ 351 NONAME ; int CAknGridView::ActualDataIndex(int) const
	?AddAppSoundInfoListL@CAknKeySoundSystem@@QAEXH@Z @ 352 NONAME ; void CAknKeySoundSystem::AddAppSoundInfoListL(int)
	?AddChar@CAknEcsDetector@@QAEXG@Z @ 353 NONAME ; void CAknEcsDetector::AddChar(unsigned short)
	?AddFormat@CAknPhoneNumberEditor@@QAEXABVTFormat@1@@Z @ 354 NONAME ; void CAknPhoneNumberEditor::AddFormat(class CAknPhoneNumberEditor::TFormat const &)
	?AddItemL@CAknForm@@MAEXXZ @ 355 NONAME ; void CAknForm::AddItemL(void)
	?AddL@CAknDrawSynchronizer@@QAEXPAVMAknSyncDrawer@@@Z @ 356 NONAME ; void CAknDrawSynchronizer::AddL(class MAknSyncDrawer *)
	?AddObserver@CAknItemFinder@@QAEXAAVMAknItemFinderObserver@@@Z @ 357 ABSENT
	?AddObserverL@CAknWsEventMonitor@@QAEXPAVMAknWsEventObserver@@@Z @ 358 NONAME ; void CAknWsEventMonitor::AddObserverL(class MAknWsEventObserver *)
	?AddTabL@CAknTabGroup@@QAEHAAVTResourceReader@@@Z @ 359 NONAME ; int CAknTabGroup::AddTabL(class TResourceReader &)
	?AddTabL@CAknTabGroup@@QAEXHABVTDesC16@@@Z @ 360 NONAME ; void CAknTabGroup::AddTabL(int, class TDesC16 const &)
	?AddTabL@CAknTabGroup@@QAEXHABVTDesC16@@PBVCFbsBitmap@@1@Z @ 361 NONAME ; void CAknTabGroup::AddTabL(int, class TDesC16 const &, class CFbsBitmap const *, class CFbsBitmap const *)
	?AddTabL@CAknTabGroup@@QAEXHPBVCFbsBitmap@@0@Z @ 362 NONAME ; void CAknTabGroup::AddTabL(int, class CFbsBitmap const *, class CFbsBitmap const *)
	?AddViewL@CAknViewAppUi@@QAEXPAVCAknView@@@Z @ 363 NONAME ; void CAknViewAppUi::AddViewL(class CAknView *)
	?AdjustRectHeightToWholeNumberOfItems@CAknColumnListBox@@UBEHAAVTRect@@@Z @ 364 NONAME ; int CAknColumnListBox::AdjustRectHeightToWholeNumberOfItems(class TRect &) const
	?AdjustRectHeightToWholeNumberOfItems@CAknFormGraphicStyleListBox@@UBEHAAVTRect@@@Z @ 365 NONAME ; int CAknFormGraphicStyleListBox::AdjustRectHeightToWholeNumberOfItems(class TRect &) const
	?AdjustRectHeightToWholeNumberOfItems@CAknGrid@@MBEHAAVTRect@@@Z @ 366 NONAME ; int CAknGrid::AdjustRectHeightToWholeNumberOfItems(class TRect &) const
	?AdjustRectHeightToWholeNumberOfItems@CEikFormattedCellListBox@@MBEHAAVTRect@@@Z @ 367 NONAME ; int CEikFormattedCellListBox::AdjustRectHeightToWholeNumberOfItems(class TRect &) const
	?AdjustTopItemIndex@CAknGrid@@MBEXXZ @ 368 NONAME ; void CAknGrid::AdjustTopItemIndex(void) const
	?AknLayout@CAknEnv@@QBEABVCInstance@0@XZ @ 369 NONAME ; class AknLayout::CInstance const & CAknEnv::AknLayout(void) const
	?AknSrv@CAknSgcClient@@SAPAVRAknUiServer@@XZ @ 370 NONAME ; class RAknUiServer * CAknSgcClient::AknSrv(void)
	?AknViewActivatedL@CAknAnimatedView@@MAEXABVTVwsViewId@@VTUid@@ABVTDesC8@@@Z @ 371 NONAME ; void CAknAnimatedView::AknViewActivatedL(class TVwsViewId const &, class TUid, class TDesC8 const &)
	?AknViewActivatedL@CAknView@@UAEXABVTVwsViewId@@VTUid@@ABVTDesC8@@@Z @ 372 NONAME ; void CAknView::AknViewActivatedL(class TVwsViewId const &, class TUid, class TDesC8 const &)
	?AllowNotifierAppServersToLoad@RAknEikAppUiSession@@QAEHXZ @ 373 NONAME ; int RAknEikAppUiSession::AllowNotifierAppServersToLoad(void)
	?AlphaPasswordEditor@CAknAlphaPasswordSettingPage@@QAEPAVCEikSecretEditor@@XZ @ 374 NONAME ; class CEikSecretEditor * CAknAlphaPasswordSettingPage::AlphaPasswordEditor(void)
	?Animation@CAknBitmapAnimation@@QAEAAVRBitmapAnim@@XZ @ 375 NONAME ; class RBitmapAnim & CAknBitmapAnimation::Animation(void)
	?ApacPlain12@@YAPBVCFont@@XZ @ 376 NONAME ; class CFont const * ApacPlain12(void)
	?ApacPlain16@@YAPBVCFont@@XZ @ 377 NONAME ; class CFont const * ApacPlain16(void)
	?AppUi@CAknView@@IBEPAVCAknViewAppUi@@XZ @ 378 NONAME ; class CAknViewAppUi * CAknView::AppUi(void) const
	?AppWithShutterRunning@CAknEnv@@SAPAVCAknAppUi@@XZ @ 379 NONAME ; class CAknAppUi * CAknEnv::AppWithShutterRunning(void)
	?AppendCharacterL@CAknNumericSecretEditor@@MAEXH@Z @ 380 NONAME ; void CAknNumericSecretEditor::AppendCharacterL(int)
	?AppendFromResourceL@CAknIconArray@@QAEXAAVTResourceReader@@@Z @ 381 NONAME ; void CAknIconArray::AppendFromResourceL(class TResourceReader &)
	?AppendFromResourceL@CAknIconArray@@QAEXH@Z @ 382 NONAME ; void CAknIconArray::AppendFromResourceL(int)
	?AppendValueIfNewL@CAknQueryValue@@UAEXXZ @ 383 NONAME ; void CAknQueryValue::AppendValueIfNewL(void)
	?ApplicationRect@CAknAppUiBase@@UBE?AVTRect@@XZ @ 384 NONAME ; class TRect CAknAppUiBase::ApplicationRect(void) const
	?AreaItem@CAknGenericReader@@QBEPBUSAknLayoutGfx@@H@Z @ 385 NONAME ; struct SAknLayoutGfx const * CAknGenericReader::AreaItem(int) const
	?Array@CAknListBoxLayoutDecorator@@QBEPBVMDesC16Array@@XZ @ 386 NONAME ; class MDesC16Array const * CAknListBoxLayoutDecorator::Array(void) const
	?Array@CAknQueryValueDateArray@@QBEPAV?$CArrayFix@VTTime@@@@XZ @ 387 NONAME ; class CArrayFix<class TTime> * CAknQueryValueDateArray::Array(void) const
	?Array@CAknQueryValueDurationArray@@QBEPAV?$CArrayFix@VTTimeIntervalSeconds@@@@XZ @ 388 NONAME ; class CArrayFix<class TTimeIntervalSeconds> * CAknQueryValueDurationArray::Array(void) const
	?Array@CAknQueryValueNumberArray@@QBEPAV?$CArrayFix@H@@XZ @ 389 NONAME ; class CArrayFix<int> * CAknQueryValueNumberArray::Array(void) const
	?Array@CAknQueryValuePhoneArray@@QBEPAVCDesC16Array@@XZ @ 390 NONAME ; class CDesC16Array * CAknQueryValuePhoneArray::Array(void) const
	?Array@CAknQueryValueTextArray@@QBEPAVCDesC16Array@@XZ @ 391 NONAME ; class CDesC16Array * CAknQueryValueTextArray::Array(void) const
	?Array@CAknQueryValueTimeArray@@QBEPAV?$CArrayFix@VTTime@@@@XZ @ 392 NONAME ; class CArrayFix<class TTime> * CAknQueryValueTimeArray::Array(void) const
	?AsCAknLayoutFontOrNull@CAknLayoutFont@@SAPBV1@PBVCFont@@@Z @ 393 NONAME ; class CAknLayoutFont const * CAknLayoutFont::AsCAknLayoutFontOrNull(class CFont const *)
	?AssociatedResourceId@CAknSettingItem@@IBEHXZ @ 394 NONAME ; int CAknSettingItem::AssociatedResourceId(void) const
	?AttemptExitL@CAknPopupFieldList@@MAEXH@Z @ 395 NONAME ; void CAknPopupFieldList::AttemptExitL(int)
	?AttemptExitL@CAknPopupList@@MAEXH@Z @ 396 NONAME ; void CAknPopupList::AttemptExitL(int)
	?AttemptExitL@CAknSettingPage@@IAEXH@Z @ 397 NONAME ; void CAknSettingPage::AttemptExitL(int)
	?AvkonColor@CAknEnv@@SA?AVTRgb@@H@Z @ 398 NONAME ; class TRgb CAknEnv::AvkonColor(int)
	?BaseConstructL@CAknAppUi@@QAEXH@Z @ 399 NONAME ; void CAknAppUi::BaseConstructL(int)
	?BaseConstructL@CAknAppUiBase@@QAEXH@Z @ 400 NONAME ; void CAknAppUiBase::BaseConstructL(int)
	?BaseConstructL@CAknSettingPage@@IAEXXZ @ 401 NONAME ; void CAknSettingPage::BaseConstructL(void)
	?BaseConstructL@CAknView@@QAEXH@Z @ 402 NONAME ; void CAknView::BaseConstructL(int)
	?BaseConstructL@CAknViewAppUi@@QAEXH@Z @ 403 NONAME ; void CAknViewAppUi::BaseConstructL(int)
	?BaseDraw@CAknSettingPage@@IBEXABVTRect@@@Z @ 404 NONAME ; void CAknSettingPage::BaseDraw(class TRect const &) const
	?BaselineToTextPaneBottom@CAknLayoutFont@@QBEHXZ @ 405 NONAME ; int CAknLayoutFont::BaselineToTextPaneBottom(void) const
	?BaselineToUnderlineOffset@TAknTextDecorationMetrics@@QBEHXZ @ 406 NONAME ; int TAknTextDecorationMetrics::BaselineToUnderlineOffset(void) const
	?BgListPaneTable@@YAABUTLafTable@@XZ @ 407 NONAME ABSENT ; struct TLafTable const & BgListPaneTable(void)
	?BitBlt@CAknAnimatedGc@@MAEXABVTPoint@@PBVCFbsBitmap@@@Z @ 408 NONAME ; void CAknAnimatedGc::BitBlt(class TPoint const &, class CFbsBitmap const *)
	?BitBlt@CAknAnimatedGc@@MAEXABVTPoint@@PBVCFbsBitmap@@ABVTRect@@@Z @ 409 NONAME ; void CAknAnimatedGc::BitBlt(class TPoint const &, class CFbsBitmap const *, class TRect const &)
	?BitBlt@CAknAnimatedGc@@MAEXABVTPoint@@PBVCWsBitmap@@@Z @ 410 NONAME ; void CAknAnimatedGc::BitBlt(class TPoint const &, class CWsBitmap const *)
	?BitBlt@CAknAnimatedGc@@MAEXABVTPoint@@PBVCWsBitmap@@ABVTRect@@@Z @ 411 NONAME ; void CAknAnimatedGc::BitBlt(class TPoint const &, class CWsBitmap const *, class TRect const &)
	?BitBltMasked@CAknAnimatedGc@@MAEXABVTPoint@@PBVCFbsBitmap@@ABVTRect@@1H@Z @ 412 NONAME ; void CAknAnimatedGc::BitBltMasked(class TPoint const &, class CFbsBitmap const *, class TRect const &, class CFbsBitmap const *, int)
	?BitBltMasked@CAknAnimatedGc@@MAEXABVTPoint@@PBVCWsBitmap@@ABVTRect@@1H@Z @ 413 NONAME ; void CAknAnimatedGc::BitBltMasked(class TPoint const &, class CWsBitmap const *, class TRect const &, class CWsBitmap const *, int)
	?BitmapAnimData@CAknBitmapAnimation@@QBEPAVCBitmapAnimClientData@@XZ @ 414 NONAME ; class CBitmapAnimClientData * CAknBitmapAnimation::BitmapAnimData(void) const
	?BlockServerStatusPaneRedraws@RAknEikAppUiSession@@QAEHXZ @ 415 NONAME ; int RAknEikAppUiSession::BlockServerStatusPaneRedraws(void)
	?BlockServerStatusPaneRedrawsL@CAknSgcClient@@SAXXZ @ 416 NONAME ; void CAknSgcClient::BlockServerStatusPaneRedrawsL(void)
	?BorderStyle@CAknListQueryDialog@@MAEHXZ @ 417 NONAME ; int CAknListQueryDialog::BorderStyle(void)
	?BringToForeground@CAknKeySoundSystem@@QAEXXZ @ 418 NONAME ; void CAknKeySoundSystem::BringToForeground(void)
	?ButtonGroupContainer@CAknPopupList@@QAEPAVCEikButtonGroupContainer@@XZ @ 419 NONAME ; class CEikButtonGroupContainer * CAknPopupList::ButtonGroupContainer(void)
	?CAknCharMapDialog_Reserved@CAknCharMapDialog@@EAEXXZ @ 420 NONAME ; void CAknCharMapDialog::CAknCharMapDialog_Reserved(void)
	?CAknDialog_Reserved@CAknDialog@@EAEXXZ @ 421 NONAME ; void CAknDialog::CAknDialog_Reserved(void)
	?CAknDialog_Reserved@CAknDurationQueryDialog@@EAEXXZ @ 422 NONAME ; void CAknDurationQueryDialog::CAknDialog_Reserved(void)
	?CAknDialog_Reserved@CAknFixedPointQueryDialog@@EAEXXZ @ 423 NONAME ; void CAknFixedPointQueryDialog::CAknDialog_Reserved(void)
	?CAknDialog_Reserved@CAknFloatingPointQueryDialog@@EAEXXZ @ 424 NONAME ; void CAknFloatingPointQueryDialog::CAknDialog_Reserved(void)
	?CAknDialog_Reserved@CAknForm@@EAEXXZ @ 425 NONAME ; void CAknForm::CAknDialog_Reserved(void)
	?CAknDialog_Reserved@CAknIpAddressQueryDialog@@EAEXXZ @ 426 NONAME ; void CAknIpAddressQueryDialog::CAknDialog_Reserved(void)
	?CAknDialog_Reserved@CAknListQueryDialog@@EAEXXZ @ 427 NONAME ; void CAknListQueryDialog::CAknDialog_Reserved(void)
	?CAknDialog_Reserved@CAknMarkableListDialog@@EAEXXZ @ 428 NONAME ; void CAknMarkableListDialog::CAknDialog_Reserved(void)
	?CAknDialog_Reserved@CAknMessageQueryDialog@@EAEXXZ @ 429 NONAME ; void CAknMessageQueryDialog::CAknDialog_Reserved(void)
	?CAknDialog_Reserved@CAknMultiLineDataQueryDialog@@EAEXXZ @ 430 NONAME ; void CAknMultiLineDataQueryDialog::CAknDialog_Reserved(void)
	?CAknDialog_Reserved@CAknNumberQueryDialog@@EAEXXZ @ 431 NONAME ; void CAknNumberQueryDialog::CAknDialog_Reserved(void)
	?CAknDialog_Reserved@CAknQueryDialog@@EAEXXZ @ 432 NONAME ; void CAknQueryDialog::CAknDialog_Reserved(void)
	?CAknDialog_Reserved@CAknSelectionListDialog@@EAEXXZ @ 433 NONAME ; void CAknSelectionListDialog::CAknDialog_Reserved(void)
	?CAknDialog_Reserved@CAknTextQueryDialog@@EAEXXZ @ 434 NONAME ; void CAknTextQueryDialog::CAknDialog_Reserved(void)
	?CAknDialog_Reserved@CAknTimeQueryDialog@@EAEXXZ @ 435 NONAME ; void CAknTimeQueryDialog::CAknDialog_Reserved(void)
	?CAknEdwinSettingPage_Reserved_1@CAknEdwinSettingPage@@EAEXXZ @ 436 NONAME ; void CAknEdwinSettingPage::CAknEdwinSettingPage_Reserved_1(void)
	?CAknEdwinSettingPage_Reserved_1@CAknIntegerSettingPage@@EAEXXZ @ 437 NONAME ; void CAknIntegerSettingPage::CAknEdwinSettingPage_Reserved_1(void)
	?CAknEdwinSettingPage_Reserved_1@CAknTextSettingPage@@EAEXXZ @ 438 NONAME ; void CAknTextSettingPage::CAknEdwinSettingPage_Reserved_1(void)
	?CAknForm_Reserved@CAknForm@@EAEXXZ @ 439 NONAME ; void CAknForm::CAknForm_Reserved(void)
	?CAknListBoxLayoutDecorator_Reserved1@CAknListBoxLayoutDecorator@@EAEXXZ @ 440 NONAME ; void CAknListBoxLayoutDecorator::CAknListBoxLayoutDecorator_Reserved1(void)
	?CAknListBoxLayoutDecorator_Reserved1@CAknListBoxLayoutDecorator@@EBEXXZ @ 441 NONAME ; void CAknListBoxLayoutDecorator::CAknListBoxLayoutDecorator_Reserved1(void) const
	?CAknListBoxSettingPage_Reserved_1@CAknCheckBoxSettingPage@@EAEXXZ @ 442 NONAME ; void CAknCheckBoxSettingPage::CAknListBoxSettingPage_Reserved_1(void)
	?CAknListBoxSettingPage_Reserved_1@CAknListBoxSettingPage@@EAEXXZ @ 443 NONAME ; void CAknListBoxSettingPage::CAknListBoxSettingPage_Reserved_1(void)
	?CAknListBoxSettingPage_Reserved_1@CAknPopupSettingPage@@EAEXXZ @ 444 NONAME ; void CAknPopupSettingPage::CAknListBoxSettingPage_Reserved_1(void)
	?CAknListBoxSettingPage_Reserved_1@CAknRadioButtonSettingPage@@EAEXXZ @ 445 NONAME ; void CAknRadioButtonSettingPage::CAknListBoxSettingPage_Reserved_1(void)
	?CAknListBoxSettingPage_Reserved_1@CAknTransparentCameraSettingPage@@EAEXXZ @ 446 NONAME ; void CAknTransparentCameraSettingPage::CAknListBoxSettingPage_Reserved_1(void)
	?CAknNoteDialog_Reserved@CAknConfirmationNote@@EAEXXZ @ 447 NONAME ; void CAknConfirmationNote::CAknNoteDialog_Reserved(void)
	?CAknNoteDialog_Reserved@CAknErrorNote@@EAEXXZ @ 448 NONAME ; void CAknErrorNote::CAknNoteDialog_Reserved(void)
	?CAknNoteDialog_Reserved@CAknInformationNote@@EAEXXZ @ 449 NONAME ; void CAknInformationNote::CAknNoteDialog_Reserved(void)
	?CAknNoteDialog_Reserved@CAknNoteDialog@@EAEXXZ @ 450 NONAME ; void CAknNoteDialog::CAknNoteDialog_Reserved(void)
	?CAknNoteDialog_Reserved@CAknNoteWrapper@@EAEXXZ @ 451 NONAME ; void CAknNoteWrapper::CAknNoteDialog_Reserved(void)
	?CAknNoteDialog_Reserved@CAknProgressDialog@@EAEXXZ @ 452 NONAME ; void CAknProgressDialog::CAknNoteDialog_Reserved(void)
	?CAknNoteDialog_Reserved@CAknResourceNoteDialog@@EAEXXZ @ 453 NONAME ; void CAknResourceNoteDialog::CAknNoteDialog_Reserved(void)
	?CAknNoteDialog_Reserved@CAknStaticNoteDialog@@EAEXXZ @ 454 NONAME ; void CAknStaticNoteDialog::CAknNoteDialog_Reserved(void)
	?CAknNoteDialog_Reserved@CAknWaitDialog@@EAEXXZ @ 455 NONAME ; void CAknWaitDialog::CAknNoteDialog_Reserved(void)
	?CAknNoteDialog_Reserved@CAknWarningNote@@EAEXXZ @ 456 NONAME ; void CAknWarningNote::CAknNoteDialog_Reserved(void)
	?CAknQueryDialog_Reserved@CAknDurationQueryDialog@@EAEXXZ @ 457 NONAME ; void CAknDurationQueryDialog::CAknQueryDialog_Reserved(void)
	?CAknQueryDialog_Reserved@CAknFixedPointQueryDialog@@EAEXXZ @ 458 NONAME ; void CAknFixedPointQueryDialog::CAknQueryDialog_Reserved(void)
	?CAknQueryDialog_Reserved@CAknFloatingPointQueryDialog@@EAEXXZ @ 459 NONAME ; void CAknFloatingPointQueryDialog::CAknQueryDialog_Reserved(void)
	?CAknQueryDialog_Reserved@CAknIpAddressQueryDialog@@EAEXXZ @ 460 NONAME ; void CAknIpAddressQueryDialog::CAknQueryDialog_Reserved(void)
	?CAknQueryDialog_Reserved@CAknListQueryDialog@@EAEXXZ @ 461 NONAME ; void CAknListQueryDialog::CAknQueryDialog_Reserved(void)
	?CAknQueryDialog_Reserved@CAknMessageQueryDialog@@EAEXXZ @ 462 NONAME ; void CAknMessageQueryDialog::CAknQueryDialog_Reserved(void)
	?CAknQueryDialog_Reserved@CAknMultiLineDataQueryDialog@@EAEXXZ @ 463 NONAME ; void CAknMultiLineDataQueryDialog::CAknQueryDialog_Reserved(void)
	?CAknQueryDialog_Reserved@CAknNumberQueryDialog@@EAEXXZ @ 464 NONAME ; void CAknNumberQueryDialog::CAknQueryDialog_Reserved(void)
	?CAknQueryDialog_Reserved@CAknQueryDialog@@EAEXXZ @ 465 NONAME ; void CAknQueryDialog::CAknQueryDialog_Reserved(void)
	?CAknQueryDialog_Reserved@CAknTextQueryDialog@@EAEXXZ @ 466 NONAME ; void CAknTextQueryDialog::CAknQueryDialog_Reserved(void)
	?CAknQueryDialog_Reserved@CAknTimeQueryDialog@@EAEXXZ @ 467 NONAME ; void CAknTimeQueryDialog::CAknQueryDialog_Reserved(void)
	?CAknResourceNoteDialog_Reserved@CAknConfirmationNote@@EAEXXZ @ 468 NONAME ; void CAknConfirmationNote::CAknResourceNoteDialog_Reserved(void)
	?CAknResourceNoteDialog_Reserved@CAknErrorNote@@EAEXXZ @ 469 NONAME ; void CAknErrorNote::CAknResourceNoteDialog_Reserved(void)
	?CAknResourceNoteDialog_Reserved@CAknInformationNote@@EAEXXZ @ 470 NONAME ; void CAknInformationNote::CAknResourceNoteDialog_Reserved(void)
	?CAknResourceNoteDialog_Reserved@CAknResourceNoteDialog@@EAEXXZ @ 471 NONAME ; void CAknResourceNoteDialog::CAknResourceNoteDialog_Reserved(void)
	?CAknResourceNoteDialog_Reserved@CAknWarningNote@@EAEXXZ @ 472 NONAME ; void CAknWarningNote::CAknResourceNoteDialog_Reserved(void)
	?CAknSelectionListDialog_Reserved@CAknMarkableListDialog@@EAEXXZ @ 473 NONAME ; void CAknMarkableListDialog::CAknSelectionListDialog_Reserved(void)
	?CAknSelectionListDialog_Reserved@CAknSelectionListDialog@@EAEXXZ @ 474 NONAME ; void CAknSelectionListDialog::CAknSelectionListDialog_Reserved(void)
	?CAknSettingItem_Reserved@CAknBigSettingItemBase@@AAEXXZ @ 475 NONAME ; void CAknBigSettingItemBase::CAknSettingItem_Reserved(void)
	?CAknSettingItem_Reserved@CAknBinaryPopupSettingItem@@AAEXXZ @ 476 NONAME ; void CAknBinaryPopupSettingItem::CAknSettingItem_Reserved(void)
	?CAknSettingItem_Reserved@CAknEnumeratedTextPopupSettingItem@@AAEXXZ @ 477 NONAME ; void CAknEnumeratedTextPopupSettingItem::CAknSettingItem_Reserved(void)
	?CAknSettingItem_Reserved@CAknEnumeratedTextSettingItem@@AAEXXZ @ 478 NONAME ; void CAknEnumeratedTextSettingItem::CAknSettingItem_Reserved(void)
	?CAknSettingItem_Reserved@CAknIntegerEdwinSettingItem@@AAEXXZ @ 479 NONAME ; void CAknIntegerEdwinSettingItem::CAknSettingItem_Reserved(void)
	?CAknSettingItem_Reserved@CAknIntegerSettingItem@@AAEXXZ @ 480 NONAME ; void CAknIntegerSettingItem::CAknSettingItem_Reserved(void)
	?CAknSettingItem_Reserved@CAknIpFieldSettingItem@@AAEXXZ @ 481 NONAME ; void CAknIpFieldSettingItem::CAknSettingItem_Reserved(void)
	?CAknSettingItem_Reserved@CAknPasswordSettingItem@@AAEXXZ @ 482 NONAME ; void CAknPasswordSettingItem::CAknSettingItem_Reserved(void)
	?CAknSettingItem_Reserved@CAknSettingItem@@AAEXXZ @ 483 NONAME ; void CAknSettingItem::CAknSettingItem_Reserved(void)
	?CAknSettingItem_Reserved@CAknSliderSettingItem@@AAEXXZ @ 484 NONAME ; void CAknSliderSettingItem::CAknSettingItem_Reserved(void)
	?CAknSettingItem_Reserved@CAknTextSettingItem@@AAEXXZ @ 485 NONAME ; void CAknTextSettingItem::CAknSettingItem_Reserved(void)
	?CAknSettingItem_Reserved@CAknTimeOffsetSettingItem@@AAEXXZ @ 486 NONAME ; void CAknTimeOffsetSettingItem::CAknSettingItem_Reserved(void)
	?CAknSettingItem_Reserved@CAknTimeOrDateSettingItem@@AAEXXZ @ 487 NONAME ; void CAknTimeOrDateSettingItem::CAknSettingItem_Reserved(void)
	?CAknSettingItem_Reserved@CAknVolumeSettingItem@@AAEXXZ @ 488 NONAME ; void CAknVolumeSettingItem::CAknSettingItem_Reserved(void)
	?CAknSettingPage_Reserved_1@CAknAlphaPasswordSettingPage@@EAEXXZ @ 489 NONAME ; void CAknAlphaPasswordSettingPage::CAknSettingPage_Reserved_1(void)
	?CAknSettingPage_Reserved_1@CAknCheckBoxSettingPage@@EAEXXZ @ 490 NONAME ; void CAknCheckBoxSettingPage::CAknSettingPage_Reserved_1(void)
	?CAknSettingPage_Reserved_1@CAknDateSettingPage@@EAEXXZ @ 491 NONAME ; void CAknDateSettingPage::CAknSettingPage_Reserved_1(void)
	?CAknSettingPage_Reserved_1@CAknDurationSettingPage@@EAEXXZ @ 492 NONAME ; void CAknDurationSettingPage::CAknSettingPage_Reserved_1(void)
	?CAknSettingPage_Reserved_1@CAknIntegerSettingPage@@EAEXXZ @ 493 NONAME ; void CAknIntegerSettingPage::CAknSettingPage_Reserved_1(void)
	?CAknSettingPage_Reserved_1@CAknIpFieldSettingPage@@EAEXXZ @ 494 NONAME ; void CAknIpFieldSettingPage::CAknSettingPage_Reserved_1(void)
	?CAknSettingPage_Reserved_1@CAknNumericPasswordSettingPage@@EAEXXZ @ 495 NONAME ; void CAknNumericPasswordSettingPage::CAknSettingPage_Reserved_1(void)
	?CAknSettingPage_Reserved_1@CAknPasswordSettingPage@@EAEXXZ @ 496 NONAME ; void CAknPasswordSettingPage::CAknSettingPage_Reserved_1(void)
	?CAknSettingPage_Reserved_1@CAknPopupSettingPage@@EAEXXZ @ 497 NONAME ; void CAknPopupSettingPage::CAknSettingPage_Reserved_1(void)
	?CAknSettingPage_Reserved_1@CAknRadioButtonSettingPage@@EAEXXZ @ 498 NONAME ; void CAknRadioButtonSettingPage::CAknSettingPage_Reserved_1(void)
	?CAknSettingPage_Reserved_1@CAknSettingPage@@EAEXXZ @ 499 NONAME ; void CAknSettingPage::CAknSettingPage_Reserved_1(void)
	?CAknSettingPage_Reserved_1@CAknSliderSettingPage@@EAEXXZ @ 500 NONAME ; void CAknSliderSettingPage::CAknSettingPage_Reserved_1(void)
	?CAknSettingPage_Reserved_1@CAknTextSettingPage@@EAEXXZ @ 501 NONAME ; void CAknTextSettingPage::CAknSettingPage_Reserved_1(void)
	?CAknSettingPage_Reserved_1@CAknTimeOffsetSettingPage@@EAEXXZ @ 502 NONAME ; void CAknTimeOffsetSettingPage::CAknSettingPage_Reserved_1(void)
	?CAknSettingPage_Reserved_1@CAknTimeSettingPage@@EAEXXZ @ 503 NONAME ; void CAknTimeSettingPage::CAknSettingPage_Reserved_1(void)
	?CAknSettingPage_Reserved_1@CAknTransparentCameraSettingPage@@EAEXXZ @ 504 NONAME ; void CAknTransparentCameraSettingPage::CAknSettingPage_Reserved_1(void)
	?CAknSettingPage_Reserved_1@CAknVolumeSettingPage@@EAEXXZ @ 505 NONAME ; void CAknVolumeSettingPage::CAknSettingPage_Reserved_1(void)
	?CAknSettingPage_Reserved_2@CAknAlphaPasswordSettingPage@@EAEXXZ @ 506 NONAME ; void CAknAlphaPasswordSettingPage::CAknSettingPage_Reserved_2(void)
	?CAknSettingPage_Reserved_2@CAknCheckBoxSettingPage@@EAEXXZ @ 507 NONAME ; void CAknCheckBoxSettingPage::CAknSettingPage_Reserved_2(void)
	?CAknSettingPage_Reserved_2@CAknDateSettingPage@@EAEXXZ @ 508 NONAME ; void CAknDateSettingPage::CAknSettingPage_Reserved_2(void)
	?CAknSettingPage_Reserved_2@CAknDurationSettingPage@@EAEXXZ @ 509 NONAME ; void CAknDurationSettingPage::CAknSettingPage_Reserved_2(void)
	?CAknSettingPage_Reserved_2@CAknIntegerSettingPage@@EAEXXZ @ 510 NONAME ; void CAknIntegerSettingPage::CAknSettingPage_Reserved_2(void)
	?CAknSettingPage_Reserved_2@CAknIpFieldSettingPage@@EAEXXZ @ 511 NONAME ; void CAknIpFieldSettingPage::CAknSettingPage_Reserved_2(void)
	?CAknSettingPage_Reserved_2@CAknNumericPasswordSettingPage@@EAEXXZ @ 512 NONAME ; void CAknNumericPasswordSettingPage::CAknSettingPage_Reserved_2(void)
	?CAknSettingPage_Reserved_2@CAknPasswordSettingPage@@EAEXXZ @ 513 NONAME ; void CAknPasswordSettingPage::CAknSettingPage_Reserved_2(void)
	?CAknSettingPage_Reserved_2@CAknPopupSettingPage@@EAEXXZ @ 514 NONAME ; void CAknPopupSettingPage::CAknSettingPage_Reserved_2(void)
	?CAknSettingPage_Reserved_2@CAknRadioButtonSettingPage@@EAEXXZ @ 515 NONAME ; void CAknRadioButtonSettingPage::CAknSettingPage_Reserved_2(void)
	?CAknSettingPage_Reserved_2@CAknSettingPage@@EAEXXZ @ 516 NONAME ; void CAknSettingPage::CAknSettingPage_Reserved_2(void)
	?CAknSettingPage_Reserved_2@CAknSliderSettingPage@@EAEXXZ @ 517 NONAME ; void CAknSliderSettingPage::CAknSettingPage_Reserved_2(void)
	?CAknSettingPage_Reserved_2@CAknTextSettingPage@@EAEXXZ @ 518 NONAME ; void CAknTextSettingPage::CAknSettingPage_Reserved_2(void)
	?CAknSettingPage_Reserved_2@CAknTimeOffsetSettingPage@@EAEXXZ @ 519 NONAME ; void CAknTimeOffsetSettingPage::CAknSettingPage_Reserved_2(void)
	?CAknSettingPage_Reserved_2@CAknTimeSettingPage@@EAEXXZ @ 520 NONAME ; void CAknTimeSettingPage::CAknSettingPage_Reserved_2(void)
	?CAknSettingPage_Reserved_2@CAknTransparentCameraSettingPage@@EAEXXZ @ 521 NONAME ; void CAknTransparentCameraSettingPage::CAknSettingPage_Reserved_2(void)
	?CAknSettingPage_Reserved_2@CAknVolumeSettingPage@@EAEXXZ @ 522 NONAME ; void CAknVolumeSettingPage::CAknSettingPage_Reserved_2(void)
	?CAknStaticNoteDialog_Reserved@CAknStaticNoteDialog@@EAEXXZ @ 523 NONAME ; void CAknStaticNoteDialog::CAknStaticNoteDialog_Reserved(void)
	?CEikDialog_Reserved_1@CAknCharMapDialog@@EAEXXZ @ 524 NONAME ; void CAknCharMapDialog::CEikDialog_Reserved_1(void)
	?CEikDialog_Reserved_1@CAknConfirmationNote@@EAEXXZ @ 525 NONAME ; void CAknConfirmationNote::CEikDialog_Reserved_1(void)
	?CEikDialog_Reserved_1@CAknDialog@@EAEXXZ @ 526 NONAME ; void CAknDialog::CEikDialog_Reserved_1(void)
	?CEikDialog_Reserved_1@CAknDurationQueryDialog@@EAEXXZ @ 527 NONAME ; void CAknDurationQueryDialog::CEikDialog_Reserved_1(void)
	?CEikDialog_Reserved_1@CAknErrorNote@@EAEXXZ @ 528 NONAME ; void CAknErrorNote::CEikDialog_Reserved_1(void)
	?CEikDialog_Reserved_1@CAknFixedPointQueryDialog@@EAEXXZ @ 529 NONAME ; void CAknFixedPointQueryDialog::CEikDialog_Reserved_1(void)
	?CEikDialog_Reserved_1@CAknFloatingPointQueryDialog@@EAEXXZ @ 530 NONAME ; void CAknFloatingPointQueryDialog::CEikDialog_Reserved_1(void)
	?CEikDialog_Reserved_1@CAknForm@@EAEXXZ @ 531 NONAME ; void CAknForm::CEikDialog_Reserved_1(void)
	?CEikDialog_Reserved_1@CAknInformationNote@@EAEXXZ @ 532 NONAME ; void CAknInformationNote::CEikDialog_Reserved_1(void)
	?CEikDialog_Reserved_1@CAknIpAddressQueryDialog@@EAEXXZ @ 533 NONAME ; void CAknIpAddressQueryDialog::CEikDialog_Reserved_1(void)
	?CEikDialog_Reserved_1@CAknListQueryDialog@@EAEXXZ @ 534 NONAME ; void CAknListQueryDialog::CEikDialog_Reserved_1(void)
	?CEikDialog_Reserved_1@CAknMarkableListDialog@@EAEXXZ @ 535 NONAME ; void CAknMarkableListDialog::CEikDialog_Reserved_1(void)
	?CEikDialog_Reserved_1@CAknMessageQueryDialog@@EAEXXZ @ 536 NONAME ; void CAknMessageQueryDialog::CEikDialog_Reserved_1(void)
	?CEikDialog_Reserved_1@CAknMultiLineDataQueryDialog@@EAEXXZ @ 537 NONAME ; void CAknMultiLineDataQueryDialog::CEikDialog_Reserved_1(void)
	?CEikDialog_Reserved_1@CAknNoteDialog@@EAEXXZ @ 538 NONAME ; void CAknNoteDialog::CEikDialog_Reserved_1(void)
	?CEikDialog_Reserved_1@CAknNoteWrapper@@EAEXXZ @ 539 NONAME ; void CAknNoteWrapper::CEikDialog_Reserved_1(void)
	?CEikDialog_Reserved_1@CAknNumberQueryDialog@@EAEXXZ @ 540 NONAME ; void CAknNumberQueryDialog::CEikDialog_Reserved_1(void)
	?CEikDialog_Reserved_1@CAknProgressDialog@@EAEXXZ @ 541 NONAME ; void CAknProgressDialog::CEikDialog_Reserved_1(void)
	?CEikDialog_Reserved_1@CAknQueryDialog@@EAEXXZ @ 542 NONAME ; void CAknQueryDialog::CEikDialog_Reserved_1(void)
	?CEikDialog_Reserved_1@CAknResourceNoteDialog@@EAEXXZ @ 543 NONAME ; void CAknResourceNoteDialog::CEikDialog_Reserved_1(void)
	?CEikDialog_Reserved_1@CAknSelectionListDialog@@EAEXXZ @ 544 NONAME ; void CAknSelectionListDialog::CEikDialog_Reserved_1(void)
	?CEikDialog_Reserved_1@CAknStaticNoteDialog@@EAEXXZ @ 545 NONAME ; void CAknStaticNoteDialog::CEikDialog_Reserved_1(void)
	?CEikDialog_Reserved_1@CAknTextQueryDialog@@EAEXXZ @ 546 NONAME ; void CAknTextQueryDialog::CEikDialog_Reserved_1(void)
	?CEikDialog_Reserved_1@CAknTimeQueryDialog@@EAEXXZ @ 547 NONAME ; void CAknTimeQueryDialog::CEikDialog_Reserved_1(void)
	?CEikDialog_Reserved_1@CAknWaitDialog@@EAEXXZ @ 548 NONAME ; void CAknWaitDialog::CEikDialog_Reserved_1(void)
	?CEikDialog_Reserved_1@CAknWarningNote@@EAEXXZ @ 549 NONAME ; void CAknWarningNote::CEikDialog_Reserved_1(void)
	?CEikDialog_Reserved_2@CAknCharMapDialog@@EAEXXZ @ 550 NONAME ; void CAknCharMapDialog::CEikDialog_Reserved_2(void)
	?CEikDialog_Reserved_2@CAknConfirmationNote@@EAEXXZ @ 551 NONAME ; void CAknConfirmationNote::CEikDialog_Reserved_2(void)
	?CEikDialog_Reserved_2@CAknDialog@@EAEXXZ @ 552 NONAME ; void CAknDialog::CEikDialog_Reserved_2(void)
	?CEikDialog_Reserved_2@CAknDurationQueryDialog@@EAEXXZ @ 553 NONAME ; void CAknDurationQueryDialog::CEikDialog_Reserved_2(void)
	?CEikDialog_Reserved_2@CAknErrorNote@@EAEXXZ @ 554 NONAME ; void CAknErrorNote::CEikDialog_Reserved_2(void)
	?CEikDialog_Reserved_2@CAknFixedPointQueryDialog@@EAEXXZ @ 555 NONAME ; void CAknFixedPointQueryDialog::CEikDialog_Reserved_2(void)
	?CEikDialog_Reserved_2@CAknFloatingPointQueryDialog@@EAEXXZ @ 556 NONAME ; void CAknFloatingPointQueryDialog::CEikDialog_Reserved_2(void)
	?CEikDialog_Reserved_2@CAknForm@@EAEXXZ @ 557 NONAME ; void CAknForm::CEikDialog_Reserved_2(void)
	?CEikDialog_Reserved_2@CAknInformationNote@@EAEXXZ @ 558 NONAME ; void CAknInformationNote::CEikDialog_Reserved_2(void)
	?CEikDialog_Reserved_2@CAknIpAddressQueryDialog@@EAEXXZ @ 559 NONAME ; void CAknIpAddressQueryDialog::CEikDialog_Reserved_2(void)
	?CEikDialog_Reserved_2@CAknListQueryDialog@@EAEXXZ @ 560 NONAME ; void CAknListQueryDialog::CEikDialog_Reserved_2(void)
	?CEikDialog_Reserved_2@CAknMarkableListDialog@@EAEXXZ @ 561 NONAME ; void CAknMarkableListDialog::CEikDialog_Reserved_2(void)
	?CEikDialog_Reserved_2@CAknMessageQueryDialog@@EAEXXZ @ 562 NONAME ; void CAknMessageQueryDialog::CEikDialog_Reserved_2(void)
	?CEikDialog_Reserved_2@CAknMultiLineDataQueryDialog@@EAEXXZ @ 563 NONAME ; void CAknMultiLineDataQueryDialog::CEikDialog_Reserved_2(void)
	?CEikDialog_Reserved_2@CAknNoteDialog@@EAEXXZ @ 564 NONAME ; void CAknNoteDialog::CEikDialog_Reserved_2(void)
	?CEikDialog_Reserved_2@CAknNoteWrapper@@EAEXXZ @ 565 NONAME ; void CAknNoteWrapper::CEikDialog_Reserved_2(void)
	?CEikDialog_Reserved_2@CAknNumberQueryDialog@@EAEXXZ @ 566 NONAME ; void CAknNumberQueryDialog::CEikDialog_Reserved_2(void)
	?CEikDialog_Reserved_2@CAknProgressDialog@@EAEXXZ @ 567 NONAME ; void CAknProgressDialog::CEikDialog_Reserved_2(void)
	?CEikDialog_Reserved_2@CAknQueryDialog@@EAEXXZ @ 568 NONAME ; void CAknQueryDialog::CEikDialog_Reserved_2(void)
	?CEikDialog_Reserved_2@CAknResourceNoteDialog@@EAEXXZ @ 569 NONAME ; void CAknResourceNoteDialog::CEikDialog_Reserved_2(void)
	?CEikDialog_Reserved_2@CAknSelectionListDialog@@EAEXXZ @ 570 NONAME ; void CAknSelectionListDialog::CEikDialog_Reserved_2(void)
	?CEikDialog_Reserved_2@CAknStaticNoteDialog@@EAEXXZ @ 571 NONAME ; void CAknStaticNoteDialog::CEikDialog_Reserved_2(void)
	?CEikDialog_Reserved_2@CAknTextQueryDialog@@EAEXXZ @ 572 NONAME ; void CAknTextQueryDialog::CEikDialog_Reserved_2(void)
	?CEikDialog_Reserved_2@CAknTimeQueryDialog@@EAEXXZ @ 573 NONAME ; void CAknTimeQueryDialog::CEikDialog_Reserved_2(void)
	?CEikDialog_Reserved_2@CAknWaitDialog@@EAEXXZ @ 574 NONAME ; void CAknWaitDialog::CEikDialog_Reserved_2(void)
	?CEikDialog_Reserved_2@CAknWarningNote@@EAEXXZ @ 575 NONAME ; void CAknWarningNote::CEikDialog_Reserved_2(void)
	?CEikListBox_Reserved@CAknColumnListBox@@EAEXXZ @ 576 NONAME ; void CAknColumnListBox::CEikListBox_Reserved(void)
	?HandleScrollEventL@CAknGrid@@MAEXPAVCEikScrollBar@@W4TEikScrollEvent@@@Z @ 577 NONAME ; void CAknGrid::HandleScrollEventL(class CEikScrollBar *, enum TEikScrollEvent)
	?CEikListBox_Reserved@CEikFormattedCellListBox@@EAEXXZ @ 578 NONAME ; void CEikFormattedCellListBox::CEikListBox_Reserved(void)
	?CEikListBox_Reserved@CEikSettingsListBox@@EAEXXZ @ 579 NONAME ; void CEikSettingsListBox::CEikListBox_Reserved(void)
	?CFormattedCellListBoxItemDrawer_Reserved@CDoubleLargeStyleItemDrawer@@AAEXXZ @ 580 NONAME ; void CDoubleLargeStyleItemDrawer::CFormattedCellListBoxItemDrawer_Reserved(void)
	?CFormattedCellListBoxItemDrawer_Reserved@CFormattedCellListBoxItemDrawer@@AAEXXZ @ 581 NONAME ; void CFormattedCellListBoxItemDrawer::CFormattedCellListBoxItemDrawer_Reserved(void)
	?CFormattedCellListBoxItemDrawer_Reserved@CSettingsListBoxItemDrawer@@AAEXXZ @ 582 NONAME ; void CSettingsListBoxItemDrawer::CFormattedCellListBoxItemDrawer_Reserved(void)
	?CFormattedCellListBoxItemDrawer_Reserved@CWordWrappedFormattedCellItemDrawer@@AAEXXZ @ 583 NONAME ; void CWordWrappedFormattedCellItemDrawer::CFormattedCellListBoxItemDrawer_Reserved(void)
	?CalcBottomItemIndex@CAknColumnListBoxView@@UAEXXZ @ 584 NONAME ; void CAknColumnListBoxView::CalcBottomItemIndex(void)
	?CalcBottomItemIndex@CAknGridView@@UAEXXZ @ 585 NONAME ; void CAknGridView::CalcBottomItemIndex(void)
	?CalcBottomItemIndex@CFormattedCellListBoxView@@UAEXXZ @ 586 NONAME ; void CFormattedCellListBoxView::CalcBottomItemIndex(void)
	?CalcDataWidth@CAknGridView@@UAEXXZ @ 587 NONAME ; void CAknGridView::CalcDataWidth(void)
	?CalcGridSizeL@CAknGrid@@MAEXXZ @ 588 NONAME ; void CAknGrid::CalcGridSizeL(void)
	?CalcItemIndexFromRowAndColIndexes@CAknGridView@@QBEXAAHHH@Z @ 589 NONAME ; void CAknGridView::CalcItemIndexFromRowAndColIndexes(int &, int, int) const
	?CalcNewTopItemIndexSoItemIsVisible@CAknGridView@@UBEHH@Z @ 590 NONAME ; int CAknGridView::CalcNewTopItemIndexSoItemIsVisible(int) const
	?CalcPopupGridLargeGraphicWindow@CAknGMSPopupGrid@@SAXAAUTAknPopupWindowLayoutDef@@VTRect@@H@Z @ 591 NONAME ; void CAknGMSPopupGrid::CalcPopupGridLargeGraphicWindow(struct TAknPopupWindowLayoutDef &, class TRect, int)
	?CalcPopupMenuDoubleLargeGraphicWindow@AknPopupLayouts@@SAXAAUTAknPopupWindowLayoutDef@@VTRect@@H@Z @ 592 NONAME ; void AknPopupLayouts::CalcPopupMenuDoubleLargeGraphicWindow(struct TAknPopupWindowLayoutDef &, class TRect, int)
	?CalcPopupMenuDoubleWindow@AknPopupLayouts@@SAXAAUTAknPopupWindowLayoutDef@@VTRect@@H@Z @ 593 NONAME ; void AknPopupLayouts::CalcPopupMenuDoubleWindow(struct TAknPopupWindowLayoutDef &, class TRect, int)
	?CalcPopupMenuGraphicHeadingWindow@AknPopupLayouts@@SAXAAUTAknPopupWindowLayoutDef@@VTRect@@H@Z @ 594 NONAME ; void AknPopupLayouts::CalcPopupMenuGraphicHeadingWindow(struct TAknPopupWindowLayoutDef &, class TRect, int)
	?CalcPopupMenuGraphicWindow@AknPopupLayouts@@SAXAAUTAknPopupWindowLayoutDef@@VTRect@@H@Z @ 595 NONAME ; void AknPopupLayouts::CalcPopupMenuGraphicWindow(struct TAknPopupWindowLayoutDef &, class TRect, int)
	?CalcPopupMenuWindow@AknPopupLayouts@@SAXAAUTAknPopupWindowLayoutDef@@VTRect@@H@Z @ 596 NONAME ; void AknPopupLayouts::CalcPopupMenuWindow(struct TAknPopupWindowLayoutDef &, class TRect, int)
	?CalcPopupSNoteGroupWindow@AknPopupLayouts@@SAXAAUTAknPopupWindowLayoutDef@@VTRect@@H@Z @ 597 NONAME ; void AknPopupLayouts::CalcPopupSNoteGroupWindow(struct TAknPopupWindowLayoutDef &, class TRect, int)
	?CalcRowAndColIndexesFromItemIndex@CAknGridView@@QBEXHAAH0@Z @ 598 NONAME ; void CAknGridView::CalcRowAndColIndexesFromItemIndex(int, int &, int &) const
	?CalculateHScrollOffsetSoItemIsVisible@CAknGridView@@UAEHH@Z @ 599 NONAME ; int CAknGridView::CalculateHScrollOffsetSoItemIsVisible(int)
	?CalculatePixelsAndRotation@CAknSgcClient@@SA?AUTPixelsTwipsAndRotation@@HHHH@Z @ 600 NONAME ; struct TPixelsTwipsAndRotation CAknSgcClient::CalculatePixelsAndRotation(int, int, int, int)
	?CancelAllNotifications@AknNotifierController@@SAXXZ @ 601 NONAME ; void AknNotifierController::CancelAllNotifications(void)
	?CancelAllNotifications@RAknKeyLock@@QAEXXZ @ 602 NONAME ; void RAknKeyLock::CancelAllNotifications(void)
	?CancelAnimation@CAknBitmapAnimation@@QAEHXZ @ 603 NONAME ; int CAknBitmapAnimation::CancelAnimation(void)
	?CancelAnimation@CAknNoteControl@@QAEHXZ @ 604 NONAME ; int CAknNoteControl::CancelAnimation(void)
	?CancelAnimation@CAknPopupHeadingPane@@QAEHXZ @ 605 NONAME ; int CAknPopupHeadingPane::CancelAnimation(void)
	?CancelAnimation@CAknQueryControl@@QAEHXZ @ 606 NONAME ; int CAknQueryControl::CancelAnimation(void)
	?CancelClippingRect@CAknAnimatedGc@@MAEXXZ @ 607 NONAME ; void CAknAnimatedGc::CancelClippingRect(void)
	?CancelClippingRegion@CAknAnimatedGc@@MAEXXZ @ 608 NONAME ; void CAknAnimatedGc::CancelClippingRegion(void)
	?CancelFepTransaction@CAknPhoneNumberEditor@@QAEXXZ @ 609 NONAME ; void CAknPhoneNumberEditor::CancelFepTransaction(void)
	?CancelPopup@CAknPopupList@@QAEXXZ @ 610 NONAME ; void CAknPopupList::CancelPopup(void)
	?CancelWsBufferRequest@CAknEnv@@QAEXH@Z @ 611 NONAME ; void CAknEnv::CancelWsBufferRequest(int)
	?Cba@CAknAppUi@@QAEPAVCEikButtonGroupContainer@@XZ @ 612 NONAME ; class CEikButtonGroupContainer * CAknAppUi::Cba(void)
	?Cba@CAknSettingPage@@QBEPAVCEikButtonGroupContainer@@XZ @ 613 NONAME ; class CEikButtonGroupContainer * CAknSettingPage::Cba(void) const
	?Cba@CAknView@@IBEPAVCEikButtonGroupContainer@@XZ @ 614 NONAME ; class CEikButtonGroupContainer * CAknView::Cba(void) const
	?ChangeBackground@CAknTransparentCameraSettingPage@@QAEXPAVCFbsBitmap@@@Z @ 615 NONAME ; void CAknTransparentCameraSettingPage::ChangeBackground(class CFbsBitmap *)
	?ChangeEditorMode@CAknPhoneNumberEditor@@QAEHH@Z @ 616 NONAME ; int CAknPhoneNumberEditor::ChangeEditorMode(int)
	?ChangeStateL@AknListBoxShortCuts@@QAEXW4TShortcutEvent@1@@Z @ 617 NONAME ; void AknListBoxShortCuts::ChangeStateL(enum AknListBoxShortCuts::TShortcutEvent)
	?CharsThatFitOnRight@AknPhoneNumberTextUtils@@SAHABVTDesC16@@HABVCFont@@@Z @ 618 NONAME ; int AknPhoneNumberTextUtils::CharsThatFitOnRight(class TDesC16 const &, int, class CFont const &)
	?CheckAndSetDataValidity@CAknIntegerSettingPage@@MAEXXZ @ 619 NONAME ; void CAknIntegerSettingPage::CheckAndSetDataValidity(void)
	?CheckAndSetDataValidity@CAknListBoxSettingPage@@MAEXXZ @ 620 NONAME ; void CAknListBoxSettingPage::CheckAndSetDataValidity(void)
	?CheckAndSetDataValidity@CAknMfneSettingPage@@MAEXXZ @ 621 NONAME ; void CAknMfneSettingPage::CheckAndSetDataValidity(void)
	?CheckAndSetDataValidity@CAknSettingPage@@MAEXXZ @ 622 NONAME ; void CAknSettingPage::CheckAndSetDataValidity(void)
	?CheckAndSetDataValidity@CAknTextSettingPage@@MAEXXZ @ 623 NONAME ; void CAknTextSettingPage::CheckAndSetDataValidity(void)
	?CheckIfEntryTextOk@CAknTextQueryDialog@@UBEHXZ @ 624 NONAME ; int CAknTextQueryDialog::CheckIfEntryTextOk(void) const
	?CheckRange@AknPopupLayouts@@SAXAAHHH@Z @ 625 NONAME ; void AknPopupLayouts::CheckRange(int &, int, int)
	?ChooseScalableText@AknTextUtils@@SA?AVTPtrC16@@ABVTDesC16@@ABVCFont@@H@Z @ 626 NONAME ; class TPtrC16 AknTextUtils::ChooseScalableText(class TDesC16 const &, class CFont const &, int)
	?ChopToArrayAndClipL@AknTextUtils@@SAXAAVTDes16@@ABV?$CArrayFix@H@@ABVCFont@@AAV?$CArrayFix@VTPtrC16@@@@@Z @ 627 NONAME ; void AknTextUtils::ChopToArrayAndClipL(class TDes16 &, class CArrayFix<int> const &, class CFont const &, class CArrayFix<class TPtrC16> &)
	?ChopToArrayAndClipL@AknTextUtils@@SAXAAVTDes16@@HABVCFont@@AAV?$CArrayFix@VTPtrC16@@@@@Z @ 628 NONAME ; void AknTextUtils::ChopToArrayAndClipL(class TDes16 &, int, class CFont const &, class CArrayFix<class TPtrC16> &)
	?Clear@CAknAnimatedGc@@MAEXABVTRect@@@Z @ 629 NONAME ; void CAknAnimatedGc::Clear(class TRect const &)
	?Clear@CAknAnimatedGc@@MAEXXZ @ 630 NONAME ; void CAknAnimatedGc::Clear(void)
	?ClearAllPropertiesL@CFormattedCellListBoxItemDrawer@@QAEXXZ @ 631 NONAME ; void CFormattedCellListBoxItemDrawer::ClearAllPropertiesL(void)
	?ClearOldView@CAknAnimationData@@QAEHXZ @ 632 NONAME ; int CAknAnimationData::ClearOldView(void)
	?ClearSelectionL@CAknPhoneNumberEditor@@QAEXXZ @ 633 NONAME ; void CAknPhoneNumberEditor::ClearSelectionL(void)
	?ClearUnusedItemSpace@CAknGridView@@IBEXHH@Z @ 634 NONAME ; void CAknGridView::ClearUnusedItemSpace(int, int) const
	?ClientRect@CAknView@@QBE?AVTRect@@XZ @ 635 NONAME ; class TRect CAknView::ClientRect(void) const
	?ClipAccordingScreenOrientationLC@AknTextUtils@@SAPAVHBufC16@@AAVCCoeEnv@@PAV2@@Z @ 636 NONAME ; class HBufC16 * AknTextUtils::ClipAccordingScreenOrientationLC(class CCoeEnv &, class HBufC16 *)
	?ClipLineOnLeft@AknPhoneNumberTextUtils@@SAXAAVTPtrC16@@AAVTDes16@@HABVCFont@@@Z @ 637 NONAME ; void AknPhoneNumberTextUtils::ClipLineOnLeft(class TPtrC16 &, class TDes16 &, int, class CFont const &)
	?ClipToFit@AknTextUtils@@SAHAAVTDes16@@ABVCFont@@HW4TClipDirection@1@HABVTDesC16@@@Z @ 638 NONAME ; int AknTextUtils::ClipToFit(class TDes16 &, class CFont const &, int, enum AknTextUtils::TClipDirection, int, class TDesC16 const &)
	?ClipToFit@AknTextUtils@@SAHAAVTDes16@@W4TClipDirection@1@PAVCEikColumnListBox@@HH@Z @ 639 NONAME ; int AknTextUtils::ClipToFit(class TDes16 &, enum AknTextUtils::TClipDirection, class CEikColumnListBox *, int, int)
	?ClipToFit@AknTextUtils@@SAHAAVTDes16@@W4TClipDirection@1@PAVCEikFormattedCellListBox@@HH@Z @ 640 NONAME ; int AknTextUtils::ClipToFit(class TDes16 &, enum AknTextUtils::TClipDirection, class CEikFormattedCellListBox *, int, int)
	?ClipboardL@CAknSearchField@@QAEXW4TClipboardFunc@CEikEdwin@@@Z @ 641 NONAME ; void CAknSearchField::ClipboardL(enum CEikEdwin::TClipboardFunc)
	?ClockBold30@@YAPBVCFont@@XZ @ 642 NONAME ; class CFont const * ClockBold30(void)
	?Close@RAknAppServiceBase@@QAEXXZ @ 643 NONAME ; void RAknAppServiceBase::Close(void)
	?CloseAllIntermediateStates@CAknEnv@@QAEXXZ @ 644 NONAME ; void CAknEnv::CloseAllIntermediateStates(void)
	?CloseEventSource@CAknEcsDetector@@QAEXXZ @ 645 NONAME ; void CAknEcsDetector::CloseEventSource(void)
	?CloseState@CAknListQueryDialog@@MAEXXZ @ 646 NONAME ; void CAknListQueryDialog::CloseState(void)
	?CloseState@CAknPopupList@@EAEXXZ @ 647 NONAME ; void CAknPopupList::CloseState(void)
	?CloseVolumePopup@CAknVolumePopup@@QAEXXZ @ 648 NONAME ; void CAknVolumePopup::CloseVolumePopup(void)
	?CmdItem@CAknGenericReader@@QBEPBUSAknLayoutCmd@@H@Z @ 649 NONAME ; struct SAknLayoutCmd const * CAknGenericReader::CmdItem(int) const
	?Color@TAknLayoutRect@@QBE?AVTRgb@@XZ @ 650 NONAME ; class TRgb TAknLayoutRect::Color(void) const
	?ColorScheme@CAknNavigationControlContainer@@SAHXZ @ 651 NONAME ; int CAknNavigationControlContainer::ColorScheme(void)
	?ColumnData@CFormattedCellListBoxItemDrawer@@QBEPAVCFormattedCellListBoxData@@XZ @ 652 NONAME ; class CFormattedCellListBoxData * CFormattedCellListBoxItemDrawer::ColumnData(void) const
	?ColumnWidth@CAknGrid@@QBEHXZ @ 653 NONAME ; int CAknGrid::ColumnWidth(void) const
	?ComparePasswords@CAknAlphaPasswordSettingPage@@MBEHABVTDesC16@@0W4TAknPasswordMatchingMode@CAknPasswordSettingPage@@@Z @ 654 NONAME ; int CAknAlphaPasswordSettingPage::ComparePasswords(class TDesC16 const &, class TDesC16 const &, enum CAknPasswordSettingPage::TAknPasswordMatchingMode) const
	?ComparePasswords@CAknPasswordSettingPage@@MBEHABVTDesC16@@0W4TAknPasswordMatchingMode@1@@Z @ 655 NONAME ; int CAknPasswordSettingPage::ComparePasswords(class TDesC16 const &, class TDesC16 const &, enum CAknPasswordSettingPage::TAknPasswordMatchingMode) const
	?CompleteConstructionL@CAknBinaryPopupSettingItem@@MAEXXZ @ 656 NONAME ; void CAknBinaryPopupSettingItem::CompleteConstructionL(void)
	?CompleteConstructionL@CAknEnumeratedTextPopupSettingItem@@MAEXXZ @ 657 NONAME ; void CAknEnumeratedTextPopupSettingItem::CompleteConstructionL(void)
	?CompleteConstructionL@CAknEnumeratedTextSettingItem@@MAEXXZ @ 658 NONAME ; void CAknEnumeratedTextSettingItem::CompleteConstructionL(void)
	?CompleteConstructionL@CAknIntegerSettingItem@@MAEXXZ @ 659 NONAME ; void CAknIntegerSettingItem::CompleteConstructionL(void)
	?CompleteConstructionL@CAknIpFieldSettingItem@@UAEXXZ @ 660 NONAME ; void CAknIpFieldSettingItem::CompleteConstructionL(void)
	?CompleteConstructionL@CAknPasswordSettingItem@@MAEXXZ @ 661 NONAME ; void CAknPasswordSettingItem::CompleteConstructionL(void)
	?CompleteConstructionL@CAknSettingItem@@MAEXXZ @ 662 NONAME ; void CAknSettingItem::CompleteConstructionL(void)
	?CompleteConstructionL@CAknTimeOffsetSettingItem@@UAEXXZ @ 663 NONAME ; void CAknTimeOffsetSettingItem::CompleteConstructionL(void)
	?CompleteConstructionL@CAknTimeOrDateSettingItem@@UAEXXZ @ 664 NONAME ; void CAknTimeOrDateSettingItem::CompleteConstructionL(void)
	?CompleteWithAppPath@@YAHAAVTDes16@@@Z @ 665 NONAME ; int CompleteWithAppPath(class TDes16 &)
	?ComponentControl@?$AknListBoxLinesTemplate@VCAknColumnListBox@@@@UBEPAVCCoeControl@@H@Z @ 666 NONAME ; class CCoeControl * AknListBoxLinesTemplate<class CAknColumnListBox>::ComponentControl(int) const
	?ComponentControl@?$AknListBoxLinesTemplate@VCEikFormattedCellListBox@@@@UBEPAVCCoeControl@@H@Z @ 667 NONAME ; class CCoeControl * AknListBoxLinesTemplate<class CEikFormattedCellListBox>::ComponentControl(int) const
	?ComponentControl@?$AknListBoxLinesTemplate@VCEikSettingsListBox@@@@UBEPAVCCoeControl@@H@Z @ 668 NONAME ; class CCoeControl * AknListBoxLinesTemplate<class CEikSettingsListBox>::ComponentControl(int) const
	?ComponentControl@CAknBatteryPane@@MBEPAVCCoeControl@@H@Z @ 669 NONAME ; class CCoeControl * CAknBatteryPane::ComponentControl(int) const
	?ComponentControl@CAknCharMap@@MBEPAVCCoeControl@@H@Z @ 670 NONAME ; class CCoeControl * CAknCharMap::ComponentControl(int) const
	?ComponentControl@CAknContextPane@@MBEPAVCCoeControl@@H@Z @ 671 NONAME ; class CCoeControl * CAknContextPane::ComponentControl(int) const
	?ComponentControl@CAknIndicatorContainer@@MBEPAVCCoeControl@@H@Z @ 672 NONAME ; class CCoeControl * CAknIndicatorContainer::ComponentControl(int) const
	?ComponentControl@CAknListQueryControl@@UBEPAVCCoeControl@@H@Z @ 673 NONAME ; class CCoeControl * CAknListQueryControl::ComponentControl(int) const
	?ComponentControl@CAknNavigationControlContainer@@MBEPAVCCoeControl@@H@Z @ 674 NONAME ; class CCoeControl * CAknNavigationControlContainer::ComponentControl(int) const
	?ComponentControl@CAknNavigationDecorator@@MBEPAVCCoeControl@@H@Z @ 675 NONAME ; class CCoeControl * CAknNavigationDecorator::ComponentControl(int) const
	?ComponentControl@CAknPopupField@@MBEPAVCCoeControl@@H@Z @ 676 NONAME ; class CCoeControl * CAknPopupField::ComponentControl(int) const
	?ComponentControl@CAknPopupForm@@EBEPAVCCoeControl@@H@Z @ 677 NONAME ; class CCoeControl * CAknPopupForm::ComponentControl(int) const
	?ComponentControl@CAknPopupList@@EBEPAVCCoeControl@@H@Z @ 678 NONAME ; class CCoeControl * CAknPopupList::ComponentControl(int) const
	?ComponentControl@CAknSelectionListDialog@@MBEPAVCCoeControl@@H@Z @ 679 NONAME ; class CCoeControl * CAknSelectionListDialog::ComponentControl(int) const
	?ComponentControl@CAknSettingItemList@@UBEPAVCCoeControl@@H@Z @ 680 NONAME ; class CCoeControl * CAknSettingItemList::ComponentControl(int) const
	?ComponentControl@CAknSettingPage@@UBEPAVCCoeControl@@H@Z @ 681 NONAME ; class CCoeControl * CAknSettingPage::ComponentControl(int) const
	?ComponentControl@CAknSignalPane@@MBEPAVCCoeControl@@H@Z @ 682 NONAME ; class CCoeControl * CAknSignalPane::ComponentControl(int) const
	?ComponentControl@CAknSlider@@MBEPAVCCoeControl@@H@Z @ 683 NONAME ; class CCoeControl * CAknSlider::ComponentControl(int) const
	?ComponentControl@CAknTabGroup@@MBEPAVCCoeControl@@H@Z @ 684 NONAME ; class CCoeControl * CAknTabGroup::ComponentControl(int) const
	?ComponentControl@CAknTitlePane@@MBEPAVCCoeControl@@H@Z @ 685 NONAME ; class CCoeControl * CAknTitlePane::ComponentControl(int) const
	?ConfigureMenuListL@CAknPopupSettingList@@IAEXXZ @ 686 NONAME ; void CAknPopupSettingList::ConfigureMenuListL(void)
	?ConfirmCursorOverTag@CAknItemFinder@@UAEHABVCRichText@@HHH@Z @ 687 ABSENT
	?Connect@RAknKeylock2@@QAEHXZ @ 688 NONAME ; int RAknKeylock2::Connect(void)
	?ConnectChainedAppL@RAknAppServiceBase@@QAEXVTUid@@@Z @ 689 NONAME ; void RAknAppServiceBase::ConnectChainedAppL(class TUid)
	?ConnectToEventSource@CAknEcsDetector@@QAEHXZ @ 690 NONAME ; int CAknEcsDetector::ConnectToEventSource(void)
	?ConstructEditingL@AknEditUtils@@SAXPAVCEikEdwin@@AAVTResourceReader@@@Z @ 691 NONAME ; void AknEditUtils::ConstructEditingL(class CEikEdwin *, class TResourceReader &)
	?ConstructEditingL@AknEditUtils@@SAXPAVCEikEdwin@@ABUSAknEditorParameters@1@@Z @ 692 NONAME ; void AknEditUtils::ConstructEditingL(class CEikEdwin *, struct AknEditUtils::SAknEditorParameters const &)
	?ConstructEditingL@AknEditUtils@@SAXPAVCEikEdwin@@H@Z @ 693 NONAME ; void AknEditUtils::ConstructEditingL(class CEikEdwin *, int)
	?ConstructEditingL@AknEditUtils@@SAXPAVCEikEdwin@@HHHHHHH@Z @ 694 NONAME ; void AknEditUtils::ConstructEditingL(class CEikEdwin *, int, int, int, int, int, int, int)
	?ConstructEditingL@AknEditUtils@@SAXPAVCEikEdwin@@HHHHHHHH@Z @ 695 NONAME ; void AknEditUtils::ConstructEditingL(class CEikEdwin *, int, int, int, int, int, int, int, int)
	?ConstructFromResourceL@CAknAnimationData@@QAEXH@Z @ 696 NONAME ; void CAknAnimationData::ConstructFromResourceL(int)
	?ConstructFromResourceL@CAknBatteryPane@@UAEXAAVTResourceReader@@@Z @ 697 NONAME ; void CAknBatteryPane::ConstructFromResourceL(class TResourceReader &)
	?ConstructFromResourceL@CAknBitmapAnimation@@UAEXAAVTResourceReader@@@Z @ 698 NONAME ; void CAknBitmapAnimation::ConstructFromResourceL(class TResourceReader &)
	?ConstructFromResourceL@CAknCharMap@@UAEXAAVTResourceReader@@@Z @ 699 NONAME ; void CAknCharMap::ConstructFromResourceL(class TResourceReader &)
	?ConstructFromResourceL@CAknContextPane@@UAEXAAVTResourceReader@@@Z @ 700 NONAME ; void CAknContextPane::ConstructFromResourceL(class TResourceReader &)
	?ConstructFromResourceL@CAknGenericReader@@UAEXAAVTResourceReader@@@Z @ 701 NONAME ; void CAknGenericReader::ConstructFromResourceL(class TResourceReader &)
	?ConstructFromResourceL@CAknGrid@@UAEXAAVTResourceReader@@@Z @ 702 NONAME ; void CAknGrid::ConstructFromResourceL(class TResourceReader &)
	?ConstructFromResourceL@CAknIconArray@@QAEXAAVTResourceReader@@@Z @ 703 NONAME ; void CAknIconArray::ConstructFromResourceL(class TResourceReader &)
	?ConstructFromResourceL@CAknIconArray@@QAEXH@Z @ 704 NONAME ; void CAknIconArray::ConstructFromResourceL(int)
	?ConstructFromResourceL@CAknIndicatorContainer@@UAEXAAVTResourceReader@@@Z @ 705 NONAME ; void CAknIndicatorContainer::ConstructFromResourceL(class TResourceReader &)
	?ConstructFromResourceL@CAknInputFrame@@UAEXAAVTResourceReader@@@Z @ 706 NONAME ; void CAknInputFrame::ConstructFromResourceL(class TResourceReader &)
	?ConstructFromResourceL@CAknIntegerEdwin@@UAEXAAVTResourceReader@@@Z @ 707 NONAME ; void CAknIntegerEdwin::ConstructFromResourceL(class TResourceReader &)
	?ConstructFromResourceL@CAknListQueryControl@@UAEXAAVTResourceReader@@@Z @ 708 NONAME ; void CAknListQueryControl::ConstructFromResourceL(class TResourceReader &)
	?ConstructFromResourceL@CAknMessageQueryControl@@UAEXAAVTResourceReader@@@Z @ 709 NONAME ; void CAknMessageQueryControl::ConstructFromResourceL(class TResourceReader &)
	?ConstructFromResourceL@CAknNavigationControlContainer@@UAEXAAVTResourceReader@@@Z @ 710 NONAME ; void CAknNavigationControlContainer::ConstructFromResourceL(class TResourceReader &)
	?ConstructFromResourceL@CAknPhoneNumberEditor@@UAEXAAVTResourceReader@@@Z @ 711 NONAME ; void CAknPhoneNumberEditor::ConstructFromResourceL(class TResourceReader &)
	?ConstructFromResourceL@CAknPopupField@@UAEXAAVTResourceReader@@@Z @ 712 NONAME ; void CAknPopupField::ConstructFromResourceL(class TResourceReader &)
	?ConstructFromResourceL@CAknPopupFieldText@@UAEXAAVTResourceReader@@@Z @ 713 NONAME ; void CAknPopupFieldText::ConstructFromResourceL(class TResourceReader &)
	?ConstructFromResourceL@CAknPopupHeadingPane@@UAEXAAVTResourceReader@@@Z @ 714 NONAME ; void CAknPopupHeadingPane::ConstructFromResourceL(class TResourceReader &)
	?ConstructFromResourceL@CAknPopupSettingList@@UAEXAAVTResourceReader@@@Z @ 715 NONAME ; void CAknPopupSettingList::ConstructFromResourceL(class TResourceReader &)
	?ConstructFromResourceL@CAknQueryControl@@UAEXAAVTResourceReader@@@Z @ 716 NONAME ; void CAknQueryControl::ConstructFromResourceL(class TResourceReader &)
	?ConstructFromResourceL@CAknSettingItemList@@QAEXH@Z @ 717 NONAME ; void CAknSettingItemList::ConstructFromResourceL(int)
	?ConstructFromResourceL@CAknSettingItemList@@UAEXAAVTResourceReader@@@Z @ 718 NONAME ; void CAknSettingItemList::ConstructFromResourceL(class TResourceReader &)
	?ConstructFromResourceL@CAknSettingPage@@IAEXH@Z @ 719 NONAME ; void CAknSettingPage::ConstructFromResourceL(int)
	?ConstructFromResourceL@CAknSettingPage@@MAEXAAVTResourceReader@@@Z @ 720 NONAME ; void CAknSettingPage::ConstructFromResourceL(class TResourceReader &)
	?ConstructFromResourceL@CAknSignalPane@@UAEXAAVTResourceReader@@@Z @ 721 NONAME ; void CAknSignalPane::ConstructFromResourceL(class TResourceReader &)
	?ConstructFromResourceL@CAknSlider@@QAEXPAVCCoeControl@@HAAVTResourceReader@@@Z @ 722 NONAME ; void CAknSlider::ConstructFromResourceL(class CCoeControl *, int, class TResourceReader &)
	?ConstructFromResourceL@CAknSlider@@UAEXAAVTResourceReader@@@Z @ 723 NONAME ; void CAknSlider::ConstructFromResourceL(class TResourceReader &)
	?ConstructFromResourceL@CAknTitlePane@@UAEXAAVTResourceReader@@@Z @ 724 NONAME ; void CAknTitlePane::ConstructFromResourceL(class TResourceReader &)
	?ConstructFromResourceL@CAknVolumeControl@@UAEXAAVTResourceReader@@@Z @ 725 NONAME ; void CAknVolumeControl::ConstructFromResourceL(class TResourceReader &)
	?ConstructFromResourceL@CEikFormattedCellListBox@@UAEXAAVTResourceReader@@@Z @ 726 NONAME ; void CEikFormattedCellListBox::ConstructFromResourceL(class TResourceReader &)
	?ConstructFromSkinL@CAknBitmapAnimation@@QAEHABVTAknsItemID@@@Z @ 727 NONAME ; int CAknBitmapAnimation::ConstructFromSkinL(class TAknsItemID const &)
	?ConstructL@AknListBoxShortCuts@@UAEXXZ @ 728 NONAME ; void AknListBoxShortCuts::ConstructL(void)
	?ConstructL@AknListBoxShortCutsImplementation@@UAEXXZ @ 729 NONAME ; void AknListBoxShortCutsImplementation::ConstructL(void)
	?ConstructL@CAknAlphaPasswordSettingPage@@UAEXXZ @ 730 NONAME ; void CAknAlphaPasswordSettingPage::ConstructL(void)
	?ConstructL@CAknAnimationData@@IAEXXZ @ 731 NONAME ; void CAknAnimationData::ConstructL(void)
	?ConstructL@CAknAppServer@@UAEXABVTDesC16@@@Z @ 732 NONAME ; void CAknAppServer::ConstructL(class TDesC16 const &)
	?ConstructL@CAknAppStyleGrid@@UAEXPBVCCoeControl@@H@Z @ 733 NONAME ; void CAknAppStyleGrid::ConstructL(class CCoeControl const *, int)
	?ConstructL@CAknAppUi@@UAEXXZ @ 734 NONAME ; void CAknAppUi::ConstructL(void)
	?ConstructL@CAknAppUiBase@@UAEXXZ @ 735 NONAME ; void CAknAppUiBase::ConstructL(void)
	?ConstructL@CAknBatteryPane@@AAEXXZ @ 736 NONAME ; void CAknBatteryPane::ConstructL(void)
	?ConstructL@CAknCheckBoxSettingPage@@UAEXXZ @ 737 NONAME ; void CAknCheckBoxSettingPage::ConstructL(void)
	?ConstructL@CAknContextPane@@QAEXXZ @ 738 NONAME ; void CAknContextPane::ConstructL(void)
	?ConstructL@CAknDateSettingPage@@UAEXXZ @ 739 NONAME ; void CAknDateSettingPage::ConstructL(void)
	?ConstructL@CAknDialog@@QAEXH@Z @ 740 NONAME ; void CAknDialog::ConstructL(int)
	?ConstructL@CAknDurationSettingPage@@UAEXXZ @ 741 NONAME ; void CAknDurationSettingPage::ConstructL(void)
	?ConstructL@CAknEcsDetector@@IAEXXZ @ 742 NONAME ; void CAknEcsDetector::ConstructL(void)
	?ConstructL@CAknEnv@@AAEXXZ @ 743 NONAME ; void CAknEnv::ConstructL(void)
	?ConstructL@CAknForm@@QAEXH@Z @ 744 NONAME ; void CAknForm::ConstructL(int)
	?ConstructL@CAknGMSStyleGrid@@QAEXPBVCCoeControl@@HH@Z @ 745 NONAME ; void CAknGMSStyleGrid::ConstructL(class CCoeControl const *, int, int)
	?ConstructL@CAknGenericReader@@QAEXH@Z @ 746 NONAME ; void CAknGenericReader::ConstructL(int)
	?ConstructL@CAknGrid@@UAEXPBVCCoeControl@@H@Z @ 747 NONAME ; void CAknGrid::ConstructL(class CCoeControl const *, int)
	?ConstructL@CAknIndicatorContainer@@QAEXXZ @ 748 NONAME ; void CAknIndicatorContainer::ConstructL(void)
	?ConstructL@CAknIntegerEdwin@@QAEXHHH@Z @ 749 NONAME ; void CAknIntegerEdwin::ConstructL(int, int, int)
	?ConstructL@CAknIntegerSettingPage@@UAEXXZ @ 750 NONAME ; void CAknIntegerSettingPage::ConstructL(void)
	?ConstructL@CAknIpFieldSettingPage@@UAEXXZ @ 751 NONAME ; void CAknIpFieldSettingPage::ConstructL(void)
	?ConstructL@CAknListBoxFilterItems@@QAEXXZ @ 752 NONAME ; void CAknListBoxFilterItems::ConstructL(void)
	?ConstructL@CAknMarkableListDialog@@QAEXH@Z @ 753 NONAME ; void CAknMarkableListDialog::ConstructL(int)
	?ConstructL@CAknMfneSettingPage@@MAEXXZ @ 754 NONAME ; void CAknMfneSettingPage::ConstructL(void)
	?ConstructL@CAknNavigationControlContainer@@QAEXXZ @ 755 NONAME ; void CAknNavigationControlContainer::ConstructL(void)
	?ConstructL@CAknNavigationDecorator@@AAEXXZ @ 756 NONAME ; void CAknNavigationDecorator::ConstructL(void)
	?ConstructL@CAknNumericPasswordSettingPage@@UAEXXZ @ 757 NONAME ; void CAknNumericPasswordSettingPage::ConstructL(void)
	?ConstructL@CAknPhoneNumberEditor@@QAEXHHHABVTDesC16@@@Z @ 758 NONAME ; void CAknPhoneNumberEditor::ConstructL(int, int, int, class TDesC16 const &)
	?ConstructL@CAknPopupField@@QAEXXZ @ 759 NONAME ; void CAknPopupField::ConstructL(void)
	?ConstructL@CAknPopupFieldList@@IAEXPAVCEikListBox@@H@Z @ 760 NONAME ; void CAknPopupFieldList::ConstructL(class CEikListBox *, int)
	?ConstructL@CAknPopupForm@@IAEXXZ @ 761 NONAME ; void CAknPopupForm::ConstructL(void)
	?ConstructL@CAknPopupHeadingPane@@QAEXVTPtrC16@@@Z @ 762 NONAME ; void CAknPopupHeadingPane::ConstructL(class TPtrC16)
	?ConstructL@CAknPopupList@@IAEXPAVCEikListBox@@HW4TAknPopupLayouts@AknPopupLayouts@@@Z @ 763 NONAME ; void CAknPopupList::ConstructL(class CEikListBox *, int, enum AknPopupLayouts::TAknPopupLayouts)
	?ConstructL@CAknPopupSettingList@@QAEXXZ @ 764 NONAME ; void CAknPopupSettingList::ConstructL(void)
	?ConstructL@CAknPopupSettingPage@@UAEXXZ @ 765 NONAME ; void CAknPopupSettingPage::ConstructL(void)
	?ConstructL@CAknRadioButtonSettingPage@@UAEXXZ @ 766 NONAME ; void CAknRadioButtonSettingPage::ConstructL(void)
	?ConstructL@CAknSelectionListDialog@@QAEXH@Z @ 767 NONAME ; void CAknSelectionListDialog::ConstructL(int)
	?ConstructL@CAknSettingItem@@QAEXHHABVTDesC16@@PAV?$CArrayPtr@VCGulIcon@@@@HHHH@Z @ 768 NONAME ; void CAknSettingItem::ConstructL(int, int, class TDesC16 const &, class CArrayPtr<class CGulIcon> *, int, int, int, int)
	?ConstructL@CAknSettingPage@@UAEXXZ @ 769 NONAME ; void CAknSettingPage::ConstructL(void)
	?ConstructL@CAknSignalPane@@AAEXXZ @ 770 NONAME ; void CAknSignalPane::ConstructL(void)
	?ConstructL@CAknSliderSettingPage@@UAEXXZ @ 771 NONAME ; void CAknSliderSettingPage::ConstructL(void)
	?ConstructL@CAknTextSettingPage@@UAEXXZ @ 772 NONAME ; void CAknTextSettingPage::ConstructL(void)
	?ConstructL@CAknTimeOffsetSettingPage@@UAEXXZ @ 773 NONAME ; void CAknTimeOffsetSettingPage::ConstructL(void)
	?ConstructL@CAknTimeSettingPage@@UAEXXZ @ 774 NONAME ; void CAknTimeSettingPage::ConstructL(void)
	?ConstructL@CAknTitlePane@@QAEXXZ @ 775 NONAME ; void CAknTitlePane::ConstructL(void)
	?ConstructL@CAknTransparentCameraSettingPage@@UAEXXZ @ 776 NONAME ; void CAknTransparentCameraSettingPage::ConstructL(void)
	?ConstructL@CAknVolumeSettingPage@@MAEXXZ @ 777 NONAME ; void CAknVolumeSettingPage::ConstructL(void)
	?ConstructL@CEikFormattedCellListBox@@UAEXPBVCCoeControl@@H@Z @ 778 NONAME ; void CEikFormattedCellListBox::ConstructL(class CCoeControl const *, int)
	?ConstructL@CListBoxNumbers@@QAEXXZ @ 779 NONAME ; void CListBoxNumbers::ConstructL(void)
	?ConstructL@CSelectableItem@@QAEXXZ @ 780 NONAME ; void CSelectableItem::ConstructL(void)
	?ConstructLD@CFormattedCellListBoxData@@IAEXXZ @ 781 NONAME ; void CFormattedCellListBoxData::ConstructLD(void)
	?ConstructMenuAndCbaEarlyL@CAknView@@QAEXXZ @ 782 NONAME ; void CAknView::ConstructMenuAndCbaEarlyL(void)
	?ConstructNavigationDecoratorFromResourceL@CAknNavigationControlContainer@@QAEPAVCAknNavigationDecorator@@AAVTResourceReader@@@Z @ 783 NONAME ; class CAknNavigationDecorator * CAknNavigationControlContainer::ConstructNavigationDecoratorFromResourceL(class TResourceReader &)
	?ConstructUserAnimationStepL@CAknAnimationData@@MAEXAAVTAnimStep@@AAVTResourceReader@@@Z @ 784 NONAME ; void CAknAnimationData::ConstructUserAnimationStepL(class TAnimStep &, class TResourceReader &)
	?ConstructWithWindowL@CAknFormGraphicStyleListBox@@QAEXPBVCCoeControl@@H@Z @ 785 NONAME ; void CAknFormGraphicStyleListBox::ConstructWithWindowL(class CCoeControl const *, int)
	?ConstructWithWindowL@CAknSetStyleListBox@@QAEXPBVCCoeControl@@H@Z @ 786 NONAME ; void CAknSetStyleListBox::ConstructWithWindowL(class CCoeControl const *, int)
	?Control@CFormattedCellListBoxData@@QBEPAVCCoeControl@@XZ @ 787 NONAME ; class CCoeControl * CFormattedCellListBoxData::Control(void) const
	?ControlAttributes@CAknNoteDialog@@IAEPAVCAknNoteAttributes@@XZ @ 788 NONAME ; class CAknNoteAttributes * CAknNoteDialog::ControlAttributes(void)
	?ControlByLayoutOrNull@CAknExtMultilineQueryControl@@UAEPAVCCoeControl@@H@Z @ 789 NONAME ; class CCoeControl * CAknExtMultilineQueryControl::ControlByLayoutOrNull(int)
	?ControlByLayoutOrNull@CAknExtQueryControl@@UAEPAVCCoeControl@@H@Z @ 790 NONAME ; class CCoeControl * CAknExtQueryControl::ControlByLayoutOrNull(int)
	?ControlByLayoutOrNull@CAknMultilineQueryControl@@UAEPAVCCoeControl@@H@Z @ 791 NONAME ; class CCoeControl * CAknMultilineQueryControl::ControlByLayoutOrNull(int)
	?ControlByLayoutOrNull@CAknQueryControl@@UAEPAVCCoeControl@@H@Z @ 792 NONAME ; class CCoeControl * CAknQueryControl::ControlByLayoutOrNull(int)
	?ControlFactory@CAknLibrary@@SAP6A?AUSEikControlInfo@@H@ZXZ @ 793 NONAME ; struct SEikControlInfo (*)(int) CAknLibrary::ControlFactory(void)
	?ControlType@CAknNavigationDecorator@@QBE?AW4TControlType@1@XZ @ 794 NONAME ; enum CAknNavigationDecorator::TControlType CAknNavigationDecorator::ControlType(void) const
	?ConvertDigitsTo@AknTextUtils@@SAXAAVTDes16@@W4TDigitType@@@Z @ 795 NONAME ; void AknTextUtils::ConvertDigitsTo(class TDes16 &, enum TDigitType)
	?ConvertFileNameL@AknTextUtils@@SAPAVHBufC16@@ABVTDesC16@@@Z @ 796 NONAME ; class HBufC16 * AknTextUtils::ConvertFileNameL(class TDesC16 const &)
	?ConvertToVisualAndChopToArrayL@AknBidiTextUtils@@SAPAVHBufC16@@ABVTDesC16@@HABVCFont@@AAV?$CArrayFix@VTPtrC16@@@@W4TParagraphDirectionality@1@@Z @ 797 NONAME ; class HBufC16 * AknBidiTextUtils::ConvertToVisualAndChopToArrayL(class TDesC16 const &, int, class CFont const &, class CArrayFix<class TPtrC16> &, enum AknBidiTextUtils::TParagraphDirectionality)
	?ConvertToVisualAndChopToArrayL@AknBidiTextUtils@@SAXAAVTDes16@@ABV?$CArrayFix@H@@ABVCFont@@AAV?$CArrayFix@VTPtrC16@@@@W4TParagraphDirectionality@1@@Z @ 798 NONAME ; void AknBidiTextUtils::ConvertToVisualAndChopToArrayL(class TDes16 &, class CArrayFix<int> const &, class CFont const &, class CArrayFix<class TPtrC16> &, enum AknBidiTextUtils::TParagraphDirectionality)
	?ConvertToVisualAndClip@AknBidiTextUtils@@SAHABVTDesC16@@AAVTDes16@@ABVCFont@@HHW4TParagraphDirectionality@1@VTChar@@@Z @ 799 NONAME ; int AknBidiTextUtils::ConvertToVisualAndClip(class TDesC16 const &, class TDes16 &, class CFont const &, int, int, enum AknBidiTextUtils::TParagraphDirectionality, class TChar)
	?ConvertToVisualAndClipL@AknBidiTextUtils@@SAHAAVTDes16@@ABVCFont@@HHW4TParagraphDirectionality@1@VTChar@@@Z @ 800 NONAME ; int AknBidiTextUtils::ConvertToVisualAndClipL(class TDes16 &, class CFont const &, int, int, enum AknBidiTextUtils::TParagraphDirectionality, class TChar)
	?ConvertToVisualAndWrapToArrayL@AknBidiTextUtils@@SAPAVHBufC16@@ABVTDesC16@@HABVCFont@@AAV?$CArrayFix@VTPtrC16@@@@W4TParagraphDirectionality@1@@Z @ 801 NONAME ; class HBufC16 * AknBidiTextUtils::ConvertToVisualAndWrapToArrayL(class TDesC16 const &, int, class CFont const &, class CArrayFix<class TPtrC16> &, enum AknBidiTextUtils::TParagraphDirectionality)
	?ConvertToVisualAndWrapToArrayL@AknBidiTextUtils@@SAXAAVTDes16@@ABV?$CArrayFix@H@@ABVCFont@@AAV?$CArrayFix@VTPtrC16@@@@HW4TParagraphDirectionality@1@@Z @ 802 NONAME ; void AknBidiTextUtils::ConvertToVisualAndWrapToArrayL(class TDes16 &, class CArrayFix<int> const &, class CFont const &, class CArrayFix<class TPtrC16> &, int, enum AknBidiTextUtils::TParagraphDirectionality)
	?ConvertToVisualAndWrapToArrayWholeTextL@AknBidiTextUtils@@SAPAVHBufC16@@ABVTDesC16@@ABV?$CArrayFix@H@@ABVCFont@@AAV?$CArrayFix@VTPtrC16@@@@W4TParagraphDirectionality@1@@Z @ 803 NONAME ; class HBufC16 * AknBidiTextUtils::ConvertToVisualAndWrapToArrayWholeTextL(class TDesC16 const &, class CArrayFix<int> const &, class CFont const &, class CArrayFix<class TPtrC16> &, enum AknBidiTextUtils::TParagraphDirectionality)
	?ConvertToVisualAndWrapToStringL@AknBidiTextUtils@@SAXABVTDesC16@@ABV?$CArrayFix@H@@ABVCFont@@AAVTDes16@@HW4TParagraphDirectionality@1@@Z @ 804 NONAME ; void AknBidiTextUtils::ConvertToVisualAndWrapToStringL(class TDesC16 const &, class CArrayFix<int> const &, class CFont const &, class TDes16 &, int, enum AknBidiTextUtils::TParagraphDirectionality)
	?CopyFormattedNumber@CAknPhoneNumberGrouping@@QBEXAAVTDes16@@@Z @ 805 NONAME ; void CAknPhoneNumberGrouping::CopyFormattedNumber(class TDes16 &) const
	?CopyRect@CAknAnimatedGc@@MAEXABVTPoint@@ABVTRect@@@Z @ 806 NONAME ; void CAknAnimatedGc::CopyRect(class TPoint const &, class TRect const &)
	?CountComponentControls@?$AknListBoxLinesTemplate@VCAknColumnListBox@@@@UBEHXZ @ 807 NONAME ; int AknListBoxLinesTemplate<class CAknColumnListBox>::CountComponentControls(void) const
	?CountComponentControls@?$AknListBoxLinesTemplate@VCEikFormattedCellListBox@@@@UBEHXZ @ 808 NONAME ; int AknListBoxLinesTemplate<class CEikFormattedCellListBox>::CountComponentControls(void) const
	?CountComponentControls@?$AknListBoxLinesTemplate@VCEikSettingsListBox@@@@UBEHXZ @ 809 NONAME ; int AknListBoxLinesTemplate<class CEikSettingsListBox>::CountComponentControls(void) const
	?CountComponentControls@CAknBatteryPane@@MBEHXZ @ 810 NONAME ; int CAknBatteryPane::CountComponentControls(void) const
	?CountComponentControls@CAknCharMap@@MBEHXZ @ 811 NONAME ; int CAknCharMap::CountComponentControls(void) const
	?CountComponentControls@CAknContextPane@@MBEHXZ @ 812 NONAME ; int CAknContextPane::CountComponentControls(void) const
	?CountComponentControls@CAknGrid@@MBEHXZ @ 813 NONAME ; int CAknGrid::CountComponentControls(void) const
	?CountComponentControls@CAknIndicatorContainer@@MBEHXZ @ 814 NONAME ; int CAknIndicatorContainer::CountComponentControls(void) const
	?CountComponentControls@CAknListQueryControl@@UBEHXZ @ 815 NONAME ; int CAknListQueryControl::CountComponentControls(void) const
	?CountComponentControls@CAknNavigationControlContainer@@MBEHXZ @ 816 NONAME ; int CAknNavigationControlContainer::CountComponentControls(void) const
	?CountComponentControls@CAknNavigationDecorator@@MBEHXZ @ 817 NONAME ; int CAknNavigationDecorator::CountComponentControls(void) const
	?CountComponentControls@CAknPopupField@@MBEHXZ @ 818 NONAME ; int CAknPopupField::CountComponentControls(void) const
	?CountComponentControls@CAknPopupForm@@EBEHXZ @ 819 NONAME ; int CAknPopupForm::CountComponentControls(void) const
	?CountComponentControls@CAknPopupList@@EBEHXZ @ 820 NONAME ; int CAknPopupList::CountComponentControls(void) const
	?CountComponentControls@CAknSelectionListDialog@@MBEHXZ @ 821 NONAME ; int CAknSelectionListDialog::CountComponentControls(void) const
	?CountComponentControls@CAknSettingItemList@@UBEHXZ @ 822 NONAME ; int CAknSettingItemList::CountComponentControls(void) const
	?CountComponentControls@CAknSettingPage@@UBEHXZ @ 823 NONAME ; int CAknSettingPage::CountComponentControls(void) const
	?CountComponentControls@CAknSignalPane@@MBEHXZ @ 824 NONAME ; int CAknSignalPane::CountComponentControls(void) const
	?CountComponentControls@CAknSlider@@MBEHXZ @ 825 NONAME ; int CAknSlider::CountComponentControls(void) const
	?CountComponentControls@CAknTabGroup@@MBEHXZ @ 826 NONAME ; int CAknTabGroup::CountComponentControls(void) const
	?CountComponentControls@CAknTitlePane@@MBEHXZ @ 827 NONAME ; int CAknTitlePane::CountComponentControls(void) const
	?CountFadedComponents@CAknPopupList@@EAEHXZ @ 828 NONAME ; int CAknPopupList::CountFadedComponents(void)
	?CountFadedComponents@MAknFadedComponent@@UAEHXZ @ 829 NONAME ; int MAknFadedComponent::CountFadedComponents(void)
	?CountFormats@CAknPhoneNumberEditor@@QBEHXZ @ 830 NONAME ; int CAknPhoneNumberEditor::CountFormats(void) const
	?CreateAndExecuteSettingPageL@CAknEnumeratedTextPopupSettingItem@@MAEXXZ @ 831 NONAME ; void CAknEnumeratedTextPopupSettingItem::CreateAndExecuteSettingPageL(void)
	?CreateAndExecuteSettingPageL@CAknSliderSettingItem@@MAEXXZ @ 832 NONAME ; void CAknSliderSettingItem::CreateAndExecuteSettingPageL(void)
	?CreateBitmapL@CAknSettingItem@@MAEPAVCFbsBitmap@@XZ @ 833 NONAME ; class CFbsBitmap * CAknSettingItem::CreateBitmapL(void)
	?CreateBitmapL@CAknSlider@@SAPAVCFbsBitmap@@HH@Z @ 834 NONAME ; class CFbsBitmap * CAknSlider::CreateBitmapL(int, int)
	?CreateBitmapL@CAknSlider@@SAPAVCFbsBitmap@@HHH@Z @ 835 NONAME ; class CFbsBitmap * CAknSlider::CreateBitmapL(int, int, int)
	?CreateBitmapL@CAknSliderSettingItem@@MAEPAVCFbsBitmap@@XZ @ 836 NONAME ; class CFbsBitmap * CAknSliderSettingItem::CreateBitmapL(void)
	?CreateBitmapL@CAknVolumeControl@@SAPAVCFbsBitmap@@H@Z @ 837 NONAME ; class CFbsBitmap * CAknVolumeControl::CreateBitmapL(int)
	?CreateBitmapL@CAknVolumeSettingItem@@MAEPAVCFbsBitmap@@XZ @ 838 NONAME ; class CFbsBitmap * CAknVolumeSettingItem::CreateBitmapL(void)
	?CreateCbaObserverL@CAknEnv@@QAEXPAVCEikButtonGroupContainer@@PAVCEikListBox@@@Z @ 839 NONAME ; void CAknEnv::CreateCbaObserverL(class CEikButtonGroupContainer *, class CEikListBox *)
	?CreateCustomControlL@CAknSelectionListDialog@@MAE?AUSEikControlInfo@@H@Z @ 840 NONAME ; struct SEikControlInfo CAknSelectionListDialog::CreateCustomControlL(int)
	?CreateDoItText@CAknItemFinder@@UAEABVTDesC16@@ABVCRichText@@HH@Z @ 841 ABSENT
	?CreateEditorIndicatorContainerL@CAknNavigationControlContainer@@QAEPAVCAknNavigationDecorator@@XZ @ 842 NONAME ; class CAknNavigationDecorator * CAknNavigationControlContainer::CreateEditorIndicatorContainerL(void)
	?CreateEditorL@CAknQueryValueDate@@UAEHXZ @ 843 NONAME ; int CAknQueryValueDate::CreateEditorL(void)
	?CreateEditorL@CAknQueryValueDuration@@UAEHXZ @ 844 NONAME ; int CAknQueryValueDuration::CreateEditorL(void)
	?CreateEditorL@CAknQueryValueNumber@@UAEHXZ @ 845 NONAME ; int CAknQueryValueNumber::CreateEditorL(void)
	?CreateEditorL@CAknQueryValuePhone@@UAEHXZ @ 846 NONAME ; int CAknQueryValuePhone::CreateEditorL(void)
	?CreateEditorL@CAknQueryValueText@@UAEHXZ @ 847 NONAME ; int CAknQueryValueText::CreateEditorL(void)
	?CreateEditorL@CAknQueryValueTime@@UAEHXZ @ 848 NONAME ; int CAknQueryValueTime::CreateEditorL(void)
	?CreateFepStateL@CAknNumericSecretEditor@@MAEPAVCState@MCoeFepAwareTextEditor_Extension1@@XZ @ 849 NONAME ; class MCoeFepAwareTextEditor_Extension1::CState * CAknNumericSecretEditor::CreateFepStateL(void)
	?CreateFilterL@CAknFilteredTextListBoxModel@@QAEXPAVCEikListBox@@PAVCAknSearchField@@@Z @ 850 NONAME ; void CAknFilteredTextListBoxModel::CreateFilterL(class CEikListBox *, class CAknSearchField *)
	?CreateGroupedPhoneNumberL@CAknPhoneNumberGrouping@@SAPAVHBufC16@@ABVTDesC16@@@Z @ 851 NONAME ; class HBufC16 * CAknPhoneNumberGrouping::CreateGroupedPhoneNumberL(class TDesC16 const &)
	?CreateItemDrawerL@CAknDouble2GraphicLargeGraphicStyleListBox@@UAEXXZ @ 852 NONAME ; void CAknDouble2GraphicLargeGraphicStyleListBox::CreateItemDrawerL(void)
	?CreateItemDrawerL@CAknDouble2GraphicLargeStyleListBox@@UAEXXZ @ 853 NONAME ; void CAknDouble2GraphicLargeStyleListBox::CreateItemDrawerL(void)
	?CreateItemDrawerL@CAknDouble2GraphicStyleListBox@@UAEXXZ @ 854 NONAME ; void CAknDouble2GraphicStyleListBox::CreateItemDrawerL(void)
	?CreateItemDrawerL@CAknDouble2LargeStyleListBox@@UAEXXZ @ 855 NONAME ; void CAknDouble2LargeStyleListBox::CreateItemDrawerL(void)
	?CreateItemDrawerL@CAknDouble2PopupMenuStyleListBox@@MAEXXZ @ 856 NONAME ; void CAknDouble2PopupMenuStyleListBox::CreateItemDrawerL(void)
	?CreateItemDrawerL@CAknDoubleLargeGraphicPopupMenuStyleListBox@@MAEXXZ @ 857 NONAME ; void CAknDoubleLargeGraphicPopupMenuStyleListBox::CreateItemDrawerL(void)
	?CreateItemDrawerL@CAknDoubleLargeStyleListBox@@UAEXXZ @ 858 NONAME ; void CAknDoubleLargeStyleListBox::CreateItemDrawerL(void)
	?CreateItemDrawerL@CAknDoublePopupMenuStyleListBox@@MAEXXZ @ 859 NONAME ; void CAknDoublePopupMenuStyleListBox::CreateItemDrawerL(void)
	?CreateItemDrawerL@CAknDoubleStyle2ListBox@@UAEXXZ @ 860 NONAME ; void CAknDoubleStyle2ListBox::CreateItemDrawerL(void)
	?CreateItemDrawerL@CAknFormGraphicStyleListBox@@UAEXXZ @ 861 NONAME ; void CAknFormGraphicStyleListBox::CreateItemDrawerL(void)
	?CreateItemDrawerL@CAknGrid@@MAEXXZ @ 862 NONAME ; void CAknGrid::CreateItemDrawerL(void)
	?CreateItemDrawerL@CAknSetStyleListBox@@MAEXXZ @ 863 NONAME ; void CAknSetStyleListBox::CreateItemDrawerL(void)
	?CreateItemDrawerL@CAknSingleGraphicHeadingPopupMenuStyleListBox@@MAEXXZ @ 864 NONAME ; void CAknSingleGraphicHeadingPopupMenuStyleListBox::CreateItemDrawerL(void)
	?CreateItemDrawerL@CAknSingleGraphicHeadingStyleListBox@@MAEXXZ @ 865 NONAME ; void CAknSingleGraphicHeadingStyleListBox::CreateItemDrawerL(void)
	?CreateItemDrawerL@CAknSingleGraphicPopupMenuStyleListBox@@MAEXXZ @ 866 NONAME ; void CAknSingleGraphicPopupMenuStyleListBox::CreateItemDrawerL(void)
	?CreateItemDrawerL@CAknSingleHeadingPopupMenuStyleListBox@@MAEXXZ @ 867 NONAME ; void CAknSingleHeadingPopupMenuStyleListBox::CreateItemDrawerL(void)
	?CreateItemDrawerL@CAknSingleHeadingStyleListBox@@MAEXXZ @ 868 NONAME ; void CAknSingleHeadingStyleListBox::CreateItemDrawerL(void)
	?CreateItemDrawerL@CAknSingleNumberHeadingStyleListBox@@MAEXXZ @ 869 NONAME ; void CAknSingleNumberHeadingStyleListBox::CreateItemDrawerL(void)
	?CreateItemDrawerL@CAknSinglePopupMenuStyleListBox@@MAEXXZ @ 870 NONAME ; void CAknSinglePopupMenuStyleListBox::CreateItemDrawerL(void)
	?CreateItemDrawerL@CEikFormattedCellListBox@@MAEXXZ @ 871 NONAME ; void CEikFormattedCellListBox::CreateItemDrawerL(void)
	?CreateItemDrawerL@CEikSettingsListBox@@MAEXXZ @ 872 NONAME ; void CEikSettingsListBox::CreateItemDrawerL(void)
	?CreateL@CAknAppServiceBase@@MAEXXZ @ 873 NONAME ; void CAknAppServiceBase::CreateL(void)
	?CreateL@CAknSgcClient@@SAXXZ @ 874 NONAME ; void CAknSgcClient::CreateL(void)
	?CreateMenuListL@CAknPopupSettingList@@IAEXXZ @ 875 NONAME ; void CAknPopupSettingList::CreateMenuListL(void)
	?CreateMessageLabelL@CAknNavigationControlContainer@@QAEPAVCAknNavigationDecorator@@AAVTResourceReader@@@Z @ 876 NONAME ; class CAknNavigationDecorator * CAknNavigationControlContainer::CreateMessageLabelL(class TResourceReader &)
	?CreateMessageLabelL@CAknNavigationControlContainer@@UAEPAVCAknNavigationDecorator@@ABVTDesC16@@@Z @ 877 NONAME ; class CAknNavigationDecorator * CAknNavigationControlContainer::CreateMessageLabelL(class TDesC16 const &)
	?CreateModelL@CAknColumnListBox@@UAEXXZ @ 878 NONAME ; void CAknColumnListBox::CreateModelL(void)
	?CreateNavigationImageL@CAknNavigationControlContainer@@QAEPAVCAknNavigationDecorator@@AAVTResourceReader@@@Z @ 879 NONAME ; class CAknNavigationDecorator * CAknNavigationControlContainer::CreateNavigationImageL(class TResourceReader &)
	?CreateNavigationImageL@CAknNavigationControlContainer@@QAEPAVCAknNavigationDecorator@@PBVCFbsBitmap@@0@Z @ 880 NONAME ; class CAknNavigationDecorator * CAknNavigationControlContainer::CreateNavigationImageL(class CFbsBitmap const *, class CFbsBitmap const *)
	?CreateNavigationLabelL@CAknNavigationControlContainer@@QAEPAVCAknNavigationDecorator@@AAVTResourceReader@@@Z @ 881 NONAME ; class CAknNavigationDecorator * CAknNavigationControlContainer::CreateNavigationLabelL(class TResourceReader &)
	?CreateNavigationLabelL@CAknNavigationControlContainer@@QAEPAVCAknNavigationDecorator@@ABVTDesC16@@@Z @ 882 NONAME ; class CAknNavigationDecorator * CAknNavigationControlContainer::CreateNavigationLabelL(class TDesC16 const &)
	?CreateProgressBarL@CAknNoteControl@@QAEXXZ @ 883 NONAME ; void CAknNoteControl::CreateProgressBarL(void)
	?CreateScrollBarFrameL@CAknPhoneNumberEditor@@QAEPAVCEikScrollBarFrame@@XZ @ 884 NONAME ; class CEikScrollBarFrame * CAknPhoneNumberEditor::CreateScrollBarFrameL(void)
	?CreateServiceL@CAknAppServer@@UBEPAVCApaAppServiceBase@@VTUid@@@Z @ 885 NONAME ; class CApaAppServiceBase * CAknAppServer::CreateServiceL(class TUid) const
	?CreateSetStyleListBoxIconL@CAknSlider@@SAPAVCGulIcon@@HH@Z @ 886 NONAME ; class CGulIcon * CAknSlider::CreateSetStyleListBoxIconL(int, int)
	?CreateSetStyleListBoxIconL@CAknSlider@@SAPAVCGulIcon@@HHH@Z @ 887 NONAME ; class CGulIcon * CAknSlider::CreateSetStyleListBoxIconL(int, int, int)
	?CreateSetStyleListBoxIconL@CAknVolumeControl@@SAPAVCGulIcon@@H@Z @ 888 NONAME ; class CGulIcon * CAknVolumeControl::CreateSetStyleListBoxIconL(int)
	?CreateSettingItemL@CAknSettingItemList@@MAEPAVCAknSettingItem@@H@Z @ 889 NONAME ; class CAknSettingItem * CAknSettingItemList::CreateSettingItemL(int)
	?CreateSettingPageL@CAknEnumeratedTextPopupSettingItem@@MAEPAVCAknSettingPage@@XZ @ 890 NONAME ; class CAknSettingPage * CAknEnumeratedTextPopupSettingItem::CreateSettingPageL(void)
	?CreateSettingPageL@CAknSliderSettingItem@@MAEPAVCAknSettingPage@@XZ @ 891 NONAME ; class CAknSettingPage * CAknSliderSettingItem::CreateSettingPageL(void)
	?CreateTabGroupL@CAknNavigationControlContainer@@QAEPAVCAknNavigationDecorator@@AAVTResourceReader@@@Z @ 892 NONAME ; class CAknNavigationDecorator * CAknNavigationControlContainer::CreateTabGroupL(class TResourceReader &)
	?CreateTabGroupL@CAknNavigationControlContainer@@QAEPAVCAknNavigationDecorator@@AAVTResourceReader@@PAVMAknTabObserver@@@Z @ 893 NONAME ; class CAknNavigationDecorator * CAknNavigationControlContainer::CreateTabGroupL(class TResourceReader &, class MAknTabObserver *)
	?CreateTabGroupL@CAknNavigationControlContainer@@QAEPAVCAknNavigationDecorator@@PAVMAknTabObserver@@@Z @ 894 NONAME ; class CAknNavigationDecorator * CAknNavigationControlContainer::CreateTabGroupL(class MAknTabObserver *)
	?CreateTabGroupL@CAknNavigationControlContainer@@UAEPAVCAknNavigationDecorator@@XZ @ 895 NONAME ; class CAknNavigationDecorator * CAknNavigationControlContainer::CreateTabGroupL(void)
	?CreateValueTextInHBufCL@CAknSlider@@SAPAVHBufC16@@HH@Z @ 896 NONAME ; class HBufC16 * CAknSlider::CreateValueTextInHBufCL(int, int)
	?CreateVolumeIndicatorL@CAknNavigationControlContainer@@QAEPAVCAknNavigationDecorator@@H@Z @ 897 NONAME ; class CAknNavigationDecorator * CAknNavigationControlContainer::CreateVolumeIndicatorL(int)
	?CurrentDataIndex@CAknGrid@@QBEHXZ @ 898 NONAME ; int CAknGrid::CurrentDataIndex(void) const
	?CurrentDataIndex@CAknGridView@@QBEHXZ @ 899 NONAME ; int CAknGridView::CurrentDataIndex(void) const
	?CurrentFormatIndex@CAknPhoneNumberEditor@@QBEHXZ @ 900 NONAME ; int CAknPhoneNumberEditor::CurrentFormatIndex(void) const
	?CurrentItem@CAknItemFinder@@QAEAAVCFindItemDef@1@XZ @ 901 ABSENT
	?CurrentItemIndex@CAknGridView@@UBEHXZ @ 902 NONAME ; int CAknGridView::CurrentItemIndex(void) const
	?CurrentMatch@CAknEcsDetector@@QBE?AVTPtrC16@@XZ @ 903 NONAME ; class TPtrC16 CAknEcsDetector::CurrentMatch(void) const
	?CurrentScriptDirectionality@AknTextUtils@@SA?AW4TDirectionality@TBidiText@@XZ @ 904 NONAME ; enum TBidiText::TDirectionality AknTextUtils::CurrentScriptDirectionality(void)
	?CurrentValueIndex@CAknPopupFieldText@@QBEHXZ @ 905 NONAME ; int CAknPopupFieldText::CurrentValueIndex(void) const
	?CurrentValueIndex@CAknQueryValueDate@@UBEHXZ @ 906 NONAME ; int CAknQueryValueDate::CurrentValueIndex(void) const
	?CurrentValueIndex@CAknQueryValueDuration@@UBEHXZ @ 907 NONAME ; int CAknQueryValueDuration::CurrentValueIndex(void) const
	?CurrentValueIndex@CAknQueryValueNumber@@UBEHXZ @ 908 NONAME ; int CAknQueryValueNumber::CurrentValueIndex(void) const
	?CurrentValueIndex@CAknQueryValuePhone@@UBEHXZ @ 909 NONAME ; int CAknQueryValuePhone::CurrentValueIndex(void) const
	?CurrentValueIndex@CAknQueryValueText@@UBEHXZ @ 910 NONAME ; int CAknQueryValueText::CurrentValueIndex(void) const
	?CurrentValueIndex@CAknQueryValueTime@@UBEHXZ @ 911 NONAME ; int CAknQueryValueTime::CurrentValueIndex(void) const
	?CurrentValueTextLC@CAknPopupFieldText@@QAEPAVHBufC16@@XZ @ 912 NONAME ; class HBufC16 * CAknPopupFieldText::CurrentValueTextLC(void)
	?CurrentValueTextLC@CAknQueryValueDate@@UAEPAVHBufC16@@XZ @ 913 NONAME ; class HBufC16 * CAknQueryValueDate::CurrentValueTextLC(void)
	?CurrentValueTextLC@CAknQueryValueDuration@@UAEPAVHBufC16@@XZ @ 914 NONAME ; class HBufC16 * CAknQueryValueDuration::CurrentValueTextLC(void)
	?CurrentValueTextLC@CAknQueryValueNumber@@UAEPAVHBufC16@@XZ @ 915 NONAME ; class HBufC16 * CAknQueryValueNumber::CurrentValueTextLC(void)
	?CurrentValueTextLC@CAknQueryValuePhone@@UAEPAVHBufC16@@XZ @ 916 NONAME ; class HBufC16 * CAknQueryValuePhone::CurrentValueTextLC(void)
	?CurrentValueTextLC@CAknQueryValueText@@UAEPAVHBufC16@@XZ @ 917 NONAME ; class HBufC16 * CAknQueryValueText::CurrentValueTextLC(void)
	?CurrentValueTextLC@CAknQueryValueTime@@UAEPAVHBufC16@@XZ @ 918 NONAME ; class HBufC16 * CAknQueryValueTime::CurrentValueTextLC(void)
	?CursorAscentFromFont@AknLayoutUtils@@SAHABVTFontSpec@@@Z @ 919 NONAME ; int AknLayoutUtils::CursorAscentFromFont(class TFontSpec const &)
	?CursorExtensionsFromFont@AknLayoutUtils@@SAXABVTFontSpec@@AAH1@Z @ 920 NONAME ; void AknLayoutUtils::CursorExtensionsFromFont(class TFontSpec const &, int &, int &)
	?CursorHeightFromFont@AknLayoutUtils@@SAHABVTFontSpec@@@Z @ 921 NONAME ; int AknLayoutUtils::CursorHeightFromFont(class TFontSpec const &)
	?CursorPos@CAknPhoneNumberEditor@@QBEHXZ @ 922 NONAME ; int CAknPhoneNumberEditor::CursorPos(void) const
	?CursorWidth@TAknTextDecorationMetrics@@QBEHXZ @ 923 NONAME ; int TAknTextDecorationMetrics::CursorWidth(void) const
	?CursorWidthFromFont@AknLayoutUtils@@SAHABVTFontSpec@@@Z @ 924 NONAME ; int AknLayoutUtils::CursorWidthFromFont(class TFontSpec const &)
	?DataIndexFromLogicalPos@CAknGridView@@QBEXAAHHH@Z @ 925 NONAME ; void CAknGridView::DataIndexFromLogicalPos(int &, int, int) const
	?DataValidity@CAknSettingPage@@IBEHXZ @ 926 NONAME ; int CAknSettingPage::DataValidity(void) const
	?DateEditor@CAknDateSettingPage@@QAEPAVCEikDateEditor@@XZ @ 927 NONAME ; class CEikDateEditor * CAknDateSettingPage::DateEditor(void)
	?Deactivate@CAknAnimatedGc@@MAEXXZ @ 928 NONAME ; void CAknAnimatedGc::Deactivate(void)
	?DecimalPlaces@CAknSlider@@QBEHXZ @ 929 NONAME ; int CAknSlider::DecimalPlaces(void) const
	?DecoratedControl@CAknNavigationDecorator@@UAEPAVCCoeControl@@XZ @ 930 NONAME ; class CCoeControl * CAknNavigationDecorator::DecoratedControl(void)
	?DecoratedIndex@TAknDesCArrayDecorator@@QBEHAAH@Z @ 931 NONAME ; int TAknDesCArrayDecorator::DecoratedIndex(int &) const
	?DefaultCbaResourceId@CAknSettingPage@@IBEHXZ @ 932 NONAME ; int CAknSettingPage::DefaultCbaResourceId(void) const
	?DefaultMatchableItemFromItem@CAknListBoxFilterItems@@QAE?AVTPtrC16@@V2@@Z @ 933 NONAME ; class TPtrC16 CAknListBoxFilterItems::DefaultMatchableItemFromItem(class TPtrC16)
	?DefaultScrollBarType@AknLayoutUtils@@SA?AW4TScrollBarType@CEikScrollBarFrame@@PAVCAknAppUiBase@@@Z @ 934 NONAME ; enum CEikScrollBarFrame::TScrollBarType AknLayoutUtils::DefaultScrollBarType(class CAknAppUiBase *)
	?DeferredSendKeyEventToFepL@CAknListBoxFilterItems@@QAEXI@Z @ 935 NONAME ; void CAknListBoxFilterItems::DeferredSendKeyEventToFepL(unsigned int)
	?DeleteControl@CAknPopupForm@@QAEXH@Z @ 936 NONAME ; void CAknPopupForm::DeleteControl(int)
	?DeleteControl@CAknPopupForm@@QAEXW4TPopupFormControlType@@@Z @ 937 NONAME ; void CAknPopupForm::DeleteControl(enum TPopupFormControlType)
	?DeleteCurrentItemL@CAknForm@@MAEXXZ @ 938 NONAME ; void CAknForm::DeleteCurrentItemL(void)
	?DeleteTabL@CAknTabGroup@@QAEXH@Z @ 939 NONAME ; void CAknTabGroup::DeleteTabL(int)
	?Deleting@CAknForm@@IBEHXZ @ 940 NONAME ; int CAknForm::Deleting(void) const
	?DestroyMenuList@CAknPopupSettingList@@IAEXXZ @ 941 NONAME ; void CAknPopupSettingList::DestroyMenuList(void)
	?Device@CAknAnimatedGc@@MBEPAVCGraphicsDevice@@XZ @ 942 NONAME ; class CGraphicsDevice * CAknAnimatedGc::Device(void) const
	?DigitModeQuery@AknTextUtils@@SAHW4TDigitModeQueryType@1@@Z @ 943 NONAME ; int AknTextUtils::DigitModeQuery(enum AknTextUtils::TDigitModeQueryType)
	?DimTab@CAknTabGroup@@QAEXHH@Z @ 944 NONAME ; void CAknTabGroup::DimTab(int, int)
	?DisableKeyLock@RAknKeyLock@@QAEXXZ @ 945 NONAME ; void RAknKeyLock::DisableKeyLock(void)
	?DisableWithoutNote@RAknKeyLock@@QAEXXZ @ 946 NONAME ; void RAknKeyLock::DisableWithoutNote(void)
	?DiscardBrushPattern@CAknAnimatedGc@@MAEXXZ @ 947 NONAME ; void CAknAnimatedGc::DiscardBrushPattern(void)
	?DiscardFont@CAknAnimatedGc@@MAEXXZ @ 948 NONAME ; void CAknAnimatedGc::DiscardFont(void)
	?DismissL@CAknSettingPage@@IAEXH@Z @ 949 NONAME ; void CAknSettingPage::DismissL(int)
	?DismissQueryL@CAknQueryDialog@@UAEXXZ @ 950 NONAME ; void CAknQueryDialog::DismissQueryL(void)
	?DisplayMenuL@CAknDialog@@IAEXXZ @ 951 NONAME ; void CAknDialog::DisplayMenuL(void)
	?DisplayMenuL@CAknSettingPage@@MAEXXZ @ 952 NONAME ; void CAknSettingPage::DisplayMenuL(void)
	?DisplayTextLanguageSpecificNumberConversion@AknTextUtils@@SAXAAVTDes16@@@Z @ 953 NONAME ; void AknTextUtils::DisplayTextLanguageSpecificNumberConversion(class TDes16 &)
	?DoActionL@AknListBoxShortCutsImplementation@@UAEXW4TConcreteShortcutActions@AknListBoxShortCuts@@@Z @ 954 NONAME ; void AknListBoxShortCutsImplementation::DoActionL(enum AknListBoxShortCuts::TConcreteShortcutActions)
	?DoMoveL@CAknGridView@@IAEXW4TCursorMovement@CListBoxView@@W4TSelectionMode@3@@Z @ 955 NONAME ; void CAknGridView::DoMoveL(enum CListBoxView::TCursorMovement, enum CListBoxView::TSelectionMode)
	?DoNotSaveFormDataL@CAknForm@@MAEXXZ @ 956 NONAME ; void CAknForm::DoNotSaveFormDataL(void)
	?DoPasswordConfirmationL@CAknPasswordSettingPage@@IAEHABVTDesC16@@HW4TAknPasswordMatchingMode@1@AAH@Z @ 957 NONAME ; int CAknPasswordSettingPage::DoPasswordConfirmationL(class TDesC16 const &, int, enum CAknPasswordSettingPage::TAknPasswordMatchingMode, int &)
	?DoProcedureL@AknListBoxShortCuts@@QAEXXZ @ 958 NONAME ; void AknListBoxShortCuts::DoProcedureL(void)
	?DoSetPromptL@CAknFixedPointQueryDialog@@MAEXXZ @ 959 NONAME ; void CAknFixedPointQueryDialog::DoSetPromptL(void)
	?DoSetPromptL@CAknIpAddressQueryDialog@@MAEXXZ @ 960 NONAME ; void CAknIpAddressQueryDialog::DoSetPromptL(void)
	?DoSetPromptL@CAknMultiLineDataQueryDialog@@MAEXXZ @ 961 NONAME ; void CAknMultiLineDataQueryDialog::DoSetPromptL(void)
	?DoSetPromptL@CAknMultiLineIpQueryDialog@@MAEXXZ @ 962 NONAME ; void CAknMultiLineIpQueryDialog::DoSetPromptL(void)
	?DoSetPromptL@CAknQueryDialog@@MAEXXZ @ 963 NONAME ; void CAknQueryDialog::DoSetPromptL(void)
	?DoSynchWaitForAknCapServer@RAknEikAppUiSession@@QAEHXZ @ 964 NONAME ; int RAknEikAppUiSession::DoSynchWaitForAknCapServer(void)
	?DoTest@AknListBoxShortCutsImplementation@@UAEHW4TConcreteQuery@AknListBoxShortCuts@@@Z @ 965 NONAME ; int AknListBoxShortCutsImplementation::DoTest(enum AknListBoxShortCuts::TConcreteQuery)
	?Draw@?$AknListBoxLinesTemplate@VCAknColumnListBox@@@@UBEXABVTRect@@@Z @ 966 NONAME ; void AknListBoxLinesTemplate<class CAknColumnListBox>::Draw(class TRect const &) const
	?Draw@?$AknListBoxLinesTemplate@VCEikFormattedCellListBox@@@@UBEXABVTRect@@@Z @ 967 NONAME ; void AknListBoxLinesTemplate<class CEikFormattedCellListBox>::Draw(class TRect const &) const
	?Draw@?$AknListBoxLinesTemplate@VCEikSettingsListBox@@@@UBEXABVTRect@@@Z @ 968 NONAME ; void AknListBoxLinesTemplate<class CEikSettingsListBox>::Draw(class TRect const &) const
	?Draw@?$AknPopupListEmpty@VCEikFormattedCellListBox@@@@EBEXABVTRect@@@Z @ 969 NONAME ; void AknPopupListEmpty<class CEikFormattedCellListBox>::Draw(class TRect const &) const
	?Draw@CAknBatteryPane@@EBEXABVTRect@@@Z @ 970 NONAME ; void CAknBatteryPane::Draw(class TRect const &) const
	?Draw@CAknContextPane@@EBEXABVTRect@@@Z @ 971 NONAME ; void CAknContextPane::Draw(class TRect const &) const
	?Draw@CAknDialog@@MBEXABVTRect@@@Z @ 972 NONAME ; void CAknDialog::Draw(class TRect const &) const
	?Draw@CAknEdwinSettingPage@@MBEXABVTRect@@@Z @ 973 NONAME ; void CAknEdwinSettingPage::Draw(class TRect const &) const
	?Draw@CAknGMSStyleGrid@@UBEXABVTRect@@@Z @ 974 NONAME ; void CAknGMSStyleGrid::Draw(class TRect const &) const
	?Draw@CAknGMSStyleGridView@@UBEXPBVTRect@@@Z @ 975 NONAME ; void CAknGMSStyleGridView::Draw(class TRect const *) const
	?Draw@CAknGridView@@UBEXPBVTRect@@@Z @ 976 NONAME ; void CAknGridView::Draw(class TRect const *) const
	?Draw@CAknIndicatorContainer@@EBEXABVTRect@@@Z @ 977 NONAME ; void CAknIndicatorContainer::Draw(class TRect const &) const
	?Draw@CAknListBoxSettingPage@@MBEXABVTRect@@@Z @ 978 NONAME ; void CAknListBoxSettingPage::Draw(class TRect const &) const
	?Draw@CAknListQueryControl@@UBEXABVTRect@@@Z @ 979 NONAME ; void CAknListQueryControl::Draw(class TRect const &) const
	?Draw@CAknMessageQueryControl@@MBEXABVTRect@@@Z @ 980 NONAME ; void CAknMessageQueryControl::Draw(class TRect const &) const
	?Draw@CAknMfneSettingPage@@MBEXABVTRect@@@Z @ 981 NONAME ; void CAknMfneSettingPage::Draw(class TRect const &) const
	?Draw@CAknNaviLabel@@MBEXABVTRect@@@Z @ 982 NONAME ; void CAknNaviLabel::Draw(class TRect const &) const
	?Draw@CAknNavigationControlContainer@@EBEXABVTRect@@@Z @ 983 NONAME ; void CAknNavigationControlContainer::Draw(class TRect const &) const
	?Draw@CAknNavigationDecorator@@EBEXABVTRect@@@Z @ 984 NONAME ; void CAknNavigationDecorator::Draw(class TRect const &) const
	?Draw@CAknPasswordSettingPage@@MBEXABVTRect@@@Z @ 985 NONAME ; void CAknPasswordSettingPage::Draw(class TRect const &) const
	?Draw@CAknPhoneNumberEditor@@UBEXABVTRect@@@Z @ 986 NONAME ; void CAknPhoneNumberEditor::Draw(class TRect const &) const
	?Draw@CAknPopupField@@MBEXABVTRect@@@Z @ 987 NONAME ; void CAknPopupField::Draw(class TRect const &) const
	?Draw@CAknPopupForm@@UBEXABVTRect@@@Z @ 988 NONAME ; void CAknPopupForm::Draw(class TRect const &) const
	?Draw@CAknPopupHeadingPane@@EBEXABVTRect@@@Z @ 989 NONAME ; void CAknPopupHeadingPane::Draw(class TRect const &) const
	?Draw@CAknPopupList@@EBEXABVTRect@@@Z @ 990 NONAME ; void CAknPopupList::Draw(class TRect const &) const
	?Draw@CAknSelectionListDialog@@MBEXABVTRect@@@Z @ 991 NONAME ; void CAknSelectionListDialog::Draw(class TRect const &) const
	?Draw@CAknSetStyleListBox@@UBEXABVTRect@@@Z @ 992 NONAME ; void CAknSetStyleListBox::Draw(class TRect const &) const
	?Draw@CAknSettingPage@@EBEXABVTRect@@@Z @ 993 NONAME ; void CAknSettingPage::Draw(class TRect const &) const
	?Draw@CAknSignalPane@@EBEXABVTRect@@@Z @ 994 NONAME ; void CAknSignalPane::Draw(class TRect const &) const
	?Draw@CAknSliderSettingPage@@MBEXABVTRect@@@Z @ 995 NONAME ; void CAknSliderSettingPage::Draw(class TRect const &) const
	?Draw@CAknTabGroup@@EBEXABVTRect@@@Z @ 996 NONAME ; void CAknTabGroup::Draw(class TRect const &) const
	?Draw@CAknTitlePane@@EBEXABVTRect@@@Z @ 997 NONAME ; void CAknTitlePane::Draw(class TRect const &) const
	?Draw@CAknTransparentCameraSettingPage@@MBEXABVTRect@@@Z @ 998 NONAME ; void CAknTransparentCameraSettingPage::Draw(class TRect const &) const
	?Draw@CAknVolumeSettingPage@@MBEXABVTRect@@@Z @ 999 NONAME ; void CAknVolumeSettingPage::Draw(class TRect const &) const
	?Draw@CFormGraphicListBoxData@@UBEXVTListItemProperties@@AAVCWindowGc@@PBVTDesC16@@ABVTRect@@HABVTColors@CFormattedCellListBoxData@@@Z @ 1000 NONAME ; void CFormGraphicListBoxData::Draw(class TListItemProperties, class CWindowGc &, class TDesC16 const *, class TRect const &, int, class CFormattedCellListBoxData::TColors const &) const
	?Draw@CFormattedCellGridData@@UBEXVTListItemProperties@@AAVCWindowGc@@PBVTDesC16@@ABVTRect@@HABVTColors@CFormattedCellListBoxData@@@Z @ 1001 NONAME ; void CFormattedCellGridData::Draw(class TListItemProperties, class CWindowGc &, class TDesC16 const *, class TRect const &, int, class CFormattedCellListBoxData::TColors const &) const
	?Draw@CFormattedCellListBoxData@@UBEXVTListItemProperties@@AAVCWindowGc@@PBVTDesC16@@ABVTRect@@HABVTColors@1@@Z @ 1002 NONAME ; void CFormattedCellListBoxData::Draw(class TListItemProperties, class CWindowGc &, class TDesC16 const *, class TRect const &, int, class CFormattedCellListBoxData::TColors const &) const
	?Draw@CFormattedCellListBoxView@@UBEXPBVTRect@@@Z @ 1003 NONAME ; void CFormattedCellListBoxView::Draw(class TRect const *) const
	?Draw@CPopupFormattedListBoxData@@UBEXVTListItemProperties@@AAVCWindowGc@@PBVTDesC16@@ABVTRect@@HABVTColors@CFormattedCellListBoxData@@@Z @ 1004 NONAME ; void CPopupFormattedListBoxData::Draw(class TListItemProperties, class CWindowGc &, class TDesC16 const *, class TRect const &, int, class CFormattedCellListBoxData::TColors const &) const
	?Draw@CSettingItemEditingListBoxData@@UBEXVTListItemProperties@@AAVCWindowGc@@PBVTDesC16@@ABVTRect@@HABVTColors@CFormattedCellListBoxData@@@Z @ 1005 NONAME ; void CSettingItemEditingListBoxData::Draw(class TListItemProperties, class CWindowGc &, class TDesC16 const *, class TRect const &, int, class CFormattedCellListBoxData::TColors const &) const
	?Draw@CSettingsListBoxData@@UBEXABVTListItemProperties@@AAVCWindowGc@@PBVTDesC16@@ABVTRect@@HABVTColors@CFormattedCellListBoxData@@@Z @ 1006 NONAME ; void CSettingsListBoxData::Draw(class TListItemProperties const &, class CWindowGc &, class TDesC16 const *, class TRect const &, int, class CFormattedCellListBoxData::TColors const &) const
	?Draw@CSettingsListBoxView@@UBEXPBVTRect@@@Z @ 1007 NONAME ; void CSettingsListBoxView::Draw(class TRect const *) const
	?Draw@CSingleHeadingStyleView@@UBEXPBVTRect@@@Z @ 1008 NONAME ; void CSingleHeadingStyleView::Draw(class TRect const *) const
	?DrawArc@CAknAnimatedGc@@MAEXABVTRect@@ABVTPoint@@1@Z @ 1009 NONAME ; void CAknAnimatedGc::DrawArc(class TRect const &, class TPoint const &, class TPoint const &)
	?DrawBackgroundAroundGrid@CAknAppStyleGrid@@QAEXAAVCWindowGc@@ABVTRect@@1@Z @ 1010 NONAME ; void CAknAppStyleGrid::DrawBackgroundAroundGrid(class CWindowGc &, class TRect const &, class TRect const &)
	?DrawBitmap@CAknAnimatedGc@@MAEXABVTPoint@@PBVCFbsBitmap@@@Z @ 1011 NONAME ; void CAknAnimatedGc::DrawBitmap(class TPoint const &, class CFbsBitmap const *)
	?DrawBitmap@CAknAnimatedGc@@MAEXABVTRect@@PBVCFbsBitmap@@0@Z @ 1012 NONAME ; void CAknAnimatedGc::DrawBitmap(class TRect const &, class CFbsBitmap const *, class TRect const &)
	?DrawBitmap@CAknAnimatedGc@@MAEXABVTRect@@PBVCFbsBitmap@@@Z @ 1013 NONAME ; void CAknAnimatedGc::DrawBitmap(class TRect const &, class CFbsBitmap const *)
	?DrawColumnRange@CAknGridView@@IBEXHH@Z @ 1014 NONAME ; void CAknGridView::DrawColumnRange(int, int) const
	?DrawEllipse@CAknAnimatedGc@@MAEXABVTRect@@@Z @ 1015 NONAME ; void CAknAnimatedGc::DrawEllipse(class TRect const &)
	?DrawEmptyItem@CFormattedCellListBoxItemDrawer@@UBEXHVTPoint@@H@Z @ 1016 NONAME ; void CFormattedCellListBoxItemDrawer::DrawEmptyItem(int, class TPoint, int) const
	?DrawEmptyList@AknDraw@@SAXABVTRect@@AAVCWindowGc@@VTPtrC16@@@Z @ 1017 NONAME ; void AknDraw::DrawEmptyList(class TRect const &, class CWindowGc &, class TPtrC16)
	?DrawEmptyList@AknDrawWithSkins@@SAXABVTRect@@AAVCWindowGc@@VTPtrC16@@PAVCCoeControl@@@Z @ 1018 NONAME ; void AknDrawWithSkins::DrawEmptyList(class TRect const &, class CWindowGc &, class TPtrC16, class CCoeControl *)
	?DrawEmptyList@CAknColumnListBoxView@@UBEXABVTRect@@@Z @ 1019 NONAME ; void CAknColumnListBoxView::DrawEmptyList(class TRect const &) const
	?DrawEmptyList@CAknGridView@@UBEXXZ @ 1020 NONAME ; void CAknGridView::DrawEmptyList(void) const
	?DrawEmptyList@CAknSetStyleListBoxView@@UBEXABVTRect@@@Z @ 1021 NONAME ; void CAknSetStyleListBoxView::DrawEmptyList(class TRect const &) const
	?DrawEmptyList@CFormattedCellListBoxView@@UBEXABVTRect@@@Z @ 1022 NONAME ; void CFormattedCellListBoxView::DrawEmptyList(class TRect const &) const
	?DrawEmptyList@CSingleHeadingStyleView@@UBEXABVTRect@@@Z @ 1023 NONAME ; void CSingleHeadingStyleView::DrawEmptyList(class TRect const &) const
	?DrawEmptyListForSettingPage@AknDraw@@SAXABVTRect@@AAVCWindowGc@@VTPtrC16@@@Z @ 1024 NONAME ; void AknDraw::DrawEmptyListForSettingPage(class TRect const &, class CWindowGc &, class TPtrC16)
	?DrawEmptyListForSettingPage@AknDrawWithSkins@@SAXABVTRect@@AAVCWindowGc@@VTPtrC16@@PAVCCoeControl@@@Z @ 1025 NONAME ; void AknDrawWithSkins::DrawEmptyListForSettingPage(class TRect const &, class CWindowGc &, class TPtrC16, class CCoeControl *)
	?DrawEmptyListHeading@AknDraw@@SAXABVTRect@@AAVCWindowGc@@VTPtrC16@@@Z @ 1026 NONAME ; void AknDraw::DrawEmptyListHeading(class TRect const &, class CWindowGc &, class TPtrC16)
	?DrawEmptyListHeading@AknDrawWithSkins@@SAXABVTRect@@AAVCWindowGc@@VTPtrC16@@PAVCCoeControl@@@Z @ 1027 NONAME ; void AknDrawWithSkins::DrawEmptyListHeading(class TRect const &, class CWindowGc &, class TPtrC16, class CCoeControl *)
	?DrawEmptyListImpl@AknDraw@@SAXABVTRect@@AAVCWindowGc@@VTPtrC16@@HH@Z @ 1028 NONAME ; void AknDraw::DrawEmptyListImpl(class TRect const &, class CWindowGc &, class TPtrC16, int, int)
	?DrawEmptyListWithFind@AknDraw@@SAXABVTRect@@AAVCWindowGc@@VTPtrC16@@@Z @ 1029 NONAME ; void AknDraw::DrawEmptyListWithFind(class TRect const &, class CWindowGc &, class TPtrC16)
	?DrawEmptyListWithFind@AknDrawWithSkins@@SAXABVTRect@@AAVCWindowGc@@VTPtrC16@@PAVCCoeControl@@@Z @ 1030 NONAME ; void AknDrawWithSkins::DrawEmptyListWithFind(class TRect const &, class CWindowGc &, class TPtrC16, class CCoeControl *)
	?DrawFormatted@CFormattedCellListBoxData@@IBEXVTListItemProperties@@AAVCWindowGc@@PBVTDesC16@@ABVTRect@@HABVTColors@1@@Z @ 1031 NONAME ; void CFormattedCellListBoxData::DrawFormatted(class TListItemProperties, class CWindowGc &, class TDesC16 const *, class TRect const &, int, class CFormattedCellListBoxData::TColors const &) const
	?DrawImage@TAknLayoutRect@@QBEXAAVCBitmapContext@@PAVCFbsBitmap@@1@Z @ 1032 NONAME ; void TAknLayoutRect::DrawImage(class CBitmapContext &, class CFbsBitmap *, class CFbsBitmap *) const
	?DrawItem@CAknGridView@@UBEXH@Z @ 1033 NONAME ; void CAknGridView::DrawItem(int) const
	?DrawItem@CDoubleLargeStyleItemDrawer@@UBEXHVTPoint@@HHHH@Z @ 1034 NONAME ; void CDoubleLargeStyleItemDrawer::DrawItem(int, class TPoint, int, int, int, int) const
	?DrawItem@CSettingsListBoxView@@UBEXH@Z @ 1035 NONAME ; void CSettingsListBoxView::DrawItem(int) const
	?DrawItem@CSingleHeadingStyleItemDrawer@@UBEXHVTPoint@@HHHH@Z @ 1036 NONAME ; void CSingleHeadingStyleItemDrawer::DrawItem(int, class TPoint, int, int, int, int) const
	?DrawItem@CWordWrappedFormattedCellItemDrawer@@UBEXHVTPoint@@HHHH@Z @ 1037 NONAME ; void CWordWrappedFormattedCellItemDrawer::DrawItem(int, class TPoint, int, int, int, int) const
	?DrawItemMark@CFormattedCellListBoxItemDrawer@@UBEXHHABVTPoint@@@Z @ 1038 NONAME ; void CFormattedCellListBoxItemDrawer::DrawItemMark(int, int, class TPoint const &) const
	?DrawItemRange@CAknGridView@@UBEXHH@Z @ 1039 NONAME ; void CAknGridView::DrawItemRange(int, int) const
	?DrawItemText@CFormattedCellListBoxItemDrawer@@UBEXHABVTRect@@HHH@Z @ 1040 NONAME ; void CFormattedCellListBoxItemDrawer::DrawItemText(int, class TRect const &, int, int, int) const
	?DrawItemText@CSettingsListBoxItemDrawer@@UBEXHABVTRect@@HHH@Z @ 1041 NONAME ; void CSettingsListBoxItemDrawer::DrawItemText(int, class TRect const &, int, int, int) const
	?DrawItemText@CWordWrappedFormattedCellItemDrawer@@UBEXHABVTRect@@HHH@Z @ 1042 NONAME ; void CWordWrappedFormattedCellItemDrawer::DrawItemText(int, class TRect const &, int, int, int) const
	?DrawLine@CAknAnimatedGc@@MAEXABVTPoint@@0@Z @ 1043 NONAME ; void CAknAnimatedGc::DrawLine(class TPoint const &, class TPoint const &)
	?DrawLineBy@CAknAnimatedGc@@MAEXABVTPoint@@@Z @ 1044 NONAME ; void CAknAnimatedGc::DrawLineBy(class TPoint const &)
	?DrawLineTo@CAknAnimatedGc@@MAEXABVTPoint@@@Z @ 1045 NONAME ; void CAknAnimatedGc::DrawLineTo(class TPoint const &)
	?DrawMatcherCursor@CAknGridView@@UAEXXZ @ 1046 NONAME ; void CAknGridView::DrawMatcherCursor(void)
	?DrawNextAnimationStep@CAknAnimationData@@QAEHAAVCBitmapContext@@@Z @ 1047 NONAME ; int CAknAnimationData::DrawNextAnimationStep(class CBitmapContext &)
	?DrawOutLineRect@TAknLayoutRect@@QBEXAAVCWindowGc@@@Z @ 1048 NONAME ; void TAknLayoutRect::DrawOutLineRect(class CWindowGc &) const
	?DrawPie@CAknAnimatedGc@@MAEXABVTRect@@ABVTPoint@@1@Z @ 1049 NONAME ; void CAknAnimatedGc::DrawPie(class TRect const &, class TPoint const &, class TPoint const &)
	?DrawPolyLine@CAknAnimatedGc@@MAEXPBV?$CArrayFix@VTPoint@@@@@Z @ 1050 NONAME ; void CAknAnimatedGc::DrawPolyLine(class CArrayFix<class TPoint> const *)
	?DrawPolyLine@CAknAnimatedGc@@MAEXPBVTPoint@@H@Z @ 1051 NONAME ; void CAknAnimatedGc::DrawPolyLine(class TPoint const *, int)
	?DrawPolygon@CAknAnimatedGc@@MAEHPBV?$CArrayFix@VTPoint@@@@W4TFillRule@CGraphicsContext@@@Z @ 1052 NONAME ; int CAknAnimatedGc::DrawPolygon(class CArrayFix<class TPoint> const *, enum CGraphicsContext::TFillRule)
	?DrawPolygon@CAknAnimatedGc@@MAEHPBVTPoint@@HW4TFillRule@CGraphicsContext@@@Z @ 1053 NONAME ; int CAknAnimatedGc::DrawPolygon(class TPoint const *, int, enum CGraphicsContext::TFillRule)
	?DrawRect@CAknAnimatedGc@@MAEXABVTRect@@@Z @ 1054 NONAME ; void CAknAnimatedGc::DrawRect(class TRect const &)
	?DrawRect@TAknLayoutRect@@QBEXAAVCWindowGc@@@Z @ 1055 NONAME ; void TAknLayoutRect::DrawRect(class CWindowGc &) const
	?DrawRoundRect@CAknAnimatedGc@@MAEXABVTRect@@ABVTSize@@@Z @ 1056 NONAME ; void CAknAnimatedGc::DrawRoundRect(class TRect const &, class TSize const &)
	?DrawSynchronizer@CAknSgcClient@@SAPAVCAknDrawSynchronizer@@XZ @ 1057 NONAME ; class CAknDrawSynchronizer * CAknSgcClient::DrawSynchronizer(void)
	?DrawText@CAknAnimatedGc@@MAEXABVTDesC16@@ABVTPoint@@@Z @ 1058 NONAME ; void CAknAnimatedGc::DrawText(class TDesC16 const &, class TPoint const &)
	?DrawText@CAknAnimatedGc@@MAEXABVTDesC16@@ABVTRect@@HW4TTextAlign@CGraphicsContext@@H@Z @ 1059 NONAME ; void CAknAnimatedGc::DrawText(class TDesC16 const &, class TRect const &, int, enum CGraphicsContext::TTextAlign, int)
	?DrawText@CAknMarqueeControl@@QAEHAAVCWindowGc@@ABVTRect@@ABVTDesC16@@HW4TTextAlign@CGraphicsContext@@ABVCFont@@@Z @ 1060 NONAME ; int CAknMarqueeControl::DrawText(class CWindowGc &, class TRect const &, class TDesC16 const &, int, enum CGraphicsContext::TTextAlign, class CFont const &)
	?DrawText@TAknLayoutText@@QBEXAAVCGraphicsContext@@ABVTDesC16@@@Z @ 1061 NONAME ; void TAknLayoutText::DrawText(class CGraphicsContext &, class TDesC16 const &) const
	?DrawText@TAknLayoutText@@QBEXAAVCGraphicsContext@@ABVTDesC16@@H@Z @ 1062 NONAME ; void TAknLayoutText::DrawText(class CGraphicsContext &, class TDesC16 const &, int) const
	?DrawText@TAknLayoutText@@QBEXAAVCGraphicsContext@@ABVTDesC16@@HABVTRgb@@@Z @ 1063 NONAME ; void TAknLayoutText::DrawText(class CGraphicsContext &, class TDesC16 const &, int, class TRgb const &) const
	?DrawTextVertical@CAknAnimatedGc@@MAEXABVTDesC16@@ABVTPoint@@H@Z @ 1064 NONAME ; void CAknAnimatedGc::DrawTextVertical(class TDesC16 const &, class TPoint const &, int)
	?DrawTextVertical@CAknAnimatedGc@@MAEXABVTDesC16@@ABVTRect@@HHW4TTextAlign@CGraphicsContext@@H@Z @ 1065 NONAME ; void CAknAnimatedGc::DrawTextVertical(class TDesC16 const &, class TRect const &, int, int, enum CGraphicsContext::TTextAlign, int)
	?DrawUserAnimationStep@CAknAnimationData@@MAEHAAVCBitmapContext@@AAVTAnimMultiStep@@@Z @ 1066 NONAME ; int CAknAnimationData::DrawUserAnimationStep(class CBitmapContext &, class TAnimMultiStep &)
	?DrawWindowShadow@AknDraw@@SAXAAVCWindowGc@@ABVTAknLayoutRect@@1111@Z @ 1067 NONAME ; void AknDraw::DrawWindowShadow(class CWindowGc &, class TAknLayoutRect const &, class TAknLayoutRect const &, class TAknLayoutRect const &, class TAknLayoutRect const &, class TAknLayoutRect const &)
	?DrawWindowShadow@AknDrawWithSkins@@SAXAAVCWindowGc@@ABVTAknLayoutRect@@1111PAVCCoeControl@@@Z @ 1068 NONAME ; void AknDrawWithSkins::DrawWindowShadow(class CWindowGc &, class TAknLayoutRect const &, class TAknLayoutRect const &, class TAknLayoutRect const &, class TAknLayoutRect const &, class TAknLayoutRect const &, class CCoeControl *)
	?DurationEditor@CAknDurationSettingPage@@QAEPAVCEikDurationEditor@@XZ @ 1069 NONAME ; class CEikDurationEditor * CAknDurationSettingPage::DurationEditor(void)
	?DynInitMenuPaneL@CAknDialog@@UAEXHPAVCEikMenuPane@@@Z @ 1070 NONAME ; void CAknDialog::DynInitMenuPaneL(int, class CEikMenuPane *)
	?DynInitMenuPaneL@CAknForm@@UAEXHPAVCEikMenuPane@@@Z @ 1071 NONAME ; void CAknForm::DynInitMenuPaneL(int, class CEikMenuPane *)
	?DynInitMenuPaneL@CAknMarkableListDialog@@MAEXHPAVCEikMenuPane@@@Z @ 1072 NONAME ; void CAknMarkableListDialog::DynInitMenuPaneL(int, class CEikMenuPane *)
	?DynInitMenuPaneL@CAknSettingPage@@MAEXHPAVCEikMenuPane@@@Z @ 1073 NONAME ; void CAknSettingPage::DynInitMenuPaneL(int, class CEikMenuPane *)
	?DynamicInitL@CAknCheckBoxSettingPage@@MAEXXZ @ 1074 NONAME ; void CAknCheckBoxSettingPage::DynamicInitL(void)
	?DynamicInitL@CAknIntegerSettingPage@@MAEXXZ @ 1075 NONAME ; void CAknIntegerSettingPage::DynamicInitL(void)
	?DynamicInitL@CAknRadioButtonSettingPage@@MAEXXZ @ 1076 NONAME ; void CAknRadioButtonSettingPage::DynamicInitL(void)
	?DynamicInitL@CAknSettingPage@@MAEXXZ @ 1077 NONAME ; void CAknSettingPage::DynamicInitL(void)
	?DynamicInitL@CAknTextSettingPage@@MAEXXZ @ 1078 NONAME ; void CAknTextSettingPage::DynamicInitL(void)
	?DynamicInitL@CAknTransparentCameraSettingPage@@MAEXXZ @ 1079 NONAME ; void CAknTransparentCameraSettingPage::DynamicInitL(void)
	?EditCurrentLabelL@CAknForm@@MAEXXZ @ 1080 NONAME ; void CAknForm::EditCurrentLabelL(void)
	?EditItemL@CAknBinaryPopupSettingItem@@UAEXH@Z @ 1081 NONAME ; void CAknBinaryPopupSettingItem::EditItemL(int)
	?EditItemL@CAknEnumeratedTextPopupSettingItem@@UAEXH@Z @ 1082 NONAME ; void CAknEnumeratedTextPopupSettingItem::EditItemL(int)
	?EditItemL@CAknIntegerEdwinSettingItem@@UAEXH@Z @ 1083 NONAME ; void CAknIntegerEdwinSettingItem::EditItemL(int)
	?EditItemL@CAknIpFieldSettingItem@@UAEXH@Z @ 1084 NONAME ; void CAknIpFieldSettingItem::EditItemL(int)
	?EditItemL@CAknPasswordSettingItem@@UAEXH@Z @ 1085 NONAME ; void CAknPasswordSettingItem::EditItemL(int)
	?EditItemL@CAknSettingItem@@UAEXH@Z @ 1086 NONAME ; void CAknSettingItem::EditItemL(int)
	?EditItemL@CAknSettingItemList@@UAEXHH@Z @ 1087 NONAME ; void CAknSettingItemList::EditItemL(int, int)
	?EditItemL@CAknSliderSettingItem@@UAEXH@Z @ 1088 NONAME ; void CAknSliderSettingItem::EditItemL(int)
	?EditItemL@CAknTextSettingItem@@UAEXH@Z @ 1089 NONAME ; void CAknTextSettingItem::EditItemL(int)
	?EditItemL@CAknTimeOffsetSettingItem@@UAEXH@Z @ 1090 NONAME ; void CAknTimeOffsetSettingItem::EditItemL(int)
	?EditItemL@CAknTimeOrDateSettingItem@@UAEXH@Z @ 1091 NONAME ; void CAknTimeOrDateSettingItem::EditItemL(int)
	?EditItemL@CAknVolumeSettingItem@@UAEXH@Z @ 1092 NONAME ; void CAknVolumeSettingItem::EditItemL(int)
	?EditingStateIndicator@CAknEnv@@QAEPAVMAknEditingStateIndicator@@XZ @ 1093 NONAME ; class MAknEditingStateIndicator * CAknEnv::EditingStateIndicator(void)
	?Editor@CAknSearchField@@QBEAAVCEikEdwin@@XZ @ 1094 NONAME ; class CEikEdwin & CAknSearchField::Editor(void) const
	?EditorControl@CAknSettingPage@@QBEPAVCCoeControl@@XZ @ 1095 NONAME ; class CCoeControl * CAknSettingPage::EditorControl(void) const
	?EmptyItemText@CAknSettingItem@@IBEAAVTDesC16@@XZ @ 1096 NONAME ; class TDesC16 & CAknSettingItem::EmptyItemText(void) const
	?EnableAutoLockEmulation@RAknKeyLock@@QAEXXZ @ 1097 NONAME ; void RAknKeyLock::EnableAutoLockEmulation(void)
	?EnableExtendedDrawingL@CEikFormattedCellListBox@@QAEXXZ @ 1098 NONAME ; void CEikFormattedCellListBox::EnableExtendedDrawingL(void)
	?EnableFind@CAknPopupList@@QAEHH@Z @ 1099 NONAME ; int CAknPopupList::EnableFind(int)
	?EnableFindEmptyList@CAknColumnListBoxView@@QAEXXZ @ 1100 NONAME ; void CAknColumnListBoxView::EnableFindEmptyList(void)
	?EnableKeyLock@RAknKeyLock@@QAEXXZ @ 1101 NONAME ; void RAknKeyLock::EnableKeyLock(void)
	?EnableMarquee@CAknMarqueeControl@@QAEXH@Z @ 1102 NONAME ; void CAknMarqueeControl::EnableMarquee(int)
	?EnableMarqueeL@CFormattedCellListBoxData@@QAEXH@Z @ 1103 NONAME ; void CFormattedCellListBoxData::EnableMarqueeL(int)
	?EnableSoftNotifications@RAknKeyLock@@QAEXH@Z @ 1104 NONAME ; void RAknKeyLock::EnableSoftNotifications(int)
	?EnableWithoutNote@RAknKeyLock@@QAEXXZ @ 1105 NONAME ; void RAknKeyLock::EnableWithoutNote(void)
	?EndTimer@AknListBoxShortCuts@@QAEXXZ @ 1106 NONAME ; void AknListBoxShortCuts::EndTimer(void)
	?EnumeratedTextArray@CAknEnumeratedTextPopupSettingItem@@QBEPAV?$CArrayPtr@V?$CAknEnumeratedItem@VHBufC16@@@@@@XZ @ 1107 NONAME ; class CArrayPtr<class CAknEnumeratedItem<class HBufC16> > * CAknEnumeratedTextPopupSettingItem::EnumeratedTextArray(void) const
	?EnumeratedTextArray@CAknEnumeratedTextSettingItem@@QBEPAV?$CArrayPtr@V?$CAknEnumeratedItem@VHBufC16@@@@@@XZ @ 1108 NONAME ; class CArrayPtr<class CAknEnumeratedItem<class HBufC16> > * CAknEnumeratedTextSettingItem::EnumeratedTextArray(void) const
	?EnumerationValue@CAknEnumeratedItemBase@@QBEHXZ @ 1109 NONAME ; int CAknEnumeratedItemBase::EnumerationValue(void) const
	?EventMonitor@CAknAppUiBase@@QBEPAVCAknWsEventMonitor@@XZ @ 1110 NONAME ; class CAknWsEventMonitor * CAknAppUiBase::EventMonitor(void) const
	?ExecuteDlgLD@CAknNoteDialog@@QAEHHH@Z @ 1111 NONAME ; int CAknNoteDialog::ExecuteDlgLD(int, int)
	?ExecuteDlgLD@CAknNoteDialog@@QAEHW4TTimeout@1@W4TTone@1@H@Z @ 1112 NONAME ; int CAknNoteDialog::ExecuteDlgLD(enum CAknNoteDialog::TTimeout, enum CAknNoteDialog::TTone, int)
	?ExecuteDlgLD@CAknNoteDialog@@QAEHW4TTone@1@H@Z @ 1113 NONAME ; int CAknNoteDialog::ExecuteDlgLD(enum CAknNoteDialog::TTone, int)
	?ExecuteEmptyPopupListL@CAknEnv@@QAEXPBVTDesC16@@0H@Z @ 1114 NONAME ; void CAknEnv::ExecuteEmptyPopupListL(class TDesC16 const *, class TDesC16 const *, int)
	?ExecuteEmptyPopupListL@CAknEnv@@QAEXPBVTDesC16@@@Z @ 1115 NONAME ; void CAknEnv::ExecuteEmptyPopupListL(class TDesC16 const *)
	?ExecuteL@CAknWaitNoteWrapper@@QAEHHAAVMAknBackgroundProcess@@ABVTDesC16@@HABW4TTone@CAknNoteDialog@@@Z @ 1116 NONAME ; int CAknWaitNoteWrapper::ExecuteL(int, class MAknBackgroundProcess &, class TDesC16 const &, int, enum CAknNoteDialog::TTone const &)
	?ExecuteL@CAknWaitNoteWrapper@@QAEHHAAVMAknBackgroundProcess@@HABW4TTone@CAknNoteDialog@@@Z @ 1117 NONAME ; int CAknWaitNoteWrapper::ExecuteL(int, class MAknBackgroundProcess &, int, enum CAknNoteDialog::TTone const &)
	?ExecuteLD@CAknCharMapDialog@@UAEHH@Z @ 1118 NONAME ; int CAknCharMapDialog::ExecuteLD(int)
	?ExecuteLD@CAknColourSelectionGrid@@QAEHXZ @ 1119 NONAME ; int CAknColourSelectionGrid::ExecuteLD(void)
	?ExecuteLD@CAknDialog@@UAEHH@Z @ 1120 NONAME ; int CAknDialog::ExecuteLD(int)
	?ExecuteLD@CAknNoteWrapper@@QAEHHABVTDesC16@@@Z @ 1121 NONAME ; int CAknNoteWrapper::ExecuteLD(int, class TDesC16 const &)
	?ExecuteLD@CAknNoteWrapper@@UAEHH@Z @ 1122 NONAME ; int CAknNoteWrapper::ExecuteLD(int)
	?ExecuteLD@CAknPopupList@@QAEHXZ @ 1123 NONAME ; int CAknPopupList::ExecuteLD(void)
	?ExecuteLD@CAknQueryDialog@@QAEHHABVTDesC16@@@Z @ 1124 NONAME ; int CAknQueryDialog::ExecuteLD(int, class TDesC16 const &)
	?ExecuteLD@CAknQueryDialog@@UAEHH@Z @ 1125 NONAME ; int CAknQueryDialog::ExecuteLD(int)
	?ExecuteLD@CAknResourceNoteDialog@@QAEHABVTDesC16@@@Z @ 1126 NONAME ; int CAknResourceNoteDialog::ExecuteLD(class TDesC16 const &)
	?ExecuteLD@CAknResourceNoteDialog@@QAEHXZ @ 1127 NONAME ; int CAknResourceNoteDialog::ExecuteLD(void)
	?ExecuteLD@CAknSettingPage@@QAEHW4TAknSettingPageUpdateMode@1@@Z @ 1128 NONAME ; int CAknSettingPage::ExecuteLD(enum CAknSettingPage::TAknSettingPageUpdateMode)
	?ExecuteNewPasswordConfirmationL@CAknPasswordSettingPage@@MAEHABVTDesC16@@H@Z @ 1129 NONAME ; int CAknPasswordSettingPage::ExecuteNewPasswordConfirmationL(class TDesC16 const &, int)
	?ExecuteOldPasswordConfirmationL@CAknPasswordSettingPage@@MAEHABVTDesC16@@H@Z @ 1130 NONAME ; int CAknPasswordSettingPage::ExecuteOldPasswordConfirmationL(class TDesC16 const &, int)
	?Exit@CAknAppUiBase@@UAEXXZ @ 1131 NONAME ; void CAknAppUiBase::Exit(void)
	?ExitForegroundAppL@CAknEnv@@SAXXZ @ 1132 NONAME ; void CAknEnv::ExitForegroundAppL(void)
	?ExtensionInterface@CAknAlphaPasswordSettingPage@@EAEPAXVTUid@@@Z @ 1133 NONAME ; void * CAknAlphaPasswordSettingPage::ExtensionInterface(class TUid)
	?ExtensionInterface@CAknBatteryPane@@AAEPAXVTUid@@@Z @ 1134 NONAME ; void * CAknBatteryPane::ExtensionInterface(class TUid)
	?ExtensionInterface@CAknCheckBoxSettingPage@@EAEPAXVTUid@@@Z @ 1135 NONAME ; void * CAknCheckBoxSettingPage::ExtensionInterface(class TUid)
	?ExtensionInterface@CAknColumnListBox@@EAEPAXVTUid@@@Z @ 1136 NONAME ; void * CAknColumnListBox::ExtensionInterface(class TUid)
	?ExtensionInterface@CAknConfirmationNote@@EAEPAXVTUid@@@Z @ 1137 NONAME ; void * CAknConfirmationNote::ExtensionInterface(class TUid)
	?ExtensionInterface@CAknContextPane@@EAEPAXVTUid@@@Z @ 1138 NONAME ; void * CAknContextPane::ExtensionInterface(class TUid)
	?ExtensionInterface@CAknControl@@EAEPAXVTUid@@@Z @ 1139 NONAME ; void * CAknControl::ExtensionInterface(class TUid)
	?ExtensionInterface@CAknDateSettingPage@@EAEPAXVTUid@@@Z @ 1140 NONAME ; void * CAknDateSettingPage::ExtensionInterface(class TUid)
	?ExtensionInterface@CAknDialog@@EAEPAXVTUid@@@Z @ 1141 NONAME ; void * CAknDialog::ExtensionInterface(class TUid)
	?ExtensionInterface@CAknDurationQueryDialog@@EAEPAXVTUid@@@Z @ 1142 NONAME ; void * CAknDurationQueryDialog::ExtensionInterface(class TUid)
	?ExtensionInterface@CAknDurationSettingPage@@EAEPAXVTUid@@@Z @ 1143 NONAME ; void * CAknDurationSettingPage::ExtensionInterface(class TUid)
	?ExtensionInterface@CAknEdwinSettingPage@@EAEPAXVTUid@@@Z @ 1144 NONAME ; void * CAknEdwinSettingPage::ExtensionInterface(class TUid)
	?ExtensionInterface@CAknErrorNote@@EAEPAXVTUid@@@Z @ 1145 NONAME ; void * CAknErrorNote::ExtensionInterface(class TUid)
	?ExtensionInterface@CAknExtMultilineQueryControl@@EAEPAXVTUid@@@Z @ 1146 NONAME ; void * CAknExtMultilineQueryControl::ExtensionInterface(class TUid)
	?ExtensionInterface@CAknExtQueryControl@@EAEPAXVTUid@@@Z @ 1147 NONAME ; void * CAknExtQueryControl::ExtensionInterface(class TUid)
	?ExtensionInterface@CAknFloatingPointQueryDialog@@EAEPAXVTUid@@@Z @ 1148 NONAME ; void * CAknFloatingPointQueryDialog::ExtensionInterface(class TUid)
	?ExtensionInterface@CAknForm@@EAEPAXVTUid@@@Z @ 1149 NONAME ; void * CAknForm::ExtensionInterface(class TUid)
	?ExtensionInterface@CAknGMSPopupGrid@@EAEPAXVTUid@@@Z @ 1150 NONAME ; void * CAknGMSPopupGrid::ExtensionInterface(class TUid)
	?ExtensionInterface@CAknGMSStyleGrid@@EAEPAXVTUid@@@Z @ 1151 NONAME ; void * CAknGMSStyleGrid::ExtensionInterface(class TUid)
	?ExtensionInterface@CAknGrid@@EAEPAXVTUid@@@Z @ 1152 NONAME ; void * CAknGrid::ExtensionInterface(class TUid)
	?ExtensionInterface@CAknIndicatorContainer@@EAEPAXVTUid@@@Z @ 1153 NONAME ; void * CAknIndicatorContainer::ExtensionInterface(class TUid)
	?ExtensionInterface@CAknInformationNote@@EAEPAXVTUid@@@Z @ 1154 NONAME ; void * CAknInformationNote::ExtensionInterface(class TUid)
	?ExtensionInterface@CAknIntegerEdwin@@EAEPAXVTUid@@@Z @ 1155 NONAME ; void * CAknIntegerEdwin::ExtensionInterface(class TUid)
	?ExtensionInterface@CAknIntegerSettingPage@@EAEPAXVTUid@@@Z @ 1156 NONAME ; void * CAknIntegerSettingPage::ExtensionInterface(class TUid)
	?ExtensionInterface@CAknIpFieldSettingPage@@EAEPAXVTUid@@@Z @ 1157 NONAME ; void * CAknIpFieldSettingPage::ExtensionInterface(class TUid)
	?ExtensionInterface@CAknListQueryControl@@EAEPAXVTUid@@@Z @ 1158 NONAME ; void * CAknListQueryControl::ExtensionInterface(class TUid)
	?ExtensionInterface@CAknListQueryDialog@@EAEPAXVTUid@@@Z @ 1159 NONAME ; void * CAknListQueryDialog::ExtensionInterface(class TUid)
	?ExtensionInterface@CAknMarkableListDialog@@EAEPAXVTUid@@@Z @ 1160 NONAME ; void * CAknMarkableListDialog::ExtensionInterface(class TUid)
	?ExtensionInterface@CAknMessageQueryDialog@@EAEPAXVTUid@@@Z @ 1161 NONAME ; void * CAknMessageQueryDialog::ExtensionInterface(class TUid)
	?ExtensionInterface@CAknMfneSettingPage@@EAEPAXVTUid@@@Z @ 1162 NONAME ; void * CAknMfneSettingPage::ExtensionInterface(class TUid)
	?ExtensionInterface@CAknMultiLineDataQueryDialog@@EAEPAXVTUid@@@Z @ 1163 NONAME ; void * CAknMultiLineDataQueryDialog::ExtensionInterface(class TUid)
	?ExtensionInterface@CAknMultilineQueryControl@@EAEPAXVTUid@@@Z @ 1164 NONAME ; void * CAknMultilineQueryControl::ExtensionInterface(class TUid)
	?ExtensionInterface@CAknNaviLabel@@EAEPAXVTUid@@@Z @ 1165 NONAME ; void * CAknNaviLabel::ExtensionInterface(class TUid)
	?ExtensionInterface@CAknNavigationControlContainer@@EAEPAXVTUid@@@Z @ 1166 NONAME ; void * CAknNavigationControlContainer::ExtensionInterface(class TUid)
	?ExtensionInterface@CAknNavigationDecorator@@EAEPAXVTUid@@@Z @ 1167 NONAME ; void * CAknNavigationDecorator::ExtensionInterface(class TUid)
	?ExtensionInterface@CAknNoteControl@@EAEPAXVTUid@@@Z @ 1168 NONAME ; void * CAknNoteControl::ExtensionInterface(class TUid)
	?ExtensionInterface@CAknNoteDialog@@EAEPAXVTUid@@@Z @ 1169 NONAME ; void * CAknNoteDialog::ExtensionInterface(class TUid)
	?ExtensionInterface@CAknNoteWrapper@@EAEPAXVTUid@@@Z @ 1170 NONAME ; void * CAknNoteWrapper::ExtensionInterface(class TUid)
	?ExtensionInterface@CAknNumberQueryDialog@@EAEPAXVTUid@@@Z @ 1171 NONAME ; void * CAknNumberQueryDialog::ExtensionInterface(class TUid)
	?ExtensionInterface@CAknNumericPasswordSettingPage@@EAEPAXVTUid@@@Z @ 1172 NONAME ; void * CAknNumericPasswordSettingPage::ExtensionInterface(class TUid)
	?ExtensionInterface@CAknNumericSecretEditor@@EAEPAXVTUid@@@Z @ 1173 NONAME ; void * CAknNumericSecretEditor::ExtensionInterface(class TUid)
	?ExtensionInterface@CAknPasswordSettingPage@@EAEPAXVTUid@@@Z @ 1174 NONAME ; void * CAknPasswordSettingPage::ExtensionInterface(class TUid)
	?ExtensionInterface@CAknPopupField@@EAEPAXVTUid@@@Z @ 1175 NONAME ; void * CAknPopupField::ExtensionInterface(class TUid)
	?ExtensionInterface@CAknPopupFieldList@@EAEPAXVTUid@@@Z @ 1176 NONAME ; void * CAknPopupFieldList::ExtensionInterface(class TUid)
	?ExtensionInterface@CAknPopupFieldText@@EAEPAXVTUid@@@Z @ 1177 NONAME ; void * CAknPopupFieldText::ExtensionInterface(class TUid)
	?ExtensionInterface@CAknPopupHeadingPane@@EAEPAXVTUid@@@Z @ 1178 NONAME ; void * CAknPopupHeadingPane::ExtensionInterface(class TUid)
	?ExtensionInterface@CAknPopupList@@EAEPAXVTUid@@@Z @ 1179 NONAME ; void * CAknPopupList::ExtensionInterface(class TUid)
	?ExtensionInterface@CAknPopupSettingList@@EAEPAXVTUid@@@Z @ 1180 NONAME ; void * CAknPopupSettingList::ExtensionInterface(class TUid)
	?ExtensionInterface@CAknPopupSettingPage@@EAEPAXVTUid@@@Z @ 1181 NONAME ; void * CAknPopupSettingPage::ExtensionInterface(class TUid)
	?ExtensionInterface@CAknProgressDialog@@EAEPAXVTUid@@@Z @ 1182 NONAME ; void * CAknProgressDialog::ExtensionInterface(class TUid)
	?ExtensionInterface@CAknQueryControl@@EAEPAXVTUid@@@Z @ 1183 NONAME ; void * CAknQueryControl::ExtensionInterface(class TUid)
	?ExtensionInterface@CAknQueryDialog@@EAEPAXVTUid@@@Z @ 1184 NONAME ; void * CAknQueryDialog::ExtensionInterface(class TUid)
	?ExtensionInterface@CAknRadioButtonSettingPage@@EAEPAXVTUid@@@Z @ 1185 NONAME ; void * CAknRadioButtonSettingPage::ExtensionInterface(class TUid)
	?ExtensionInterface@CAknResourceNoteDialog@@EAEPAXVTUid@@@Z @ 1186 NONAME ; void * CAknResourceNoteDialog::ExtensionInterface(class TUid)
	?ExtensionInterface@CAknSelectionListDialog@@EAEPAXVTUid@@@Z @ 1187 NONAME ; void * CAknSelectionListDialog::ExtensionInterface(class TUid)
	?ExtensionInterface@CAknSettingItemList@@EAEPAXVTUid@@@Z @ 1188 NONAME ; void * CAknSettingItemList::ExtensionInterface(class TUid)
	?ExtensionInterface@CAknSettingPage@@EAEPAXVTUid@@@Z @ 1189 NONAME ; void * CAknSettingPage::ExtensionInterface(class TUid)
	?ExtensionInterface@CAknSignalPane@@AAEPAXVTUid@@@Z @ 1190 NONAME ; void * CAknSignalPane::ExtensionInterface(class TUid)
	?ExtensionInterface@CAknSlider@@EAEPAXVTUid@@@Z @ 1191 NONAME ; void * CAknSlider::ExtensionInterface(class TUid)
	?ExtensionInterface@CAknSliderSettingPage@@EAEPAXVTUid@@@Z @ 1192 NONAME ; void * CAknSliderSettingPage::ExtensionInterface(class TUid)
	?ExtensionInterface@CAknStaticNoteDialog@@EAEPAXVTUid@@@Z @ 1193 NONAME ; void * CAknStaticNoteDialog::ExtensionInterface(class TUid)
	?ExtensionInterface@CAknStaticNoteStackIndicator@@EAEPAXVTUid@@@Z @ 1194 NONAME ; void * CAknStaticNoteStackIndicator::ExtensionInterface(class TUid)
	?ExtensionInterface@CAknTab@@EAEPAXVTUid@@@Z @ 1195 NONAME ; void * CAknTab::ExtensionInterface(class TUid)
	?ExtensionInterface@CAknTabGroup@@EAEPAXVTUid@@@Z @ 1196 NONAME ; void * CAknTabGroup::ExtensionInterface(class TUid)
	?ExtensionInterface@CAknTextQueryDialog@@EAEPAXVTUid@@@Z @ 1197 NONAME ; void * CAknTextQueryDialog::ExtensionInterface(class TUid)
	?ExtensionInterface@CAknTextSettingPage@@EAEPAXVTUid@@@Z @ 1198 NONAME ; void * CAknTextSettingPage::ExtensionInterface(class TUid)
	?ExtensionInterface@CAknTimeOffsetSettingPage@@EAEPAXVTUid@@@Z @ 1199 NONAME ; void * CAknTimeOffsetSettingPage::ExtensionInterface(class TUid)
	?ExtensionInterface@CAknTimeQueryDialog@@EAEPAXVTUid@@@Z @ 1200 NONAME ; void * CAknTimeQueryDialog::ExtensionInterface(class TUid)
	?ExtensionInterface@CAknTimeSettingPage@@EAEPAXVTUid@@@Z @ 1201 NONAME ; void * CAknTimeSettingPage::ExtensionInterface(class TUid)
	?ExtensionInterface@CAknTitlePane@@EAEPAXVTUid@@@Z @ 1202 NONAME ; void * CAknTitlePane::ExtensionInterface(class TUid)
	?ExtensionInterface@CAknVolumeControl@@EAEPAXVTUid@@@Z @ 1203 NONAME ; void * CAknVolumeControl::ExtensionInterface(class TUid)
	?ExtensionInterface@CAknVolumeSettingPage@@EAEPAXVTUid@@@Z @ 1204 NONAME ; void * CAknVolumeSettingPage::ExtensionInterface(class TUid)
	?ExtensionInterface@CAknWaitDialog@@EAEPAXVTUid@@@Z @ 1205 NONAME ; void * CAknWaitDialog::ExtensionInterface(class TUid)
	?ExtensionInterface@CAknWarningNote@@EAEPAXVTUid@@@Z @ 1206 NONAME ; void * CAknWarningNote::ExtensionInterface(class TUid)
	?ExtensionInterface@CEikSettingsListBox@@EAEPAXVTUid@@@Z @ 1207 NONAME ; void * CEikSettingsListBox::ExtensionInterface(class TUid)
	?ExternalText@CAknTextSettingItem@@IAE?AVTPtrC16@@XZ @ 1208 NONAME ; class TPtrC16 CAknTextSettingItem::ExternalText(void)
	?ExternalValue@CAknEnumeratedTextPopupSettingItem@@IBEHXZ @ 1209 NONAME ; int CAknEnumeratedTextPopupSettingItem::ExternalValue(void) const
	?ExternalValueRef@CAknIntegerSettingItem@@IAEAAHXZ @ 1210 NONAME ; int & CAknIntegerSettingItem::ExternalValueRef(void)
	?ExternalizeL@CAknSoundInfo@@QBEXAAVRWriteStream@@@Z @ 1211 NONAME ; void CAknSoundInfo::ExternalizeL(class RWriteStream &) const
	?FadeBehindPopup@TAknPopupFader@@QAEXPAVMAknFadedComponent@@PAVCCoeControl@@H@Z @ 1212 NONAME ; void TAknPopupFader::FadeBehindPopup(class MAknFadedComponent *, class CCoeControl *, int)
	?FadedComponent@CAknPopupList@@EAEPAVCCoeControl@@H@Z @ 1213 NONAME ; class CCoeControl * CAknPopupList::FadedComponent(int)
	?FadedComponent@MAknFadedComponent@@UAEPAVCCoeControl@@H@Z @ 1214 NONAME ; class CCoeControl * MAknFadedComponent::FadedComponent(int)
	?FepMenuObserver@CAknEnv@@QAEPAVMEikMenuObserver@@XZ @ 1215 NONAME ; class MEikMenuObserver * CAknEnv::FepMenuObserver(void)
	?Field@CAknInputFrame@@QBEPAVCCoeControl@@XZ @ 1216 NONAME ; class CCoeControl * CAknInputFrame::Field(void) const
	?Filter@CAknFilteredTextListBoxModel@@QBEPAVCAknListBoxFilterItems@@XZ @ 1217 NONAME ; class CAknListBoxFilterItems * CAknFilteredTextListBoxModel::Filter(void) const
	?FilteredItemIndex@CAknListBoxFilterItems@@QBEHH@Z @ 1218 NONAME ; int CAknListBoxFilterItems::FilteredItemIndex(int) const
	?FilteredNumberOfItems@CAknListBoxFilterItems@@QBEHXZ @ 1219 NONAME ; int CAknListBoxFilterItems::FilteredNumberOfItems(void) const
	?FindBox@CAknListBoxFilterItems@@QBEPAVCCoeControl@@XZ @ 1220 NONAME ; class CCoeControl * CAknListBoxFilterItems::FindBox(void) const
	?FindBox@CAknListQueryDialog@@IBEPAVCAknSearchField@@XZ @ 1221 NONAME ; class CAknSearchField * CAknListQueryDialog::FindBox(void) const
	?FindBox@CAknPopupList@@QBEPAVCAknSearchField@@XZ @ 1222 NONAME ; class CAknSearchField * CAknPopupList::FindBox(void) const
	?FindBox@CAknSelectionListDialog@@IBEPAVCAknSearchField@@XZ @ 1223 NONAME ; class CAknSearchField * CAknSelectionListDialog::FindBox(void) const
	?FindNextItem@CAknGridView@@AAEHHHHHH@Z @ 1224 NONAME ; int CAknGridView::FindNextItem(int, int, int, int, int)
	?FirstControl@CAknMultiLineDataQueryDialog@@IBEPAVCAknMultilineQueryControl@@XZ @ 1225 NONAME ; class CAknMultilineQueryControl * CAknMultiLineDataQueryDialog::FirstControl(void) const
	?FirstControl@CAknMultiLineIpQueryDialog@@IBEPAVCAknExtMultilineQueryControl@@XZ @ 1226 NONAME ; class CAknExtMultilineQueryControl * CAknMultiLineIpQueryDialog::FirstControl(void) const
	?Flags@CAknPopupForm@@QAEAAV?$TBitFlagsT@K@@XZ @ 1227 NONAME ; class TBitFlagsT<unsigned long> & CAknPopupForm::Flags(void)
	?FocusChanged@CAknDialog@@UAEXW4TDrawNow@@@Z @ 1228 NONAME ; void CAknDialog::FocusChanged(enum TDrawNow)
	?FocusChanged@CAknGrid@@UAEXW4TDrawNow@@@Z @ 1229 NONAME ; void CAknGrid::FocusChanged(enum TDrawNow)
	?FocusChanged@CAknListQueryControl@@UAEXW4TDrawNow@@@Z @ 1230 NONAME ; void CAknListQueryControl::FocusChanged(enum TDrawNow)
	?FocusChanged@CAknPhoneNumberEditor@@UAEXW4TDrawNow@@@Z @ 1231 NONAME ; void CAknPhoneNumberEditor::FocusChanged(enum TDrawNow)
	?FocusChanged@CAknPopupList@@EAEXW4TDrawNow@@@Z @ 1232 NONAME ; void CAknPopupList::FocusChanged(enum TDrawNow)
	?FocusChanged@CAknSettingItemList@@UAEXW4TDrawNow@@@Z @ 1233 NONAME ; void CAknSettingItemList::FocusChanged(enum TDrawNow)
	?FocusChanged@CAknSettingPage@@MAEXW4TDrawNow@@@Z @ 1234 NONAME ; void CAknSettingPage::FocusChanged(enum TDrawNow)
	?FocusChanged@CAknTabGroup@@MAEXW4TDrawNow@@@Z @ 1235 NONAME ; void CAknTabGroup::FocusChanged(enum TDrawNow)
	?FocusChanged@CEikFormattedCellListBox@@UAEXW4TDrawNow@@@Z @ 1236 NONAME ; void CEikFormattedCellListBox::FocusChanged(enum TDrawNow)
	?Font@CFormattedCellListBoxData@@QBEPAVCFont@@ABVTListItemProperties@@H@Z @ 1237 NONAME ; class CFont * CFormattedCellListBoxData::Font(class TListItemProperties const &, int) const
	?FontCategory@CAknLayoutFont@@QBE?AW4TAknFontCategory@@XZ @ 1238 NONAME ; enum TAknFontCategory CAknLayoutFont::FontCategory(void) const
	?FontFromId@AknLayoutUtils@@SAPBVCFont@@HPBV2@@Z @ 1239 NONAME ; class CFont const * AknLayoutUtils::FontFromId(int, class CFont const *)
	?FontFromName@AknLayoutUtils@@SAPBVCFont@@ABVTDesC16@@@Z @ 1240 NONAME ; class CFont const * AknLayoutUtils::FontFromName(class TDesC16 const &)
	?FontId@CAknFontIdLayoutFont@@QBEHXZ @ 1241 NONAME ; int CAknFontIdLayoutFont::FontId(void) const
	?Format@CAknPhoneNumberEditor@@QBEAAVTFormat@1@H@Z @ 1242 NONAME ; class CAknPhoneNumberEditor::TFormat & CAknPhoneNumberEditor::Format(int) const
	?FormatDuration@CAknQueryValueDurationArray@@QBEXAAVTPtr16@@VTTimeIntervalSeconds@@@Z @ 1243 NONAME ; void CAknQueryValueDurationArray::FormatDuration(class TPtr16 &, class TTimeIntervalSeconds) const
	?FormatString@CAknQueryValueDateArray@@QBEPBVHBufC16@@XZ @ 1244 NONAME ; class HBufC16 const * CAknQueryValueDateArray::FormatString(void) const
	?FormatString@CAknQueryValueDurationArray@@QBEPBVHBufC16@@XZ @ 1245 NONAME ; class HBufC16 const * CAknQueryValueDurationArray::FormatString(void) const
	?FormatString@CAknQueryValueNumberArray@@QBEPBVHBufC16@@XZ @ 1246 NONAME ; class HBufC16 const * CAknQueryValueNumberArray::FormatString(void) const
	?FormatString@CAknQueryValueTimeArray@@QBEPBVHBufC16@@XZ @ 1247 NONAME ; class HBufC16 const * CAknQueryValueTimeArray::FormatString(void) const
	?FormattedCellData@CFormattedCellListBoxItemDrawer@@QBEPAVCFormattedCellListBoxData@@XZ @ 1248 NONAME ; class CFormattedCellListBoxData * CFormattedCellListBoxItemDrawer::FormattedCellData(void) const
	?FormattedNumber@CAknPhoneNumberGrouping@@QBEABVTDesC16@@XZ @ 1249 NONAME ; class TDesC16 const & CAknPhoneNumberGrouping::FormattedNumber(void) const
	?FormattedStringSize@CAknQueryValueDateArray@@QBE?BHXZ @ 1250 NONAME ; int const CAknQueryValueDateArray::FormattedStringSize(void) const
	?FormattedStringSize@CAknQueryValueDurationArray@@QBE?BHXZ @ 1251 NONAME ; int const CAknQueryValueDurationArray::FormattedStringSize(void) const
	?FormattedStringSize@CAknQueryValueNumberArray@@QBE?BHXZ @ 1252 NONAME ; int const CAknQueryValueNumberArray::FormattedStringSize(void) const
	?FormattedStringSize@CAknQueryValuePhoneArray@@QBE?BHXZ @ 1253 NONAME ; int const CAknQueryValuePhoneArray::FormattedStringSize(void) const
	?FormattedStringSize@CAknQueryValueTextArray@@QBE?BHXZ @ 1254 NONAME ; int const CAknQueryValueTextArray::FormattedStringSize(void) const
	?FormattedStringSize@CAknQueryValueTimeArray@@QBE?BHXZ @ 1255 NONAME ; int const CAknQueryValueTimeArray::FormattedStringSize(void) const
	?GetColorUseListL@CAknTabGroup@@UBEXAAV?$CArrayFix@VTCoeColorUse@@@@@Z @ 1256 NONAME ; void CAknTabGroup::GetColorUseListL(class CArrayFix<class TCoeColorUse> &) const
	?GetColorUseListL@CEikFormattedCellListBox@@UBEXAAV?$CArrayFix@VTCoeColorUse@@@@@Z @ 1257 NONAME ; void CEikFormattedCellListBox::GetColorUseListL(class CArrayFix<class TCoeColorUse> &) const
	?GetControlByControlType@CAknPopupForm@@QBEPAVCEikCaptionedControl@@H@Z @ 1258 NONAME ; class CEikCaptionedControl * CAknPopupForm::GetControlByControlType(int) const
	?GetControlByControlTypeL@CAknPopupForm@@QBEPAVCEikCaptionedControl@@W4TPopupFormControlType@@@Z @ 1259 NONAME ; class CEikCaptionedControl * CAknPopupForm::GetControlByControlTypeL(enum TPopupFormControlType) const
	?GetCurrentLayoutId@CAknEnv@@QBEXAAW4TAknLayoutId@@@Z @ 1260 NONAME ; void CAknEnv::GetCurrentLayoutId(enum TAknLayoutId &) const
	?GetDuration@CAknQueryControl@@QBE?AVTTimeIntervalSeconds@@XZ @ 1261 NONAME ; class TTimeIntervalSeconds CAknQueryControl::GetDuration(void) const
	?GetEditorMode@CAknPhoneNumberEditor@@QBEHXZ @ 1262 NONAME ; int CAknPhoneNumberEditor::GetEditorMode(void) const
	?GetEditorResourceInfoL@CAknSettingPage@@SAXHAAH0@Z @ 1263 NONAME ; void CAknSettingPage::GetEditorResourceInfoL(int, int &, int &)
	?GetFixedPointNumber@CAknExtQueryControl@@QBEHXZ @ 1264 NONAME ; int CAknExtQueryControl::GetFixedPointNumber(void) const
	?GetFloatingPointNumberL@CAknQueryControl@@QBENXZ @ 1265 NONAME ; double CAknQueryControl::GetFloatingPointNumberL(void) const
	?GetInetAddress@CAknExtQueryControl@@QBE?AVTInetAddr@@XZ @ 1266 NONAME ; class TInetAddr CAknExtQueryControl::GetInetAddress(void) const
	?GetLeftAndRightMargins@TAknTextDecorationMetrics@@QBEXAAH0@Z @ 1267 NONAME ; void TAknTextDecorationMetrics::GetLeftAndRightMargins(int &, int &) const
	?GetMaxTextLength@@YAHPBVCAknQueryControl@@ABVTDes16@@H@Z @ 1268 NONAME ; int GetMaxTextLength(class CAknQueryControl const *, class TDes16 const &, int)
	?GetNumber@CAknQueryControl@@QBEHXZ @ 1269 NONAME ; int CAknQueryControl::GetNumber(void) const
	?GetPhoneIdleViewId@AknDef@@YAHAAVTVwsViewId@@@Z @ 1270 NONAME ; int AknDef::GetPhoneIdleViewId(class TVwsViewId &)
	?GetProgressInfo@CAknNoteControl@@QAEPAVCEikProgressInfo@@XZ @ 1271 NONAME ; class CEikProgressInfo * CAknNoteControl::GetProgressInfo(void)
	?GetProgressInfo@CAknWaitDialog@@QAEPAVCEikProgressInfo@@XZ @ 1272 NONAME ; class CEikProgressInfo * CAknWaitDialog::GetProgressInfo(void)
	?GetProgressInfoL@CAknProgressDialog@@QAEPAVCEikProgressInfo@@XZ @ 1273 NONAME ; class CEikProgressInfo * CAknProgressDialog::GetProgressInfoL(void)
	?GetRecogniseFormat@CAknItemFinder@@UAEXAAVTCharFormat@@@Z @ 1274 ABSENT
	?GetRolloverFormat@CAknItemFinder@@UAEXAAVTCharFormat@@@Z @ 1275 ABSENT
	?GetSearchText@CAknSearchField@@QBEXAAVTDes16@@@Z @ 1276 NONAME ; void CAknSearchField::GetSearchText(class TDes16 &) const
	?GetSkinnedBitmapID@CAknNoteAttributes@@SA?AVTAknsItemID@@H@Z @ 1277 NONAME ; class TAknsItemID CAknNoteAttributes::GetSkinnedBitmapID(int)
	?GetText@CAknPhoneNumberEditor@@QBEXAAVTDes16@@@Z @ 1278 NONAME ; void CAknPhoneNumberEditor::GetText(class TDes16 &) const
	?GetText@CAknQueryControl@@QBEXAAVTDes16@@@Z @ 1279 NONAME ; void CAknQueryControl::GetText(class TDes16 &) const
	?GetTextAsInteger@CAknIntegerEdwin@@QAE?AW4TValidationStatus@CAknNumericEdwin@@AAH@Z @ 1280 NONAME ; enum CAknNumericEdwin::TValidationStatus CAknIntegerEdwin::GetTextAsInteger(int &)
	?GetTextEntryLength@CAknQueryControl@@QBEHXZ @ 1281 NONAME ; int CAknQueryControl::GetTextEntryLength(void) const
	?GetTextInHBufL@CAknPhoneNumberEditor@@QBEPAVHBufC16@@XZ @ 1282 NONAME ; class HBufC16 * CAknPhoneNumberEditor::GetTextInHBufL(void) const
	?GetTextLength@CAknQueryControl@@QBEHXZ @ 1283 NONAME ; int CAknQueryControl::GetTextLength(void) const
	?GetTime@CAknQueryControl@@QBE?AVTTime@@XZ @ 1284 NONAME ; class TTime CAknQueryControl::GetTime(void) const
	?GetTopAndBottomMargins@TAknTextDecorationMetrics@@QBEXAAH0@Z @ 1285 NONAME ; void TAknTextDecorationMetrics::GetTopAndBottomMargins(int &, int &) const
	?GfxItem@CAknGenericReader@@QBEPBUSAknLayoutGfx@@H@Z @ 1286 NONAME ; struct SAknLayoutGfx const * CAknGenericReader::GfxItem(int) const
	?GridCellDimensions@CAknGridView@@QBE?AVTSize@@XZ @ 1287 NONAME ; class TSize CAknGridView::GridCellDimensions(void) const
	?GroupPhoneNumber@CAknPhoneNumberGrouping@@SAHAAVTDes16@@@Z @ 1288 NONAME ; int CAknPhoneNumberGrouping::GroupPhoneNumber(class TDes16 &)
	?GroupPhoneNumber@CAknPhoneNumberGrouping@@SAHABVTDesC16@@AAVTDes16@@@Z @ 1289 NONAME ; int CAknPhoneNumberGrouping::GroupPhoneNumber(class TDesC16 const &, class TDes16 &)
	?GulAlignFromId@AknLayoutUtils@@SA?AVTGulAlignment@@H@Z @ 1290 NONAME ; class TGulAlignment AknLayoutUtils::GulAlignFromId(int)
	?HandleAllClientsClosed@CAknAppServer@@UAEXXZ @ 1291 NONAME ; void CAknAppServer::HandleAllClientsClosed(void)
	?HandleApplicationSpecificEventL@CAknAppUiBase@@MAEXHABVTWsEvent@@@Z @ 1292 NONAME ; void CAknAppUiBase::HandleApplicationSpecificEventL(int, class TWsEvent const &)
	?HandleChangeInItemArrayOrVisibilityL@CAknSettingItemList@@QAEXXZ @ 1293 NONAME ; void CAknSettingItemList::HandleChangeInItemArrayOrVisibilityL(void)
	?HandleChangeL@CAknSgcClient@@SAXXZ @ 1294 NONAME ; void CAknSgcClient::HandleChangeL(void)
	?HandleCommandL@CAknView@@UAEXH@Z @ 1295 NONAME ; void CAknView::HandleCommandL(int)
	?HandleControlEventL@CAknCharMapDialog@@UAEXPAVCCoeControl@@W4TCoeEvent@MCoeControlObserver@@@Z @ 1296 NONAME ; void CAknCharMapDialog::HandleControlEventL(class CCoeControl *, enum MCoeControlObserver::TCoeEvent)
	?HandleControlEventL@CAknExtQueryControl@@UAEXPAVCCoeControl@@W4TCoeEvent@MCoeControlObserver@@@Z @ 1297 NONAME ; void CAknExtQueryControl::HandleControlEventL(class CCoeControl *, enum MCoeControlObserver::TCoeEvent)
	?HandleControlEventL@CAknInputFrame@@UAEXPAVCCoeControl@@W4TCoeEvent@MCoeControlObserver@@@Z @ 1298 NONAME ; void CAknInputFrame::HandleControlEventL(class CCoeControl *, enum MCoeControlObserver::TCoeEvent)
	?HandleControlEventL@CAknIntegerSettingPage@@MAEXPAVCCoeControl@@W4TCoeEvent@MCoeControlObserver@@@Z @ 1299 NONAME ; void CAknIntegerSettingPage::HandleControlEventL(class CCoeControl *, enum MCoeControlObserver::TCoeEvent)
	?HandleControlEventL@CAknListBoxFilterItems@@UAEXPAVCCoeControl@@W4TCoeEvent@MCoeControlObserver@@@Z @ 1300 NONAME ; void CAknListBoxFilterItems::HandleControlEventL(class CCoeControl *, enum MCoeControlObserver::TCoeEvent)
	?HandleControlEventL@CAknMfneSettingPage@@MAEXPAVCCoeControl@@W4TCoeEvent@MCoeControlObserver@@@Z @ 1301 NONAME ; void CAknMfneSettingPage::HandleControlEventL(class CCoeControl *, enum MCoeControlObserver::TCoeEvent)
	?HandleControlEventL@CAknNavigationControlContainer@@MAEXPAVCCoeControl@@W4TCoeEvent@MCoeControlObserver@@@Z @ 1302 NONAME ; void CAknNavigationControlContainer::HandleControlEventL(class CCoeControl *, enum MCoeControlObserver::TCoeEvent)
	?HandleControlEventL@CAknNavigationDecorator@@MAEXPAVCCoeControl@@W4TCoeEvent@MCoeControlObserver@@@Z @ 1303 NONAME ; void CAknNavigationDecorator::HandleControlEventL(class CCoeControl *, enum MCoeControlObserver::TCoeEvent)
	?HandleControlEventL@CAknPasswordSettingPage@@MAEXPAVCCoeControl@@W4TCoeEvent@MCoeControlObserver@@@Z @ 1304 NONAME ; void CAknPasswordSettingPage::HandleControlEventL(class CCoeControl *, enum MCoeControlObserver::TCoeEvent)
	?HandleControlEventL@CAknPopupField@@MAEXPAVCCoeControl@@W4TCoeEvent@MCoeControlObserver@@@Z @ 1305 NONAME ; void CAknPopupField::HandleControlEventL(class CCoeControl *, enum MCoeControlObserver::TCoeEvent)
	?HandleControlEventL@CAknPopupFieldList@@MAEXPAVCCoeControl@@W4TCoeEvent@MCoeControlObserver@@@Z @ 1306 NONAME ; void CAknPopupFieldList::HandleControlEventL(class CCoeControl *, enum MCoeControlObserver::TCoeEvent)
	?HandleControlEventL@CAknPopupList@@MAEXPAVCCoeControl@@W4TCoeEvent@MCoeControlObserver@@@Z @ 1307 NONAME ; void CAknPopupList::HandleControlEventL(class CCoeControl *, enum MCoeControlObserver::TCoeEvent)
	?HandleControlEventL@CAknQueryControl@@UAEXPAVCCoeControl@@W4TCoeEvent@MCoeControlObserver@@@Z @ 1308 NONAME ; void CAknQueryControl::HandleControlEventL(class CCoeControl *, enum MCoeControlObserver::TCoeEvent)
	?HandleControlEventL@CAknSettingPage@@MAEXPAVCCoeControl@@W4TCoeEvent@MCoeControlObserver@@@Z @ 1309 NONAME ; void CAknSettingPage::HandleControlEventL(class CCoeControl *, enum MCoeControlObserver::TCoeEvent)
	?HandleControlEventL@CAknTabGroup@@UAEXPAVCCoeControl@@W4TCoeEvent@MCoeControlObserver@@@Z @ 1310 NONAME ; void CAknTabGroup::HandleControlEventL(class CCoeControl *, enum MCoeControlObserver::TCoeEvent)
	?HandleControlEventL@CAknTextSettingPage@@MAEXPAVCCoeControl@@W4TCoeEvent@MCoeControlObserver@@@Z @ 1311 NONAME ; void CAknTextSettingPage::HandleControlEventL(class CCoeControl *, enum MCoeControlObserver::TCoeEvent)
	?HandleControlStateChangeL@CAknForm@@MAEXH@Z @ 1312 NONAME ; void CAknForm::HandleControlStateChangeL(int)
	?HandleDialogPageEventL@CAknCharMapDialog@@UAEXH@Z @ 1313 NONAME ; void CAknCharMapDialog::HandleDialogPageEventL(int)
	?HandleDialogPageEventL@CAknNoteWrapper@@UAEXH@Z @ 1314 NONAME ; void CAknNoteWrapper::HandleDialogPageEventL(int)
	?HandleDragEventL@CAknGrid@@MAEXVTPoint@@@Z @ 1315 NONAME ; void CAknGrid::HandleDragEventL(class TPoint)
	?HandleDraw@AknPopupLayouts@@SAXPAVCEikonEnv@@AAVCWindowGc@@ABUTAknPopupWindowLayoutDef@@PAVCEikListBox@@PAVCAknPopupHeadingPane@@@Z @ 1316 NONAME ; void AknPopupLayouts::HandleDraw(class CEikonEnv *, class CWindowGc &, struct TAknPopupWindowLayoutDef const &, class CEikListBox *, class CAknPopupHeadingPane *)
	?HandleEcsEvent@TAknQueryEcsObserver@@UAEXPAVCAknEcsDetector@@W4TState@2@@Z @ 1317 NONAME ; void TAknQueryEcsObserver::HandleEcsEvent(class CAknEcsDetector *, enum CAknEcsDetector::TState)
	?HandleEdwinEventL@CAknQueryControl@@UAEXPAVCEikEdwin@@W4TEdwinEvent@MEikEdwinObserver@@@Z @ 1318 NONAME ; void CAknQueryControl::HandleEdwinEventL(class CEikEdwin *, enum MEikEdwinObserver::TEdwinEvent)
	?HandleEdwinSizeEventL@CAknQueryControl@@UAEHPAVCEikEdwin@@W4TEdwinSizeEvent@MEikEdwinSizeObserver@@VTSize@@@Z @ 1319 NONAME ; int CAknQueryControl::HandleEdwinSizeEventL(class CEikEdwin *, enum MEikEdwinSizeObserver::TEdwinSizeEvent, class TSize)
	?HandleError@CAknAppUi@@UAE?AW4TErrorHandlerResponse@@HABUSExtendedError@@AAVTDes16@@1@Z @ 1320 NONAME ; enum TErrorHandlerResponse CAknAppUi::HandleError(int, struct SExtendedError const &, class TDes16 &, class TDes16 &)
	?HandleErrorL@CAknAppUi@@IAEXHPAPAVHBufC16@@H@Z @ 1321 NONAME ; void CAknAppUi::HandleErrorL(int, class HBufC16 * *, int)
	?HandleFindOfferKeyEventL@AknFind@@SA?AW4TKeyResponse@@ABUTKeyEvent@@W4TEventCode@@PAVCCoeControl@@PAVCEikListBox@@PAVCAknSearchField@@HAAH@Z @ 1322 NONAME ; enum TKeyResponse AknFind::HandleFindOfferKeyEventL(struct TKeyEvent const &, enum TEventCode, class CCoeControl *, class CEikListBox *, class CAknSearchField *, int, int &)
	?HandleFindPopupProcessCommandL@AknFind@@SAXHPAVCEikListBox@@PAVCAknSearchField@@PAVCCoeControl@@@Z @ 1323 NONAME ; void AknFind::HandleFindPopupProcessCommandL(int, class CEikListBox *, class CAknSearchField *, class CCoeControl *)
	?HandleFindSizeChanged@AknFind@@SAXPAVCCoeControl@@PAVCEikListBox@@PAVCAknSearchField@@HHHHH@Z @ 1324 NONAME ; void AknFind::HandleFindSizeChanged(class CCoeControl *, class CEikListBox *, class CAknSearchField *, int, int, int, int, int)
	?HandleFindSizeChangedLayouts@AknFind@@SAXPAVCCoeControl@@PAVCEikListBox@@PAVCAknSearchField@@ABVTAknWindowLineLayout@@3H3@Z @ 1325 NONAME ; void AknFind::HandleFindSizeChangedLayouts(class CCoeControl *, class CEikListBox *, class CAknSearchField *, class TAknWindowLineLayout const &, class TAknWindowLineLayout const &, int, class TAknWindowLineLayout const &)
	?HandleFixedFindSizeChanged@AknFind@@SAXPAVCCoeControl@@PAVCAknColumnListBox@@PAVCAknSearchField@@@Z @ 1326 NONAME ; void AknFind::HandleFixedFindSizeChanged(class CCoeControl *, class CAknColumnListBox *, class CAknSearchField *)
	?HandleForegroundEventL@CAknAppUi@@MAEXH@Z @ 1327 NONAME ; void CAknAppUi::HandleForegroundEventL(int)
	?HandleForegroundEventL@CAknAppUiBase@@UAEXH@Z @ 1328 NONAME ; void CAknAppUiBase::HandleForegroundEventL(int)
	?HandleForegroundEventL@CAknView@@MAEXH@Z @ 1329 NONAME ; void CAknView::HandleForegroundEventL(int)
	?HandleForegroundEventL@CAknViewAppUi@@MAEXH@Z @ 1330 NONAME ; void CAknViewAppUi::HandleForegroundEventL(int)
	?HandleItemAdditionL@CAknGrid@@QAEXXZ @ 1331 NONAME ; void CAknGrid::HandleItemAdditionL(void)
	?HandleItemArrayChangeL@CAknListBoxFilterItems@@QAEXXZ @ 1332 NONAME ; void CAknListBoxFilterItems::HandleItemArrayChangeL(void)
	?HandleItemRemovalAndPositionHighlightL@AknListBoxUtils@@SAXPAVCEikListBox@@HAAV?$CArrayFix@H@@@Z @ 1333 NONAME ; void AknListBoxUtils::HandleItemRemovalAndPositionHighlightL(class CEikListBox *, int, class CArrayFix<int> &)
	?HandleItemRemovalAndPositionHighlightL@AknListBoxUtils@@SAXPAVCEikListBox@@HH@Z @ 1334 NONAME ; void AknListBoxUtils::HandleItemRemovalAndPositionHighlightL(class CEikListBox *, int, int)
	?HandleItemRemovalAndPositionHighlightL@AknSelectionService@@SAXPAVCEikListBox@@HAAV?$CArrayFix@H@@@Z @ 1335 NONAME ; void AknSelectionService::HandleItemRemovalAndPositionHighlightL(class CEikListBox *, int, class CArrayFix<int> &)
	?HandleItemRemovalAndPositionHighlightL@AknSelectionService@@SAXPAVCEikListBox@@HH@Z @ 1336 NONAME ; void AknSelectionService::HandleItemRemovalAndPositionHighlightL(class CEikListBox *, int, int)
	?HandleItemRemovalL@CAknGrid@@QAEXXZ @ 1337 NONAME ; void CAknGrid::HandleItemRemovalL(void)
	?HandleListBoxEventL@CAknCheckBoxSettingPage@@UAEXPAVCEikListBox@@W4TListBoxEvent@MEikListBoxObserver@@@Z @ 1338 NONAME ; void CAknCheckBoxSettingPage::HandleListBoxEventL(class CEikListBox *, enum MEikListBoxObserver::TListBoxEvent)
	?HandleListBoxEventL@CAknListBoxSettingPage@@UAEXPAVCEikListBox@@W4TListBoxEvent@MEikListBoxObserver@@@Z @ 1339 NONAME ; void CAknListBoxSettingPage::HandleListBoxEventL(class CEikListBox *, enum MEikListBoxObserver::TListBoxEvent)
	?HandleListBoxEventL@CAknListQueryDialog@@UAEXPAVCEikListBox@@W4TListBoxEvent@MEikListBoxObserver@@@Z @ 1340 NONAME ; void CAknListQueryDialog::HandleListBoxEventL(class CEikListBox *, enum MEikListBoxObserver::TListBoxEvent)
	?HandleListBoxEventL@CAknMarkableListDialog@@MAEXPAVCEikListBox@@W4TListBoxEvent@MEikListBoxObserver@@@Z @ 1341 NONAME ; void CAknMarkableListDialog::HandleListBoxEventL(class CEikListBox *, enum MEikListBoxObserver::TListBoxEvent)
	?HandleListBoxEventL@CAknPopupField@@MAEXPAVCEikListBox@@W4TListBoxEvent@MEikListBoxObserver@@@Z @ 1342 NONAME ; void CAknPopupField::HandleListBoxEventL(class CEikListBox *, enum MEikListBoxObserver::TListBoxEvent)
	?HandleListBoxEventL@CAknPopupFieldList@@MAEXPAVCEikListBox@@W4TListBoxEvent@MEikListBoxObserver@@@Z @ 1343 NONAME ; void CAknPopupFieldList::HandleListBoxEventL(class CEikListBox *, enum MEikListBoxObserver::TListBoxEvent)
	?HandleListBoxEventL@CAknPopupList@@MAEXPAVCEikListBox@@W4TListBoxEvent@MEikListBoxObserver@@@Z @ 1344 NONAME ; void CAknPopupList::HandleListBoxEventL(class CEikListBox *, enum MEikListBoxObserver::TListBoxEvent)
	?HandleListBoxEventL@CAknPopupSettingList@@MAEXPAVCEikListBox@@W4TListBoxEvent@MEikListBoxObserver@@@Z @ 1345 NONAME ; void CAknPopupSettingList::HandleListBoxEventL(class CEikListBox *, enum MEikListBoxObserver::TListBoxEvent)
	?HandleListBoxEventL@CAknRadioButtonSettingPage@@UAEXPAVCEikListBox@@W4TListBoxEvent@MEikListBoxObserver@@@Z @ 1346 NONAME ; void CAknRadioButtonSettingPage::HandleListBoxEventL(class CEikListBox *, enum MEikListBoxObserver::TListBoxEvent)
	?HandleListBoxEventL@CAknSelectionListDialog@@MAEXPAVCEikListBox@@W4TListBoxEvent@MEikListBoxObserver@@@Z @ 1347 NONAME ; void CAknSelectionListDialog::HandleListBoxEventL(class CEikListBox *, enum MEikListBoxObserver::TListBoxEvent)
	?HandleListBoxEventL@CAknSettingItemList@@UAEXPAVCEikListBox@@W4TListBoxEvent@MEikListBoxObserver@@@Z @ 1348 NONAME ; void CAknSettingItemList::HandleListBoxEventL(class CEikListBox *, enum MEikListBoxObserver::TListBoxEvent)
	?HandleListBoxEventL@CAknTransparentCameraSettingPage@@UAEXPAVCEikListBox@@W4TListBoxEvent@MEikListBoxObserver@@@Z @ 1349 NONAME ; void CAknTransparentCameraSettingPage::HandleListBoxEventL(class CEikListBox *, enum MEikListBoxObserver::TListBoxEvent)
	?HandleMarkableListDynInitMenuItem@AknSelectionService@@SAXPAVCEikMenuPane@@PAVCEikListBox@@HH@Z @ 1350 NONAME ; void AknSelectionService::HandleMarkableListDynInitMenuItem(class CEikMenuPane *, class CEikListBox *, int, int)
	?HandleMarkableListDynInitMenuPane@AknSelectionService@@SAXHPAVCEikMenuPane@@PAVCEikListBox@@@Z @ 1351 NONAME ; void AknSelectionService::HandleMarkableListDynInitMenuPane(int, class CEikMenuPane *, class CEikListBox *)
	?HandleMarkableListProcessCommandL@AknSelectionService@@SAXHPAVCEikListBox@@@Z @ 1352 NONAME ; void AknSelectionService::HandleMarkableListProcessCommandL(int, class CEikListBox *)
	?HandleMarkableListUpdateAfterCommandExecution@AknSelectionService@@SAXPAVCEikListBox@@@Z @ 1353 NONAME ; void AknSelectionService::HandleMarkableListUpdateAfterCommandExecution(class CEikListBox *)
	?HandleMenuListOfferKeyEventL@AknSelectionService@@SA?AW4TKeyResponse@@ABUTKeyEvent@@W4TEventCode@@PAVCEikListBox@@@Z @ 1354 NONAME ; enum TKeyResponse AknSelectionService::HandleMenuListOfferKeyEventL(struct TKeyEvent const &, enum TEventCode, class CEikListBox *)
	?HandleMultiselectionListProcessCommandL@AknSelectionService@@SAXHPAVCEikListBox@@@Z @ 1355 NONAME ; void AknSelectionService::HandleMultiselectionListProcessCommandL(int, class CEikListBox *)
	?HandleNaviDecoratorEventL@CAknTabGroup@@UAEXH@Z @ 1356 NONAME ; void CAknTabGroup::HandleNaviDecoratorEventL(int)
	?HandleNaviDecoratorEventL@CAknVolumeControl@@UAEXH@Z @ 1357 NONAME ; void CAknVolumeControl::HandleNaviDecoratorEventL(int)
	?HandleOfferkeyEventL@CAknListBoxFilterItems@@QAEXXZ @ 1358 NONAME ; void CAknListBoxFilterItems::HandleOfferkeyEventL(void)
	?HandlePointerEventL@CAknAlphaPasswordSettingPage@@UAEXABUTPointerEvent@@@Z @ 1359 NONAME ; void CAknAlphaPasswordSettingPage::HandlePointerEventL(struct TPointerEvent const &)
	?HandlePointerEventL@CAknCaleMonthStyleGrid@@UAEXABUTPointerEvent@@@Z @ 1360 NONAME ; void CAknCaleMonthStyleGrid::HandlePointerEventL(struct TPointerEvent const &)
	?HandlePointerEventL@CAknCharMap@@UAEXABUTPointerEvent@@@Z @ 1361 NONAME ; void CAknCharMap::HandlePointerEventL(struct TPointerEvent const &)
	?HandlePointerEventL@CAknCheckBoxSettingPage@@UAEXABUTPointerEvent@@@Z @ 1362 NONAME ; void CAknCheckBoxSettingPage::HandlePointerEventL(struct TPointerEvent const &)
	?HandlePointerEventL@CAknColumnListBox@@UAEXABUTPointerEvent@@@Z @ 1363 NONAME ; void CAknColumnListBox::HandlePointerEventL(struct TPointerEvent const &)
	?HandlePointerEventL@CAknConfirmationNote@@UAEXABUTPointerEvent@@@Z @ 1364 NONAME ; void CAknConfirmationNote::HandlePointerEventL(struct TPointerEvent const &)
	?HandlePointerEventL@CAknContextPane@@UAEXABUTPointerEvent@@@Z @ 1365 NONAME ; void CAknContextPane::HandlePointerEventL(struct TPointerEvent const &)
	?HandlePointerEventL@CAknDateSettingPage@@UAEXABUTPointerEvent@@@Z @ 1366 NONAME ; void CAknDateSettingPage::HandlePointerEventL(struct TPointerEvent const &)
	?HandlePointerEventL@CAknDialog@@UAEXABUTPointerEvent@@@Z @ 1367 NONAME ; void CAknDialog::HandlePointerEventL(struct TPointerEvent const &)
	?HandlePointerEventL@CAknDouble2GraphicLargeGraphicStyleListBox@@UAEXABUTPointerEvent@@@Z @ 1368 NONAME ; void CAknDouble2GraphicLargeGraphicStyleListBox::HandlePointerEventL(struct TPointerEvent const &)
	?HandlePointerEventL@CAknDouble2GraphicStyleListBox@@UAEXABUTPointerEvent@@@Z @ 1369 NONAME ; void CAknDouble2GraphicStyleListBox::HandlePointerEventL(struct TPointerEvent const &)
	?HandlePointerEventL@CAknDouble2LargeStyleListBox@@UAEXABUTPointerEvent@@@Z @ 1370 NONAME ; void CAknDouble2LargeStyleListBox::HandlePointerEventL(struct TPointerEvent const &)
	?HandlePointerEventL@CAknDouble2PopupMenuStyleListBox@@UAEXABUTPointerEvent@@@Z @ 1371 NONAME ; void CAknDouble2PopupMenuStyleListBox::HandlePointerEventL(struct TPointerEvent const &)
	?HandlePointerEventL@CAknDoubleGraphicStyleListBox@@UAEXABUTPointerEvent@@@Z @ 1372 NONAME ; void CAknDoubleGraphicStyleListBox::HandlePointerEventL(struct TPointerEvent const &)
	?HandlePointerEventL@CAknDoubleLargeGraphicPopupMenuStyleListBox@@UAEXABUTPointerEvent@@@Z @ 1373 NONAME ; void CAknDoubleLargeGraphicPopupMenuStyleListBox::HandlePointerEventL(struct TPointerEvent const &)
	?HandlePointerEventL@CAknDoubleLargeStyleListBox@@UAEXABUTPointerEvent@@@Z @ 1374 NONAME ; void CAknDoubleLargeStyleListBox::HandlePointerEventL(struct TPointerEvent const &)
	?HandlePointerEventL@CAknDoubleNumberStyleListBox@@UAEXABUTPointerEvent@@@Z @ 1375 NONAME ; void CAknDoubleNumberStyleListBox::HandlePointerEventL(struct TPointerEvent const &)
	?HandlePointerEventL@CAknDoublePopupMenuStyleListBox@@UAEXABUTPointerEvent@@@Z @ 1376 NONAME ; void CAknDoublePopupMenuStyleListBox::HandlePointerEventL(struct TPointerEvent const &)
	?HandlePointerEventL@CAknDoubleStyle2ListBox@@UAEXABUTPointerEvent@@@Z @ 1377 NONAME ; void CAknDoubleStyle2ListBox::HandlePointerEventL(struct TPointerEvent const &)
	?HandlePointerEventL@CAknDoubleStyleListBox@@UAEXABUTPointerEvent@@@Z @ 1378 NONAME ; void CAknDoubleStyleListBox::HandlePointerEventL(struct TPointerEvent const &)
	?HandlePointerEventL@CAknDoubleTimeStyleListBox@@UAEXABUTPointerEvent@@@Z @ 1379 NONAME ; void CAknDoubleTimeStyleListBox::HandlePointerEventL(struct TPointerEvent const &)
	?HandlePointerEventL@CAknDurationQueryDialog@@UAEXABUTPointerEvent@@@Z @ 1380 NONAME ; void CAknDurationQueryDialog::HandlePointerEventL(struct TPointerEvent const &)
	?HandlePointerEventL@CAknDurationSettingPage@@UAEXABUTPointerEvent@@@Z @ 1381 NONAME ; void CAknDurationSettingPage::HandlePointerEventL(struct TPointerEvent const &)
	?HandlePointerEventL@CAknEdwinSettingPage@@UAEXABUTPointerEvent@@@Z @ 1382 NONAME ; void CAknEdwinSettingPage::HandlePointerEventL(struct TPointerEvent const &)
	?HandlePointerEventL@CAknErrorNote@@UAEXABUTPointerEvent@@@Z @ 1383 NONAME ; void CAknErrorNote::HandlePointerEventL(struct TPointerEvent const &)
	?HandlePointerEventL@CAknExtMultilineQueryControl@@UAEXABUTPointerEvent@@@Z @ 1384 NONAME ; void CAknExtMultilineQueryControl::HandlePointerEventL(struct TPointerEvent const &)
	?HandlePointerEventL@CAknExtQueryControl@@UAEXABUTPointerEvent@@@Z @ 1385 NONAME ; void CAknExtQueryControl::HandlePointerEventL(struct TPointerEvent const &)
	?HandlePointerEventL@CAknFloatingPointQueryDialog@@UAEXABUTPointerEvent@@@Z @ 1386 NONAME ; void CAknFloatingPointQueryDialog::HandlePointerEventL(struct TPointerEvent const &)
	?HandlePointerEventL@CAknForm@@UAEXABUTPointerEvent@@@Z @ 1387 NONAME ; void CAknForm::HandlePointerEventL(struct TPointerEvent const &)
	?HandlePointerEventL@CAknFormDoubleGraphicStyleListBox@@UAEXABUTPointerEvent@@@Z @ 1388 NONAME ; void CAknFormDoubleGraphicStyleListBox::HandlePointerEventL(struct TPointerEvent const &)
	?HandlePointerEventL@CAknFormDoubleStyleListBox@@UAEXABUTPointerEvent@@@Z @ 1389 NONAME ; void CAknFormDoubleStyleListBox::HandlePointerEventL(struct TPointerEvent const &)
	?HandlePointerEventL@CAknFormGraphicStyleListBox@@UAEXABUTPointerEvent@@@Z @ 1390 NONAME ; void CAknFormGraphicStyleListBox::HandlePointerEventL(struct TPointerEvent const &)
	?HandlePointerEventL@CAknFormGraphicWideStyleListBox@@UAEXABUTPointerEvent@@@Z @ 1391 NONAME ; void CAknFormGraphicWideStyleListBox::HandlePointerEventL(struct TPointerEvent const &)
	?HandlePointerEventL@CAknGMSPopupGrid@@UAEXABUTPointerEvent@@@Z @ 1392 NONAME ; void CAknGMSPopupGrid::HandlePointerEventL(struct TPointerEvent const &)
	?HandlePointerEventL@CAknGMSStyleGrid@@UAEXABUTPointerEvent@@@Z @ 1393 NONAME ; void CAknGMSStyleGrid::HandlePointerEventL(struct TPointerEvent const &)
	?HandlePointerEventL@CAknGrid@@UAEXABUTPointerEvent@@@Z @ 1394 NONAME ; void CAknGrid::HandlePointerEventL(struct TPointerEvent const &)
	?HandlePointerEventL@CAknIndicatorContainer@@UAEXABUTPointerEvent@@@Z @ 1395 NONAME ; void CAknIndicatorContainer::HandlePointerEventL(struct TPointerEvent const &)
	?HandlePointerEventL@CAknInformationNote@@UAEXABUTPointerEvent@@@Z @ 1396 NONAME ; void CAknInformationNote::HandlePointerEventL(struct TPointerEvent const &)
	?HandlePointerEventL@CAknIntegerEdwin@@UAEXABUTPointerEvent@@@Z @ 1397 NONAME ; void CAknIntegerEdwin::HandlePointerEventL(struct TPointerEvent const &)
	?HandlePointerEventL@CAknIntegerSettingPage@@UAEXABUTPointerEvent@@@Z @ 1398 NONAME ; void CAknIntegerSettingPage::HandlePointerEventL(struct TPointerEvent const &)
	?HandlePointerEventL@CAknIpFieldSettingPage@@UAEXABUTPointerEvent@@@Z @ 1399 NONAME ; void CAknIpFieldSettingPage::HandlePointerEventL(struct TPointerEvent const &)
	?HandlePointerEventL@CAknListQueryControl@@UAEXABUTPointerEvent@@@Z @ 1400 NONAME ; void CAknListQueryControl::HandlePointerEventL(struct TPointerEvent const &)
	?HandlePointerEventL@CAknListQueryDialog@@UAEXABUTPointerEvent@@@Z @ 1401 NONAME ; void CAknListQueryDialog::HandlePointerEventL(struct TPointerEvent const &)
	?HandlePointerEventL@CAknMarkableListDialog@@UAEXABUTPointerEvent@@@Z @ 1402 NONAME ; void CAknMarkableListDialog::HandlePointerEventL(struct TPointerEvent const &)
	?HandlePointerEventL@CAknMessageQueryDialog@@UAEXABUTPointerEvent@@@Z @ 1403 NONAME ; void CAknMessageQueryDialog::HandlePointerEventL(struct TPointerEvent const &)
	?HandlePointerEventL@CAknMfneSettingPage@@UAEXABUTPointerEvent@@@Z @ 1404 NONAME ; void CAknMfneSettingPage::HandlePointerEventL(struct TPointerEvent const &)
	?HandlePointerEventL@CAknMultiLineDataQueryDialog@@UAEXABUTPointerEvent@@@Z @ 1405 NONAME ; void CAknMultiLineDataQueryDialog::HandlePointerEventL(struct TPointerEvent const &)
	?HandlePointerEventL@CAknMultilineQueryControl@@UAEXABUTPointerEvent@@@Z @ 1406 NONAME ; void CAknMultilineQueryControl::HandlePointerEventL(struct TPointerEvent const &)
	?HandlePointerEventL@CAknNaviLabel@@UAEXABUTPointerEvent@@@Z @ 1407 NONAME ; void CAknNaviLabel::HandlePointerEventL(struct TPointerEvent const &)
	?HandlePointerEventL@CAknNavigationControlContainer@@UAEXABUTPointerEvent@@@Z @ 1408 NONAME ; void CAknNavigationControlContainer::HandlePointerEventL(struct TPointerEvent const &)
	?HandlePointerEventL@CAknNavigationDecorator@@UAEXABUTPointerEvent@@@Z @ 1409 NONAME ; void CAknNavigationDecorator::HandlePointerEventL(struct TPointerEvent const &)
	?HandlePointerEventL@CAknNoteControl@@UAEXABUTPointerEvent@@@Z @ 1410 NONAME ; void CAknNoteControl::HandlePointerEventL(struct TPointerEvent const &)
	?HandlePointerEventL@CAknNoteDialog@@UAEXABUTPointerEvent@@@Z @ 1411 NONAME ; void CAknNoteDialog::HandlePointerEventL(struct TPointerEvent const &)
	?HandlePointerEventL@CAknNoteWrapper@@UAEXABUTPointerEvent@@@Z @ 1412 NONAME ; void CAknNoteWrapper::HandlePointerEventL(struct TPointerEvent const &)
	?HandlePointerEventL@CAknNumberQueryDialog@@UAEXABUTPointerEvent@@@Z @ 1413 NONAME ; void CAknNumberQueryDialog::HandlePointerEventL(struct TPointerEvent const &)
	?HandlePointerEventL@CAknNumericPasswordSettingPage@@UAEXABUTPointerEvent@@@Z @ 1414 NONAME ; void CAknNumericPasswordSettingPage::HandlePointerEventL(struct TPointerEvent const &)
	?HandlePointerEventL@CAknNumericSecretEditor@@UAEXABUTPointerEvent@@@Z @ 1415 NONAME ; void CAknNumericSecretEditor::HandlePointerEventL(struct TPointerEvent const &)
	?HandlePointerEventL@CAknPasswordSettingPage@@UAEXABUTPointerEvent@@@Z @ 1416 NONAME ; void CAknPasswordSettingPage::HandlePointerEventL(struct TPointerEvent const &)
	?HandlePointerEventL@CAknPinbStyleGrid@@UAEXABUTPointerEvent@@@Z @ 1417 NONAME ; void CAknPinbStyleGrid::HandlePointerEventL(struct TPointerEvent const &)
	?HandlePointerEventL@CAknPopupField@@UAEXABUTPointerEvent@@@Z @ 1418 NONAME ; void CAknPopupField::HandlePointerEventL(struct TPointerEvent const &)
	?HandlePointerEventL@CAknPopupFieldList@@UAEXABUTPointerEvent@@@Z @ 1419 NONAME ; void CAknPopupFieldList::HandlePointerEventL(struct TPointerEvent const &)
	?HandlePointerEventL@CAknPopupFieldText@@UAEXABUTPointerEvent@@@Z @ 1420 NONAME ; void CAknPopupFieldText::HandlePointerEventL(struct TPointerEvent const &)
	?HandlePointerEventL@CAknPopupHeadingPane@@UAEXABUTPointerEvent@@@Z @ 1421 NONAME ; void CAknPopupHeadingPane::HandlePointerEventL(struct TPointerEvent const &)
	?HandlePointerEventL@CAknPopupList@@UAEXABUTPointerEvent@@@Z @ 1422 NONAME ; void CAknPopupList::HandlePointerEventL(struct TPointerEvent const &)
	?HandlePointerEventL@CAknPopupSettingList@@UAEXABUTPointerEvent@@@Z @ 1423 NONAME ; void CAknPopupSettingList::HandlePointerEventL(struct TPointerEvent const &)
	?HandlePointerEventL@CAknPopupSettingPage@@UAEXABUTPointerEvent@@@Z @ 1424 NONAME ; void CAknPopupSettingPage::HandlePointerEventL(struct TPointerEvent const &)
	?HandlePointerEventL@CAknProgressDialog@@UAEXABUTPointerEvent@@@Z @ 1425 NONAME ; void CAknProgressDialog::HandlePointerEventL(struct TPointerEvent const &)
	?HandlePointerEventL@CAknQdialStyleGrid@@UAEXABUTPointerEvent@@@Z @ 1426 NONAME ; void CAknQdialStyleGrid::HandlePointerEventL(struct TPointerEvent const &)
	?HandlePointerEventL@CAknQueryControl@@UAEXABUTPointerEvent@@@Z @ 1427 NONAME ; void CAknQueryControl::HandlePointerEventL(struct TPointerEvent const &)
	?HandlePointerEventL@CAknQueryDialog@@UAEXABUTPointerEvent@@@Z @ 1428 NONAME ; void CAknQueryDialog::HandlePointerEventL(struct TPointerEvent const &)
	?HandlePointerEventL@CAknRadioButtonSettingPage@@UAEXABUTPointerEvent@@@Z @ 1429 NONAME ; void CAknRadioButtonSettingPage::HandlePointerEventL(struct TPointerEvent const &)
	?HandlePointerEventL@CAknResourceNoteDialog@@UAEXABUTPointerEvent@@@Z @ 1430 NONAME ; void CAknResourceNoteDialog::HandlePointerEventL(struct TPointerEvent const &)
	?HandlePointerEventL@CAknSelectionListDialog@@UAEXABUTPointerEvent@@@Z @ 1431 NONAME ; void CAknSelectionListDialog::HandlePointerEventL(struct TPointerEvent const &)
	?HandlePointerEventL@CAknSetStyleListBox@@UAEXABUTPointerEvent@@@Z @ 1432 NONAME ; void CAknSetStyleListBox::HandlePointerEventL(struct TPointerEvent const &)
	?HandlePointerEventL@CAknSettingItemList@@UAEXABUTPointerEvent@@@Z @ 1433 NONAME ; void CAknSettingItemList::HandlePointerEventL(struct TPointerEvent const &)
	?HandlePointerEventL@CAknSettingNumberStyleListBox@@UAEXABUTPointerEvent@@@Z @ 1434 NONAME ; void CAknSettingNumberStyleListBox::HandlePointerEventL(struct TPointerEvent const &)
	?HandlePointerEventL@CAknSettingPage@@UAEXABUTPointerEvent@@@Z @ 1435 NONAME ; void CAknSettingPage::HandlePointerEventL(struct TPointerEvent const &)
	?HandlePointerEventL@CAknSettingStyleListBox@@UAEXABUTPointerEvent@@@Z @ 1436 NONAME ; void CAknSettingStyleListBox::HandlePointerEventL(struct TPointerEvent const &)
	?HandlePointerEventL@CAknSingleGraphicBtPopupMenuStyleListBox@@UAEXABUTPointerEvent@@@Z @ 1437 NONAME ; void CAknSingleGraphicBtPopupMenuStyleListBox::HandlePointerEventL(struct TPointerEvent const &)
	?HandlePointerEventL@CAknSingleGraphicHeadingPopupMenuStyleListBox@@UAEXABUTPointerEvent@@@Z @ 1438 NONAME ; void CAknSingleGraphicHeadingPopupMenuStyleListBox::HandlePointerEventL(struct TPointerEvent const &)
	?HandlePointerEventL@CAknSingleGraphicHeadingStyleListBox@@UAEXABUTPointerEvent@@@Z @ 1439 NONAME ; void CAknSingleGraphicHeadingStyleListBox::HandlePointerEventL(struct TPointerEvent const &)
	?HandlePointerEventL@CAknSingleGraphicPopupMenuStyleListBox@@MAEXABUTPointerEvent@@@Z @ 1440 NONAME ; void CAknSingleGraphicPopupMenuStyleListBox::HandlePointerEventL(struct TPointerEvent const &)
	?HandlePointerEventL@CAknSingleGraphicStyleListBox@@UAEXABUTPointerEvent@@@Z @ 1441 NONAME ; void CAknSingleGraphicStyleListBox::HandlePointerEventL(struct TPointerEvent const &)
	?HandlePointerEventL@CAknSingleHeadingPopupMenuStyleListBox@@UAEXABUTPointerEvent@@@Z @ 1442 NONAME ; void CAknSingleHeadingPopupMenuStyleListBox::HandlePointerEventL(struct TPointerEvent const &)
	?HandlePointerEventL@CAknSingleHeadingStyleListBox@@UAEXABUTPointerEvent@@@Z @ 1443 NONAME ; void CAknSingleHeadingStyleListBox::HandlePointerEventL(struct TPointerEvent const &)
	?HandlePointerEventL@CAknSingleLargeStyleListBox@@UAEXABUTPointerEvent@@@Z @ 1444 NONAME ; void CAknSingleLargeStyleListBox::HandlePointerEventL(struct TPointerEvent const &)
	?HandlePointerEventL@CAknSingleNumberHeadingStyleListBox@@UAEXABUTPointerEvent@@@Z @ 1445 NONAME ; void CAknSingleNumberHeadingStyleListBox::HandlePointerEventL(struct TPointerEvent const &)
	?HandlePointerEventL@CAknSingleNumberStyleListBox@@UAEXABUTPointerEvent@@@Z @ 1446 NONAME ; void CAknSingleNumberStyleListBox::HandlePointerEventL(struct TPointerEvent const &)
	?HandlePointerEventL@CAknSinglePopupMenuStyleListBox@@MAEXABUTPointerEvent@@@Z @ 1447 NONAME ; void CAknSinglePopupMenuStyleListBox::HandlePointerEventL(struct TPointerEvent const &)
	?HandlePointerEventL@CAknSinglePopupSubmenuStyleListBox@@UAEXABUTPointerEvent@@@Z @ 1448 NONAME ; void CAknSinglePopupSubmenuStyleListBox::HandlePointerEventL(struct TPointerEvent const &)
	?HandlePointerEventL@CAknSingleStyleListBox@@UAEXABUTPointerEvent@@@Z @ 1449 NONAME ; void CAknSingleStyleListBox::HandlePointerEventL(struct TPointerEvent const &)
	?HandlePointerEventL@CAknSkinnableClock@@UAEXABUTPointerEvent@@@Z @ 1450 NONAME ; void CAknSkinnableClock::HandlePointerEventL(struct TPointerEvent const &)
	?HandlePointerEventL@CAknSlider@@UAEXABUTPointerEvent@@@Z @ 1451 NONAME ; void CAknSlider::HandlePointerEventL(struct TPointerEvent const &)
	?HandlePointerEventL@CAknSliderSettingPage@@UAEXABUTPointerEvent@@@Z @ 1452 NONAME ; void CAknSliderSettingPage::HandlePointerEventL(struct TPointerEvent const &)
	?HandlePointerEventL@CAknStaticNoteDialog@@UAEXABUTPointerEvent@@@Z @ 1453 NONAME ; void CAknStaticNoteDialog::HandlePointerEventL(struct TPointerEvent const &)
	?HandlePointerEventL@CAknStaticNoteStackIndicator@@UAEXABUTPointerEvent@@@Z @ 1454 NONAME ; void CAknStaticNoteStackIndicator::HandlePointerEventL(struct TPointerEvent const &)
	?HandlePointerEventL@CAknTabGroup@@UAEXABUTPointerEvent@@@Z @ 1455 NONAME ; void CAknTabGroup::HandlePointerEventL(struct TPointerEvent const &)
	?HandlePointerEventL@CAknTextQueryDialog@@UAEXABUTPointerEvent@@@Z @ 1456 NONAME ; void CAknTextQueryDialog::HandlePointerEventL(struct TPointerEvent const &)
	?HandlePointerEventL@CAknTextSettingPage@@UAEXABUTPointerEvent@@@Z @ 1457 NONAME ; void CAknTextSettingPage::HandlePointerEventL(struct TPointerEvent const &)
	?HandlePointerEventL@CAknTimeOffsetSettingPage@@UAEXABUTPointerEvent@@@Z @ 1458 NONAME ; void CAknTimeOffsetSettingPage::HandlePointerEventL(struct TPointerEvent const &)
	?HandlePointerEventL@CAknTimeQueryDialog@@UAEXABUTPointerEvent@@@Z @ 1459 NONAME ; void CAknTimeQueryDialog::HandlePointerEventL(struct TPointerEvent const &)
	?HandlePointerEventL@CAknTimeSettingPage@@UAEXABUTPointerEvent@@@Z @ 1460 NONAME ; void CAknTimeSettingPage::HandlePointerEventL(struct TPointerEvent const &)
	?HandlePointerEventL@CAknTitlePane@@UAEXABUTPointerEvent@@@Z @ 1461 NONAME ; void CAknTitlePane::HandlePointerEventL(struct TPointerEvent const &)
	?HandlePointerEventL@CAknVolumeControl@@UAEXABUTPointerEvent@@@Z @ 1462 NONAME ; void CAknVolumeControl::HandlePointerEventL(struct TPointerEvent const &)
	?HandlePointerEventL@CAknVolumeSettingPage@@UAEXABUTPointerEvent@@@Z @ 1463 NONAME ; void CAknVolumeSettingPage::HandlePointerEventL(struct TPointerEvent const &)
	?HandlePointerEventL@CAknWaitDialog@@UAEXABUTPointerEvent@@@Z @ 1464 NONAME ; void CAknWaitDialog::HandlePointerEventL(struct TPointerEvent const &)
	?HandlePointerEventL@CAknWarningNote@@UAEXABUTPointerEvent@@@Z @ 1465 NONAME ; void CAknWarningNote::HandlePointerEventL(struct TPointerEvent const &)
	?HandlePointerEventL@CEikFormattedCellListBox@@UAEXABUTPointerEvent@@@Z @ 1466 NONAME ; void CEikFormattedCellListBox::HandlePointerEventL(struct TPointerEvent const &)
	?HandlePointerEventL@CEikSettingsListBox@@UAEXABUTPointerEvent@@@Z @ 1467 NONAME ; void CEikSettingsListBox::HandlePointerEventL(struct TPointerEvent const &)
	?HandlePopupFindSizeChanged@AknFind@@SAXPAVCCoeControl@@PAVCEikListBox@@PAVCAknSearchField@@@Z @ 1468 NONAME ; void AknFind::HandlePopupFindSizeChanged(class CCoeControl *, class CEikListBox *, class CAknSearchField *)
	?HandlePopupSettingListEventL@CAknPopupSettingPage@@UAEXPAVCAknPopupSettingList@@W4TAknPopupSettingListEvent@MAknPopupSettingListObserver@@H@Z @ 1469 NONAME ; void CAknPopupSettingPage::HandlePopupSettingListEventL(class CAknPopupSettingList *, enum MAknPopupSettingListObserver::TAknPopupSettingListEvent, int)
	?HandleQueryEditorSizeEventL@CAknQueryDialog@@UAEHPAVCAknQueryControl@@W4TQueryControlEvent@MAknQueryControlObserver@@@Z @ 1470 NONAME ; int CAknQueryDialog::HandleQueryEditorSizeEventL(class CAknQueryControl *, enum MAknQueryControlObserver::TQueryControlEvent)
	?HandleQueryEditorSizeEventL@CAknTextQueryDialog@@UAEHPAVCAknQueryControl@@W4TQueryControlEvent@MAknQueryControlObserver@@@Z @ 1471 NONAME ; int CAknTextQueryDialog::HandleQueryEditorSizeEventL(class CAknQueryControl *, enum MAknQueryControlObserver::TQueryControlEvent)
	?HandleQueryEditorStateEventL@CAknQueryDialog@@UAEHPAVCAknQueryControl@@W4TQueryControlEvent@MAknQueryControlObserver@@W4TQueryValidationStatus@4@@Z @ 1472 NONAME ; int CAknQueryDialog::HandleQueryEditorStateEventL(class CAknQueryControl *, enum MAknQueryControlObserver::TQueryControlEvent, enum MAknQueryControlObserver::TQueryValidationStatus)
	?HandleResourceChange@CAknBatteryPane@@MAEXH@Z @ 1473 NONAME ; void CAknBatteryPane::HandleResourceChange(int)
	?HandleResourceChange@CAknCharMap@@MAEXH@Z @ 1474 NONAME ; void CAknCharMap::HandleResourceChange(int)
	?HandleResourceChange@CAknCharMapDialog@@UAEXH@Z @ 1475 NONAME ; void CAknCharMapDialog::HandleResourceChange(int)
	?HandleResourceChange@CAknContextPane@@MAEXH@Z @ 1476 NONAME ; void CAknContextPane::HandleResourceChange(int)
	?HandleResourceChange@CAknForm@@UAEXH@Z @ 1477 NONAME ; void CAknForm::HandleResourceChange(int)
	?HandleResourceChange@CAknGrid@@UAEXH@Z @ 1478 NONAME ; void CAknGrid::HandleResourceChange(int)
	?HandleResourceChange@CAknIndicatorContainer@@MAEXH@Z @ 1479 NONAME ; void CAknIndicatorContainer::HandleResourceChange(int)
	?HandleResourceChange@CAknIntegerEdwin@@UAEXH@Z @ 1480 NONAME ; void CAknIntegerEdwin::HandleResourceChange(int)
	?HandleResourceChange@CAknNavigationControlContainer@@MAEXH@Z @ 1481 NONAME ; void CAknNavigationControlContainer::HandleResourceChange(int)
	?HandleResourceChange@CAknNoteDialog@@UAEXH@Z @ 1482 NONAME ; void CAknNoteDialog::HandleResourceChange(int)
	?HandleResourceChange@CAknPopupField@@UAEXH@Z @ 1483 NONAME ; void CAknPopupField::HandleResourceChange(int)
	?HandleResourceChange@CAknPopupList@@MAEXH@Z @ 1484 NONAME ; void CAknPopupList::HandleResourceChange(int)
	?HandleResourceChange@CAknSettingItemList@@UAEXH@Z @ 1485 NONAME ; void CAknSettingItemList::HandleResourceChange(int)
	?HandleResourceChange@CAknSettingPage@@UAEXH@Z @ 1486 NONAME ; void CAknSettingPage::HandleResourceChange(int)
	?HandleResourceChange@CAknSignalPane@@MAEXH@Z @ 1487 NONAME ; void CAknSignalPane::HandleResourceChange(int)
	?HandleResourceChange@CAknSlider@@UAEXH@Z @ 1488 NONAME ; void CAknSlider::HandleResourceChange(int)
	?HandleResourceChange@CAknStaticNoteStackIndicator@@UAEXH@Z @ 1489 NONAME ; void CAknStaticNoteStackIndicator::HandleResourceChange(int)
	?HandleResourceChange@CAknTitlePane@@MAEXH@Z @ 1490 NONAME ; void CAknTitlePane::HandleResourceChange(int)
	?HandleResourceChange@CEikFormattedCellListBox@@UAEXH@Z @ 1491 NONAME ; void CEikFormattedCellListBox::HandleResourceChange(int)
	?HandleResourceChangeL@CAknAppUiBase@@UAEXH@Z @ 1492 NONAME ; void CAknAppUiBase::HandleResourceChangeL(int)
	?HandleScreenDeviceChangedL@CAknAppUiBase@@MAEXXZ @ 1493 NONAME ; void CAknAppUiBase::HandleScreenDeviceChangedL(void)
	?HandleSelectionListProcessCommandL@AknSelectionService@@SAXHPAVCEikListBox@@@Z @ 1494 NONAME ; void AknSelectionService::HandleSelectionListProcessCommandL(int, class CEikListBox *)
	?HandleServerAppExit@MAknServerAppExitObserver@@UAEXH@Z @ 1495 NONAME ; void MAknServerAppExitObserver::HandleServerAppExit(int)
	?HandleSettingPageEventL@CAknSettingItem@@UAEXPAVCAknSettingPage@@W4TAknSettingPageEvent@MAknSettingPageObserver@@@Z @ 1496 NONAME ; void CAknSettingItem::HandleSettingPageEventL(class CAknSettingPage *, enum MAknSettingPageObserver::TAknSettingPageEvent)
	?HandleSizeAndPositionOfComponents@AknPopupLayouts@@SAXABUTAknPopupWindowLayoutDef@@PAVCCoeControl@@PAVCAknPopupHeadingPane@@@Z @ 1497 NONAME ; void AknPopupLayouts::HandleSizeAndPositionOfComponents(struct TAknPopupWindowLayoutDef const &, class CCoeControl *, class CAknPopupHeadingPane *)
	?HandleSizeChanged@AknPopupLayouts@@SAXAAUTAknPopupWindowLayoutDef@@W4TAknPopupLayouts@1@PAUTAknPopupLayoutsNode@@@Z @ 1498 NONAME ; void AknPopupLayouts::HandleSizeChanged(struct TAknPopupWindowLayoutDef &, enum AknPopupLayouts::TAknPopupLayouts, struct TAknPopupLayoutsNode *)
	?HandleSizeChanged@AknPopupLayouts@@SAXAAUTAknPopupWindowLayoutDef@@W4TAknPopupLayouts@1@PAVCAknPopupHeadingPane@@PAVCEikListBox@@PAVCCoeControl@@@Z @ 1499 NONAME ; void AknPopupLayouts::HandleSizeChanged(struct TAknPopupWindowLayoutDef &, enum AknPopupLayouts::TAknPopupLayouts, class CAknPopupHeadingPane *, class CEikListBox *, class CCoeControl *)
	?HandleStatusPaneSizeChange@CAknAppUi@@MAEXXZ @ 1500 NONAME ; void CAknAppUi::HandleStatusPaneSizeChange(void)
	?HandleStatusPaneSizeChange@CAknIndicatorContainer@@UAEXXZ @ 1501 NONAME ; void CAknIndicatorContainer::HandleStatusPaneSizeChange(void)
	?HandleStatusPaneSizeChange@CAknView@@UAEXXZ @ 1502 NONAME ; void CAknView::HandleStatusPaneSizeChange(void)
	?HandleStatusPaneSizeChange@CAknViewAppUi@@MAEXXZ @ 1503 NONAME ; void CAknViewAppUi::HandleStatusPaneSizeChange(void)
	?HandleSystemEventL@CAknAppUi@@MAEXABVTWsEvent@@@Z @ 1504 NONAME ; void CAknAppUi::HandleSystemEventL(class TWsEvent const &)
	?HandleTextArrayUpdateL@CAknEnumeratedTextSettingItem@@UAEXXZ @ 1505 NONAME ; void CAknEnumeratedTextSettingItem::HandleTextArrayUpdateL(void)
	?HandleViewDeactivation@CAknAppUi@@UAEXABVTVwsViewId@@0@Z @ 1506 NONAME ; void CAknAppUi::HandleViewDeactivation(class TVwsViewId const &, class TVwsViewId const &)
	?HandleViewRectSizeChangeL@CAknGrid@@UAEXXZ @ 1507 NONAME ; void CAknGrid::HandleViewRectSizeChangeL(void)
	?HandleVolumeKeyEventL@CAknVolumePopup@@QAE?AW4TKeyResponse@@ABUTKeyEvent@@W4TEventCode@@@Z @ 1508 NONAME ; enum TKeyResponse CAknVolumePopup::HandleVolumeKeyEventL(struct TKeyEvent const &, enum TEventCode)
	?HandleWsEventL@CAknAppUi@@MAEXABVTWsEvent@@PAVCCoeControl@@@Z @ 1509 NONAME ; void CAknAppUi::HandleWsEventL(class TWsEvent const &, class CCoeControl *)
	?HandleWsEventL@CAknEcsDetector@@UAEXABVTWsEvent@@PAVCCoeControl@@@Z @ 1510 NONAME ; void CAknEcsDetector::HandleWsEventL(class TWsEvent const &, class CCoeControl *)
	?HandleWsEventL@CAknWsEventMonitor@@UAEXABVTWsEvent@@PAVCCoeControl@@@Z @ 1511 NONAME ; void CAknWsEventMonitor::HandleWsEventL(class TWsEvent const &, class CCoeControl *)
	?HardwareLayoutState@CAknSettingCache@@QAEHXZ @ 1512 NONAME ; int CAknSettingCache::HardwareLayoutState(void)
	?HasIcon@CAknSettingItem@@QBEHXZ @ 1513 NONAME ; int CAknSettingItem::HasIcon(void) const
	?Heading@CAknPopupList@@QAEPAVCAknPopupHeadingPane@@XZ @ 1514 NONAME ; class CAknPopupHeadingPane * CAknPopupList::Heading(void)
	?Heading@CAknPopupList@@QBEPAVCAknPopupHeadingPane@@XZ @ 1515 NONAME ; class CAknPopupHeadingPane * CAknPopupList::Heading(void) const
	?Heading@CAknQueryDialog@@QBEPAVCAknPopupHeadingPane@@XZ @ 1516 NONAME ; class CAknPopupHeadingPane * CAknQueryDialog::Heading(void) const
	?HeightInRows@CAknCharMap@@QAEHXZ @ 1517 NONAME ; int CAknCharMap::HeightInRows(void)
	?HideAllNotifications@AknNotifierController@@SAXH@Z @ 1518 NONAME ; void AknNotifierController::HideAllNotifications(int)
	?HideApplicationFromFSW@CAknAppUi@@QAEXH@Z @ 1519 NONAME ; void CAknAppUi::HideApplicationFromFSW(int)
	?HideInfoPopupNote@CAknInfoPopupNoteController@@QAEXXZ @ 1520 NONAME ; void CAknInfoPopupNoteController::HideInfoPopupNote(void)
	?HideMenu@CAknDialog@@IAEXXZ @ 1521 NONAME ; void CAknDialog::HideMenu(void)
	?HideMenu@CAknSettingPage@@MAEXXZ @ 1522 NONAME ; void CAknSettingPage::HideMenu(void)
	?HighlightLeftPixelsFromFont@AknLayoutUtils@@SAHABVTFontSpec@@@Z @ 1523 NONAME ; int AknLayoutUtils::HighlightLeftPixelsFromFont(class TFontSpec const &)
	?HighlightRightPixelsFromFont@AknLayoutUtils@@SAHABVTFontSpec@@@Z @ 1524 NONAME ; int AknLayoutUtils::HighlightRightPixelsFromFont(class TFontSpec const &)
	?HorizScrollGranularityInPixels@CAknGrid@@MBEHXZ @ 1525 NONAME ; int CAknGrid::HorizScrollGranularityInPixels(void) const
	?HorizontalNudgeValue@CAknGrid@@MBEHXZ @ 1526 NONAME ; int CAknGrid::HorizontalNudgeValue(void) const
	?IconArray@CAknSelectionListDialog@@QBEPAV?$CArrayPtr@VCGulIcon@@@@XZ @ 1527 NONAME ; class CArrayPtr<class CGulIcon> * CAknSelectionListDialog::IconArray(void) const
	?IconArray@CFormattedCellListBoxData@@QBEPAV?$CArrayPtr@VCGulIcon@@@@XZ @ 1528 NONAME ; class CArrayPtr<class CGulIcon> * CFormattedCellListBoxData::IconArray(void) const
	?Identifier@CAknSettingItem@@QBEHXZ @ 1529 NONAME ; int CAknSettingItem::Identifier(void) const
	?IncrementBarsAndDraw@CAknNoteControl@@QAEHH@Z @ 1530 NONAME ; int CAknNoteControl::IncrementBarsAndDraw(int)
	?IncrementProgressBarAndDraw@CAknPopupForm@@QAEXH@Z @ 1531 NONAME ; void CAknPopupForm::IncrementProgressBarAndDraw(int)
	?IndexContainsData@CAknGridM@@UBEHH@Z @ 1532 NONAME ; int CAknGridM::IndexContainsData(int) const
	?IndexFromValue@CAknEnumeratedTextPopupSettingItem@@IBEHH@Z @ 1533 NONAME ; int CAknEnumeratedTextPopupSettingItem::IndexFromValue(int) const
	?IndexFromValue@CAknEnumeratedTextSettingItem@@QBEHH@Z @ 1534 NONAME ; int CAknEnumeratedTextSettingItem::IndexFromValue(int) const
	?IndexOfFirstDataItem@CAknGridM@@QBEHXZ @ 1535 NONAME ; int CAknGridM::IndexOfFirstDataItem(void) const
	?IndexOfLastDataItem@CAknGridM@@QBEHXZ @ 1536 NONAME ; int CAknGridM::IndexOfLastDataItem(void) const
	?IndexOfPosition@CAknGrid@@QBEHVTPoint@@@Z @ 1537 NONAME ; int CAknGrid::IndexOfPosition(class TPoint) const
	?IndicatorContext@CAknIndicatorContainer@@QBEHXZ @ 1538 NONAME ; int CAknIndicatorContainer::IndicatorContext(void) const
	?IndicatorState@CAknIndicatorContainer@@QAEHVTUid@@@Z @ 1539 NONAME ; int CAknIndicatorContainer::IndicatorState(class TUid)
	?InformCbaDeletion@CAknEnv@@QAEXPAVCEikButtonGroupContainer@@@Z @ 1540 NONAME ; void CAknEnv::InformCbaDeletion(class CEikButtonGroupContainer *)
	?InputCapabilities@CAknCharMap@@UBE?AVTCoeInputCapabilities@@XZ @ 1541 NONAME ; class TCoeInputCapabilities CAknCharMap::InputCapabilities(void) const
	?InputCapabilities@CAknNumericSecretEditor@@UBE?AVTCoeInputCapabilities@@XZ @ 1542 NONAME ; class TCoeInputCapabilities CAknNumericSecretEditor::InputCapabilities(void) const
	?InputCapabilities@CAknPhoneNumberEditor@@UBE?AVTCoeInputCapabilities@@XZ @ 1543 NONAME ; class TCoeInputCapabilities CAknPhoneNumberEditor::InputCapabilities(void) const
	?InputCapabilities@CSearchFieldEditor@@UBE?AVTCoeInputCapabilities@@XZ @ 1544 NONAME ; class TCoeInputCapabilities CSearchFieldEditor::InputCapabilities(void) const
	?InputLanguage@CAknSettingCache@@QAE?AW4TLanguage@@XZ @ 1545 NONAME ; enum TLanguage CAknSettingCache::InputLanguage(void)
	?InsertControlL@CAknPopupForm@@QAEXHH@Z @ 1546 NONAME ; void CAknPopupForm::InsertControlL(int, int)
	?InstallAknEnvAsExtensionL@CAknEnv@@CAXPAVCEikonEnv@@@Z @ 1547 NONAME ; void CAknEnv::InstallAknEnvAsExtensionL(class CEikonEnv *)
	?IntegerEditorControl@CAknIntegerSettingPage@@QAEPAVCAknIntegerEdwin@@XZ @ 1548 NONAME ; class CAknIntegerEdwin * CAknIntegerSettingPage::IntegerEditorControl(void)
	?InternalSliderValue@CAknSliderSettingItem@@IAEAAHXZ @ 1549 NONAME ; int & CAknSliderSettingItem::InternalSliderValue(void)
	?InternalTextPtr@CAknTextSettingItem@@IAEAAVTPtr16@@XZ @ 1550 NONAME ; class TPtr16 & CAknTextSettingItem::InternalTextPtr(void)
	?InternalValue@CAknEnumeratedTextPopupSettingItem@@IBEHXZ @ 1551 NONAME ; int CAknEnumeratedTextPopupSettingItem::InternalValue(void) const
	?InternalValueRef@CAknIntegerSettingItem@@IAEAAHXZ @ 1552 NONAME ; int & CAknIntegerSettingItem::InternalValueRef(void)
	?InternalVolumeValue@CAknVolumeSettingItem@@IAEAAHXZ @ 1553 NONAME ; int & CAknVolumeSettingItem::InternalVolumeValue(void)
	?InternalizeL@CAknSoundInfo@@QAEXAAVRReadStream@@@Z @ 1554 NONAME ; void CAknSoundInfo::InternalizeL(class RReadStream &)
	?Interval@CAknAnimationData@@QAEHXZ @ 1555 NONAME ; int CAknAnimationData::Interval(void)
	?InvalidDataCbaResourceId@CAknSettingPage@@IBEHXZ @ 1556 NONAME ; int CAknSettingPage::InvalidDataCbaResourceId(void) const
	?IpFieldEditor@CAknIpFieldSettingPage@@QAEPAVCAknIpFieldEditor@@XZ @ 1557 NONAME ; class CAknIpFieldEditor * CAknIpFieldSettingPage::IpFieldEditor(void)
	?IsAcceptableListBoxType@CAknSelectionListDialog@@MBEHHAAH@Z @ 1558 NONAME ; int CAknSelectionListDialog::IsAcceptableListBoxType(int, int &) const
	?IsAppShutterRunning@CAknAppUi@@QBEHXZ @ 1559 NONAME ; int CAknAppUi::IsAppShutterRunning(void) const
	?IsBaseConstructed@CAknSettingPage@@IAEHXZ @ 1560 NONAME ; int CAknSettingPage::IsBaseConstructed(void)
	?IsFaded@CAknAppUiBase@@QBEHXZ @ 1561 NONAME ; int CAknAppUiBase::IsFaded(void) const
	?IsFindMatch@AknFind@@SAHABVTDesC16@@0@Z @ 1562 NONAME ; int AknFind::IsFindMatch(class TDesC16 const &, class TDesC16 const &)
	?IsFindWordSeparator@AknFind@@SAHVTChar@@@Z @ 1563 NONAME ; int AknFind::IsFindWordSeparator(class TChar)
	?IsFirst@CAknExtMultilineQueryControl@@QBEHXZ @ 1564 NONAME ; int CAknExtMultilineQueryControl::IsFirst(void) const
	?IsFirst@CAknMultilineQueryControl@@QBEHXZ @ 1565 NONAME ; int CAknMultilineQueryControl::IsFirst(void) const
	?IsForeground@CAknAppUiBase@@QBEHXZ @ 1566 NONAME ; int CAknAppUiBase::IsForeground(void) const
	?IsForeground@CAknView@@QBEHXZ @ 1567 NONAME ; int CAknView::IsForeground(void) const
	?IsFormattedCellListBox@CAknSelectionListDialog@@IBEHXZ @ 1568 NONAME ; int CAknSelectionListDialog::IsFormattedCellListBox(void) const
	?IsFullScreenApp@CAknAppUiBase@@QBEHXZ @ 1569 NONAME ; int CAknAppUiBase::IsFullScreenApp(void) const
	?IsHidden@CAknSettingItem@@QBEHXZ @ 1570 NONAME ; int CAknSettingItem::IsHidden(void) const
	?IsKeyLockEnabled@RAknKeyLock@@QAEHXZ @ 1571 NONAME ; int RAknKeyLock::IsKeyLockEnabled(void)
	?IsLayoutAwareApp@CAknAppUiBase@@QBEHXZ @ 1572 NONAME ; int CAknAppUiBase::IsLayoutAwareApp(void) const
	?IsMarqueeOn@CAknMarqueeControl@@QAE?BHXZ @ 1573 NONAME ; int const CAknMarqueeControl::IsMarqueeOn(void)
	?IsMarqueeOn@CFormattedCellListBoxData@@QAE?BHXZ @ 1574 NONAME ; int const CFormattedCellListBoxData::IsMarqueeOn(void)
	?IsNumbered@CAknSettingPage@@QBEHXZ @ 1575 NONAME ; int CAknSettingPage::IsNumbered(void) const
	?IsNumberedStyle@CAknSettingItem@@QBEHXZ @ 1576 NONAME ; int CAknSettingItem::IsNumberedStyle(void) const
	?IsNumberedStyle@CAknSettingItemList@@QAEHXZ @ 1577 NONAME ; int CAknSettingItemList::IsNumberedStyle(void)
	?IsPartialForeground@CAknAppUiBase@@QBEHXZ @ 1578 NONAME ; int CAknAppUiBase::IsPartialForeground(void) const
	?IsPrimaryVertical@CAknGridView@@QBEHXZ @ 1579 NONAME ; int CAknGridView::IsPrimaryVertical(void) const
	?IsScrollButtonDimmed@CAknNavigationDecorator@@QBEHW4TScrollButton@1@@Z @ 1580 NONAME ; int CAknNavigationDecorator::IsScrollButtonDimmed(enum CAknNavigationDecorator::TScrollButton) const
	?IsSecond@CAknExtMultilineQueryControl@@QBEHXZ @ 1581 NONAME ; int CAknExtMultilineQueryControl::IsSecond(void) const
	?IsSecond@CAknMultilineQueryControl@@QBEHXZ @ 1582 NONAME ; int CAknMultilineQueryControl::IsSecond(void) const
	?IsSpecialVariantChar@TAknLineBreaker@@SAHIAAI00@Z @ 1583 NONAME ; int TAknLineBreaker::IsSpecialVariantChar(unsigned int, unsigned int &, unsigned int &, unsigned int &)
	?IsSystemFaded@CAknSgcClient@@SAHXZ @ 1584 NONAME ; int CAknSgcClient::IsSystemFaded(void)
	?IsSystemFaded@RAknEikAppUiSession@@QBEHAAH@Z @ 1585 NONAME ; int RAknEikAppUiSession::IsSystemFaded(int &) const
	?IsTabDimmed@CAknTabGroup@@UBEHH@Z @ 1586 NONAME ; int CAknTabGroup::IsTabDimmed(int) const
	?ItemDrawer@CAknGrid@@QBEPAVCFormattedCellListBoxItemDrawer@@XZ @ 1587 NONAME ; class CFormattedCellListBoxItemDrawer * CAknGrid::ItemDrawer(void) const
	?ItemDrawer@CEikFormattedCellListBox@@QBEPAVCFormattedCellListBoxItemDrawer@@XZ @ 1588 NONAME ; class CFormattedCellListBoxItemDrawer * CEikFormattedCellListBox::ItemDrawer(void) const
	?ItemDrawer@CEikSettingsListBox@@QBEPAVCSettingsListBoxItemDrawer@@XZ @ 1589 NONAME ; class CSettingsListBoxItemDrawer * CEikSettingsListBox::ItemDrawer(void) const
	?ItemExists@CAknGridView@@IBEHH@Z @ 1590 NONAME ; int CAknGridView::ItemExists(int) const
	?ItemIndexFromVisibleIndex@CAknSettingItemArray@@QBEHH@Z @ 1591 NONAME ; int CAknSettingItemArray::ItemIndexFromVisibleIndex(int) const
	?ItemPos@CAknGridView@@UBE?AVTPoint@@H@Z @ 1592 NONAME ; class TPoint CAknGridView::ItemPos(int) const
	?ItemSize@CAknGridView@@UBE?AVTSize@@H@Z @ 1593 NONAME ; class TSize CAknGridView::ItemSize(int) const
	?ItemText@CAknFilteredTextListBoxModel@@UBE?AVTPtrC16@@H@Z @ 1594 NONAME ; class TPtrC16 CAknFilteredTextListBoxModel::ItemText(int) const
	?ItemText@CAknGridM@@UBE?AVTPtrC16@@H@Z @ 1595 NONAME ; class TPtrC16 CAknGridM::ItemText(int) const
	?ItemText@CSelectableItem@@QAE?AVTPtrC16@@XZ @ 1596 NONAME ; class TPtrC16 CSelectableItem::ItemText(void)
	?ItemWidthInPixels@CFormattedCellListBoxItemDrawer@@UBEHH@Z @ 1597 NONAME ; int CFormattedCellListBoxItemDrawer::ItemWidthInPixels(int) const
	?KeySounds@CAknAppUiBase@@QBEPAVCAknKeySoundSystem@@XZ @ 1598 NONAME ; class CAknKeySoundSystem * CAknAppUiBase::KeySounds(void) const
	?LanguageSpecificNumberConversion@AknTextUtils@@SAXAAVTDes16@@@Z @ 1599 NONAME ; void AknTextUtils::LanguageSpecificNumberConversion(class TDes16 &)
	?LatinBold12@@YAPBVCFont@@XZ @ 1600 NONAME ; class CFont const * LatinBold12(void)
	?LatinBold13@@YAPBVCFont@@XZ @ 1601 NONAME ; class CFont const * LatinBold13(void)
	?LatinBold16@@YAPBVCFont@@XZ @ 1602 NONAME ; class CFont const * LatinBold16(void)
	?LatinBold17@@YAPBVCFont@@XZ @ 1603 NONAME ; class CFont const * LatinBold17(void)
	?LatinBold19@@YAPBVCFont@@XZ @ 1604 NONAME ; class CFont const * LatinBold19(void)
	?LatinClock14@@YAPBVCFont@@XZ @ 1605 NONAME ; class CFont const * LatinClock14(void)
	?LatinPlain12@@YAPBVCFont@@XZ @ 1606 NONAME ; class CFont const * LatinPlain12(void)
	?Layout@CAknNoteControl@@QAEXXZ @ 1607 NONAME ; void CAknNoteControl::Layout(void)
	?Layout@CAknPopupList@@IAEAAUTAknPopupWindowLayoutDef@@XZ @ 1608 NONAME ; struct TAknPopupWindowLayoutDef & CAknPopupList::Layout(void)
	?Layout@CAknPopupList@@IBEABUTAknPopupWindowLayoutDef@@XZ @ 1609 NONAME ; struct TAknPopupWindowLayoutDef const & CAknPopupList::Layout(void) const
	?LayoutAndDraw@CAknNoteDialog@@QAEXXZ @ 1610 NONAME ; void CAknNoteDialog::LayoutAndDraw(void)
	?LayoutAndDraw@CAknPopupForm@@IAEXXZ @ 1611 NONAME ; void CAknPopupForm::LayoutAndDraw(void)
	?LayoutConstructL@AknLayoutTree@@SAXABUTLafTable@@HHPAVCAknLayoutData@@@Z @ 1612 NONAME ABSENT ; void AknLayoutTree::LayoutConstructL(struct TLafTable const &, int, int, class CAknLayoutData *)
	?LayoutConstructL@AknLayoutTree@@SAXABUTLafTable@@HPAVCAknLayoutData@@@Z @ 1613 NONAME ABSENT ; void AknLayoutTree::LayoutConstructL(struct TLafTable const &, int, class CAknLayoutData *)
	?LayoutConstructL@AknLayoutTree@@SAXABUTLafTable@@PAVCAknLayoutData@@@Z @ 1614 NONAME ABSENT ; void AknLayoutTree::LayoutConstructL(struct TLafTable const &, class CAknLayoutData *)
	?LayoutControl@AknLayoutUtils@@SAXPAVCCoeControl@@ABVTRect@@AAVTResourceReader@@@Z @ 1615 NONAME ; void AknLayoutUtils::LayoutControl(class CCoeControl *, class TRect const &, class TResourceReader &)
	?LayoutControl@AknLayoutUtils@@SAXPAVCCoeControl@@ABVTRect@@ABUSAknLayoutRect@1@@Z @ 1616 NONAME ; void AknLayoutUtils::LayoutControl(class CCoeControl *, class TRect const &, struct AknLayoutUtils::SAknLayoutRect const &)
	?LayoutControl@AknLayoutUtils@@SAXPAVCCoeControl@@ABVTRect@@ABVTAknWindowLineLayout@@@Z @ 1617 NONAME ; void AknLayoutUtils::LayoutControl(class CCoeControl *, class TRect const &, class TAknWindowLineLayout const &)
	?LayoutControl@AknLayoutUtils@@SAXPAVCCoeControl@@ABVTRect@@H@Z @ 1618 NONAME ; void AknLayoutUtils::LayoutControl(class CCoeControl *, class TRect const &, int)
	?LayoutControl@AknLayoutUtils@@SAXPAVCCoeControl@@ABVTRect@@HHHHHHH@Z @ 1619 NONAME ; void AknLayoutUtils::LayoutControl(class CCoeControl *, class TRect const &, int, int, int, int, int, int, int)
	?LayoutData@CFormattedCellListBoxData@@QBEPAVCAknLayoutData@@XZ @ 1620 NONAME ; class CAknLayoutData * CFormattedCellListBoxData::LayoutData(void) const
	?LayoutDraw@AknLayoutTree@@SAXPAVCBitmapContext@@ABVTRect@@ABUTLafTable@@H1PAVCAknLayoutData@@@Z @ 1621 NONAME ABSENT ; void AknLayoutTree::LayoutDraw(class CBitmapContext *, class TRect const &, struct TLafTable const &, int, class TRect const &, class CAknLayoutData *)
	?LayoutEdwin@AknLayoutUtils@@SAXPAVCEikEdwin@@ABVTRect@@AAVTResourceReader@@HPBVCFont@@H@Z @ 1622 NONAME ; void AknLayoutUtils::LayoutEdwin(class CEikEdwin *, class TRect const &, class TResourceReader &, int, class CFont const *, int)
	?LayoutEdwin@AknLayoutUtils@@SAXPAVCEikEdwin@@ABVTRect@@ABUSAknLayoutTextMultiline@1@PBVCFont@@H@Z @ 1623 NONAME ; void AknLayoutUtils::LayoutEdwin(class CEikEdwin *, class TRect const &, struct AknLayoutUtils::SAknLayoutTextMultiline const &, class CFont const *, int)
	?LayoutEdwin@AknLayoutUtils@@SAXPAVCEikEdwin@@ABVTRect@@ABVTAknMultiLineTextLayout@@PBVCFont@@H@Z @ 1624 NONAME ; void AknLayoutUtils::LayoutEdwin(class CEikEdwin *, class TRect const &, class TAknMultiLineTextLayout const &, class CFont const *, int)
	?LayoutEdwin@AknLayoutUtils@@SAXPAVCEikEdwin@@ABVTRect@@ABVTAknMultiLineTextLayout@@W4TAknsQsnTextColorsIndex@@PBVCFont@@H@Z @ 1625 NONAME ; void AknLayoutUtils::LayoutEdwin(class CEikEdwin *, class TRect const &, class TAknMultiLineTextLayout const &, enum TAknsQsnTextColorsIndex, class CFont const *, int)
	?LayoutEdwin@AknLayoutUtils@@SAXPAVCEikEdwin@@ABVTRect@@ABVTAknTextLineLayout@@PBVCFont@@H@Z @ 1626 NONAME ; void AknLayoutUtils::LayoutEdwin(class CEikEdwin *, class TRect const &, class TAknTextLineLayout const &, class CFont const *, int)
	?LayoutEdwin@AknLayoutUtils@@SAXPAVCEikEdwin@@ABVTRect@@ABVTAknTextLineLayout@@W4TAknsQsnTextColorsIndex@@PBVCFont@@H@Z @ 1627 NONAME ; void AknLayoutUtils::LayoutEdwin(class CEikEdwin *, class TRect const &, class TAknTextLineLayout const &, enum TAknsQsnTextColorsIndex, class CFont const *, int)
	?LayoutEdwin@AknLayoutUtils@@SAXPAVCEikEdwin@@ABVTRect@@HHHHHHHHHPBVCFont@@H@Z @ 1628 NONAME ; void AknLayoutUtils::LayoutEdwin(class CEikEdwin *, class TRect const &, int, int, int, int, int, int, int, int, int, class CFont const *, int)
	?LayoutEdwin@AknLayoutUtils@@SAXPAVCEikEdwin@@ABVTRect@@HHHHHHHHHW4TAknsQsnTextColorsIndex@@PBVCFont@@H@Z @ 1629 NONAME ; void AknLayoutUtils::LayoutEdwin(class CEikEdwin *, class TRect const &, int, int, int, int, int, int, int, int, int, enum TAknsQsnTextColorsIndex, class CFont const *, int)
	?LayoutEdwin@AknLayoutUtils@@SAXPAVCEikEdwin@@ABVTRect@@HHPBVCFont@@H@Z @ 1630 NONAME ; void AknLayoutUtils::LayoutEdwin(class CEikEdwin *, class TRect const &, int, int, class CFont const *, int)
	?LayoutFontFromId@AknLayoutUtils@@SAPBVCAknLayoutFont@@HPBV2@@Z @ 1631 NONAME ; class CAknLayoutFont const * AknLayoutUtils::LayoutFontFromId(int, class CAknLayoutFont const *)
	?LayoutHorizontalScrollBar@AknLayoutUtils@@SAXPAVCEikScrollBarFrame@@ABVTRect@@ABVTAknWindowLineLayout@@@Z @ 1632 NONAME ; void AknLayoutUtils::LayoutHorizontalScrollBar(class CEikScrollBarFrame *, class TRect const &, class TAknWindowLineLayout const &)
	?LayoutId@CAknSettingCache@@QAE?AW4TAknLayoutId@@XZ @ 1633 NONAME ; enum TAknLayoutId CAknSettingCache::LayoutId(void)
	?LayoutImage@AknLayoutUtils@@SAXPAVCEikImage@@ABVTRect@@AAVTResourceReader@@@Z @ 1634 NONAME ; void AknLayoutUtils::LayoutImage(class CEikImage *, class TRect const &, class TResourceReader &)
	?LayoutImage@AknLayoutUtils@@SAXPAVCEikImage@@ABVTRect@@ABUSAknLayoutRect@1@@Z @ 1635 NONAME ; void AknLayoutUtils::LayoutImage(class CEikImage *, class TRect const &, struct AknLayoutUtils::SAknLayoutRect const &)
	?LayoutImage@AknLayoutUtils@@SAXPAVCEikImage@@ABVTRect@@ABVTAknWindowLineLayout@@@Z @ 1636 NONAME ; void AknLayoutUtils::LayoutImage(class CEikImage *, class TRect const &, class TAknWindowLineLayout const &)
	?LayoutImage@AknLayoutUtils@@SAXPAVCEikImage@@ABVTRect@@H@Z @ 1637 NONAME ; void AknLayoutUtils::LayoutImage(class CEikImage *, class TRect const &, int)
	?LayoutImage@AknLayoutUtils@@SAXPAVCEikImage@@ABVTRect@@HHHHHHH@Z @ 1638 NONAME ; void AknLayoutUtils::LayoutImage(class CEikImage *, class TRect const &, int, int, int, int, int, int, int)
	?LayoutInit@CFormattedCellListBoxData@@QBEHXZ @ 1639 NONAME ; int CFormattedCellListBoxData::LayoutInit(void) const
	?LayoutLabel@AknLayoutUtils@@SAXPAVCEikLabel@@ABVTRect@@AAVTResourceReader@@PBVCFont@@@Z @ 1640 NONAME ; void AknLayoutUtils::LayoutLabel(class CEikLabel *, class TRect const &, class TResourceReader &, class CFont const *)
	?LayoutLabel@AknLayoutUtils@@SAXPAVCEikLabel@@ABVTRect@@ABUSAknLayoutTextMultiline@1@PBVCFont@@@Z @ 1641 NONAME ; void AknLayoutUtils::LayoutLabel(class CEikLabel *, class TRect const &, struct AknLayoutUtils::SAknLayoutTextMultiline const &, class CFont const *)
	?LayoutLabel@AknLayoutUtils@@SAXPAVCEikLabel@@ABVTRect@@ABVTAknMultiLineTextLayout@@PBVCFont@@@Z @ 1642 NONAME ; void AknLayoutUtils::LayoutLabel(class CEikLabel *, class TRect const &, class TAknMultiLineTextLayout const &, class CFont const *)
	?LayoutLabel@AknLayoutUtils@@SAXPAVCEikLabel@@ABVTRect@@ABVTAknTextLineLayout@@PBVCFont@@@Z @ 1643 NONAME ; void AknLayoutUtils::LayoutLabel(class CEikLabel *, class TRect const &, class TAknTextLineLayout const &, class CFont const *)
	?LayoutLabel@AknLayoutUtils@@SAXPAVCEikLabel@@ABVTRect@@HHHHHHHHPBVCFont@@@Z @ 1644 NONAME ; void AknLayoutUtils::LayoutLabel(class CEikLabel *, class TRect const &, int, int, int, int, int, int, int, int, class CFont const *)
	?LayoutLabel@AknLayoutUtils@@SAXPAVCEikLabel@@ABVTRect@@HPBVCFont@@@Z @ 1645 NONAME ; void AknLayoutUtils::LayoutLabel(class CEikLabel *, class TRect const &, int, class CFont const *)
	?LayoutMetricsPosition@AknLayoutUtils@@SAHW4TAknLayoutMetrics@1@AAVTPoint@@@Z @ 1646 NONAME ; int AknLayoutUtils::LayoutMetricsPosition(enum AknLayoutUtils::TAknLayoutMetrics, class TPoint &)
	?LayoutMetricsRect@AknLayoutUtils@@SAHW4TAknLayoutMetrics@1@AAVTRect@@@Z @ 1647 NONAME ; int AknLayoutUtils::LayoutMetricsRect(enum AknLayoutUtils::TAknLayoutMetrics, class TRect &)
	?LayoutMetricsSize@AknLayoutUtils@@SAHW4TAknLayoutMetrics@1@AAVTSize@@@Z @ 1648 NONAME ; int AknLayoutUtils::LayoutMetricsSize(enum AknLayoutUtils::TAknLayoutMetrics, class TSize &)
	?LayoutMfne@AknLayoutUtils@@SAXPAVCEikMfne@@ABVTRect@@AAVTResourceReader@@@Z @ 1649 NONAME ; void AknLayoutUtils::LayoutMfne(class CEikMfne *, class TRect const &, class TResourceReader &)
	?LayoutMfne@AknLayoutUtils@@SAXPAVCEikMfne@@ABVTRect@@ABUSAknLayoutText@1@@Z @ 1650 NONAME ; void AknLayoutUtils::LayoutMfne(class CEikMfne *, class TRect const &, struct AknLayoutUtils::SAknLayoutText const &)
	?LayoutMfne@AknLayoutUtils@@SAXPAVCEikMfne@@ABVTRect@@ABVTAknTextLineLayout@@@Z @ 1651 NONAME ; void AknLayoutUtils::LayoutMfne(class CEikMfne *, class TRect const &, class TAknTextLineLayout const &)
	?LayoutMfne@AknLayoutUtils@@SAXPAVCEikMfne@@ABVTRect@@H@Z @ 1652 NONAME ; void AknLayoutUtils::LayoutMfne(class CEikMfne *, class TRect const &, int)
	?LayoutMfne@AknLayoutUtils@@SAXPAVCEikMfne@@ABVTRect@@HHHHHHH@Z @ 1653 NONAME ; void AknLayoutUtils::LayoutMfne(class CEikMfne *, class TRect const &, int, int, int, int, int, int, int)
	?LayoutMirrored@AknLayoutUtils@@SAHXZ @ 1654 NONAME ; int AknLayoutUtils::LayoutMirrored(void)
	?LayoutRect@TAknLayoutRect@@QAEXABVTRect@@AAVTResourceReader@@@Z @ 1655 NONAME ; void TAknLayoutRect::LayoutRect(class TRect const &, class TResourceReader &)
	?LayoutRect@TAknLayoutRect@@QAEXABVTRect@@ABUSAknLayoutRect@AknLayoutUtils@@@Z @ 1656 NONAME ; void TAknLayoutRect::LayoutRect(class TRect const &, struct AknLayoutUtils::SAknLayoutRect const &)
	?LayoutRect@TAknLayoutRect@@QAEXABVTRect@@ABVTAknWindowLineLayout@@@Z @ 1657 NONAME ; void TAknLayoutRect::LayoutRect(class TRect const &, class TAknWindowLineLayout const &)
	?LayoutRect@TAknLayoutRect@@QAEXABVTRect@@H@Z @ 1658 NONAME ; void TAknLayoutRect::LayoutRect(class TRect const &, int)
	?LayoutRect@TAknLayoutRect@@QAEXABVTRect@@HHHHHHH@Z @ 1659 NONAME ; void TAknLayoutRect::LayoutRect(class TRect const &, int, int, int, int, int, int, int)
	?LayoutSecretEditor@AknLayoutUtils@@SAXPAVCEikSecretEditor@@ABVTRect@@ABUSAknLayoutText@1@@Z @ 1660 NONAME ; void AknLayoutUtils::LayoutSecretEditor(class CEikSecretEditor *, class TRect const &, struct AknLayoutUtils::SAknLayoutText const &)
	?LayoutSecretEditor@AknLayoutUtils@@SAXPAVCEikSecretEditor@@ABVTRect@@ABVTAknTextLineLayout@@@Z @ 1661 NONAME ; void AknLayoutUtils::LayoutSecretEditor(class CEikSecretEditor *, class TRect const &, class TAknTextLineLayout const &)
	?LayoutSizeChanged@AknLayoutTree@@SAXABVTRect@@ABUTLafTable@@HHPAVCAknLayoutData@@@Z @ 1662 NONAME ABSENT ; void AknLayoutTree::LayoutSizeChanged(class TRect const &, struct TLafTable const &, int, int, class CAknLayoutData *)
	?LayoutSizeChanged@AknLayoutTree@@SAXABVTRect@@ABUTLafTable@@HPAVCAknLayoutData@@@Z @ 1663 NONAME ABSENT ; void AknLayoutTree::LayoutSizeChanged(class TRect const &, struct TLafTable const &, int, class CAknLayoutData *)
	?LayoutText@TAknLayoutText@@QAEXABVTRect@@AAVTResourceReader@@PBVCFont@@@Z @ 1664 NONAME ; void TAknLayoutText::LayoutText(class TRect const &, class TResourceReader &, class CFont const *)
	?LayoutText@TAknLayoutText@@QAEXABVTRect@@ABUSAknLayoutText@AknLayoutUtils@@PBVCFont@@@Z @ 1665 NONAME ; void TAknLayoutText::LayoutText(class TRect const &, struct AknLayoutUtils::SAknLayoutText const &, class CFont const *)
	?LayoutText@TAknLayoutText@@QAEXABVTRect@@ABVTAknTextLineLayout@@PBVCFont@@@Z @ 1666 NONAME ; void TAknLayoutText::LayoutText(class TRect const &, class TAknTextLineLayout const &, class CFont const *)
	?LayoutText@TAknLayoutText@@QAEXABVTRect@@HHHHHHHPBVCFont@@@Z @ 1667 NONAME ; void TAknLayoutText::LayoutText(class TRect const &, int, int, int, int, int, int, int, class CFont const *)
	?LayoutText@TAknLayoutText@@QAEXABVTRect@@HPBVCFont@@@Z @ 1668 NONAME ; void TAknLayoutText::LayoutText(class TRect const &, int, class CFont const *)
	?LayoutVerticalScrollBar@AknLayoutUtils@@SAXPAVCEikScrollBarFrame@@ABVTRect@@ABVTAknWindowLineLayout@@@Z @ 1669 NONAME ; void AknLayoutUtils::LayoutVerticalScrollBar(class CEikScrollBarFrame *, class TRect const &, class TAknWindowLineLayout const &)
	?LineCursorWidth@CAknPhoneNumberEditor@@UBEHXZ @ 1670 NONAME ; int CAknPhoneNumberEditor::LineCursorWidth(void) const
	?ListBox@CAknListQueryDialog@@QBEPAVCEikListBox@@XZ @ 1671 NONAME ; class CEikListBox * CAknListQueryDialog::ListBox(void) const
	?ListBox@CAknPopupFieldList@@IBEPAVCEikListBox@@XZ @ 1672 NONAME ; class CEikListBox * CAknPopupFieldList::ListBox(void) const
	?ListBox@CAknPopupList@@IBEPAVCEikListBox@@XZ @ 1673 NONAME ; class CEikListBox * CAknPopupList::ListBox(void) const
	?ListBox@CAknPopupList@@QAEPAVCEikListBox@@XZ @ 1674 NONAME ; class CEikListBox * CAknPopupList::ListBox(void)
	?ListBox@CAknSelectionListDialog@@MBEPAVCEikListBox@@XZ @ 1675 NONAME ; class CEikListBox * CAknSelectionListDialog::ListBox(void) const
	?ListBox@CAknSettingItemList@@QAEPAVCEikFormattedCellListBox@@XZ @ 1676 NONAME ; class CEikFormattedCellListBox * CAknSettingItemList::ListBox(void)
	?ListBoxControl@CAknCheckBoxSettingPage@@UBEPAVCAknSetStyleListBox@@XZ @ 1677 NONAME ; class CAknSetStyleListBox * CAknCheckBoxSettingPage::ListBoxControl(void) const
	?ListBoxControl@CAknPopupSettingPage@@UBEPAVCAknSetStyleListBox@@XZ @ 1678 NONAME ; class CAknSetStyleListBox * CAknPopupSettingPage::ListBoxControl(void) const
	?ListBoxControl@CAknRadioButtonSettingPage@@UBEPAVCAknSetStyleListBox@@XZ @ 1679 NONAME ; class CAknSetStyleListBox * CAknRadioButtonSettingPage::ListBoxControl(void) const
	?ListBoxControl@CAknTransparentCameraSettingPage@@UBEPAVCAknSetStyleListBox@@XZ @ 1680 NONAME ; class CAknSetStyleListBox * CAknTransparentCameraSettingPage::ListBoxControl(void) const
	?ListBoxIndex@CAknGridView@@QBEHH@Z @ 1681 NONAME ; int CAknGridView::ListBoxIndex(int) const
	?ListBoxIndexFromLogicalPos@CAknGridView@@QBEXAAHHH@Z @ 1682 NONAME ; void CAknGridView::ListBoxIndexFromLogicalPos(int &, int, int) const
	?ListBoxLinesShown@AknListBoxUtils@@SAHPAVMAknsSkinInstance@@PAVMAknsControlContext@@@Z @ 1683 NONAME ; int AknListBoxUtils::ListBoxLinesShown(class MAknsSkinInstance *, class MAknsControlContext *)
	?ListBoxText@CAknSettingItem@@QAEPAVHBufC16@@XZ @ 1684 NONAME ; class HBufC16 * CAknSettingItem::ListBoxText(void)
	?ListControl@CAknListQueryDialog@@QBEPAVCAknListQueryControl@@XZ @ 1685 NONAME ; class CAknListQueryControl * CAknListQueryDialog::ListControl(void) const
	?LoadAknLayoutL@CAknEnv@@QAEHXZ @ 1686 NONAME ; int CAknEnv::LoadAknLayoutL(void)
	?LoadL@CAknBinaryPopupSettingItem@@UAEXXZ @ 1687 NONAME ; void CAknBinaryPopupSettingItem::LoadL(void)
	?LoadL@CAknEnumeratedTextPopupSettingItem@@UAEXXZ @ 1688 NONAME ; void CAknEnumeratedTextPopupSettingItem::LoadL(void)
	?LoadL@CAknIntegerSettingItem@@UAEXXZ @ 1689 NONAME ; void CAknIntegerSettingItem::LoadL(void)
	?LoadL@CAknIpFieldSettingItem@@UAEXXZ @ 1690 NONAME ; void CAknIpFieldSettingItem::LoadL(void)
	?LoadL@CAknSettingItem@@UAEXXZ @ 1691 NONAME ; void CAknSettingItem::LoadL(void)
	?LoadL@CAknSliderSettingItem@@UAEXXZ @ 1692 NONAME ; void CAknSliderSettingItem::LoadL(void)
	?LoadL@CAknTextSettingItem@@UAEXXZ @ 1693 NONAME ; void CAknTextSettingItem::LoadL(void)
	?LoadL@CAknTimeOffsetSettingItem@@UAEXXZ @ 1694 NONAME ; void CAknTimeOffsetSettingItem::LoadL(void)
	?LoadL@CAknTimeOrDateSettingItem@@UAEXXZ @ 1695 NONAME ; void CAknTimeOrDateSettingItem::LoadL(void)
	?LoadL@CAknVolumeSettingItem@@UAEXXZ @ 1696 NONAME ; void CAknVolumeSettingItem::LoadL(void)
	?LoadScalableText@AknTextUtils@@SAHAAVCCoeEnv@@HAAVTDes16@@@Z @ 1697 NONAME ; int AknTextUtils::LoadScalableText(class CCoeEnv &, int, class TDes16 &)
	?LoadScalableTextL@AknTextUtils@@SAPAVHBufC16@@AAVCCoeEnv@@H@Z @ 1698 NONAME ; class HBufC16 * AknTextUtils::LoadScalableTextL(class CCoeEnv &, int)
	?LoadScalableTextLC@AknTextUtils@@SAPAVHBufC16@@AAVCCoeEnv@@H@Z @ 1699 NONAME ; class HBufC16 * AknTextUtils::LoadScalableTextLC(class CCoeEnv &, int)
	?LoadSettingsL@CAknSettingItemList@@UAEXXZ @ 1700 NONAME ; void CAknSettingItemList::LoadSettingsL(void)
	?LockContext@CAknKeySoundSystem@@QAEXXZ @ 1701 NONAME ; void CAknKeySoundSystem::LockContext(void)
	?LogicalPosFromDataIndex@CAknGridView@@QBEXHAAH0@Z @ 1702 NONAME ; void CAknGridView::LogicalPosFromDataIndex(int, int &, int &) const
	?LogicalPosFromListBoxIndex@CAknGridView@@QBEXHAAH0@Z @ 1703 NONAME ; void CAknGridView::LogicalPosFromListBoxIndex(int, int &, int &) const
	?MAknSgcStatusPaneRedrawCoordinator_Reserved_1@MAknSgcStatusPaneRedrawCoordinator@@EAEXXZ @ 1704 NONAME ; void MAknSgcStatusPaneRedrawCoordinator::MAknSgcStatusPaneRedrawCoordinator_Reserved_1(void)
	?MAknSgcStatusPaneRedrawCoordinator_Reserved_2@MAknSgcStatusPaneRedrawCoordinator@@EAEXXZ @ 1705 NONAME ; void MAknSgcStatusPaneRedrawCoordinator::MAknSgcStatusPaneRedrawCoordinator_Reserved_2(void)
	?MAknSyncDrawer_Reserved_1@MAknSyncDrawer@@EAEXXZ @ 1706 NONAME ; void MAknSyncDrawer::MAknSyncDrawer_Reserved_1(void)
	?MAknSyncDrawer_Reserved_2@MAknSyncDrawer@@EAEXXZ @ 1707 NONAME ; void MAknSyncDrawer::MAknSyncDrawer_Reserved_2(void)
	?MCoeFepAwareTextEditor_Extension1_Reserved_2@CAknNumericSecretEditor@@EAEXXZ @ 1708 NONAME ; void CAknNumericSecretEditor::MCoeFepAwareTextEditor_Extension1_Reserved_2(void)
	?MCoeFepAwareTextEditor_Extension1_Reserved_2@CAknPhoneNumberEditor@@EAEXXZ @ 1709 NONAME ; void CAknPhoneNumberEditor::MCoeFepAwareTextEditor_Extension1_Reserved_2(void)
	?MCoeFepAwareTextEditor_Extension1_Reserved_3@CAknNumericSecretEditor@@EAEXXZ @ 1710 NONAME ; void CAknNumericSecretEditor::MCoeFepAwareTextEditor_Extension1_Reserved_3(void)
	?MCoeFepAwareTextEditor_Extension1_Reserved_3@CAknPhoneNumberEditor@@EAEXXZ @ 1711 NONAME ; void CAknPhoneNumberEditor::MCoeFepAwareTextEditor_Extension1_Reserved_3(void)
	?MCoeFepAwareTextEditor_Extension1_Reserved_4@CAknNumericSecretEditor@@EAEXXZ @ 1712 NONAME ; void CAknNumericSecretEditor::MCoeFepAwareTextEditor_Extension1_Reserved_4(void)
	?MCoeFepAwareTextEditor_Extension1_Reserved_4@CAknPhoneNumberEditor@@EAEXXZ @ 1713 NONAME ; void CAknPhoneNumberEditor::MCoeFepAwareTextEditor_Extension1_Reserved_4(void)
	?MCoeFepAwareTextEditor_Reserved_2@CAknNumericSecretEditor@@EAEXXZ @ 1714 NONAME ; void CAknNumericSecretEditor::MCoeFepAwareTextEditor_Reserved_2(void)
	?MCoeFepAwareTextEditor_Reserved_2@CAknPhoneNumberEditor@@EAEXXZ @ 1715 NONAME ; void CAknPhoneNumberEditor::MCoeFepAwareTextEditor_Reserved_2(void)
	?MListBoxModel_Reserved@CAknFilteredTextListBoxModel@@EAEPAXXZ @ 1716 NONAME ; void * CAknFilteredTextListBoxModel::MListBoxModel_Reserved(void)
	?MListBoxModel_Reserved@CAknGrid@@EAEPAXXZ @ 1717 NONAME ; void * CAknGrid::MListBoxModel_Reserved(void)
	?MParser_Reserved_2@CAknItemFinder@@UAEXXZ @ 1718 NONAME ABSENT
	?MakeLeftSoftkeyVisible@CAknQueryDialog@@QAEXH@Z @ 1719 NONAME ; void CAknQueryDialog::MakeLeftSoftkeyVisible(int)
	?MakeScrollButtonVisible@CAknNavigationDecorator@@QAEXH@Z @ 1720 NONAME ; void CAknNavigationDecorator::MakeScrollButtonVisible(int)
	?MakeViewClassInstanceL@CAknColumnListBox@@UAEPAVCListBoxView@@XZ @ 1721 NONAME ; class CListBoxView * CAknColumnListBox::MakeViewClassInstanceL(void)
	?MakeViewClassInstanceL@CAknGMSStyleGrid@@UAEPAVCListBoxView@@XZ @ 1722 NONAME ; class CListBoxView * CAknGMSStyleGrid::MakeViewClassInstanceL(void)
	?MakeViewClassInstanceL@CAknGrid@@UAEPAVCListBoxView@@XZ @ 1723 NONAME ; class CListBoxView * CAknGrid::MakeViewClassInstanceL(void)
	?MakeViewClassInstanceL@CAknSetStyleListBox@@MAEPAVCListBoxView@@XZ @ 1724 NONAME ; class CListBoxView * CAknSetStyleListBox::MakeViewClassInstanceL(void)
	?MakeViewClassInstanceL@CAknSingleGraphicHeadingStyleListBox@@MAEPAVCListBoxView@@XZ @ 1725 NONAME ; class CListBoxView * CAknSingleGraphicHeadingStyleListBox::MakeViewClassInstanceL(void)
	?MakeViewClassInstanceL@CAknSingleHeadingStyleListBox@@MAEPAVCListBoxView@@XZ @ 1726 NONAME ; class CListBoxView * CAknSingleHeadingStyleListBox::MakeViewClassInstanceL(void)
	?MakeViewClassInstanceL@CAknSingleNumberHeadingStyleListBox@@MAEPAVCListBoxView@@XZ @ 1727 NONAME ; class CListBoxView * CAknSingleNumberHeadingStyleListBox::MakeViewClassInstanceL(void)
	?MakeViewClassInstanceL@CEikFormattedCellListBox@@UAEPAVCListBoxView@@XZ @ 1728 NONAME ; class CListBoxView * CEikFormattedCellListBox::MakeViewClassInstanceL(void)
	?MakeViewClassInstanceL@CEikSettingsListBox@@UAEPAVCListBoxView@@XZ @ 1729 NONAME ; class CListBoxView * CEikSettingsListBox::MakeViewClassInstanceL(void)
	?MapColors@CAknAnimatedGc@@MAEXABVTRect@@PBVTRgb@@HH@Z @ 1730 NONAME ; void CAknAnimatedGc::MapColors(class TRect const &, class TRgb const *, int, int)
	?MapSymbianDateFormatToVisualDateFormat@AknDateFormatUtils@@SA?AW4TAknVisualDateFormat@@W4TDateFormat@@PAW4TLanguage@@@Z @ 1731 NONAME ; enum TAknVisualDateFormat AknDateFormatUtils::MapSymbianDateFormatToVisualDateFormat(enum TDateFormat, enum TLanguage *)
	?MapVisualDateFormatToSymbianDateFormat@AknDateFormatUtils@@SA?AW4TDateFormat@@W4TAknVisualDateFormat@@PAW4TLanguage@@@Z @ 1732 NONAME ; enum TDateFormat AknDateFormatUtils::MapVisualDateFormatToSymbianDateFormat(enum TAknVisualDateFormat, enum TLanguage *)
	?Margins@CAknPhoneNumberEditor@@QBE?AVTMargins8@@XZ @ 1733 NONAME ; class TMargins8 CAknPhoneNumberEditor::Margins(void) const
	?MasrActivateGc@TAknSyncControlDrawer@@UBEXXZ @ 1734 NONAME ; void TAknSyncControlDrawer::MasrActivateGc(void) const
	?MasrDeactivateGc@TAknSyncControlDrawer@@UBEXXZ @ 1735 NONAME ; void TAknSyncControlDrawer::MasrDeactivateGc(void) const
	?MasrDraw@TAknSyncControlDrawer@@UAEXXZ @ 1736 NONAME ; void TAknSyncControlDrawer::MasrDraw(void)
	?MasrPrepareForDraw@TAknSyncControlDrawer@@UAEXXZ @ 1737 NONAME ; void TAknSyncControlDrawer::MasrPrepareForDraw(void)
	?MatchableTextArray@CAknFilteredTextListBoxModel@@UBEPBVMDesC16Array@@XZ @ 1738 NONAME ; class MDesC16Array const * CAknFilteredTextListBoxModel::MatchableTextArray(void) const
	?MatchingMode@CAknPasswordSettingPage@@QAE?AW4TAknPasswordMatchingMode@1@XZ @ 1739 NONAME ; enum CAknPasswordSettingPage::TAknPasswordMatchingMode CAknPasswordSettingPage::MatchingMode(void)
	?MaxPasswordLength@CAknPasswordSettingPage@@QBEHXZ @ 1740 NONAME ; int CAknPasswordSettingPage::MaxPasswordLength(void) const
	?MaxTextLength@CAknQueryDialog@@SAHPBVCAknQueryControl@@ABVTDes16@@H@Z @ 1741 NONAME ; int CAknQueryDialog::MaxTextLength(class CAknQueryControl const *, class TDes16 const &, int)
	?MaxTextLength@CAknQueryDialog@@SAHPBVCAknQueryControl@@PBVTDes16@@H@Z @ 1742 NONAME ; int CAknQueryDialog::MaxTextLength(class CAknQueryControl const *, class TDes16 const *, int)
	?MdcArray@CAknPopupFieldText@@QBEPBVMDesC16Array@@XZ @ 1743 NONAME ; class MDesC16Array const * CAknPopupFieldText::MdcArray(void) const
	?MdcArray@CAknQueryValueDate@@UBEPBVMDesC16Array@@XZ @ 1744 NONAME ; class MDesC16Array const * CAknQueryValueDate::MdcArray(void) const
	?MdcArray@CAknQueryValueDuration@@UBEPBVMDesC16Array@@XZ @ 1745 NONAME ; class MDesC16Array const * CAknQueryValueDuration::MdcArray(void) const
	?MdcArray@CAknQueryValueNumber@@UBEPBVMDesC16Array@@XZ @ 1746 NONAME ; class MDesC16Array const * CAknQueryValueNumber::MdcArray(void) const
	?MdcArray@CAknQueryValuePhone@@UBEPBVMDesC16Array@@XZ @ 1747 NONAME ; class MDesC16Array const * CAknQueryValuePhone::MdcArray(void) const
	?MdcArray@CAknQueryValueText@@UBEPBVMDesC16Array@@XZ @ 1748 NONAME ; class MDesC16Array const * CAknQueryValueText::MdcArray(void) const
	?MdcArray@CAknQueryValueTime@@UBEPBVMDesC16Array@@XZ @ 1749 NONAME ; class MDesC16Array const * CAknQueryValueTime::MdcArray(void) const
	?MdcaCount@CAknFilteredTextListBoxModel@@EBEHXZ @ 1750 NONAME ; int CAknFilteredTextListBoxModel::MdcaCount(void) const
	?MdcaCount@CAknListBoxLayoutDecorator@@UBEHXZ @ 1751 NONAME ; int CAknListBoxLayoutDecorator::MdcaCount(void) const
	?MdcaCount@CAknQueryValueDateArray@@UBEHXZ @ 1752 NONAME ; int CAknQueryValueDateArray::MdcaCount(void) const
	?MdcaCount@CAknQueryValueDurationArray@@UBEHXZ @ 1753 NONAME ; int CAknQueryValueDurationArray::MdcaCount(void) const
	?MdcaCount@CAknQueryValueNumberArray@@UBEHXZ @ 1754 NONAME ; int CAknQueryValueNumberArray::MdcaCount(void) const
	?MdcaCount@CAknQueryValuePhoneArray@@UBEHXZ @ 1755 NONAME ; int CAknQueryValuePhoneArray::MdcaCount(void) const
	?MdcaCount@CAknQueryValueTextArray@@UBEHXZ @ 1756 NONAME ; int CAknQueryValueTextArray::MdcaCount(void) const
	?MdcaCount@CAknQueryValueTimeArray@@UBEHXZ @ 1757 NONAME ; int CAknQueryValueTimeArray::MdcaCount(void) const
	?MdcaCount@CAknSettingItemArray@@UBEHXZ @ 1758 NONAME ; int CAknSettingItemArray::MdcaCount(void) const
	?MdcaCount@CSelectionItemList@@UBEHXZ @ 1759 NONAME ; int CSelectionItemList::MdcaCount(void) const
	?MdcaCount@TAknDesCArrayDecorator@@UBEHXZ @ 1760 NONAME ; int TAknDesCArrayDecorator::MdcaCount(void) const
	?MdcaPoint@CAknFilteredTextListBoxModel@@EBE?AVTPtrC16@@H@Z @ 1761 NONAME ; class TPtrC16 CAknFilteredTextListBoxModel::MdcaPoint(int) const
	?MdcaPoint@CAknListBoxLayoutDecorator@@UBE?AVTPtrC16@@H@Z @ 1762 NONAME ; class TPtrC16 CAknListBoxLayoutDecorator::MdcaPoint(int) const
	?MdcaPoint@CAknQueryValueDateArray@@UBE?AVTPtrC16@@H@Z @ 1763 NONAME ; class TPtrC16 CAknQueryValueDateArray::MdcaPoint(int) const
	?MdcaPoint@CAknQueryValueDurationArray@@UBE?AVTPtrC16@@H@Z @ 1764 NONAME ; class TPtrC16 CAknQueryValueDurationArray::MdcaPoint(int) const
	?MdcaPoint@CAknQueryValueNumberArray@@UBE?AVTPtrC16@@H@Z @ 1765 NONAME ; class TPtrC16 CAknQueryValueNumberArray::MdcaPoint(int) const
	?MdcaPoint@CAknQueryValuePhoneArray@@UBE?AVTPtrC16@@H@Z @ 1766 NONAME ; class TPtrC16 CAknQueryValuePhoneArray::MdcaPoint(int) const
	?MdcaPoint@CAknQueryValueTextArray@@UBE?AVTPtrC16@@H@Z @ 1767 NONAME ; class TPtrC16 CAknQueryValueTextArray::MdcaPoint(int) const
	?MdcaPoint@CAknQueryValueTimeArray@@UBE?AVTPtrC16@@H@Z @ 1768 NONAME ; class TPtrC16 CAknQueryValueTimeArray::MdcaPoint(int) const
	?MdcaPoint@CAknSettingItemArray@@UBE?AVTPtrC16@@H@Z @ 1769 NONAME ; class TPtrC16 CAknSettingItemArray::MdcaPoint(int) const
	?MdcaPoint@CSelectionItemList@@UBE?AVTPtrC16@@H@Z @ 1770 NONAME ; class TPtrC16 CSelectionItemList::MdcaPoint(int) const
	?MdcaPoint@TAknDesCArrayDecorator@@UBE?AVTPtrC16@@H@Z @ 1771 NONAME ; class TPtrC16 TAknDesCArrayDecorator::MdcaPoint(int) const
	?MenuBar@CAknView@@UBEPAVCEikMenuBar@@XZ @ 1772 NONAME ; class CEikMenuBar * CAknView::MenuBar(void) const
	?MenuPopupWindowGraphics@AknPopupLayouts@@SAXAAUTAknPopupWindowLayoutDef@@@Z @ 1773 NONAME ; void AknPopupLayouts::MenuPopupWindowGraphics(struct TAknPopupWindowLayoutDef &)
	?MenuRect@AknPopupLayouts@@SA?AVTRect@@AAUTAknPopupWindowLayoutDef@@@Z @ 1774 NONAME ; class TRect AknPopupLayouts::MenuRect(struct TAknPopupWindowLayoutDef &)
	?MenuShowing@CAknDialog@@IBEHXZ @ 1775 NONAME ; int CAknDialog::MenuShowing(void) const
	?MenuShowing@CAknSettingPage@@IBEHXZ @ 1776 NONAME ; int CAknSettingPage::MenuShowing(void) const
	?MessageBox@CAknListQueryDialog@@QBEPAVCAknMessageQueryControl@@XZ @ 1777 NONAME ; class CAknMessageQueryControl * CAknListQueryDialog::MessageBox(void) const
	?Mfne@CAknMfneSettingPage@@IBEPAVCEikMfne@@XZ @ 1778 NONAME ; class CEikMfne * CAknMfneSettingPage::Mfne(void) const
	?MinimizedEdwinRect@AknLayoutUtils@@SA?AVTRect@@PBVCEikEdwin@@@Z @ 1779 NONAME ; class TRect AknLayoutUtils::MinimizedEdwinRect(class CEikEdwin const *)
	?MinimumCellSize@CFormattedCellListBoxItemDrawer@@UBE?AVTSize@@XZ @ 1780 NONAME ; class TSize CFormattedCellListBoxItemDrawer::MinimumCellSize(void) const
	?MinimumSize@CAknAppStyleGrid@@UAE?AVTSize@@XZ @ 1781 NONAME ; class TSize CAknAppStyleGrid::MinimumSize(void)
	?MinimumSize@CAknBitmapAnimation@@UAE?AVTSize@@XZ @ 1782 NONAME ; class TSize CAknBitmapAnimation::MinimumSize(void)
	?MinimumSize@CAknCaleMonthStyleGrid@@UAE?AVTSize@@XZ @ 1783 NONAME ; class TSize CAknCaleMonthStyleGrid::MinimumSize(void)
	?MinimumSize@CAknCharMap@@UAE?AVTSize@@XZ @ 1784 NONAME ; class TSize CAknCharMap::MinimumSize(void)
	?MinimumSize@CAknDouble2GraphicLargeGraphicStyleListBox@@UAE?AVTSize@@XZ @ 1785 NONAME ; class TSize CAknDouble2GraphicLargeGraphicStyleListBox::MinimumSize(void)
	?MinimumSize@CAknDouble2GraphicLargeStyleListBox@@UAE?AVTSize@@XZ @ 1786 NONAME ; class TSize CAknDouble2GraphicLargeStyleListBox::MinimumSize(void)
	?MinimumSize@CAknDouble2GraphicStyleListBox@@UAE?AVTSize@@XZ @ 1787 NONAME ; class TSize CAknDouble2GraphicStyleListBox::MinimumSize(void)
	?MinimumSize@CAknDouble2LargeStyleListBox@@UAE?AVTSize@@XZ @ 1788 NONAME ; class TSize CAknDouble2LargeStyleListBox::MinimumSize(void)
	?MinimumSize@CAknDouble2PopupMenuStyleListBox@@UAE?AVTSize@@XZ @ 1789 NONAME ; class TSize CAknDouble2PopupMenuStyleListBox::MinimumSize(void)
	?MinimumSize@CAknDoubleGraphicStyleListBox@@UAE?AVTSize@@XZ @ 1790 NONAME ; class TSize CAknDoubleGraphicStyleListBox::MinimumSize(void)
	?MinimumSize@CAknDoubleLargeGraphicPopupMenuStyleListBox@@UAE?AVTSize@@XZ @ 1791 NONAME ; class TSize CAknDoubleLargeGraphicPopupMenuStyleListBox::MinimumSize(void)
	?MinimumSize@CAknDoubleLargeStyleListBox@@UAE?AVTSize@@XZ @ 1792 NONAME ; class TSize CAknDoubleLargeStyleListBox::MinimumSize(void)
	?MinimumSize@CAknDoubleNumberStyleListBox@@UAE?AVTSize@@XZ @ 1793 NONAME ; class TSize CAknDoubleNumberStyleListBox::MinimumSize(void)
	?MinimumSize@CAknDoublePopupMenuStyleListBox@@UAE?AVTSize@@XZ @ 1794 NONAME ; class TSize CAknDoublePopupMenuStyleListBox::MinimumSize(void)
	?MinimumSize@CAknDoubleStyleListBox@@UAE?AVTSize@@XZ @ 1795 NONAME ; class TSize CAknDoubleStyleListBox::MinimumSize(void)
	?MinimumSize@CAknDoubleTimeStyleListBox@@UAE?AVTSize@@XZ @ 1796 NONAME ; class TSize CAknDoubleTimeStyleListBox::MinimumSize(void)
	?MinimumSize@CAknExtMultilineQueryControl@@UAE?AVTSize@@XZ @ 1797 NONAME ; class TSize CAknExtMultilineQueryControl::MinimumSize(void)
	?MinimumSize@CAknFormGraphicStyleListBox@@UAE?AVTSize@@XZ @ 1798 NONAME ; class TSize CAknFormGraphicStyleListBox::MinimumSize(void)
	?MinimumSize@CAknFormGraphicWideStyleListBox@@UAE?AVTSize@@XZ @ 1799 NONAME ; class TSize CAknFormGraphicWideStyleListBox::MinimumSize(void)
	?MinimumSize@CAknGMSStyleGrid@@UAE?AVTSize@@XZ @ 1800 NONAME ; class TSize CAknGMSStyleGrid::MinimumSize(void)
	?MinimumSize@CAknInputFrame@@UAE?AVTSize@@XZ @ 1801 NONAME ; class TSize CAknInputFrame::MinimumSize(void)
	?MinimumSize@CAknListQueryControl@@UAE?AVTSize@@XZ @ 1802 NONAME ; class TSize CAknListQueryControl::MinimumSize(void)
	?MinimumSize@CAknMultilineQueryControl@@UAE?AVTSize@@XZ @ 1803 NONAME ; class TSize CAknMultilineQueryControl::MinimumSize(void)
	?MinimumSize@CAknPhoneNumberEditor@@UAE?AVTSize@@XZ @ 1804 NONAME ; class TSize CAknPhoneNumberEditor::MinimumSize(void)
	?MinimumSize@CAknPinbStyleGrid@@UAE?AVTSize@@XZ @ 1805 NONAME ; class TSize CAknPinbStyleGrid::MinimumSize(void)
	?MinimumSize@CAknPopupField@@UAE?AVTSize@@XZ @ 1806 NONAME ; class TSize CAknPopupField::MinimumSize(void)
	?MinimumSize@CAknPopupHeadingPane@@UAE?AVTSize@@XZ @ 1807 NONAME ; class TSize CAknPopupHeadingPane::MinimumSize(void)
	?MinimumSize@CAknPopupList@@EAE?AVTSize@@XZ @ 1808 NONAME ; class TSize CAknPopupList::MinimumSize(void)
	?MinimumSize@CAknQdialStyleGrid@@UAE?AVTSize@@XZ @ 1809 NONAME ; class TSize CAknQdialStyleGrid::MinimumSize(void)
	?MinimumSize@CAknQueryControl@@UAE?AVTSize@@XZ @ 1810 NONAME ; class TSize CAknQueryControl::MinimumSize(void)
	?MinimumSize@CAknSearchField@@UAE?AVTSize@@XZ @ 1811 NONAME ; class TSize CAknSearchField::MinimumSize(void)
	?MinimumSize@CAknSetStyleListBox@@UAE?AVTSize@@XZ @ 1812 NONAME ; class TSize CAknSetStyleListBox::MinimumSize(void)
	?MinimumSize@CAknSettingNumberStyleListBox@@UAE?AVTSize@@XZ @ 1813 NONAME ; class TSize CAknSettingNumberStyleListBox::MinimumSize(void)
	?MinimumSize@CAknSettingStyleListBox@@UAE?AVTSize@@XZ @ 1814 NONAME ; class TSize CAknSettingStyleListBox::MinimumSize(void)
	?MinimumSize@CAknSingle2GraphicStyleListBox@@UAE?AVTSize@@XZ @ 1815 NONAME ; class TSize CAknSingle2GraphicStyleListBox::MinimumSize(void)
	?MinimumSize@CAknSingleGraphicHeadingPopupMenuStyleListBox@@UAE?AVTSize@@XZ @ 1816 NONAME ; class TSize CAknSingleGraphicHeadingPopupMenuStyleListBox::MinimumSize(void)
	?MinimumSize@CAknSingleGraphicHeadingStyleListBox@@UAE?AVTSize@@XZ @ 1817 NONAME ; class TSize CAknSingleGraphicHeadingStyleListBox::MinimumSize(void)
	?MinimumSize@CAknSingleGraphicPopupMenuStyleListBox@@UAE?AVTSize@@XZ @ 1818 NONAME ; class TSize CAknSingleGraphicPopupMenuStyleListBox::MinimumSize(void)
	?MinimumSize@CAknSingleGraphicStyleListBox@@UAE?AVTSize@@XZ @ 1819 NONAME ; class TSize CAknSingleGraphicStyleListBox::MinimumSize(void)
	?MinimumSize@CAknSingleHeadingPopupMenuStyleListBox@@UAE?AVTSize@@XZ @ 1820 NONAME ; class TSize CAknSingleHeadingPopupMenuStyleListBox::MinimumSize(void)
	?MinimumSize@CAknSingleHeadingStyleListBox@@UAE?AVTSize@@XZ @ 1821 NONAME ; class TSize CAknSingleHeadingStyleListBox::MinimumSize(void)
	?MinimumSize@CAknSingleLargeStyleListBox@@UAE?AVTSize@@XZ @ 1822 NONAME ; class TSize CAknSingleLargeStyleListBox::MinimumSize(void)
	?MinimumSize@CAknSingleNumberHeadingStyleListBox@@UAE?AVTSize@@XZ @ 1823 NONAME ; class TSize CAknSingleNumberHeadingStyleListBox::MinimumSize(void)
	?MinimumSize@CAknSingleNumberStyleListBox@@UAE?AVTSize@@XZ @ 1824 NONAME ; class TSize CAknSingleNumberStyleListBox::MinimumSize(void)
	?MinimumSize@CAknSinglePopupMenuStyleListBox@@UAE?AVTSize@@XZ @ 1825 NONAME ; class TSize CAknSinglePopupMenuStyleListBox::MinimumSize(void)
	?MinimumSize@CAknSinglePopupSubmenuStyleListBox@@UAE?AVTSize@@XZ @ 1826 NONAME ; class TSize CAknSinglePopupSubmenuStyleListBox::MinimumSize(void)
	?MinimumSize@CAknSingleStyleListBox@@UAE?AVTSize@@XZ @ 1827 NONAME ; class TSize CAknSingleStyleListBox::MinimumSize(void)
	?MinimumSize@CAknTabGroup@@UAE?AVTSize@@XZ @ 1828 NONAME ; class TSize CAknTabGroup::MinimumSize(void)
	?Model@CAknGrid@@QBEPAVCTextListBoxModel@@XZ @ 1829 NONAME ; class CTextListBoxModel * CAknGrid::Model(void) const
	?Model@CEikFormattedCellListBox@@QBEPAVCTextListBoxModel@@XZ @ 1830 NONAME ; class CTextListBoxModel * CEikFormattedCellListBox::Model(void) const
	?ModifyWindowGraphicForHeading@AknPopupLayouts@@SAXAAUTAknPopupWindowLayoutDef@@@Z @ 1831 NONAME ; void AknPopupLayouts::ModifyWindowGraphicForHeading(struct TAknPopupWindowLayoutDef &)
	?ModifyWindowGraphicForMessageBox@AknPopupLayouts@@SAXAAUTAknPopupWindowLayoutDef@@H@Z @ 1832 NONAME ; void AknPopupLayouts::ModifyWindowGraphicForMessageBox(struct TAknPopupWindowLayoutDef &, int)
	?MopNext@CAknView@@MAEPAVMObjectProvider@@XZ @ 1833 NONAME ; class MObjectProvider * CAknView::MopNext(void)
	?MopSupplyObject@CAknAppUiBase@@MAE?AVPtr@TTypeUid@@V3@@Z @ 1834 NONAME ; class TTypeUid::Ptr CAknAppUiBase::MopSupplyObject(class TTypeUid)
	?MopSupplyObject@CAknDialog@@MAE?AVPtr@TTypeUid@@V3@@Z @ 1835 NONAME ; class TTypeUid::Ptr CAknDialog::MopSupplyObject(class TTypeUid)
	?MopSupplyObject@CAknNoteControl@@MAE?AVPtr@TTypeUid@@V3@@Z @ 1836 NONAME ; class TTypeUid::Ptr CAknNoteControl::MopSupplyObject(class TTypeUid)
	?MopSupplyObject@CAknPopupField@@MAE?AVPtr@TTypeUid@@V3@@Z @ 1837 NONAME ; class TTypeUid::Ptr CAknPopupField::MopSupplyObject(class TTypeUid)
	?MopSupplyObject@CAknPopupFieldList@@MAE?AVPtr@TTypeUid@@V3@@Z @ 1838 NONAME ; class TTypeUid::Ptr CAknPopupFieldList::MopSupplyObject(class TTypeUid)
	?MopSupplyObject@CAknPopupList@@MAE?AVPtr@TTypeUid@@V3@@Z @ 1839 NONAME ; class TTypeUid::Ptr CAknPopupList::MopSupplyObject(class TTypeUid)
	?MopSupplyObject@CAknSetStyleListBox@@UAE?AVPtr@TTypeUid@@V3@@Z @ 1840 NONAME ; class TTypeUid::Ptr CAknSetStyleListBox::MopSupplyObject(class TTypeUid)
	?MopSupplyObject@CAknSettingPage@@MAE?AVPtr@TTypeUid@@V3@@Z @ 1841 NONAME ; class TTypeUid::Ptr CAknSettingPage::MopSupplyObject(class TTypeUid)
	?MopSupplyObject@CAknView@@MAE?AVPtr@TTypeUid@@V3@@Z @ 1842 NONAME ; class TTypeUid::Ptr CAknView::MopSupplyObject(class TTypeUid)
	?MopSupplyObject@CEikFormattedCellListBox@@MAE?AVPtr@TTypeUid@@V3@@Z @ 1843 NONAME ; class TTypeUid::Ptr CEikFormattedCellListBox::MopSupplyObject(class TTypeUid)
	?MoveBy@CAknAnimatedGc@@MAEXABVTPoint@@@Z @ 1844 NONAME ; void CAknAnimatedGc::MoveBy(class TPoint const &)
	?MoveCursorL@CAknGridView@@UAEXW4TCursorMovement@CListBoxView@@W4TSelectionMode@3@@Z @ 1845 NONAME ; void CAknGridView::MoveCursorL(enum CListBoxView::TCursorMovement, enum CListBoxView::TSelectionMode)
	?MoveTo@CAknAnimatedGc@@MAEXABVTPoint@@@Z @ 1846 NONAME ; void CAknAnimatedGc::MoveTo(class TPoint const &)
	?MoveToItemIndexL@CAknGridView@@QAEXHW4TSelectionMode@CListBoxView@@@Z @ 1847 NONAME ; void CAknGridView::MoveToItemIndexL(int, enum CListBoxView::TSelectionMode)
	?MoveToNextOrPreviousItemL@CAknGrid@@IAEXVTPoint@@@Z @ 1848 NONAME ; void CAknGrid::MoveToNextOrPreviousItemL(class TPoint)
	?NaviLabelType@CAknNaviLabel@@QAE?AW4TNaviLabelType@1@XZ @ 1849 NONAME ; enum CAknNaviLabel::TNaviLabelType CAknNaviLabel::NaviLabelType(void)
	?NbrOfEditorLines@CAknQueryControl@@QBEHXZ @ 1850 NONAME ; int CAknQueryControl::NbrOfEditorLines(void) const
	?NbrOfPromptLines@CAknQueryControl@@QBEHXZ @ 1851 NONAME ; int CAknQueryControl::NbrOfPromptLines(void) const
	?NeedToDismissQueryL@CAknFixedPointQueryDialog@@UAEHABUTKeyEvent@@@Z @ 1852 NONAME ; int CAknFixedPointQueryDialog::NeedToDismissQueryL(struct TKeyEvent const &)
	?NeedToDismissQueryL@CAknIpAddressQueryDialog@@UAEHABUTKeyEvent@@@Z @ 1853 NONAME ; int CAknIpAddressQueryDialog::NeedToDismissQueryL(struct TKeyEvent const &)
	?NeedToDismissQueryL@CAknMultiLineDataQueryDialog@@MAEHABUTKeyEvent@@@Z @ 1854 NONAME ; int CAknMultiLineDataQueryDialog::NeedToDismissQueryL(struct TKeyEvent const &)
	?NeedToDismissQueryL@CAknMultiLineIpQueryDialog@@MAEHABUTKeyEvent@@@Z @ 1855 NONAME ; int CAknMultiLineIpQueryDialog::NeedToDismissQueryL(struct TKeyEvent const &)
	?NeedToDismissQueryL@CAknQueryDialog@@UAEHABUTKeyEvent@@@Z @ 1856 NONAME ; int CAknQueryDialog::NeedToDismissQueryL(struct TKeyEvent const &)
	?NewAppServerL@CAknApplication@@UAEXAAPAVCApaAppServer@@@Z @ 1857 NONAME ; void CAknApplication::NewAppServerL(class CApaAppServer * &)
	?NewL@CAknBitmapAnimation@@SAPAV1@XZ @ 1858 NONAME ; class CAknBitmapAnimation * CAknBitmapAnimation::NewL(void)
	?NewL@CAknColourSelectionGrid@@SAPAV1@PAV?$CArrayFixFlat@VTRgb@@@@HAAHAAVTRgb@@@Z @ 1859 NONAME ; class CAknColourSelectionGrid * CAknColourSelectionGrid::NewL(class CArrayFixFlat<class TRgb> *, int, int &, class TRgb &)
	?NewL@CAknDrawSynchronizer@@SAPAV1@XZ @ 1860 NONAME ; class CAknDrawSynchronizer * CAknDrawSynchronizer::NewL(void)
	?NewL@CAknDurationQueryDialog@@SAPAV1@AAVTTimeIntervalSeconds@@ABW4TTone@CAknQueryDialog@@@Z @ 1861 NONAME ; class CAknDurationQueryDialog * CAknDurationQueryDialog::NewL(class TTimeIntervalSeconds &, enum CAknQueryDialog::TTone const &)
	?NewL@CAknEcsDetector@@SAPAV1@XZ @ 1862 NONAME ; class CAknEcsDetector * CAknEcsDetector::NewL(void)
	?NewL@CAknFixedPointQueryDialog@@SAPAV1@AAHABW4TTone@CAknQueryDialog@@@Z @ 1863 NONAME ; class CAknFixedPointQueryDialog * CAknFixedPointQueryDialog::NewL(int &, enum CAknQueryDialog::TTone const &)
	?NewL@CAknFloatingPointQueryDialog@@SAPAV1@AANABW4TTone@CAknQueryDialog@@@Z @ 1864 NONAME ; class CAknFloatingPointQueryDialog * CAknFloatingPointQueryDialog::NewL(double &, enum CAknQueryDialog::TTone const &)
	?NewL@CAknFontIdLayoutFont@@SAPAV1@AAVCWsScreenDevice@@H@Z @ 1865 NONAME ; class CAknFontIdLayoutFont * CAknFontIdLayoutFont::NewL(class CWsScreenDevice &, int)
	?NewL@CAknGMSPopupGrid@@SAPAV1@PAVCEikListBox@@HW4TAknPopupLayouts@AknPopupLayouts@@@Z @ 1866 NONAME ; class CAknGMSPopupGrid * CAknGMSPopupGrid::NewL(class CEikListBox *, int, enum AknPopupLayouts::TAknPopupLayouts)
	?NewL@CAknGMSStyleGrid@@SAPAV1@PBVCCoeControl@@H@Z @ 1867 NONAME ; class CAknGMSStyleGrid * CAknGMSStyleGrid::NewL(class CCoeControl const *, int)
	?NewL@CAknInfoPopupNoteController@@SAPAV1@XZ @ 1868 NONAME ; class CAknInfoPopupNoteController * CAknInfoPopupNoteController::NewL(void)
	?NewL@CAknInputFrame@@SAPAV1@PAVCCoeControl@@HABVTDesC16@@HHK@Z @ 1869 NONAME ; class CAknInputFrame * CAknInputFrame::NewL(class CCoeControl *, int, class TDesC16 const &, int, int, unsigned long)
	?NewL@CAknInputFrame@@SAPAV1@PAVCCoeControl@@HPAVCGulIcon@@K@Z @ 1870 NONAME ; class CAknInputFrame * CAknInputFrame::NewL(class CCoeControl *, int, class CGulIcon *, unsigned long)
	?NewL@CAknIntegerEdwin@@SAPAV1@HHH@Z @ 1871 NONAME ; class CAknIntegerEdwin * CAknIntegerEdwin::NewL(int, int, int)
	?NewL@CAknIpAddressQueryDialog@@SAPAV1@AAVTInetAddr@@ABW4TTone@CAknQueryDialog@@@Z @ 1872 NONAME ; class CAknIpAddressQueryDialog * CAknIpAddressQueryDialog::NewL(class TInetAddr &, enum CAknQueryDialog::TTone const &)
	?NewL@CAknItemFinder@@SAPAV1@H@Z @ 1873 NONAME ABSENT ; class CAknItemFinder * CAknItemFinder::NewL(int)
	?NewL@CAknKeySoundSystem@@SAPAV1@H@Z @ 1874 NONAME ; class CAknKeySoundSystem * CAknKeySoundSystem::NewL(int)
	?NewL@CAknLaunchAppService@@SAPAV1@ABVTUid@@PAVMAknServerAppExitObserver@@PAVCAiwGenericParamList@@@Z @ 1875 NONAME ; class CAknLaunchAppService * CAknLaunchAppService::NewL(class TUid const &, class MAknServerAppExitObserver *, class CAiwGenericParamList *)
	?NewL@CAknLayoutData@@SAPAV1@XZ @ 1876 NONAME ABSENT ; class CAknLayoutData * CAknLayoutData::NewL(void)
	?NewL@CAknLegacyMode@@SAPAV1@XZ @ 1877 NONAME ; class CAknLegacyMode * CAknLegacyMode::NewL(void)
	?NewL@CAknListBoxLayoutDecorator@@SAPAV1@XZ @ 1878 NONAME ; class CAknListBoxLayoutDecorator * CAknListBoxLayoutDecorator::NewL(void)
	?NewL@CAknMarkableListDialog@@SAPAV1@AAHPAV?$CArrayFix@H@@PAVMDesC16Array@@HHPAVMEikCommandObserver@@@Z @ 1879 NONAME ; class CAknMarkableListDialog * CAknMarkableListDialog::NewL(int &, class CArrayFix<int> *, class MDesC16Array *, int, int, class MEikCommandObserver *)
	?NewL@CAknMarkableListDialog@@SAPAV1@AAHPAV?$CArrayFix@H@@PAVMDesC16Array@@HPAVMEikCommandObserver@@@Z @ 1880 NONAME ; class CAknMarkableListDialog * CAknMarkableListDialog::NewL(int &, class CArrayFix<int> *, class MDesC16Array *, int, class MEikCommandObserver *)
	?NewL@CAknMarqueeControl@@SAPAV1@HHH@Z @ 1881 NONAME ; class CAknMarqueeControl * CAknMarqueeControl::NewL(int, int, int)
	?NewL@CAknMessageQueryDialog@@SAPAV1@AAVTDesC16@@ABW4TTone@CAknQueryDialog@@@Z @ 1882 NONAME ; class CAknMessageQueryDialog * CAknMessageQueryDialog::NewL(class TDesC16 &, enum CAknQueryDialog::TTone const &)
	?NewL@CAknMultiLineDataQueryDialog@@SAPAV1@AAH0W4TTone@CAknQueryDialog@@@Z @ 1883 NONAME ; class CAknMultiLineDataQueryDialog * CAknMultiLineDataQueryDialog::NewL(int &, int &, enum CAknQueryDialog::TTone)
	?NewL@CAknMultiLineDataQueryDialog@@SAPAV1@AAVTDes16@@0W4TTone@CAknQueryDialog@@@Z @ 1884 NONAME ; class CAknMultiLineDataQueryDialog * CAknMultiLineDataQueryDialog::NewL(class TDes16 &, class TDes16 &, enum CAknQueryDialog::TTone)
	?NewL@CAknMultiLineDataQueryDialog@@SAPAV1@AAVTDes16@@AAHW4TTone@CAknQueryDialog@@@Z @ 1885 NONAME ; class CAknMultiLineDataQueryDialog * CAknMultiLineDataQueryDialog::NewL(class TDes16 &, int &, enum CAknQueryDialog::TTone)
	?NewL@CAknMultiLineDataQueryDialog@@SAPAV1@AAVTDes16@@AAVTTime@@W4TTone@CAknQueryDialog@@@Z @ 1886 NONAME ; class CAknMultiLineDataQueryDialog * CAknMultiLineDataQueryDialog::NewL(class TDes16 &, class TTime &, enum CAknQueryDialog::TTone)
	?NewL@CAknMultiLineDataQueryDialog@@SAPAV1@AAVTDes16@@AAVTTimeIntervalSeconds@@W4TTone@CAknQueryDialog@@@Z @ 1887 NONAME ; class CAknMultiLineDataQueryDialog * CAknMultiLineDataQueryDialog::NewL(class TDes16 &, class TTimeIntervalSeconds &, enum CAknQueryDialog::TTone)
	?NewL@CAknMultiLineDataQueryDialog@@SAPAV1@AAVTTime@@0W4TTone@CAknQueryDialog@@@Z @ 1888 NONAME ; class CAknMultiLineDataQueryDialog * CAknMultiLineDataQueryDialog::NewL(class TTime &, class TTime &, enum CAknQueryDialog::TTone)
	?NewL@CAknMultiLineDataQueryDialog@@SAPAV1@AAVTTime@@AAVTTimeIntervalSeconds@@W4TTone@CAknQueryDialog@@@Z @ 1889 NONAME ; class CAknMultiLineDataQueryDialog * CAknMultiLineDataQueryDialog::NewL(class TTime &, class TTimeIntervalSeconds &, enum CAknQueryDialog::TTone)
	?NewL@CAknMultiLineIpQueryDialog@@SAPAV1@AAVTInetAddr@@0W4TTone@CAknQueryDialog@@@Z @ 1890 NONAME ; class CAknMultiLineIpQueryDialog * CAknMultiLineIpQueryDialog::NewL(class TInetAddr &, class TInetAddr &, enum CAknQueryDialog::TTone)
	?NewL@CAknNavigationDecorator@@SAPAV1@PAVCAknNavigationControlContainer@@PAVCCoeControl@@W4TControlType@1@@Z @ 1891 NONAME ; class CAknNavigationDecorator * CAknNavigationDecorator::NewL(class CAknNavigationControlContainer *, class CCoeControl *, enum CAknNavigationDecorator::TControlType)
	?NewL@CAknNullService@@SAPAV1@ABVTUid@@PAVMAknServerAppExitObserver@@@Z @ 1892 NONAME ; class CAknNullService * CAknNullService::NewL(class TUid const &, class MAknServerAppExitObserver *)
	?NewL@CAknNumberQueryDialog@@SAPAV1@AAHABW4TTone@CAknQueryDialog@@@Z @ 1893 NONAME ; class CAknNumberQueryDialog * CAknNumberQueryDialog::NewL(int &, enum CAknQueryDialog::TTone const &)
	?NewL@CAknOpenFileService@@SAPAV1@ABVTDesC16@@PAVMAknServerAppExitObserver@@PAVCAiwGenericParamList@@@Z @ 1894 NONAME ; class CAknOpenFileService * CAknOpenFileService::NewL(class TDesC16 const &, class MAknServerAppExitObserver *, class CAiwGenericParamList *)
	?NewL@CAknOpenFileService@@SAPAV1@ABVTUid@@ABVRFile@@PAVMAknServerAppExitObserver@@PAVCAiwGenericParamList@@@Z @ 1895 NONAME ; class CAknOpenFileService * CAknOpenFileService::NewL(class TUid const &, class RFile const &, class MAknServerAppExitObserver *, class CAiwGenericParamList *)
	?NewL@CAknPhoneNumberGrouping@@SAPAV1@H@Z @ 1896 NONAME ; class CAknPhoneNumberGrouping * CAknPhoneNumberGrouping::NewL(int)
	?NewL@CAknPopupFieldList@@SAPAV1@PAVCEikListBox@@H@Z @ 1897 NONAME ; class CAknPopupFieldList * CAknPopupFieldList::NewL(class CEikListBox *, int)
	?NewL@CAknPopupForm@@SAPAV1@ABW4TTone@@HABW4TPopupFormType@@@Z @ 1898 NONAME ; class CAknPopupForm * CAknPopupForm::NewL(enum TTone const &, int, enum TPopupFormType const &)
	?NewL@CAknPopupForm@@SAPAV1@XZ @ 1899 NONAME ; class CAknPopupForm * CAknPopupForm::NewL(void)
	?NewL@CAknPopupList@@SAPAV1@PAVCEikListBox@@HW4TAknPopupLayouts@AknPopupLayouts@@@Z @ 1900 NONAME ; class CAknPopupList * CAknPopupList::NewL(class CEikListBox *, int, enum AknPopupLayouts::TAknPopupLayouts)
	?NewL@CAknQueryDialog@@SAPAV1@AAHABW4TTone@1@@Z @ 1901 NONAME ; class CAknQueryDialog * CAknQueryDialog::NewL(int &, enum CAknQueryDialog::TTone const &)
	?NewL@CAknQueryDialog@@SAPAV1@AANABW4TTone@1@@Z @ 1902 NONAME ; class CAknQueryDialog * CAknQueryDialog::NewL(double &, enum CAknQueryDialog::TTone const &)
	?NewL@CAknQueryDialog@@SAPAV1@AAVTDes16@@ABW4TTone@1@@Z @ 1903 NONAME ; class CAknQueryDialog * CAknQueryDialog::NewL(class TDes16 &, enum CAknQueryDialog::TTone const &)
	?NewL@CAknQueryDialog@@SAPAV1@AAVTInetAddr@@ABW4TTone@1@@Z @ 1904 NONAME ; class CAknQueryDialog * CAknQueryDialog::NewL(class TInetAddr &, enum CAknQueryDialog::TTone const &)
	?NewL@CAknQueryDialog@@SAPAV1@AAVTTime@@ABW4TTone@1@@Z @ 1905 NONAME ; class CAknQueryDialog * CAknQueryDialog::NewL(class TTime &, enum CAknQueryDialog::TTone const &)
	?NewL@CAknQueryDialog@@SAPAV1@AAVTTimeIntervalSeconds@@ABW4TTone@1@@Z @ 1906 NONAME ; class CAknQueryDialog * CAknQueryDialog::NewL(class TTimeIntervalSeconds &, enum CAknQueryDialog::TTone const &)
	?NewL@CAknQueryDialog@@SAPAV1@ABW4TTone@1@@Z @ 1907 NONAME ; class CAknQueryDialog * CAknQueryDialog::NewL(enum CAknQueryDialog::TTone const &)
	?NewL@CAknQueryValueDate@@SAPAV1@XZ @ 1908 NONAME ; class CAknQueryValueDate * CAknQueryValueDate::NewL(void)
	?NewL@CAknQueryValueDateArray@@SAPAV1@H@Z @ 1909 NONAME ; class CAknQueryValueDateArray * CAknQueryValueDateArray::NewL(int)
	?NewL@CAknQueryValueDuration@@SAPAV1@XZ @ 1910 NONAME ; class CAknQueryValueDuration * CAknQueryValueDuration::NewL(void)
	?NewL@CAknQueryValueDurationArray@@SAPAV1@H@Z @ 1911 NONAME ; class CAknQueryValueDurationArray * CAknQueryValueDurationArray::NewL(int)
	?NewL@CAknQueryValueNumber@@SAPAV1@XZ @ 1912 NONAME ; class CAknQueryValueNumber * CAknQueryValueNumber::NewL(void)
	?NewL@CAknQueryValueNumberArray@@SAPAV1@H@Z @ 1913 NONAME ; class CAknQueryValueNumberArray * CAknQueryValueNumberArray::NewL(int)
	?NewL@CAknQueryValuePhone@@SAPAV1@XZ @ 1914 NONAME ; class CAknQueryValuePhone * CAknQueryValuePhone::NewL(void)
	?NewL@CAknQueryValuePhoneArray@@SAPAV1@XZ @ 1915 NONAME ; class CAknQueryValuePhoneArray * CAknQueryValuePhoneArray::NewL(void)
	?NewL@CAknQueryValueText@@SAPAV1@XZ @ 1916 NONAME ; class CAknQueryValueText * CAknQueryValueText::NewL(void)
	?NewL@CAknQueryValueTextArray@@SAPAV1@XZ @ 1917 NONAME ; class CAknQueryValueTextArray * CAknQueryValueTextArray::NewL(void)
	?NewL@CAknQueryValueTime@@SAPAV1@XZ @ 1918 NONAME ; class CAknQueryValueTime * CAknQueryValueTime::NewL(void)
	?NewL@CAknQueryValueTimeArray@@SAPAV1@H@Z @ 1919 NONAME ; class CAknQueryValueTimeArray * CAknQueryValueTimeArray::NewL(int)
	?NewL@CAknSearchField@@SAPAV1@ABVCCoeControl@@W4TSearchFieldStyle@1@PAVCGulIcon@@H@Z @ 1920 NONAME ; class CAknSearchField * CAknSearchField::NewL(class CCoeControl const &, enum CAknSearchField::TSearchFieldStyle, class CGulIcon *, int)
	?NewL@CAknSelectionListDialog@@SAPAV1@AAHPAVMDesC16Array@@HPAVMEikCommandObserver@@@Z @ 1921 NONAME ; class CAknSelectionListDialog * CAknSelectionListDialog::NewL(int &, class MDesC16Array *, int, class MEikCommandObserver *)
	?NewL@CAknSkinnableClock@@SAPAV1@PAVCCoeControl@@HH@Z @ 1922 NONAME ; class CAknSkinnableClock * CAknSkinnableClock::NewL(class CCoeControl *, int, int)
	?NewL@CAknSoundInfo@@SAPAV1@XZ @ 1923 NONAME ; class CAknSoundInfo * CAknSoundInfo::NewL(void)
	?NewL@CAknTabGroup@@SAPAV1@ABVCCoeControl@@@Z @ 1924 NONAME ; class CAknTabGroup * CAknTabGroup::NewL(class CCoeControl const &)
	?NewL@CAknTextQueryDialog@@SAPAV1@AAVTDes16@@ABW4TTone@CAknQueryDialog@@@Z @ 1925 NONAME ; class CAknTextQueryDialog * CAknTextQueryDialog::NewL(class TDes16 &, enum CAknQueryDialog::TTone const &)
	?NewL@CAknTimeQueryDialog@@SAPAV1@AAVTTime@@ABW4TTone@CAknQueryDialog@@@Z @ 1926 NONAME ; class CAknTimeQueryDialog * CAknTimeQueryDialog::NewL(class TTime &, enum CAknQueryDialog::TTone const &)
	?NewL@CAknVolumePopup@@SAPAV1@H@Z @ 1927 NONAME ; class CAknVolumePopup * CAknVolumePopup::NewL(int)
	?NewL@CAknVolumePopup@@SAPAV1@VTUid@@ABVTDesC16@@H@Z @ 1928 NONAME ; class CAknVolumePopup * CAknVolumePopup::NewL(class TUid, class TDesC16 const &, int)
	?NewL@CAknWaitNoteWrapper@@SAPAV1@XZ @ 1929 NONAME ; class CAknWaitNoteWrapper * CAknWaitNoteWrapper::NewL(void)
	?NewL@CFormGraphicListBoxData@@SAPAV1@XZ @ 1930 NONAME ; class CFormGraphicListBoxData * CFormGraphicListBoxData::NewL(void)
	?NewL@CFormattedCellGridData@@SAPAV1@XZ @ 1931 NONAME ; class CFormattedCellGridData * CFormattedCellGridData::NewL(void)
	?NewL@CFormattedCellListBoxData@@SAPAV1@XZ @ 1932 NONAME ; class CFormattedCellListBoxData * CFormattedCellListBoxData::NewL(void)
	?NewL@CPopupFormattedListBoxData@@SAPAV1@XZ @ 1933 NONAME ; class CPopupFormattedListBoxData * CPopupFormattedListBoxData::NewL(void)
	?NewL@CSettingItemEditingListBoxData@@SAPAV1@XZ @ 1934 NONAME ; class CSettingItemEditingListBoxData * CSettingItemEditingListBoxData::NewL(void)
	?NewL@CSettingsListBoxData@@SAPAV1@XZ @ 1935 NONAME ; class CSettingsListBoxData * CSettingsListBoxData::NewL(void)
	?NewLC@CAknListBoxLayoutDecorator@@SAPAV1@XZ @ 1936 NONAME ; class CAknListBoxLayoutDecorator * CAknListBoxLayoutDecorator::NewLC(void)
	?NewLC@CAknMarkableListDialog@@SAPAV1@AAHPAV?$CArrayFix@H@@PAVMDesC16Array@@HHPAVMEikCommandObserver@@@Z @ 1937 NONAME ; class CAknMarkableListDialog * CAknMarkableListDialog::NewLC(int &, class CArrayFix<int> *, class MDesC16Array *, int, int, class MEikCommandObserver *)
	?NewLC@CAknMarkableListDialog@@SAPAV1@AAHPAV?$CArrayFix@H@@PAVMDesC16Array@@HPAVMEikCommandObserver@@@Z @ 1938 NONAME ; class CAknMarkableListDialog * CAknMarkableListDialog::NewLC(int &, class CArrayFix<int> *, class MDesC16Array *, int, class MEikCommandObserver *)
	?NewLC@CAknMarqueeControl@@SAPAV1@HHH@Z @ 1939 NONAME ; class CAknMarqueeControl * CAknMarqueeControl::NewLC(int, int, int)
	?NewLC@CAknPhoneNumberGrouping@@SAPAV1@H@Z @ 1940 NONAME ; class CAknPhoneNumberGrouping * CAknPhoneNumberGrouping::NewLC(int)
	?NewLC@CAknPopupForm@@SAPAV1@ABW4TTone@@HABW4TPopupFormType@@@Z @ 1941 NONAME ; class CAknPopupForm * CAknPopupForm::NewLC(enum TTone const &, int, enum TPopupFormType const &)
	?NewLC@CAknPopupForm@@SAPAV1@XZ @ 1942 NONAME ; class CAknPopupForm * CAknPopupForm::NewLC(void)
	?NewLC@CAknQueryValueDate@@SAPAV1@XZ @ 1943 NONAME ; class CAknQueryValueDate * CAknQueryValueDate::NewLC(void)
	?NewLC@CAknQueryValueDateArray@@SAPAV1@H@Z @ 1944 NONAME ; class CAknQueryValueDateArray * CAknQueryValueDateArray::NewLC(int)
	?NewLC@CAknQueryValueDuration@@SAPAV1@XZ @ 1945 NONAME ; class CAknQueryValueDuration * CAknQueryValueDuration::NewLC(void)
	?NewLC@CAknQueryValueDurationArray@@SAPAV1@H@Z @ 1946 NONAME ; class CAknQueryValueDurationArray * CAknQueryValueDurationArray::NewLC(int)
	?NewLC@CAknQueryValueNumber@@SAPAV1@XZ @ 1947 NONAME ; class CAknQueryValueNumber * CAknQueryValueNumber::NewLC(void)
	?NewLC@CAknQueryValueNumberArray@@SAPAV1@H@Z @ 1948 NONAME ; class CAknQueryValueNumberArray * CAknQueryValueNumberArray::NewLC(int)
	?NewLC@CAknQueryValuePhone@@SAPAV1@XZ @ 1949 NONAME ; class CAknQueryValuePhone * CAknQueryValuePhone::NewLC(void)
	?NewLC@CAknQueryValuePhoneArray@@SAPAV1@XZ @ 1950 NONAME ; class CAknQueryValuePhoneArray * CAknQueryValuePhoneArray::NewLC(void)
	?NewLC@CAknQueryValueText@@SAPAV1@XZ @ 1951 NONAME ; class CAknQueryValueText * CAknQueryValueText::NewLC(void)
	?NewLC@CAknQueryValueTextArray@@SAPAV1@XZ @ 1952 NONAME ; class CAknQueryValueTextArray * CAknQueryValueTextArray::NewLC(void)
	?NewLC@CAknQueryValueTime@@SAPAV1@XZ @ 1953 NONAME ; class CAknQueryValueTime * CAknQueryValueTime::NewLC(void)
	?NewLC@CAknQueryValueTimeArray@@SAPAV1@H@Z @ 1954 NONAME ; class CAknQueryValueTimeArray * CAknQueryValueTimeArray::NewLC(int)
	?NewLC@CAknSelectionListDialog@@SAPAV1@AAHPAVMDesC16Array@@HPAVMEikCommandObserver@@@Z @ 1955 NONAME ; class CAknSelectionListDialog * CAknSelectionListDialog::NewLC(int &, class MDesC16Array *, int, class MEikCommandObserver *)
	?NewLC@CAknTabGroup@@SAPAV1@ABVCCoeControl@@@Z @ 1956 NONAME ; class CAknTabGroup * CAknTabGroup::NewLC(class CCoeControl const &)
	?NewPassword@CAknPasswordSettingPage@@IBEAAVTDes16@@XZ @ 1957 NONAME ; class TDes16 & CAknPasswordSettingPage::NewPassword(void) const
	?NewPasswordConfirmationResourceId@CAknPasswordSettingPage@@IBEHXZ @ 1958 NONAME ; int CAknPasswordSettingPage::NewPasswordConfirmationResourceId(void) const
	?NextItemOrScrollL@CAknItemFinder@@QAEHW4TFindDirection@1@@Z @ 1959 NONAME ABSENT ; int CAknItemFinder::NextItemOrScrollL(enum CAknItemFinder::TFindDirection)
	?NonFilteredNumberOfItems@CAknListBoxFilterItems@@QBEHXZ @ 1960 NONAME ; int CAknListBoxFilterItems::NonFilteredNumberOfItems(void) const
	?NoteControl@CAknNoteDialog@@IAEPAVCAknNoteControl@@XZ @ 1961 NONAME ; class CAknNoteControl * CAknNoteDialog::NoteControl(void)
	?NoteHeight@CAknNoteControl@@QBEHXZ @ 1962 NONAME ; int CAknNoteControl::NoteHeight(void) const
	?NoteWidth@CAknNoteControl@@QBEHXZ @ 1963 NONAME ; int CAknNoteControl::NoteWidth(void) const
	?NumLines@CAknPopupField@@QBEHXZ @ 1964 NONAME ; int CAknPopupField::NumLines(void) const
	?NumLines@CAknPopupSettingList@@QBEHXZ @ 1965 NONAME ; int CAknPopupSettingList::NumLines(void) const
	?NumberOfColsInView@CAknGridView@@QBEHXZ @ 1966 NONAME ; int CAknGridView::NumberOfColsInView(void) const
	?NumberOfData@CAknGridM@@UBEHXZ @ 1967 NONAME ; int CAknGridM::NumberOfData(void) const
	?NumberOfItems@CAknEnumeratedTextSettingItem@@QBEHXZ @ 1968 NONAME ; int CAknEnumeratedTextSettingItem::NumberOfItems(void) const
	?NumberOfItems@CAknFilteredTextListBoxModel@@UBEHXZ @ 1969 NONAME ; int CAknFilteredTextListBoxModel::NumberOfItems(void) const
	?NumberOfItems@CAknGridM@@UBEHXZ @ 1970 NONAME ; int CAknGridM::NumberOfItems(void) const
	?NumberOfLines@CAknNoteControl@@QBEHXZ @ 1971 NONAME ; int CAknNoteControl::NumberOfLines(void) const
	?NumberOfLines@CAknSlider@@QBEHXZ @ 1972 NONAME ; int CAknSlider::NumberOfLines(void) const
	?NumberOfRowsInView@CAknGridView@@QBEHXZ @ 1973 NONAME ; int CAknGridView::NumberOfRowsInView(void) const
	?NumberPlain5@@YAPBVCFont@@XZ @ 1974 NONAME ; class CFont const * NumberPlain5(void)
	?NumericEditorDigitType@AknTextUtils@@SA?AW4TDigitType@@XZ @ 1975 NONAME ; enum TDigitType AknTextUtils::NumericEditorDigitType(void)
	?NumericPasswordEditor@CAknNumericPasswordSettingPage@@QAEPAVCAknNumericSecretEditor@@XZ @ 1976 NONAME ; class CAknNumericSecretEditor * CAknNumericPasswordSettingPage::NumericPasswordEditor(void)
	?OfferEmergencyCall@CAknEcsDetector@@MAEHXZ @ 1977 NONAME ; int CAknEcsDetector::OfferEmergencyCall(void)
	?OfferKeyEventL@AknListBoxShortCuts@@UAE?AW4TKeyResponse@@ABUTKeyEvent@@W4TEventCode@@@Z @ 1978 NONAME ; enum TKeyResponse AknListBoxShortCuts::OfferKeyEventL(struct TKeyEvent const &, enum TEventCode)
	?OfferKeyEventL@AknListBoxShortCutsImplementation@@UAE?AW4TKeyResponse@@ABUTKeyEvent@@W4TEventCode@@@Z @ 1979 NONAME ; enum TKeyResponse AknListBoxShortCutsImplementation::OfferKeyEventL(struct TKeyEvent const &, enum TEventCode)
	?OfferKeyEventL@CAknCharMap@@UAE?AW4TKeyResponse@@ABUTKeyEvent@@W4TEventCode@@@Z @ 1980 NONAME ; enum TKeyResponse CAknCharMap::OfferKeyEventL(struct TKeyEvent const &, enum TEventCode)
	?OfferKeyEventL@CAknCharMapDialog@@UAE?AW4TKeyResponse@@ABUTKeyEvent@@W4TEventCode@@@Z @ 1981 NONAME ; enum TKeyResponse CAknCharMapDialog::OfferKeyEventL(struct TKeyEvent const &, enum TEventCode)
	?OfferKeyEventL@CAknDialog@@UAE?AW4TKeyResponse@@ABUTKeyEvent@@W4TEventCode@@@Z @ 1982 NONAME ; enum TKeyResponse CAknDialog::OfferKeyEventL(struct TKeyEvent const &, enum TEventCode)
	?OfferKeyEventL@CAknGMSStyleGrid@@UAE?AW4TKeyResponse@@ABUTKeyEvent@@W4TEventCode@@@Z @ 1983 NONAME ; enum TKeyResponse CAknGMSStyleGrid::OfferKeyEventL(struct TKeyEvent const &, enum TEventCode)
	?OfferKeyEventL@CAknGrid@@UAE?AW4TKeyResponse@@ABUTKeyEvent@@W4TEventCode@@@Z @ 1984 NONAME ; enum TKeyResponse CAknGrid::OfferKeyEventL(struct TKeyEvent const &, enum TEventCode)
	?OfferKeyEventL@CAknInputFrame@@UAE?AW4TKeyResponse@@ABUTKeyEvent@@W4TEventCode@@@Z @ 1985 NONAME ; enum TKeyResponse CAknInputFrame::OfferKeyEventL(struct TKeyEvent const &, enum TEventCode)
	?OfferKeyEventL@CAknIntegerEdwin@@UAE?AW4TKeyResponse@@ABUTKeyEvent@@W4TEventCode@@@Z @ 1986 NONAME ; enum TKeyResponse CAknIntegerEdwin::OfferKeyEventL(struct TKeyEvent const &, enum TEventCode)
	?OfferKeyEventL@CAknListQueryControl@@UAE?AW4TKeyResponse@@ABUTKeyEvent@@W4TEventCode@@@Z @ 1987 NONAME ; enum TKeyResponse CAknListQueryControl::OfferKeyEventL(struct TKeyEvent const &, enum TEventCode)
	?OfferKeyEventL@CAknListQueryDialog@@UAE?AW4TKeyResponse@@ABUTKeyEvent@@W4TEventCode@@@Z @ 1988 NONAME ; enum TKeyResponse CAknListQueryDialog::OfferKeyEventL(struct TKeyEvent const &, enum TEventCode)
	?OfferKeyEventL@CAknMarkableListDialog@@MAE?AW4TKeyResponse@@ABUTKeyEvent@@W4TEventCode@@@Z @ 1989 NONAME ; enum TKeyResponse CAknMarkableListDialog::OfferKeyEventL(struct TKeyEvent const &, enum TEventCode)
	?OfferKeyEventL@CAknMessageQueryDialog@@UAE?AW4TKeyResponse@@ABUTKeyEvent@@W4TEventCode@@@Z @ 1990 NONAME ; enum TKeyResponse CAknMessageQueryDialog::OfferKeyEventL(struct TKeyEvent const &, enum TEventCode)
	?OfferKeyEventL@CAknNoteDialog@@UAE?AW4TKeyResponse@@ABUTKeyEvent@@W4TEventCode@@@Z @ 1991 NONAME ; enum TKeyResponse CAknNoteDialog::OfferKeyEventL(struct TKeyEvent const &, enum TEventCode)
	?OfferKeyEventL@CAknPhoneNumberEditor@@UAE?AW4TKeyResponse@@ABUTKeyEvent@@W4TEventCode@@@Z @ 1992 NONAME ; enum TKeyResponse CAknPhoneNumberEditor::OfferKeyEventL(struct TKeyEvent const &, enum TEventCode)
	?OfferKeyEventL@CAknPopupField@@UAE?AW4TKeyResponse@@ABUTKeyEvent@@W4TEventCode@@@Z @ 1993 NONAME ; enum TKeyResponse CAknPopupField::OfferKeyEventL(struct TKeyEvent const &, enum TEventCode)
	?OfferKeyEventL@CAknPopupForm@@MAE?AW4TKeyResponse@@ABUTKeyEvent@@W4TEventCode@@@Z @ 1994 NONAME ; enum TKeyResponse CAknPopupForm::OfferKeyEventL(struct TKeyEvent const &, enum TEventCode)
	?OfferKeyEventL@CAknPopupList@@EAE?AW4TKeyResponse@@ABUTKeyEvent@@W4TEventCode@@@Z @ 1995 NONAME ; enum TKeyResponse CAknPopupList::OfferKeyEventL(struct TKeyEvent const &, enum TEventCode)
	?OfferKeyEventL@CAknProgressDialog@@UAE?AW4TKeyResponse@@ABUTKeyEvent@@W4TEventCode@@@Z @ 1996 NONAME ; enum TKeyResponse CAknProgressDialog::OfferKeyEventL(struct TKeyEvent const &, enum TEventCode)
	?OfferKeyEventL@CAknQueryControl@@UAE?AW4TKeyResponse@@ABUTKeyEvent@@W4TEventCode@@@Z @ 1997 NONAME ; enum TKeyResponse CAknQueryControl::OfferKeyEventL(struct TKeyEvent const &, enum TEventCode)
	?OfferKeyEventL@CAknQueryDialog@@UAE?AW4TKeyResponse@@ABUTKeyEvent@@W4TEventCode@@@Z @ 1998 NONAME ; enum TKeyResponse CAknQueryDialog::OfferKeyEventL(struct TKeyEvent const &, enum TEventCode)
	?OfferKeyEventL@CAknSearchField@@UAE?AW4TKeyResponse@@ABUTKeyEvent@@W4TEventCode@@@Z @ 1999 NONAME ; enum TKeyResponse CAknSearchField::OfferKeyEventL(struct TKeyEvent const &, enum TEventCode)
	?OfferKeyEventL@CAknSelectionListDialog@@MAE?AW4TKeyResponse@@ABUTKeyEvent@@W4TEventCode@@@Z @ 2000 NONAME ; enum TKeyResponse CAknSelectionListDialog::OfferKeyEventL(struct TKeyEvent const &, enum TEventCode)
	?OfferKeyEventL@CAknSettingItemList@@UAE?AW4TKeyResponse@@ABUTKeyEvent@@W4TEventCode@@@Z @ 2001 NONAME ; enum TKeyResponse CAknSettingItemList::OfferKeyEventL(struct TKeyEvent const &, enum TEventCode)
	?OfferKeyEventL@CAknSettingPage@@MAE?AW4TKeyResponse@@ABUTKeyEvent@@W4TEventCode@@@Z @ 2002 NONAME ; enum TKeyResponse CAknSettingPage::OfferKeyEventL(struct TKeyEvent const &, enum TEventCode)
	?OfferKeyEventL@CAknStaticNoteDialog@@MAE?AW4TKeyResponse@@ABUTKeyEvent@@W4TEventCode@@@Z @ 2003 NONAME ; enum TKeyResponse CAknStaticNoteDialog::OfferKeyEventL(struct TKeyEvent const &, enum TEventCode)
	?OfferKeyEventL@CAknTabGroup@@UAE?AW4TKeyResponse@@ABUTKeyEvent@@W4TEventCode@@@Z @ 2004 NONAME ; enum TKeyResponse CAknTabGroup::OfferKeyEventL(struct TKeyEvent const &, enum TEventCode)
	?OfferKeyLock@RAknKeyLock@@QAEXXZ @ 2005 NONAME ; void RAknKeyLock::OfferKeyLock(void)
	?OkToExitL@CAknCharMapDialog@@MAEHH@Z @ 2006 NONAME ; int CAknCharMapDialog::OkToExitL(int)
	?OkToExitL@CAknDialog@@MAEHH@Z @ 2007 NONAME ; int CAknDialog::OkToExitL(int)
	?OkToExitL@CAknDurationQueryDialog@@MAEHH@Z @ 2008 NONAME ; int CAknDurationQueryDialog::OkToExitL(int)
	?OkToExitL@CAknFixedPointQueryDialog@@MAEHH@Z @ 2009 NONAME ; int CAknFixedPointQueryDialog::OkToExitL(int)
	?OkToExitL@CAknFloatingPointQueryDialog@@MAEHH@Z @ 2010 NONAME ; int CAknFloatingPointQueryDialog::OkToExitL(int)
	?OkToExitL@CAknForm@@MAEHH@Z @ 2011 NONAME ; int CAknForm::OkToExitL(int)
	?OkToExitL@CAknIpAddressQueryDialog@@MAEHH@Z @ 2012 NONAME ; int CAknIpAddressQueryDialog::OkToExitL(int)
	?OkToExitL@CAknListQueryDialog@@MAEHH@Z @ 2013 NONAME ; int CAknListQueryDialog::OkToExitL(int)
	?OkToExitL@CAknMarkableListDialog@@MAEHH@Z @ 2014 NONAME ; int CAknMarkableListDialog::OkToExitL(int)
	?OkToExitL@CAknMultiLineDataQueryDialog@@MAEHH@Z @ 2015 NONAME ; int CAknMultiLineDataQueryDialog::OkToExitL(int)
	?OkToExitL@CAknMultiLineIpQueryDialog@@MAEHH@Z @ 2016 NONAME ; int CAknMultiLineIpQueryDialog::OkToExitL(int)
	?OkToExitL@CAknNumberQueryDialog@@MAEHH@Z @ 2017 NONAME ; int CAknNumberQueryDialog::OkToExitL(int)
	?OkToExitL@CAknPasswordSettingPage@@MAEHH@Z @ 2018 NONAME ; int CAknPasswordSettingPage::OkToExitL(int)
	?OkToExitL@CAknPopupForm@@UAEHH@Z @ 2019 NONAME ; int CAknPopupForm::OkToExitL(int)
	?OkToExitL@CAknProgressDialog@@MAEHH@Z @ 2020 NONAME ; int CAknProgressDialog::OkToExitL(int)
	?OkToExitL@CAknQueryDialog@@MAEHH@Z @ 2021 NONAME ; int CAknQueryDialog::OkToExitL(int)
	?OkToExitL@CAknSelectionListDialog@@MAEHH@Z @ 2022 NONAME ; int CAknSelectionListDialog::OkToExitL(int)
	?OkToExitL@CAknSettingPage@@MAEHH@Z @ 2023 NONAME ; int CAknSettingPage::OkToExitL(int)
	?OkToExitL@CAknTextQueryDialog@@MAEHH@Z @ 2024 NONAME ; int CAknTextQueryDialog::OkToExitL(int)
	?OkToExitL@CAknTimeQueryDialog@@MAEHH@Z @ 2025 NONAME ; int CAknTimeQueryDialog::OkToExitL(int)
	?OldPassword@CAknPasswordSettingPage@@IBEABVTDesC16@@XZ @ 2026 NONAME ; class TDesC16 const & CAknPasswordSettingPage::OldPassword(void) const
	?OldPasswordConfirmationResourceId@CAknPasswordSettingPage@@IBEHXZ @ 2027 NONAME ; int CAknPasswordSettingPage::OldPasswordConfirmationResourceId(void) const
	?OpenFileL@CAknDocument@@UAEPAVCFileStore@@HABVTDesC16@@AAVRFs@@@Z @ 2028 NONAME ; class CFileStore * CAknDocument::OpenFileL(int, class TDesC16 const &, class RFs &)
	?OpenIniFileLC@CAknApplication@@UBEPAVCDictionaryStore@@AAVRFs@@@Z @ 2029 NONAME ; class CDictionaryStore * CAknApplication::OpenIniFileLC(class RFs &) const
	?Orientation@CAknAppUiBase@@QBE?AW4TAppUiOrientation@1@XZ @ 2030 NONAME ; enum CAknAppUiBase::TAppUiOrientation CAknAppUiBase::Orientation(void) const
	?OverrideControlColorL@AknLayoutUtils@@SAXAAVCCoeControl@@W4TLogicalColor@@VTRgb@@@Z @ 2031 NONAME ; void AknLayoutUtils::OverrideControlColorL(class CCoeControl &, enum TLogicalColor, class TRgb)
	?PackWhiteSpaces@AknTextUtils@@SAXAAVTDes16@@ABVTDesC16@@@Z @ 2032 NONAME ; void AknTextUtils::PackWhiteSpaces(class TDes16 &, class TDesC16 const &)
	?ParseThisText@CAknItemFinder@@UAEHABVCRichText@@HHHAAH1@Z @ 2033 NONAME ABSENT ; int CAknItemFinder::ParseThisText(class CRichText const &, int, int, int, int &, int &)
	?Picture@CAknContextPane@@QBEABVCEikImage@@XZ @ 2034 NONAME ; class CEikImage const & CAknContextPane::Picture(void) const
	?PixelsAndRotation@CAknSgcClient@@SA?AUTPixelsTwipsAndRotation@@XZ @ 2035 NONAME ; struct TPixelsTwipsAndRotation CAknSgcClient::PixelsAndRotation(void)
	?PlaySound@CAknKeySoundSystem@@QAEXABUTKeyEvent@@@Z @ 2036 NONAME ; void CAknKeySoundSystem::PlaySound(struct TKeyEvent const &)
	?PlaySound@CAknKeySoundSystem@@QAEXH@Z @ 2037 NONAME ; void CAknKeySoundSystem::PlaySound(int)
	?PlayTone@CAknNoteDialog@@IAEXXZ @ 2038 NONAME ; void CAknNoteDialog::PlayTone(void)
	?PlayTone@CAknPopupForm@@IAEXXZ @ 2039 NONAME ; void CAknPopupForm::PlayTone(void)
	?Plot@CAknAnimatedGc@@MAEXABVTPoint@@@Z @ 2040 NONAME ; void CAknAnimatedGc::Plot(class TPoint const &)
	?Pop@CAknNavigationControlContainer@@QAEXPAVCAknNavigationDecorator@@@Z @ 2041 NONAME ; void CAknNavigationControlContainer::Pop(class CAknNavigationDecorator *)
	?Pop@CAknNavigationControlContainer@@UAEXXZ @ 2042 NONAME ; void CAknNavigationControlContainer::Pop(void)
	?PopContext@CAknKeySoundSystem@@QAEXXZ @ 2043 NONAME ; void CAknKeySoundSystem::PopContext(void)
	?PoppedUpTextArray@CAknEnumeratedTextPopupSettingItem@@QBEPAV?$CArrayPtr@VHBufC16@@@@XZ @ 2044 NONAME ; class CArrayPtr<class HBufC16> * CAknEnumeratedTextPopupSettingItem::PoppedUpTextArray(void) const
	?PoppedUpTextArray@CAknEnumeratedTextSettingItem@@QBEPAV?$CArrayPtr@VHBufC16@@@@XZ @ 2045 NONAME ; class CArrayPtr<class HBufC16> * CAknEnumeratedTextSettingItem::PoppedUpTextArray(void) const
	?PopupGridLargeGraphicGraphics@CAknGMSPopupGrid@@SAXAAUTAknPopupWindowLayoutDef@@@Z @ 2046 NONAME ; void CAknGMSPopupGrid::PopupGridLargeGraphicGraphics(struct TAknPopupWindowLayoutDef &)
	?PopupSettingListBox@CAknPopupSettingPage@@QBEPAVCAknPopupSettingList@@XZ @ 2047 NONAME ; class CAknPopupSettingList * CAknPopupSettingPage::PopupSettingListBox(void) const
	?PositionAtIndex@CAknGrid@@QBE?AVTPoint@@H@Z @ 2048 NONAME ; class TPoint CAknGrid::PositionAtIndex(int) const
	?PositionChanged@CAknBatteryPane@@MAEXXZ @ 2049 NONAME ; void CAknBatteryPane::PositionChanged(void)
	?PositionChanged@CAknIndicatorContainer@@MAEXXZ @ 2050 NONAME ; void CAknIndicatorContainer::PositionChanged(void)
	?PositionChanged@CAknSignalPane@@MAEXXZ @ 2051 NONAME ; void CAknSignalPane::PositionChanged(void)
	?PositionChanged@CAknTitlePane@@MAEXXZ @ 2052 NONAME ; void CAknTitlePane::PositionChanged(void)
	?PositionOfNextItem@CAknItemFinder@@QAEHW4TFindDirection@1@@Z @ 2053 NONAME ABSENT ; int CAknItemFinder::PositionOfNextItem(enum CAknItemFinder::TFindDirection)
	?PostAnimateSetup@CAknAnimatedView@@MAEXXZ @ 2054 NONAME ; void CAknAnimatedView::PostAnimateSetup(void)
	?PostDisplayCheckL@CAknPasswordSettingPage@@MAEHXZ @ 2055 NONAME ; int CAknPasswordSettingPage::PostDisplayCheckL(void)
	?PostDisplayCheckL@CAknSettingPage@@MAEHXZ @ 2056 NONAME ; int CAknSettingPage::PostDisplayCheckL(void)
	?PostDisplayInitL@CAknPasswordSettingPage@@MAEXXZ @ 2057 NONAME ; void CAknPasswordSettingPage::PostDisplayInitL(void)
	?PostLayoutDynInitL@CAknFixedPointQueryDialog@@MAEXXZ @ 2058 NONAME ; void CAknFixedPointQueryDialog::PostLayoutDynInitL(void)
	?PostLayoutDynInitL@CAknForm@@MAEXXZ @ 2059 NONAME ; void CAknForm::PostLayoutDynInitL(void)
	?PostLayoutDynInitL@CAknIpAddressQueryDialog@@MAEXXZ @ 2060 NONAME ; void CAknIpAddressQueryDialog::PostLayoutDynInitL(void)
	?PostLayoutDynInitL@CAknListQueryDialog@@MAEXXZ @ 2061 NONAME ; void CAknListQueryDialog::PostLayoutDynInitL(void)
	?PostLayoutDynInitL@CAknMarkableListDialog@@MAEXXZ @ 2062 NONAME ; void CAknMarkableListDialog::PostLayoutDynInitL(void)
	?PostLayoutDynInitL@CAknMessageQueryDialog@@MAEXXZ @ 2063 NONAME ; void CAknMessageQueryDialog::PostLayoutDynInitL(void)
	?PostLayoutDynInitL@CAknNoteDialog@@MAEXXZ @ 2064 NONAME ; void CAknNoteDialog::PostLayoutDynInitL(void)
	?PostLayoutDynInitL@CAknPopupForm@@MAEXXZ @ 2065 NONAME ; void CAknPopupForm::PostLayoutDynInitL(void)
	?PostLayoutDynInitL@CAknQueryDialog@@MAEXXZ @ 2066 NONAME ; void CAknQueryDialog::PostLayoutDynInitL(void)
	?PostLayoutDynInitL@CAknSelectionListDialog@@MAEXXZ @ 2067 NONAME ; void CAknSelectionListDialog::PostLayoutDynInitL(void)
	?PostLayoutDynInitL@CAknStaticNoteDialog@@MAEXXZ @ 2068 NONAME ; void CAknStaticNoteDialog::PostLayoutDynInitL(void)
	?PreAnimateSetup@CAknAnimatedView@@MAEXXZ @ 2069 NONAME ; void CAknAnimatedView::PreAnimateSetup(void)
	?PreDocConstructL@CAknApplication@@UAEXXZ @ 2070 NONAME ; void CAknApplication::PreDocConstructL(void)
	?PreLayoutDynInitL@CAknCharMapDialog@@MAEXXZ @ 2071 NONAME ; void CAknCharMapDialog::PreLayoutDynInitL(void)
	?PreLayoutDynInitL@CAknDurationQueryDialog@@MAEXXZ @ 2072 NONAME ; void CAknDurationQueryDialog::PreLayoutDynInitL(void)
	?PreLayoutDynInitL@CAknFixedPointQueryDialog@@MAEXXZ @ 2073 NONAME ; void CAknFixedPointQueryDialog::PreLayoutDynInitL(void)
	?PreLayoutDynInitL@CAknFloatingPointQueryDialog@@MAEXXZ @ 2074 NONAME ; void CAknFloatingPointQueryDialog::PreLayoutDynInitL(void)
	?PreLayoutDynInitL@CAknIpAddressQueryDialog@@MAEXXZ @ 2075 NONAME ; void CAknIpAddressQueryDialog::PreLayoutDynInitL(void)
	?PreLayoutDynInitL@CAknListQueryDialog@@MAEXXZ @ 2076 NONAME ; void CAknListQueryDialog::PreLayoutDynInitL(void)
	?PreLayoutDynInitL@CAknMarkableListDialog@@MAEXXZ @ 2077 NONAME ; void CAknMarkableListDialog::PreLayoutDynInitL(void)
	?PreLayoutDynInitL@CAknMessageQueryDialog@@MAEXXZ @ 2078 NONAME ; void CAknMessageQueryDialog::PreLayoutDynInitL(void)
	?PreLayoutDynInitL@CAknMultiLineDataQueryDialog@@MAEXXZ @ 2079 NONAME ; void CAknMultiLineDataQueryDialog::PreLayoutDynInitL(void)
	?PreLayoutDynInitL@CAknMultiLineIpQueryDialog@@MAEXXZ @ 2080 NONAME ; void CAknMultiLineIpQueryDialog::PreLayoutDynInitL(void)
	?PreLayoutDynInitL@CAknNoteDialog@@MAEXXZ @ 2081 NONAME ; void CAknNoteDialog::PreLayoutDynInitL(void)
	?PreLayoutDynInitL@CAknNumberQueryDialog@@MAEXXZ @ 2082 NONAME ; void CAknNumberQueryDialog::PreLayoutDynInitL(void)
	?PreLayoutDynInitL@CAknProgressDialog@@MAEXXZ @ 2083 NONAME ; void CAknProgressDialog::PreLayoutDynInitL(void)
	?PreLayoutDynInitL@CAknQueryDialog@@MAEXXZ @ 2084 NONAME ; void CAknQueryDialog::PreLayoutDynInitL(void)
	?PreLayoutDynInitL@CAknSelectionListDialog@@MAEXXZ @ 2085 NONAME ; void CAknSelectionListDialog::PreLayoutDynInitL(void)
	?PreLayoutDynInitL@CAknTextQueryDialog@@MAEXXZ @ 2086 NONAME ; void CAknTextQueryDialog::PreLayoutDynInitL(void)
	?PreLayoutDynInitL@CAknTimeQueryDialog@@MAEXXZ @ 2087 NONAME ; void CAknTimeQueryDialog::PreLayoutDynInitL(void)
	?PrepareContext@CAknTabGroup@@UBEXAAVCWindowGc@@@Z @ 2088 NONAME ; void CAknTabGroup::PrepareContext(class CWindowGc &) const
	?PrepareContext@CAknTitlePane@@UBEXAAVCWindowGc@@@Z @ 2089 NONAME ; void CAknTitlePane::PrepareContext(class CWindowGc &) const
	?PrepareForAppExit@CAknSgcClient@@SAXXZ @ 2090 NONAME ; void CAknSgcClient::PrepareForAppExit(void)
	?PrepareForAppExit@RAknEikAppUiSession@@QAEHH@Z @ 2091 NONAME ; int RAknEikAppUiSession::PrepareForAppExit(int)
	?PrepareForFocusLossL@CAknIntegerEdwin@@UAEXXZ @ 2092 NONAME ; void CAknIntegerEdwin::PrepareForFocusLossL(void)
	?PrepareForFocusTransitionL@CAknForm@@MAEXXZ @ 2093 NONAME ; void CAknForm::PrepareForFocusTransitionL(void)
	?PrepareLC@CAknDialog@@UAEXH@Z @ 2094 NONAME ; void CAknDialog::PrepareLC(int)
	?PrepareLC@CAknPopupForm@@UAEXH@Z @ 2095 NONAME ; void CAknPopupForm::PrepareLC(int)
	?PrepareRunInfoArray@AknBidiTextUtils@@SAHABVTDesC16@@@Z @ 2096 NONAME ; int AknBidiTextUtils::PrepareRunInfoArray(class TDesC16 const &)
	?PrepareToExit@CAknAppUi@@UAEXXZ @ 2097 NONAME ; void CAknAppUi::PrepareToExit(void)
	?PrepareToExit@CAknAppUiBase@@UAEXXZ @ 2098 NONAME ; void CAknAppUiBase::PrepareToExit(void)
	?PrivateResourceFile@CAknLibrary@@SA?AV?$TBuf@$0BAA@@@XZ @ 2099 NONAME ; class TBuf<256> CAknLibrary::PrivateResourceFile(void)
	?ProcessCommandL@AknListBoxShortCutsImplementation@@UAEXH@Z @ 2100 NONAME ; void AknListBoxShortCutsImplementation::ProcessCommandL(int)
	?ProcessCommandL@CAknAppUi@@UAEXH@Z @ 2101 NONAME ; void CAknAppUi::ProcessCommandL(int)
	?ProcessCommandL@CAknCheckBoxSettingPage@@MAEXH@Z @ 2102 NONAME ; void CAknCheckBoxSettingPage::ProcessCommandL(int)
	?ProcessCommandL@CAknDialog@@UAEXH@Z @ 2103 NONAME ; void CAknDialog::ProcessCommandL(int)
	?ProcessCommandL@CAknForm@@UAEXH@Z @ 2104 NONAME ; void CAknForm::ProcessCommandL(int)
	?ProcessCommandL@CAknMarkableListDialog@@MAEXH@Z @ 2105 NONAME ; void CAknMarkableListDialog::ProcessCommandL(int)
	?ProcessCommandL@CAknPopupField@@MAEXH@Z @ 2106 NONAME ; void CAknPopupField::ProcessCommandL(int)
	?ProcessCommandL@CAknPopupFieldList@@MAEXH@Z @ 2107 NONAME ; void CAknPopupFieldList::ProcessCommandL(int)
	?ProcessCommandL@CAknPopupList@@MAEXH@Z @ 2108 NONAME ; void CAknPopupList::ProcessCommandL(int)
	?ProcessCommandL@CAknSearchField@@EAEXH@Z @ 2109 NONAME ; void CAknSearchField::ProcessCommandL(int)
	?ProcessCommandL@CAknSelectionListDialog@@MAEXH@Z @ 2110 NONAME ; void CAknSelectionListDialog::ProcessCommandL(int)
	?ProcessCommandL@CAknSettingPage@@MAEXH@Z @ 2111 NONAME ; void CAknSettingPage::ProcessCommandL(int)
	?ProcessCommandL@CAknView@@UAEXH@Z @ 2112 NONAME ; void CAknView::ProcessCommandL(int)
	?ProcessCommandL@CAknViewAppUi@@UAEXH@Z @ 2113 NONAME ; void CAknViewAppUi::ProcessCommandL(int)
	?ProcessFinishedL@CAknPopupForm@@QAEXXZ @ 2114 NONAME ; void CAknPopupForm::ProcessFinishedL(void)
	?ProcessFinishedL@CAknProgressDialog@@QAEXXZ @ 2115 NONAME ; void CAknProgressDialog::ProcessFinishedL(void)
	?ProgressInfo@CAknPopupForm@@QAEPAVCEikProgressInfo@@XZ @ 2116 NONAME ; class CEikProgressInfo * CAknPopupForm::ProgressInfo(void)
	?Prompt@CAknPopupHeadingPane@@QBEPAVCEikLabel@@XZ @ 2117 NONAME ; class CEikLabel * CAknPopupHeadingPane::Prompt(void) const
	?Prompt@CAknQueryDialog@@IBE?AVTPtrC16@@XZ @ 2118 NONAME ; class TPtrC16 CAknQueryDialog::Prompt(void) const
	?PromptText@CAknPopupHeadingPane@@QBE?AVTPtr16@@XZ @ 2119 NONAME ; class TPtr16 CAknPopupHeadingPane::PromptText(void) const
	?Properties@CFormattedCellListBoxItemDrawer@@UBE?AVTListItemProperties@@H@Z @ 2120 NONAME ; class TListItemProperties CFormattedCellListBoxItemDrawer::Properties(int) const
	?PushContextL@CAknKeySoundSystem@@QAEXH@Z @ 2121 NONAME ; void CAknKeySoundSystem::PushContextL(int)
	?PushDefaultL@CAknNavigationControlContainer@@QAEXH@Z @ 2122 NONAME ; void CAknNavigationControlContainer::PushDefaultL(int)
	?PushL@CAknNavigationControlContainer@@UAEXAAVCAknNavigationDecorator@@@Z @ 2123 NONAME ; void CAknNavigationControlContainer::PushL(class CAknNavigationDecorator &)
	?QueryControl@CAknFixedPointQueryDialog@@MBEPAVCAknQueryControl@@XZ @ 2124 NONAME ; class CAknQueryControl * CAknFixedPointQueryDialog::QueryControl(void) const
	?QueryControl@CAknIpAddressQueryDialog@@MBEPAVCAknQueryControl@@XZ @ 2125 NONAME ; class CAknQueryControl * CAknIpAddressQueryDialog::QueryControl(void) const
	?QueryControl@CAknMultiLineDataQueryDialog@@MBEPAVCAknQueryControl@@XZ @ 2126 NONAME ; class CAknQueryControl * CAknMultiLineDataQueryDialog::QueryControl(void) const
	?QueryControl@CAknMultiLineIpQueryDialog@@MBEPAVCAknQueryControl@@XZ @ 2127 NONAME ; class CAknQueryControl * CAknMultiLineIpQueryDialog::QueryControl(void) const
	?QueryControl@CAknQueryDialog@@MBEPAVCAknQueryControl@@XZ @ 2128 NONAME ; class CAknQueryControl * CAknQueryDialog::QueryControl(void) const
	?QueryHeading@CAknListQueryDialog@@UBEPAVCAknPopupHeadingPane@@XZ @ 2129 NONAME ; class CAknPopupHeadingPane * CAknListQueryDialog::QueryHeading(void) const
	?QueryHeading@CAknMultiLineDataQueryDialog@@MBEPAVCAknPopupHeadingPane@@XZ @ 2130 NONAME ; class CAknPopupHeadingPane * CAknMultiLineDataQueryDialog::QueryHeading(void) const
	?QueryHeading@CAknQueryDialog@@UBEPAVCAknPopupHeadingPane@@XZ @ 2131 NONAME ; class CAknPopupHeadingPane * CAknQueryDialog::QueryHeading(void) const
	?QuerySaveChangesL@CAknForm@@MAEHXZ @ 2132 NONAME ; int CAknForm::QuerySaveChangesL(void)
	?QueryValue@CAknEnumeratedTextPopupSettingItem@@IBEPAVMAknQueryValue@@XZ @ 2133 NONAME ; class MAknQueryValue * CAknEnumeratedTextPopupSettingItem::QueryValue(void) const
	?QueryValue@CAknPopupSettingPage@@IBEPAVMAknQueryValue@@XZ @ 2134 NONAME ; class MAknQueryValue * CAknPopupSettingPage::QueryValue(void) const
	?ReadConfirmationResourceL@CAknPasswordSettingPage@@IAEXHAAVSAknConfirmationResource@@@Z @ 2135 NONAME ; void CAknPasswordSettingPage::ReadConfirmationResourceL(int, class SAknConfirmationResource &)
	?ReadPromptL@CAknQueryControl@@UAEXAAVTResourceReader@@@Z @ 2136 NONAME ; void CAknQueryControl::ReadPromptL(class TResourceReader &)
	?RecalculateVisibleIndicesL@CAknSettingItemArray@@UAEXXZ @ 2137 NONAME ; void CAknSettingItemArray::RecalculateVisibleIndicesL(void)
	?Rect@TAknLayoutRect@@QBE?AVTRect@@XZ @ 2138 NONAME ; class TRect TAknLayoutRect::Rect(void) const
	?RectFromCoords@AknLayoutUtils@@SA?AVTRect@@ABV2@HHHHHH@Z @ 2139 NONAME ; class TRect AknLayoutUtils::RectFromCoords(class TRect const &, int, int, int, int, int, int)
	?RecursionLock@AknListBoxShortCuts@@QAEHXZ @ 2140 NONAME ; int AknListBoxShortCuts::RecursionLock(void)
	?RecursionUnlock@AknListBoxShortCuts@@QAEXXZ @ 2141 NONAME ; void AknListBoxShortCuts::RecursionUnlock(void)
	?RedrawServerStatusPane@CAknSgcClient@@SAXXZ @ 2142 NONAME ; void CAknSgcClient::RedrawServerStatusPane(void)
	?RedrawServerStatusPane@RAknEikAppUiSession@@QAEHXZ @ 2143 NONAME ; int RAknEikAppUiSession::RedrawServerStatusPane(void)
	?ReformatOnRecognise@CAknItemFinder@@UBEHXZ @ 2144 NONAME ABSENT ; int CAknItemFinder::ReformatOnRecognise(void) const
	?ReformatOnRollover@CAknItemFinder@@UBEHXZ @ 2145 NONAME ABSENT ; int CAknItemFinder::ReformatOnRollover(void) const
	?RegisterIntermediateStateL@CAknEnv@@QAEXPAVMAknIntermediateState@@@Z @ 2146 NONAME ; void CAknEnv::RegisterIntermediateStateL(class MAknIntermediateState *)
	?Release@CAknItemFinder@@UAEXXZ @ 2147 NONAME ABSENT ; void CAknItemFinder::Release(void)
	?ReleaseContext@CAknKeySoundSystem@@QAEXXZ @ 2148 NONAME ; void CAknKeySoundSystem::ReleaseContext(void)
	?Remove@CAknDrawSynchronizer@@QAEXPAVMAknSyncDrawer@@@Z @ 2149 NONAME ; void CAknDrawSynchronizer::Remove(class MAknSyncDrawer *)
	?RemoveCbaObserver@CAknEnv@@QAEXXZ @ 2150 NONAME ; void CAknEnv::RemoveCbaObserver(void)
	?RemoveEditorIndicator@CAknQueryDialog@@QAEXXZ @ 2151 NONAME ; void CAknQueryDialog::RemoveEditorIndicator(void)
	?RemoveObserver@CAknWsEventMonitor@@QAEXPBVMAknWsEventObserver@@@Z @ 2152 NONAME ; void CAknWsEventMonitor::RemoveObserver(class MAknWsEventObserver const *)
	?RemoveView@CAknViewAppUi@@QAEXVTUid@@@Z @ 2153 NONAME ; void CAknViewAppUi::RemoveView(class TUid)
	?ReplaceCharacters@AknTextUtils@@SAXAAVTDes16@@ABVTDesC16@@VTChar@@@Z @ 2154 NONAME ; void AknTextUtils::ReplaceCharacters(class TDes16 &, class TDesC16 const &, class TChar)
	?ReplaceColumn@AknLAFUtils@@SAXVTPtr16@@PAVTDesC16@@1VTChar@@H@Z @ 2155 NONAME ; void AknLAFUtils::ReplaceColumn(class TPtr16, class TDesC16 *, class TDesC16 *, class TChar, int)
	?ReplaceKeySoundsL@CAknAppUiBase@@IAEXH@Z @ 2156 NONAME ; void CAknAppUiBase::ReplaceKeySoundsL(int)
	?ReplaceL@CAknNavigationControlContainer@@QAEHAAVCAknNavigationDecorator@@0@Z @ 2157 NONAME ; int CAknNavigationControlContainer::ReplaceL(class CAknNavigationDecorator &, class CAknNavigationDecorator &)
	?ReplaceTabL@CAknTabGroup@@QAEXAAVTResourceReader@@@Z @ 2158 NONAME ; void CAknTabGroup::ReplaceTabL(class TResourceReader &)
	?ReplaceTabL@CAknTabGroup@@QAEXHABVTDesC16@@@Z @ 2159 NONAME ; void CAknTabGroup::ReplaceTabL(int, class TDesC16 const &)
	?ReplaceTabL@CAknTabGroup@@QAEXHABVTDesC16@@PBVCFbsBitmap@@1@Z @ 2160 NONAME ; void CAknTabGroup::ReplaceTabL(int, class TDesC16 const &, class CFbsBitmap const *, class CFbsBitmap const *)
	?ReplaceTabL@CAknTabGroup@@QAEXHPBVCFbsBitmap@@0@Z @ 2161 NONAME ; void CAknTabGroup::ReplaceTabL(int, class CFbsBitmap const *, class CFbsBitmap const *)
	?ReplaceTabTextL@CAknTabGroup@@QAEXHABVTDesC16@@@Z @ 2162 NONAME ; void CAknTabGroup::ReplaceTabTextL(int, class TDesC16 const &)
	?ReportEvent@CAknEcsDetector@@MAEXW4TState@1@@Z @ 2163 NONAME ; void CAknEcsDetector::ReportEvent(enum CAknEcsDetector::TState)
	?ReportUserActivity@CAknNoteDialog@@IBEXXZ @ 2164 NONAME ; void CAknNoteDialog::ReportUserActivity(void) const
	?RequestSoundInfoL@CAknKeySoundSystem@@QAEHHAAVCAknSoundInfo@@@Z @ 2165 NONAME ; int CAknKeySoundSystem::RequestSoundInfoL(int, class CAknSoundInfo &)
	?RequestWsBuffer@CAknEnv@@QAEHH@Z @ 2166 NONAME ; int CAknEnv::RequestWsBuffer(int)
	?Reserved1@CAknNoteWrapper@@EAEXXZ @ 2167 NONAME ; void CAknNoteWrapper::Reserved1(void)
	?Reserved1@CAknTabGroup@@EAEXXZ @ 2168 NONAME ; void CAknTabGroup::Reserved1(void)
	?Reserved2@CAknTabGroup@@EAEXXZ @ 2169 NONAME ; void CAknTabGroup::Reserved2(void)
	?Reserved3@CAknTabGroup@@EAEXXZ @ 2170 NONAME ; void CAknTabGroup::Reserved3(void)
	?Reserved_1@CAknColumnListBoxView@@EAEPAXXZ @ 2171 NONAME ; void * CAknColumnListBoxView::Reserved_1(void)
	?Reserved_1@CAknDummyListBoxView@@EAEPAXXZ @ 2172 NONAME ; void * CAknDummyListBoxView::Reserved_1(void)
	?Reserved_1@CAknGMSStyleGridView@@EAEPAXXZ @ 2173 NONAME ; void * CAknGMSStyleGridView::Reserved_1(void)
	?Reserved_1@CAknGridView@@EAEPAXXZ @ 2174 NONAME ; void * CAknGridView::Reserved_1(void)
	?Reserved_1@CAknNumericSecretEditor@@AAEXXZ @ 2175 NONAME ; void CAknNumericSecretEditor::Reserved_1(void)
	?Reserved_1@CAknPopupField@@AAEXXZ @ 2176 NONAME ; void CAknPopupField::Reserved_1(void)
	?Reserved_1@CAknPopupFieldText@@AAEXXZ @ 2177 NONAME ; void CAknPopupFieldText::Reserved_1(void)
	?Reserved_1@CAknPopupSettingList@@AAEXXZ @ 2178 NONAME ; void CAknPopupSettingList::Reserved_1(void)
	?Reserved_1@CAknSetStyleListBoxView@@EAEPAXXZ @ 2179 NONAME ; void * CAknSetStyleListBoxView::Reserved_1(void)
	?Reserved_1@CAknWsEventMonitor@@EAEXXZ @ 2180 NONAME ; void CAknWsEventMonitor::Reserved_1(void)
	?Reserved_1@CFormattedCellListBoxView@@EAEPAXXZ @ 2181 NONAME ; void * CFormattedCellListBoxView::Reserved_1(void)
	?Reserved_1@CSettingsListBoxView@@EAEPAXXZ @ 2182 NONAME ; void * CSettingsListBoxView::Reserved_1(void)
	?Reserved_1@CSingleHeadingStyleView@@EAEPAXXZ @ 2183 NONAME ; void * CSingleHeadingStyleView::Reserved_1(void)
	?Reserved_2@CAknAlphaPasswordSettingPage@@EAEXXZ @ 2184 NONAME ; void CAknAlphaPasswordSettingPage::Reserved_2(void)
	?Reserved_2@CAknCheckBoxSettingPage@@EAEXXZ @ 2185 NONAME ; void CAknCheckBoxSettingPage::Reserved_2(void)
	?Reserved_2@CAknDateSettingPage@@EAEXXZ @ 2186 NONAME ; void CAknDateSettingPage::Reserved_2(void)
	?Reserved_2@CAknDurationSettingPage@@EAEXXZ @ 2187 NONAME ; void CAknDurationSettingPage::Reserved_2(void)
	?Reserved_2@CAknIntegerSettingPage@@EAEXXZ @ 2188 NONAME ; void CAknIntegerSettingPage::Reserved_2(void)
	?Reserved_2@CAknIpFieldSettingPage@@EAEXXZ @ 2189 NONAME ; void CAknIpFieldSettingPage::Reserved_2(void)
	?Reserved_2@CAknNumericPasswordSettingPage@@EAEXXZ @ 2190 NONAME ; void CAknNumericPasswordSettingPage::Reserved_2(void)
	?Reserved_2@CAknNumericSecretEditor@@EAEXXZ @ 2191 NONAME ; void CAknNumericSecretEditor::Reserved_2(void)
	?Reserved_2@CAknPasswordSettingPage@@EAEXXZ @ 2192 NONAME ; void CAknPasswordSettingPage::Reserved_2(void)
	?Reserved_2@CAknPopupField@@EAEXXZ @ 2193 NONAME ; void CAknPopupField::Reserved_2(void)
	?Reserved_2@CAknPopupFieldText@@EAEXXZ @ 2194 NONAME ; void CAknPopupFieldText::Reserved_2(void)
	?Reserved_2@CAknPopupSettingList@@EAEXXZ @ 2195 NONAME ; void CAknPopupSettingList::Reserved_2(void)
	?Reserved_2@CAknPopupSettingPage@@MAEXXZ @ 2196 NONAME ; void CAknPopupSettingPage::Reserved_2(void)
	?Reserved_2@CAknRadioButtonSettingPage@@EAEXXZ @ 2197 NONAME ; void CAknRadioButtonSettingPage::Reserved_2(void)
	?Reserved_2@CAknSettingPage@@EAEXXZ @ 2198 NONAME ; void CAknSettingPage::Reserved_2(void)
	?Reserved_2@CAknSliderSettingPage@@EAEXXZ @ 2199 NONAME ; void CAknSliderSettingPage::Reserved_2(void)
	?Reserved_2@CAknTextSettingPage@@EAEXXZ @ 2200 NONAME ; void CAknTextSettingPage::Reserved_2(void)
	?Reserved_2@CAknTimeOffsetSettingPage@@EAEXXZ @ 2201 NONAME ; void CAknTimeOffsetSettingPage::Reserved_2(void)
	?Reserved_2@CAknTimeSettingPage@@EAEXXZ @ 2202 NONAME ; void CAknTimeSettingPage::Reserved_2(void)
	?Reserved_2@CAknTransparentCameraSettingPage@@EAEXXZ @ 2203 NONAME ; void CAknTransparentCameraSettingPage::Reserved_2(void)
	?Reserved_2@CAknVolumeSettingPage@@EAEXXZ @ 2204 NONAME ; void CAknVolumeSettingPage::Reserved_2(void)
	?Reserved_3@CAknIntegerEdwin@@EAEXXZ @ 2205 NONAME ; void CAknIntegerEdwin::Reserved_3(void)
	?Reserved_MAknQueryValue@CAknQueryValue@@EAEXXZ @ 2206 NONAME ; void CAknQueryValue::Reserved_MAknQueryValue(void)
	?Reserved_MAknQueryValue@CAknQueryValueDate@@EAEXXZ @ 2207 NONAME ; void CAknQueryValueDate::Reserved_MAknQueryValue(void)
	?Reserved_MAknQueryValue@CAknQueryValueDuration@@EAEXXZ @ 2208 NONAME ; void CAknQueryValueDuration::Reserved_MAknQueryValue(void)
	?Reserved_MAknQueryValue@CAknQueryValueNumber@@EAEXXZ @ 2209 NONAME ; void CAknQueryValueNumber::Reserved_MAknQueryValue(void)
	?Reserved_MAknQueryValue@CAknQueryValuePhone@@EAEXXZ @ 2210 NONAME ; void CAknQueryValuePhone::Reserved_MAknQueryValue(void)
	?Reserved_MAknQueryValue@CAknQueryValueText@@EAEXXZ @ 2211 NONAME ; void CAknQueryValueText::Reserved_MAknQueryValue(void)
	?Reserved_MAknQueryValue@CAknQueryValueTime@@EAEXXZ @ 2212 NONAME ; void CAknQueryValueTime::Reserved_MAknQueryValue(void)
	?Reserved_MAknQueryValue@MAknQueryValue@@EAEXXZ @ 2213 NONAME ; void MAknQueryValue::Reserved_MAknQueryValue(void)
	?Reserved_MtsmObject@CAknAppUi@@MAEXXZ @ 2214 NONAME ; void CAknAppUi::Reserved_MtsmObject(void)
	?Reserved_MtsmObject@CAknDialog@@EAEXXZ @ 2215 NONAME ; void CAknDialog::Reserved_MtsmObject(void)
	?Reserved_MtsmObject@CAknSettingPage@@EAEXXZ @ 2216 NONAME ; void CAknSettingPage::Reserved_MtsmObject(void)
	?Reserved_MtsmObject@CAknView@@EAEXXZ @ 2217 NONAME ; void CAknView::Reserved_MtsmObject(void)
	?Reserved_MtsmPosition@CAknAppUi@@MAEXXZ @ 2218 NONAME ; void CAknAppUi::Reserved_MtsmPosition(void)
	?Reserved_MtsmPosition@CAknDialog@@EAEXXZ @ 2219 NONAME ; void CAknDialog::Reserved_MtsmPosition(void)
	?Reserved_MtsmPosition@CAknSettingPage@@EAEXXZ @ 2220 NONAME ; void CAknSettingPage::Reserved_MtsmPosition(void)
	?Reserved_MtsmPosition@CAknView@@EAEXXZ @ 2221 NONAME ; void CAknView::Reserved_MtsmPosition(void)
	?Reset@CAknAnimatedGc@@MAEXXZ @ 2222 NONAME ; void CAknAnimatedGc::Reset(void)
	?Reset@CAknEcsDetector@@QAEXXZ @ 2223 NONAME ; void CAknEcsDetector::Reset(void)
	?Reset@CAknMarqueeControl@@QAEXXZ @ 2224 NONAME ; void CAknMarqueeControl::Reset(void)
	?ResetCurrentItem@CAknItemFinder@@QAEXXZ @ 2225 NONAME ABSENT ; void CAknItemFinder::ResetCurrentItem(void)
	?ResetEditorToDefaultValues@CAknPhoneNumberEditor@@QAEXXZ @ 2226 NONAME ; void CAknPhoneNumberEditor::ResetEditorToDefaultValues(void)
	?ResetFilteringL@CAknListBoxFilterItems@@QAEXXZ @ 2227 NONAME ; void CAknListBoxFilterItems::ResetFilteringL(void)
	?ResetFlags@CAknSettingPage@@IAEXXZ @ 2228 NONAME ; void CAknSettingPage::ResetFlags(void)
	?ResetL@CAknSearchField@@QAEXXZ @ 2229 NONAME ; void CAknSearchField::ResetL(void)
	?ResetText@CAknNoteControl@@QAEXXZ @ 2230 NONAME ; void CAknNoteControl::ResetText(void)
	?ResolveAndSetItemTypeL@CAknItemFinder@@QAEXH@Z @ 2231 NONAME ABSENT ; void CAknItemFinder::ResolveAndSetItemTypeL(int)
	?ResourceDecorator@CAknNavigationControlContainer@@QAEPAVCAknNavigationDecorator@@XZ @ 2232 NONAME ; class CAknNavigationDecorator * CAknNavigationControlContainer::ResourceDecorator(void)
	?ResourceFile@CAknLibrary@@SA?AV?$TBuf@$0BAA@@@XZ @ 2233 NONAME ; class TBuf<256> CAknLibrary::ResourceFile(void)
	?RespectFocus@CFormattedCellListBoxData@@QBEHXZ @ 2234 NONAME ; int CFormattedCellListBoxData::RespectFocus(void) const
	?RestoreClientRectFromViewRect@CAknGrid@@MBEXAAVTRect@@@Z @ 2235 NONAME ; void CAknGrid::RestoreClientRectFromViewRect(class TRect &) const
	?RestoreOriginalSettingL@CAknDateSettingPage@@MAEXXZ @ 2236 NONAME ; void CAknDateSettingPage::RestoreOriginalSettingL(void)
	?RestoreOriginalSettingL@CAknDurationSettingPage@@MAEXXZ @ 2237 NONAME ; void CAknDurationSettingPage::RestoreOriginalSettingL(void)
	?RestoreOriginalSettingL@CAknIntegerSettingPage@@MAEXXZ @ 2238 NONAME ; void CAknIntegerSettingPage::RestoreOriginalSettingL(void)
	?RestoreOriginalSettingL@CAknIpFieldSettingPage@@MAEXXZ @ 2239 NONAME ; void CAknIpFieldSettingPage::RestoreOriginalSettingL(void)
	?RestoreOriginalSettingL@CAknSettingPage@@MAEXXZ @ 2240 NONAME ; void CAknSettingPage::RestoreOriginalSettingL(void)
	?RestoreOriginalSettingL@CAknSliderSettingPage@@MAEXXZ @ 2241 NONAME ; void CAknSliderSettingPage::RestoreOriginalSettingL(void)
	?RestoreOriginalSettingL@CAknTextSettingPage@@MAEXXZ @ 2242 NONAME ; void CAknTextSettingPage::RestoreOriginalSettingL(void)
	?RestoreOriginalSettingL@CAknTimeOffsetSettingPage@@MAEXXZ @ 2243 NONAME ; void CAknTimeOffsetSettingPage::RestoreOriginalSettingL(void)
	?RestoreOriginalSettingL@CAknTimeSettingPage@@MAEXXZ @ 2244 NONAME ; void CAknTimeSettingPage::RestoreOriginalSettingL(void)
	?RestoreOriginalSettingL@CAknVolumeSettingPage@@MAEXXZ @ 2245 NONAME ; void CAknVolumeSettingPage::RestoreOriginalSettingL(void)
	?RowAndSubCellFont@CFormattedCellListBoxData@@QBEPBVCFont@@HH@Z @ 2246 NONAME ; class CFont const * CFormattedCellListBoxData::RowAndSubCellFont(int, int) const
	?RunAppShutter@CAknAppUi@@QAEXXZ @ 2247 NONAME ; void CAknAppUi::RunAppShutter(void)
	?RunAppShutter@CAknEnv@@SAXXZ @ 2248 NONAME ; void CAknEnv::RunAppShutter(void)
	?RunDlgLD@CAknNoteDialog@@QAEHH@Z @ 2249 NONAME ; int CAknNoteDialog::RunDlgLD(int)
	?RunDlgLD@CAknNoteDialog@@QAEHW4TTimeout@1@W4TTone@1@@Z @ 2250 NONAME ; int CAknNoteDialog::RunDlgLD(enum CAknNoteDialog::TTimeout, enum CAknNoteDialog::TTone)
	?RunDlgLD@CAknNoteDialog@@QAEHW4TTone@1@@Z @ 2251 NONAME ; int CAknNoteDialog::RunDlgLD(enum CAknNoteDialog::TTone)
	?RunDlgLD@CAknNoteDialog@@QAEHXZ @ 2252 NONAME ; int CAknNoteDialog::RunDlgLD(void)
	?RunDlgLD@CAknQueryDialog@@QAEHH@Z @ 2253 NONAME ; int CAknQueryDialog::RunDlgLD(int)
	?RunL@AknListBoxShortCuts@@UAEXXZ @ 2254 NONAME ; void AknListBoxShortCuts::RunL(void)
	?RunLD@CAknDialog@@UAEHXZ @ 2255 NONAME ; int CAknDialog::RunLD(void)
	?RunLD@CAknNoteDialog@@UAEHXZ @ 2256 NONAME ; int CAknNoteDialog::RunLD(void)
	?RunLD@CAknPopupForm@@UAEHXZ @ 2257 NONAME ; int CAknPopupForm::RunLD(void)
	?RunLD@CAknProgressDialog@@UAEHXZ @ 2258 NONAME ; int CAknProgressDialog::RunLD(void)
	?RunLD@CAknQueryDialog@@UAEHXZ @ 2259 NONAME ; int CAknQueryDialog::RunLD(void)
	?SaveFormDataL@CAknForm@@MAEHXZ @ 2260 NONAME ; int CAknForm::SaveFormDataL(void)
	?ScalableLayoutInterfaceAvailable@AknLayoutUtils@@SAHXZ @ 2261 NONAME ; int AknLayoutUtils::ScalableLayoutInterfaceAvailable(void)
	?ScrollButtonVisible@CAknNavigationDecorator@@QBEHXZ @ 2262 NONAME ; int CAknNavigationDecorator::ScrollButtonVisible(void) const
	?ScrollToMakeItemVisible@CAknGridView@@UAEHH@Z @ 2263 NONAME ; int CAknGridView::ScrollToMakeItemVisible(int)
	?SearchByLines@CAknGridView@@AAEHHHW4TCursorMovement@CListBoxView@@H@Z @ 2264 NONAME ; int CAknGridView::SearchByLines(int, int, enum CListBoxView::TCursorMovement, int)
	?SecondControl@CAknMultiLineDataQueryDialog@@IBEPAVCAknMultilineQueryControl@@XZ @ 2265 NONAME ; class CAknMultilineQueryControl * CAknMultiLineDataQueryDialog::SecondControl(void) const
	?SecondControl@CAknMultiLineIpQueryDialog@@IBEPAVCAknExtMultilineQueryControl@@XZ @ 2266 NONAME ; class CAknExtMultilineQueryControl * CAknMultiLineIpQueryDialog::SecondControl(void) const
	?SecondPrompt@CAknMultiLineDataQueryDialog@@IBE?AVTPtrC16@@XZ @ 2267 NONAME ; class TPtrC16 CAknMultiLineDataQueryDialog::SecondPrompt(void) const
	?SecondPrompt@CAknMultiLineIpQueryDialog@@IBE?AVTPtrC16@@XZ @ 2268 NONAME ; class TPtrC16 CAknMultiLineIpQueryDialog::SecondPrompt(void) const
	?SelectAllL@CAknPhoneNumberEditor@@QAEXXZ @ 2269 NONAME ; void CAknPhoneNumberEditor::SelectAllL(void)
	?SelectCurrentItemL@CAknCheckBoxSettingPage@@MAEXXZ @ 2270 NONAME ; void CAknCheckBoxSettingPage::SelectCurrentItemL(void)
	?SelectCurrentItemL@CAknPopupSettingPage@@MAEXXZ @ 2271 NONAME ; void CAknPopupSettingPage::SelectCurrentItemL(void)
	?SelectCurrentItemL@CAknRadioButtonSettingPage@@MAEXXZ @ 2272 NONAME ; void CAknRadioButtonSettingPage::SelectCurrentItemL(void)
	?SelectCurrentItemL@CAknSettingPage@@MAEXXZ @ 2273 NONAME ; void CAknSettingPage::SelectCurrentItemL(void)
	?SelectCurrentItemL@CAknTransparentCameraSettingPage@@MAEXXZ @ 2274 NONAME ; void CAknTransparentCameraSettingPage::SelectCurrentItemL(void)
	?SelectSearchTextL@CAknSearchField@@QAEXXZ @ 2275 NONAME ; void CAknSearchField::SelectSearchTextL(void)
	?Selection@CAknPhoneNumberEditor@@QBE?AVTCursorSelection@@XZ @ 2276 NONAME ; class TCursorSelection CAknPhoneNumberEditor::Selection(void) const
	?SelectionIndexes@CAknListBoxFilterItems@@QAEPAV?$CArrayFix@H@@XZ @ 2277 NONAME ; class CArrayFix<int> * CAknListBoxFilterItems::SelectionIndexes(void)
	?SelectionLength@CAknPhoneNumberEditor@@QBEHXZ @ 2278 NONAME ; int CAknPhoneNumberEditor::SelectionLength(void) const
	?SelectionListProcessCommandL@CAknMarkableListDialog@@MAEXH@Z @ 2279 NONAME ; void CAknMarkableListDialog::SelectionListProcessCommandL(int)
	?SelectionListProcessCommandL@CAknSelectionListDialog@@MAEXH@Z @ 2280 NONAME ; void CAknSelectionListDialog::SelectionListProcessCommandL(int)
	?SelectionStatus@CSelectableItem@@QAEHXZ @ 2281 NONAME ; int CSelectableItem::SelectionStatus(void)
	?SeparatorLinePosition@CFormattedCellListBoxData@@QBE?AW4TAknSeparatorLinePosition@@XZ @ 2282 NONAME ; enum TAknSeparatorLinePosition CFormattedCellListBoxData::SeparatorLinePosition(void) const
	?ServiceError@CAknAppServiceBase@@MAEXABVRMessage2@@H@Z @ 2283 NONAME ; void CAknAppServiceBase::ServiceError(class RMessage2 const &, int)
	?ServiceL@CAknAppServiceBase@@MAEXABVRMessage2@@@Z @ 2284 NONAME ; void CAknAppServiceBase::ServiceL(class RMessage2 const &)
	?Set@CAknPhoneNumberGrouping@@QAEHABVTDesC16@@@Z @ 2285 NONAME ; int CAknPhoneNumberGrouping::Set(class TDesC16 const &)
	?SetActive@CAknListBoxLayoutDecorator@@QAEXH@Z @ 2286 NONAME ; void CAknListBoxLayoutDecorator::SetActive(int)
	?SetActive@TAknDesCArrayDecorator@@QAEXH@Z @ 2287 NONAME ; void TAknDesCArrayDecorator::SetActive(int)
	?SetActiveTabById@CAknTabGroup@@QAEXH@Z @ 2288 NONAME ; void CAknTabGroup::SetActiveTabById(int)
	?SetActiveTabByIndex@CAknTabGroup@@QAEXH@Z @ 2289 NONAME ; void CAknTabGroup::SetActiveTabByIndex(int)
	?SetAllowsUserDefinedEntry@CAknPopupField@@QAEXH@Z @ 2290 NONAME ; void CAknPopupField::SetAllowsUserDefinedEntry(int)
	?SetAllowsUserDefinedEntry@CAknPopupSettingList@@QAEXH@Z @ 2291 NONAME ; void CAknPopupSettingList::SetAllowsUserDefinedEntry(int)
	?SetAnimationData@CAknAnimatedView@@QAEXPAVCAknAnimationData@@@Z @ 2292 NONAME ; void CAknAnimatedView::SetAnimationData(class CAknAnimationData *)
	?SetAnimationL@CAknNoteControl@@QAEXH@Z @ 2293 NONAME ; void CAknNoteControl::SetAnimationL(int)
	?SetAnimationL@CAknQueryControl@@QAEXH@Z @ 2294 NONAME ; void CAknQueryControl::SetAnimationL(int)
	?SetArray@CAknListBoxLayoutDecorator@@QAEXPBVMDesC16Array@@@Z @ 2295 NONAME ; void CAknListBoxLayoutDecorator::SetArray(class MDesC16Array const *)
	?SetArray@CAknQueryValueDateArray@@QAEXAAV?$CArrayFix@VTTime@@@@@Z @ 2296 NONAME ; void CAknQueryValueDateArray::SetArray(class CArrayFix<class TTime> &)
	?SetArray@CAknQueryValueDurationArray@@QAEXAAV?$CArrayFix@VTTimeIntervalSeconds@@@@@Z @ 2297 NONAME ; void CAknQueryValueDurationArray::SetArray(class CArrayFix<class TTimeIntervalSeconds> &)
	?SetArray@CAknQueryValueNumberArray@@QAEXAAV?$CArrayFix@H@@@Z @ 2298 NONAME ; void CAknQueryValueNumberArray::SetArray(class CArrayFix<int> &)
	?SetArray@CAknQueryValuePhoneArray@@QAEXAAVCDesC16Array@@@Z @ 2299 NONAME ; void CAknQueryValuePhoneArray::SetArray(class CDesC16Array &)
	?SetArray@CAknQueryValueTextArray@@QAEXAAVCDesC16Array@@@Z @ 2300 NONAME ; void CAknQueryValueTextArray::SetArray(class CDesC16Array &)
	?SetArray@CAknQueryValueTimeArray@@QAEXAAV?$CArrayFix@VTTime@@@@@Z @ 2301 NONAME ; void CAknQueryValueTimeArray::SetArray(class CArrayFix<class TTime> &)
	?SetArray@TAknDesCArrayDecorator@@QAEXPBVMDesC16Array@@@Z @ 2302 NONAME ; void TAknDesCArrayDecorator::SetArray(class MDesC16Array const *)
	?SetArrayL@CAknQueryValueDate@@QAEXPBVCAknQueryValueDateArray@@@Z @ 2303 NONAME ; void CAknQueryValueDate::SetArrayL(class CAknQueryValueDateArray const *)
	?SetArrayL@CAknQueryValueDuration@@QAEXPBVCAknQueryValueDurationArray@@@Z @ 2304 NONAME ; void CAknQueryValueDuration::SetArrayL(class CAknQueryValueDurationArray const *)
	?SetArrayL@CAknQueryValueNumber@@QAEXPBVCAknQueryValueNumberArray@@@Z @ 2305 NONAME ; void CAknQueryValueNumber::SetArrayL(class CAknQueryValueNumberArray const *)
	?SetArrayL@CAknQueryValuePhone@@QAEXPBVCAknQueryValuePhoneArray@@@Z @ 2306 NONAME ; void CAknQueryValuePhone::SetArrayL(class CAknQueryValuePhoneArray const *)
	?SetArrayL@CAknQueryValueText@@QAEXPBVCAknQueryValueTextArray@@@Z @ 2307 NONAME ; void CAknQueryValueText::SetArrayL(class CAknQueryValueTextArray const *)
	?SetArrayL@CAknQueryValueTime@@QAEXPBVCAknQueryValueTimeArray@@@Z @ 2308 NONAME ; void CAknQueryValueTime::SetArrayL(class CAknQueryValueTimeArray const *)
	?SetAutoAppend@CAknPopupFieldText@@QAEXH@Z @ 2309 NONAME ; void CAknPopupFieldText::SetAutoAppend(int)
	?SetAutoAppend@CAknQueryValue@@UAEXH@Z @ 2310 NONAME ; void CAknQueryValue::SetAutoAppend(int)
	?SetBackgroundSkinStyle@CFormattedCellListBoxData@@QAEXPBVTAknsItemID@@ABVTRect@@@Z @ 2311 NONAME ; void CFormattedCellListBoxData::SetBackgroundSkinStyle(class TAknsItemID const *, class TRect const &)
	?SetBatteryLevel@CAknBatteryPane@@QAEXH@Z @ 2312 NONAME ; void CAknBatteryPane::SetBatteryLevel(int)
	?SetBgRect@CAknNoteControl@@QAEXABVTRect@@ABVTPoint@@H@Z @ 2313 NONAME ; void CAknNoteControl::SetBgRect(class TRect const &, class TPoint const &, int)
	?SetBitmapPositionAndClipRect@CAknTransparentCameraSettingPage@@QAEXVTPoint@@VTRect@@@Z @ 2314 NONAME ; void CAknTransparentCameraSettingPage::SetBitmapPositionAndClipRect(class TPoint, class TRect)
	?SetBrushColor@CAknAnimatedGc@@MAEXABVTRgb@@@Z @ 2315 NONAME ; void CAknAnimatedGc::SetBrushColor(class TRgb const &)
	?SetBrushOrigin@CAknAnimatedGc@@MAEXABVTPoint@@@Z @ 2316 NONAME ; void CAknAnimatedGc::SetBrushOrigin(class TPoint const &)
	?SetBrushStyle@CAknAnimatedGc@@MAEXW4TBrushStyle@CGraphicsContext@@@Z @ 2317 NONAME ; void CAknAnimatedGc::SetBrushStyle(enum CGraphicsContext::TBrushStyle)
	?SetBuffer@CAknCharMap@@QAEXAAVTDes16@@@Z @ 2318 NONAME ; void CAknCharMap::SetBuffer(class TDes16 &)
	?SetBuffer@CAknEcsDetector@@QAEXABVTDesC16@@@Z @ 2319 NONAME ; void CAknEcsDetector::SetBuffer(class TDesC16 const &)
	?SetCallback@CAknPopupForm@@QAEXPAVMPopupFormProgressCallback@@@Z @ 2320 NONAME ; void CAknPopupForm::SetCallback(class MPopupFormProgressCallback *)
	?SetCallback@CAknProgressDialog@@QAEXPAVMProgressDialogCallback@@@Z @ 2321 NONAME ; void CAknProgressDialog::SetCallback(class MProgressDialogCallback *)
	?SetChangesPending@CAknForm@@IAEXH@Z @ 2322 NONAME ; void CAknForm::SetChangesPending(int)
	?SetCharJustification@CAknAnimatedGc@@MAEXHH@Z @ 2323 NONAME ; void CAknAnimatedGc::SetCharJustification(int, int)
	?SetCharacterCaseL@CAknCharMap@@QAEXH@Z @ 2324 NONAME ; void CAknCharMap::SetCharacterCaseL(int)
	?SetClearOldView@CAknAnimationData@@QAEXXZ @ 2325 NONAME ; void CAknAnimationData::SetClearOldView(void)
	?SetClippingRect@CAknAnimatedGc@@MAEXABVTRect@@@Z @ 2326 NONAME ; void CAknAnimatedGc::SetClippingRect(class TRect const &)
	?SetClippingRegion@CAknAnimatedGc@@MAEHABVTRegion@@@Z @ 2327 NONAME ; int CAknAnimatedGc::SetClippingRegion(class TRegion const &)
	?SetColumnWidth@CAknGrid@@QAEXH@Z @ 2328 NONAME ; void CAknGrid::SetColumnWidth(int)
	?SetColumnWidth@CAknGridView@@QAEXH@Z @ 2329 NONAME ; void CAknGridView::SetColumnWidth(int)
	?SetCompulsoryIndTextL@CAknSettingItem@@QAEXABVTDesC16@@@Z @ 2330 NONAME ; void CAknSettingItem::SetCompulsoryIndTextL(class TDesC16 const &)
	?SetControl@CFormattedCellListBoxData@@QAEXPAVCCoeControl@@@Z @ 2331 NONAME ; void CFormattedCellListBoxData::SetControl(class CCoeControl *)
	?SetControl@TAknSyncControlDrawer@@QAEXPAVCCoeControl@@@Z @ 2332 NONAME ; void TAknSyncControlDrawer::SetControl(class CCoeControl *)
	?SetControlType@CAknNavigationDecorator@@QAEXW4TControlType@1@@Z @ 2333 NONAME ; void CAknNavigationDecorator::SetControlType(enum CAknNavigationDecorator::TControlType)
	?SetCurrentDataIndex@CAknGrid@@QAEXH@Z @ 2334 NONAME ; void CAknGrid::SetCurrentDataIndex(int)
	?SetCurrentDataIndex@CAknGridView@@QAEXH@Z @ 2335 NONAME ; void CAknGridView::SetCurrentDataIndex(int)
	?SetCurrentLabelL@CAknNoteDialog@@QAEXHABVTDesC16@@@Z @ 2336 NONAME ; void CAknNoteDialog::SetCurrentLabelL(int, class TDesC16 const &)
	?SetCurrentValueIndex@CAknPopupFieldText@@QAEXH@Z @ 2337 NONAME ; void CAknPopupFieldText::SetCurrentValueIndex(int)
	?SetCurrentValueIndex@CAknQueryValueDate@@UAEXH@Z @ 2338 NONAME ; void CAknQueryValueDate::SetCurrentValueIndex(int)
	?SetCurrentValueIndex@CAknQueryValueDuration@@UAEXH@Z @ 2339 NONAME ; void CAknQueryValueDuration::SetCurrentValueIndex(int)
	?SetCurrentValueIndex@CAknQueryValueNumber@@UAEXH@Z @ 2340 NONAME ; void CAknQueryValueNumber::SetCurrentValueIndex(int)
	?SetCurrentValueIndex@CAknQueryValuePhone@@UAEXH@Z @ 2341 NONAME ; void CAknQueryValuePhone::SetCurrentValueIndex(int)
	?SetCurrentValueIndex@CAknQueryValueText@@UAEXH@Z @ 2342 NONAME ; void CAknQueryValueText::SetCurrentValueIndex(int)
	?SetCurrentValueIndex@CAknQueryValueTime@@UAEXH@Z @ 2343 NONAME ; void CAknQueryValueTime::SetCurrentValueIndex(int)
	?SetCursorPosL@CAknPhoneNumberEditor@@QAEXHH@Z @ 2344 NONAME ; void CAknPhoneNumberEditor::SetCursorPosL(int, int)
	?SetDataValidity@CAknSettingPage@@IAEXH@Z @ 2345 NONAME ; void CAknSettingPage::SetDataValidity(int)
	?SetDecimalPlaces@CAknSlider@@QAEXH@Z @ 2346 NONAME ; void CAknSlider::SetDecimalPlaces(int)
	?SetDecorationText@TAknDesCArrayDecorator@@QAEXABVTDesC16@@@Z @ 2347 NONAME ; void TAknDesCArrayDecorator::SetDecorationText(class TDesC16 const &)
	?SetDecorator@CAknPopupFieldList@@QAEXPAVTAknDesCArrayDecorator@@@Z @ 2348 NONAME ; void CAknPopupFieldList::SetDecorator(class TAknDesCArrayDecorator *)
	?SetDefaultInputMode@CAknTextQueryDialog@@QAEXH@Z @ 2349 NONAME ; void CAknTextQueryDialog::SetDefaultInputMode(int)
	?SetDelay@CAknMarqueeControl@@QAEXH@Z @ 2350 NONAME ; void CAknMarqueeControl::SetDelay(int)
	?SetDitherOrigin@CAknAnimatedGc@@MAEXABVTPoint@@@Z @ 2351 NONAME ; void CAknAnimatedGc::SetDitherOrigin(class TPoint const &)
	?SetDrawMode@CAknAnimatedGc@@MAEXW4TDrawMode@CGraphicsContext@@@Z @ 2352 NONAME ; void CAknAnimatedGc::SetDrawMode(enum CGraphicsContext::TDrawMode)
	?SetDuration@CAknQueryControl@@QAEXAAVTTimeIntervalSeconds@@@Z @ 2353 NONAME ; void CAknQueryControl::SetDuration(class TTimeIntervalSeconds &)
	?SetDynamicTextL@CAknNoteControl@@QAEXABVTDesC16@@@Z @ 2354 NONAME ; void CAknNoteControl::SetDynamicTextL(class TDesC16 const &)
	?SetEditor@CAknItemFinder@@QAEXPAPAVCEikRichTextEditor@@@Z @ 2355 NONAME ABSENT ; void CAknItemFinder::SetEditor(class CEikRichTextEditor * *)
	?SetEmergencyCallSupport@CAknQueryDialog@@QAEXH@Z @ 2356 NONAME ; void CAknQueryDialog::SetEmergencyCallSupport(int)
	?SetEmphasis@CAknDialog@@UAEXPAVCCoeControl@@H@Z @ 2357 NONAME ; void CAknDialog::SetEmphasis(class CCoeControl *, int)
	?SetEmphasis@CAknSettingPage@@MAEXPAVCCoeControl@@H@Z @ 2358 NONAME ; void CAknSettingPage::SetEmphasis(class CCoeControl *, int)
	?SetEmphasis@CAknView@@MAEXPAVCCoeControl@@H@Z @ 2359 NONAME ; void CAknView::SetEmphasis(class CCoeControl *, int)
	?SetEmptyGridTextL@CAknGrid@@QAEXABVTDesC16@@@Z @ 2360 NONAME ; void CAknGrid::SetEmptyGridTextL(class TDesC16 const &)
	?SetEmptyItemTextL@CAknSettingItem@@QAEXABVTDesC16@@@Z @ 2361 NONAME ; void CAknSettingItem::SetEmptyItemTextL(class TDesC16 const &)
	?SetEmptyListNoteL@CAknPopupField@@QAEXHW4TTimeout@CAknNoteDialog@@W4TTone@3@@Z @ 2362 NONAME ; void CAknPopupField::SetEmptyListNoteL(int, enum CAknNoteDialog::TTimeout, enum CAknNoteDialog::TTone)
	?SetEmptyTextL@CAknPopupField@@QAEXABVTDesC16@@@Z @ 2363 NONAME ; void CAknPopupField::SetEmptyTextL(class TDesC16 const &)
	?SetEnumeratedTextArrays@CAknEnumeratedTextSettingItem@@QAEXPAV?$CArrayPtr@V?$CAknEnumeratedItem@VHBufC16@@@@@@PAV?$CArrayPtr@VHBufC16@@@@@Z @ 2364 NONAME ; void CAknEnumeratedTextSettingItem::SetEnumeratedTextArrays(class CArrayPtr<class CAknEnumeratedItem<class HBufC16> > *, class CArrayPtr<class HBufC16> *)
	?SetEnumerationValue@CAknEnumeratedItemBase@@QAEXH@Z @ 2365 NONAME ; void CAknEnumeratedItemBase::SetEnumerationValue(int)
	?SetExternalText@CAknTextSettingItem@@IAEXAAVTDesC16@@@Z @ 2366 NONAME ; void CAknTextSettingItem::SetExternalText(class TDesC16 &)
	?SetExternalValue@CAknEnumeratedTextPopupSettingItem@@IAEXH@Z @ 2367 NONAME ; void CAknEnumeratedTextPopupSettingItem::SetExternalValue(int)
	?SetExternalValue@CAknIntegerSettingItem@@IAEXAAH@Z @ 2368 NONAME ; void CAknIntegerSettingItem::SetExternalValue(int &)
	?SetFaded@CAknAnimatedGc@@MAEXH@Z @ 2369 NONAME ; void CAknAnimatedGc::SetFaded(int)
	?SetFadedL@CAknAppUiBase@@UAEXH@Z @ 2370 NONAME ; void CAknAppUiBase::SetFadedL(int)
	?SetFadingParameters@CAknAnimatedGc@@MAEXEE@Z @ 2371 NONAME ; void CAknAnimatedGc::SetFadingParameters(unsigned char, unsigned char)
	?SetFepMenuObserver@CAknEnv@@QAEXPAVMEikMenuObserver@@@Z @ 2372 NONAME ; void CAknEnv::SetFepMenuObserver(class MEikMenuObserver *)
	?SetFinalProgressValue@CAknNoteControl@@QAEXH@Z @ 2373 NONAME ; void CAknNoteControl::SetFinalProgressValue(int)
	?SetFindEmptyListState@CAknColumnListBoxView@@QAEXH@Z @ 2374 NONAME ; void CAknColumnListBoxView::SetFindEmptyListState(int)
	?SetFindModeL@CAknItemFinder@@QAEXH@Z @ 2375 NONAME ABSENT ; void CAknItemFinder::SetFindModeL(int)
	?SetFixedPointNumberL@CAknExtQueryControl@@QAEXPBH@Z @ 2376 NONAME ; void CAknExtQueryControl::SetFixedPointNumberL(int const *)
	?SetFlags@CAknSettingItemArray@@QAEXH@Z @ 2377 NONAME ; void CAknSettingItemArray::SetFlags(int)
	?SetFloatingPointNumberL@CAknQueryControl@@QAEXPBN@Z @ 2378 NONAME ; void CAknQueryControl::SetFloatingPointNumberL(double const *)
	?SetFocusToEditor@CAknSettingPage@@MAEXXZ @ 2379 NONAME ; void CAknSettingPage::SetFocusToEditor(void)
	?SetFont@CAknPopupField@@QAEXPBVCFont@@@Z @ 2380 NONAME ; void CAknPopupField::SetFont(class CFont const *)
	?SetFormFieldRect@CAknPopupField@@QAEXVTRect@@@Z @ 2381 NONAME ; void CAknPopupField::SetFormFieldRect(class TRect)
	?SetFormFlag@CAknForm@@IAEXW4TFlags@1@H@Z @ 2382 NONAME ; void CAknForm::SetFormFlag(enum CAknForm::TFlags, int)
	?SetFormat@CAknPhoneNumberEditor@@QAEXH@Z @ 2383 NONAME ; void CAknPhoneNumberEditor::SetFormat(int)
	?SetFormatL@CAknSkinnableClock@@QAEXW4TClockFormat@@@Z @ 2384 NONAME ; void CAknSkinnableClock::SetFormatL(enum TClockFormat)
	?SetFrameIndexL@CAknBitmapAnimation@@QAEXH@Z @ 2385 NONAME ; void CAknBitmapAnimation::SetFrameIndexL(int)
	?SetFrameIntervalL@CAknBitmapAnimation@@QAEXH@Z @ 2386 NONAME ; void CAknBitmapAnimation::SetFrameIntervalL(int)
	?SetFromResourceL@CAknContextPane@@QAEXAAVTResourceReader@@@Z @ 2387 NONAME ; void CAknContextPane::SetFromResourceL(class TResourceReader &)
	?SetFromResourceL@CAknTitlePane@@QAEXAAVTResourceReader@@@Z @ 2388 NONAME ; void CAknTitlePane::SetFromResourceL(class TResourceReader &)
	?SetFullScreenApp@CAknAppUiBase@@IAEXH@Z @ 2389 NONAME ; void CAknAppUiBase::SetFullScreenApp(int)
	?SetGraphicsSubCellL@CFormattedCellListBoxData@@QAEXHH@Z @ 2390 NONAME ; void CFormattedCellListBoxData::SetGraphicsSubCellL(int, int)
	?SetGridCellDimensions@CAknGridView@@QAEXVTSize@@@Z @ 2391 NONAME ; void CAknGridView::SetGridCellDimensions(class TSize)
	?SetGridDetails@CAknGridView@@QAEXUSGrid@1@@Z @ 2392 NONAME ; void CAknGridView::SetGridDetails(struct CAknGridView::SGrid)
	?SetHeaderAnimationL@CAknPopupHeadingPane@@QAEXH@Z @ 2393 NONAME ; void CAknPopupHeadingPane::SetHeaderAnimationL(int)
	?SetHeaderImageL@CAknPopupHeadingPane@@QAEXPAVCEikImage@@@Z @ 2394 NONAME ; void CAknPopupHeadingPane::SetHeaderImageL(class CEikImage *)
	?SetHeaderImageL@CAknQueryDialog@@QAEXPAVCEikImage@@@Z @ 2395 NONAME ; void CAknQueryDialog::SetHeaderImageL(class CEikImage *)
	?SetHeaderText@CAknMessageQueryDialog@@QAEXABVTDesC16@@@Z @ 2396 NONAME ; void CAknMessageQueryDialog::SetHeaderText(class TDesC16 const &)
	?SetHeaderText@CAknMessageQueryDialog@@QAEXPAVTDesC16@@@Z @ 2397 NONAME ; void CAknMessageQueryDialog::SetHeaderText(class TDesC16 *)
	?SetHeaderTextL@CAknMessageQueryDialog@@QAEXABVTDesC16@@@Z @ 2398 NONAME ; void CAknMessageQueryDialog::SetHeaderTextL(class TDesC16 const &)
	?SetHeaderTextL@CAknQueryDialog@@QAEXABVTDesC16@@@Z @ 2399 NONAME ; void CAknQueryDialog::SetHeaderTextL(class TDesC16 const &)
	?SetHidden@CAknSettingItem@@QAEXH@Z @ 2400 NONAME ; void CAknSettingItem::SetHidden(int)
	?SetIconArray@CFormattedCellListBoxData@@QAEXPAV?$CArrayPtr@VCGulIcon@@@@@Z @ 2401 NONAME ; void CFormattedCellListBoxData::SetIconArray(class CArrayPtr<class CGulIcon> *)
	?SetIconArrayL@CAknListQueryDialog@@QAEXPAV?$CArrayPtr@VCGulIcon@@@@@Z @ 2402 NONAME ; void CAknListQueryDialog::SetIconArrayL(class CArrayPtr<class CGulIcon> *)
	?SetIconArrayL@CAknSelectionListDialog@@QAEXPAV?$CArrayPtr@VCGulIcon@@@@@Z @ 2403 NONAME ; void CAknSelectionListDialog::SetIconArrayL(class CArrayPtr<class CGulIcon> *)
	?SetIconArrayL@CFormattedCellListBoxData@@QAEXPAV?$CArrayPtr@VCGulIcon@@@@@Z @ 2404 NONAME ; void CFormattedCellListBoxData::SetIconArrayL(class CArrayPtr<class CGulIcon> *)
	?SetIconL@CAknNoteControl@@QAEXPAVCEikImage@@@Z @ 2405 NONAME ; void CAknNoteControl::SetIconL(class CEikImage *)
	?SetIconL@CAknNoteDialog@@QAEXPAVCEikImage@@@Z @ 2406 NONAME ; void CAknNoteDialog::SetIconL(class CEikImage *)
	?SetIconMask@CAknSettingItem@@IAEHPAVCFbsBitmap@@@Z @ 2407 NONAME ; int CAknSettingItem::SetIconMask(class CFbsBitmap *)
	?SetImageL@CAknNoteControl@@QAEXPAVCEikImage@@@Z @ 2408 NONAME ; void CAknNoteControl::SetImageL(class CEikImage *)
	?SetImageL@CAknNoteDialog@@QAEXPAVCEikImage@@@Z @ 2409 NONAME ; void CAknNoteDialog::SetImageL(class CEikImage *)
	?SetImageL@CAknPopupForm@@QAEXPBVCEikImage@@@Z @ 2410 NONAME ; void CAknPopupForm::SetImageL(class CEikImage const *)
	?SetImageL@CAknQueryControl@@QAEXABVTDesC16@@HH@Z @ 2411 NONAME ; void CAknQueryControl::SetImageL(class TDesC16 const &, int, int)
	?SetImageL@CAknQueryControl@@QAEXPAVCEikImage@@@Z @ 2412 NONAME ; void CAknQueryControl::SetImageL(class CEikImage *)
	?SetIncallBubbleFlags@CAknIndicatorContainer@@QAEXABH@Z @ 2413 NONAME ; void CAknIndicatorContainer::SetIncallBubbleFlags(int const &)
	?SetIncludeHiddenInOrdinal@CAknSettingItemList@@QAEXH@Z @ 2414 NONAME ; void CAknSettingItemList::SetIncludeHiddenInOrdinal(int)
	?SetIndicatorState@CAknIndicatorContainer@@QAEXVTUid@@HH@Z @ 2415 NONAME ; void CAknIndicatorContainer::SetIndicatorState(class TUid, int, int)
	?SetIndicatorValue@CAknIndicatorContainer@@QAEXVTUid@@HH@Z @ 2416 NONAME ; void CAknIndicatorContainer::SetIndicatorValue(class TUid, int, int)
	?SetIndicatorValueL@CAknIndicatorContainer@@QAEXVTUid@@ABVTDesC16@@@Z @ 2417 NONAME ; void CAknIndicatorContainer::SetIndicatorValueL(class TUid, class TDesC16 const &)
	?SetInetAddress@CAknExtQueryControl@@QAEXAAVTInetAddr@@@Z @ 2418 NONAME ; void CAknExtQueryControl::SetInetAddress(class TInetAddr &)
	?SetInfoTextL@CAknInputFrame@@QAEXABVTDesC16@@@Z @ 2419 NONAME ; void CAknInputFrame::SetInfoTextL(class TDesC16 const &)
	?SetInfoTextL@CAknSearchField@@QAEXABVTDesC16@@@Z @ 2420 NONAME ; void CAknSearchField::SetInfoTextL(class TDesC16 const &)
	?SetInitialCurrentLine@CAknForm@@MAEXXZ @ 2421 NONAME ; void CAknForm::SetInitialCurrentLine(void)
	?SetInitialOrdinal@CAknSettingItemArray@@QAEXH@Z @ 2422 NONAME ; void CAknSettingItemArray::SetInitialOrdinal(int)
	?SetInputContext@CAknInputFrame@@QAEXPAVCAknsFrameBackgroundControlContext@@@Z @ 2423 NONAME ; void CAknInputFrame::SetInputContext(class CAknsFrameBackgroundControlContext *)
	?SetInternalValue@CAknEnumeratedTextPopupSettingItem@@IAEXH@Z @ 2424 NONAME ; void CAknEnumeratedTextPopupSettingItem::SetInternalValue(int)
	?SetInterval@CAknMarqueeControl@@QAEXH@Z @ 2425 NONAME ; void CAknMarqueeControl::SetInterval(int)
	?SetInvalidTextL@CAknPopupField@@QAEXABVTDesC16@@@Z @ 2426 NONAME ; void CAknPopupField::SetInvalidTextL(class TDesC16 const &)
	?SetItemArrayAndSelectionL@CAknRadioButtonSettingPage@@QAEXPBVMDesC16Array@@H@Z @ 2427 NONAME ; void CAknRadioButtonSettingPage::SetItemArrayAndSelectionL(class MDesC16Array const *, int)
	?SetItemArrayAndSelectionL@CAknTransparentCameraSettingPage@@QAEXPBVMDesC16Array@@H@Z @ 2428 NONAME ; void CAknTransparentCameraSettingPage::SetItemArrayAndSelectionL(class MDesC16Array const *, int)
	?SetItemCellSize@CFormattedCellListBoxData@@QAEXABVTSize@@@Z @ 2429 NONAME ; void CFormattedCellListBoxData::SetItemCellSize(class TSize const &)
	?SetItemCellSize@CFormattedCellListBoxItemDrawer@@UAEXABVTSize@@@Z @ 2430 NONAME ; void CFormattedCellListBoxItemDrawer::SetItemCellSize(class TSize const &)
	?SetItemHeight@CAknGridView@@UAEXH@Z @ 2431 NONAME ; void CAknGridView::SetItemHeight(int)
	?SetItemHeightL@CAknGrid@@UAEXH@Z @ 2432 NONAME ; void CAknGrid::SetItemHeightL(int)
	?SetItemTextArray@CAknListQueryDialog@@QAEXPAVMDesC16Array@@@Z @ 2433 NONAME ; void CAknListQueryDialog::SetItemTextArray(class MDesC16Array *)
	?SetKeyBlockMode@CAknAppUi@@IAEXW4TAknKeyBlockMode@@@Z @ 2434 NONAME ; void CAknAppUi::SetKeyBlockMode(enum TAknKeyBlockMode)
	?SetKeyBlockMode@CAknSgcClient@@SAXW4TAknKeySoundOpcode@@@Z @ 2435 NONAME ; void CAknSgcClient::SetKeyBlockMode(enum TAknKeySoundOpcode)
	?SetKeyboardRepeatRate@CAknSgcClient@@SAXW4TAknDefaultKeyboardRepeatRate@@@Z @ 2436 NONAME ; void CAknSgcClient::SetKeyboardRepeatRate(enum TAknDefaultKeyboardRepeatRate)
	?SetLabelReserveLengthL@CAknNoteControl@@QAEXHHH@Z @ 2437 NONAME ; void CAknNoteControl::SetLabelReserveLengthL(int, int, int)
	?SetLayout@CAknListQueryControl@@QAEXPAUTAknPopupWindowLayoutDef@@@Z @ 2438 NONAME ; void CAknListQueryControl::SetLayout(struct TAknPopupWindowLayoutDef *)
	?SetLayout@CAknPopupHeadingPane@@QAEXW4THeadingPaneLayout@1@@Z @ 2439 NONAME ; void CAknPopupHeadingPane::SetLayout(enum CAknPopupHeadingPane::THeadingPaneLayout)
	?SetLayoutAwareApp@CAknAppUiBase@@QAEXH@Z @ 2440 NONAME ; void CAknAppUiBase::SetLayoutAwareApp(int)
	?SetLayoutFromResourceL@CAknGrid@@QAEXAAVTResourceReader@@@Z @ 2441 NONAME ; void CAknGrid::SetLayoutFromResourceL(class TResourceReader &)
	?SetLayoutInit@CFormattedCellListBoxData@@QAEXH@Z @ 2442 NONAME ; void CFormattedCellListBoxData::SetLayoutInit(int)
	?SetLayoutL@CAknGrid@@QAEXHHHHHVTSize@@HH@Z @ 2443 NONAME ; void CAknGrid::SetLayoutL(int, int, int, int, int, class TSize, int, int)
	?SetLeadingDecorationTextL@CAknListBoxLayoutDecorator@@QAEXABVTDesC16@@@Z @ 2444 NONAME ; void CAknListBoxLayoutDecorator::SetLeadingDecorationTextL(class TDesC16 const &)
	?SetLinePos@CAknSearchField@@QAEXH@Z @ 2445 NONAME ; void CAknSearchField::SetLinePos(int)
	?SetLineState@CAknInputFrame@@QAEXH@Z @ 2446 NONAME ; void CAknInputFrame::SetLineState(int)
	?SetLink@CAknMessageQueryDialog@@QAEXAAVTCallBack@@@Z @ 2447 NONAME ; void CAknMessageQueryDialog::SetLink(class TCallBack &)
	?SetLinkTextL@CAknMessageQueryDialog@@QAEXABVTDesC16@@@Z @ 2448 NONAME ; void CAknMessageQueryDialog::SetLinkTextL(class TDesC16 const &)
	?SetListBox@CAknListBoxFilterItems@@QAEXPAVCEikListBox@@@Z @ 2449 NONAME ; void CAknListBoxFilterItems::SetListBox(class CEikListBox *)
	?SetListEndSkinStyle@CFormattedCellListBoxData@@QAEXPBVTAknsItemID@@ABVTRect@@@Z @ 2450 NONAME ; void CFormattedCellListBoxData::SetListEndSkinStyle(class TAknsItemID const *, class TRect const &)
	?SetLoops@CAknMarqueeControl@@QAEXH@Z @ 2451 NONAME ; void CAknMarqueeControl::SetLoops(int)
	?SetMarqueeParams@CFormattedCellListBoxData@@QAEXHHHH@Z @ 2452 NONAME ; void CFormattedCellListBoxData::SetMarqueeParams(int, int, int, int)
	?SetMatchingMode@CAknPasswordSettingPage@@QAEXW4TAknPasswordMatchingMode@1@@Z @ 2453 NONAME ; void CAknPasswordSettingPage::SetMatchingMode(enum CAknPasswordSettingPage::TAknPasswordMatchingMode)
	?SetMaxLength@CAknTextQueryDialog@@QAEXH@Z @ 2454 NONAME ; void CAknTextQueryDialog::SetMaxLength(int)
	?SetMaxLengthOfFirstEditor@CAknMultiLineDataQueryDialog@@QAEXH@Z @ 2455 NONAME ; void CAknMultiLineDataQueryDialog::SetMaxLengthOfFirstEditor(int)
	?SetMaxLengthOfFirstEditor@CAknMultiLineIpQueryDialog@@QAEXH@Z @ 2456 NONAME ; void CAknMultiLineIpQueryDialog::SetMaxLengthOfFirstEditor(int)
	?SetMaxLengthOfSecondEditor@CAknMultiLineDataQueryDialog@@QAEXH@Z @ 2457 NONAME ; void CAknMultiLineDataQueryDialog::SetMaxLengthOfSecondEditor(int)
	?SetMaxLengthOfSecondEditor@CAknMultiLineIpQueryDialog@@QAEXH@Z @ 2458 NONAME ; void CAknMultiLineIpQueryDialog::SetMaxLengthOfSecondEditor(int)
	?SetMaxNumberOfLinesPermitted@CAknPopupField@@QAEXH@Z @ 2459 NONAME ; void CAknPopupField::SetMaxNumberOfLinesPermitted(int)
	?SetMaxPasswordLength@CAknPasswordSettingPage@@QAEXH@Z @ 2460 NONAME ; void CAknPasswordSettingPage::SetMaxPasswordLength(int)
	?SetMaximumHeight@CAknPopupList@@QAEXH@Z @ 2461 NONAME ; void CAknPopupList::SetMaximumHeight(int)
	?SetMaximumIntegerValue@CAknIntegerEdwin@@QAEXH@Z @ 2462 NONAME ; void CAknIntegerEdwin::SetMaximumIntegerValue(int)
	?SetMaximumTextL@CAknSlider@@QAEXABVTDesC16@@@Z @ 2463 NONAME ; void CAknSlider::SetMaximumTextL(class TDesC16 const &)
	?SetMessageText@CAknMessageQueryDialog@@QAEXABVTDesC16@@@Z @ 2464 NONAME ; void CAknMessageQueryDialog::SetMessageText(class TDesC16 const &)
	?SetMessageText@CAknMessageQueryDialog@@QAEXPAVTDesC16@@@Z @ 2465 NONAME ; void CAknMessageQueryDialog::SetMessageText(class TDesC16 *)
	?SetMessageTextL@CAknMessageQueryControl@@QAEXPAVTDesC16@@@Z @ 2466 NONAME ; void CAknMessageQueryControl::SetMessageTextL(class TDesC16 *)
	?SetMessageTextL@CAknMessageQueryDialog@@QAEXABVTDesC16@@@Z @ 2467 NONAME ; void CAknMessageQueryDialog::SetMessageTextL(class TDesC16 const &)
	?SetMinimumAndMaximum@CAknDurationQueryDialog@@QAEXABVTTimeIntervalSeconds@@0@Z @ 2468 NONAME ; void CAknDurationQueryDialog::SetMinimumAndMaximum(class TTimeIntervalSeconds const &, class TTimeIntervalSeconds const &)
	?SetMinimumAndMaximum@CAknExtQueryControl@@QAEXABVTInetAddr@@0@Z @ 2469 NONAME ; void CAknExtQueryControl::SetMinimumAndMaximum(class TInetAddr const &, class TInetAddr const &)
	?SetMinimumAndMaximum@CAknExtQueryControl@@QAEXHH@Z @ 2470 NONAME ; void CAknExtQueryControl::SetMinimumAndMaximum(int, int)
	?SetMinimumAndMaximum@CAknFixedPointQueryDialog@@QAEXHH@Z @ 2471 NONAME ; void CAknFixedPointQueryDialog::SetMinimumAndMaximum(int, int)
	?SetMinimumAndMaximum@CAknFloatingPointQueryDialog@@QAEXABN0@Z @ 2472 NONAME ; void CAknFloatingPointQueryDialog::SetMinimumAndMaximum(double const &, double const &)
	?SetMinimumAndMaximum@CAknIpAddressQueryDialog@@QAEXABVTInetAddr@@0@Z @ 2473 NONAME ; void CAknIpAddressQueryDialog::SetMinimumAndMaximum(class TInetAddr const &, class TInetAddr const &)
	?SetMinimumAndMaximum@CAknNumberQueryDialog@@QAEXHH@Z @ 2474 NONAME ; void CAknNumberQueryDialog::SetMinimumAndMaximum(int, int)
	?SetMinimumAndMaximum@CAknQueryControl@@QAEXABN0@Z @ 2475 NONAME ; void CAknQueryControl::SetMinimumAndMaximum(double const &, double const &)
	?SetMinimumAndMaximum@CAknQueryControl@@QAEXABVTTime@@0@Z @ 2476 NONAME ; void CAknQueryControl::SetMinimumAndMaximum(class TTime const &, class TTime const &)
	?SetMinimumAndMaximum@CAknQueryControl@@QAEXABVTTimeIntervalSeconds@@0@Z @ 2477 NONAME ; void CAknQueryControl::SetMinimumAndMaximum(class TTimeIntervalSeconds const &, class TTimeIntervalSeconds const &)
	?SetMinimumAndMaximum@CAknQueryControl@@QAEXHH@Z @ 2478 NONAME ; void CAknQueryControl::SetMinimumAndMaximum(int, int)
	?SetMinimumAndMaximum@CAknTimeQueryDialog@@QAEXABVTTime@@0@Z @ 2479 NONAME ; void CAknTimeQueryDialog::SetMinimumAndMaximum(class TTime const &, class TTime const &)
	?SetMinimumIntegerValue@CAknIntegerEdwin@@QAEXH@Z @ 2480 NONAME ; void CAknIntegerEdwin::SetMinimumIntegerValue(int)
	?SetMinimumTextL@CAknSlider@@QAEXABVTDesC16@@@Z @ 2481 NONAME ; void CAknSlider::SetMinimumTextL(class TDesC16 const &)
	?SetModel@CAknGrid@@QAEXPAVCAknGridM@@@Z @ 2482 NONAME ; void CAknGrid::SetModel(class CAknGridM *)
	?SetModel@CAknListBoxFilterItems@@QAEXPAVMListBoxModel@@@Z @ 2483 NONAME ; void CAknListBoxFilterItems::SetModel(class MListBoxModel *)
	?SetNaviDecoratorObserver@CAknNavigationDecorator@@UAEXPAVMAknNaviDecoratorObserver@@@Z @ 2484 NONAME ; void CAknNavigationDecorator::SetNaviDecoratorObserver(class MAknNaviDecoratorObserver *)
	?SetNaviLabelType@CAknNaviLabel@@QAEXW4TNaviLabelType@1@@Z @ 2485 NONAME ; void CAknNaviLabel::SetNaviLabelType(enum CAknNaviLabel::TNaviLabelType)
	?SetNaviPaneBackgroundType@CAknSignalPane@@QAEXH@Z @ 2486 NONAME ; void CAknSignalPane::SetNaviPaneBackgroundType(int)
	?SetNbrOfPromptLines@CAknExtMultilineQueryControl@@QAEXHH@Z @ 2487 NONAME ; void CAknExtMultilineQueryControl::SetNbrOfPromptLines(int, int)
	?SetNbrOfPromptLines@CAknMultilineQueryControl@@QAEXHH@Z @ 2488 NONAME ; void CAknMultilineQueryControl::SetNbrOfPromptLines(int, int)
	?SetNewPasswordConfirmationResourceId@CAknPasswordSettingPage@@QAEXH@Z @ 2489 NONAME ; void CAknPasswordSettingPage::SetNewPasswordConfirmationResourceId(int)
	?SetNoMemoryAllocation@CAknNoteDialog@@IAEXXZ @ 2490 NONAME ; void CAknNoteDialog::SetNoMemoryAllocation(void)
	?SetNotAlwaysDrawnSubCellL@CFormattedCellListBoxData@@QAEXHH@Z @ 2491 NONAME ; void CFormattedCellListBoxData::SetNotAlwaysDrawnSubCellL(int, int)
	?SetNumberCellL@CFormattedCellListBoxData@@QAEXHH@Z @ 2492 NONAME ; void CFormattedCellListBoxData::SetNumberCellL(int, int)
	?SetNumberL@CAknQueryControl@@QAEXH@Z @ 2493 NONAME ; void CAknQueryControl::SetNumberL(int)
	?SetNumberOfBorders@CAknStaticNoteDialog@@QAEXH@Z @ 2494 NONAME ; void CAknStaticNoteDialog::SetNumberOfBorders(int)
	?SetNumberOfEditorLines@CAknQueryControl@@QAEXH@Z @ 2495 NONAME ; void CAknQueryControl::SetNumberOfEditorLines(int)
	?SetNumbered@CAknSettingPage@@QAEXH@Z @ 2496 NONAME ; void CAknSettingPage::SetNumbered(int)
	?SetObserver@CAknCharMap@@QAEXPAVMCoeControlObserver@@@Z @ 2497 NONAME ; void CAknCharMap::SetObserver(class MCoeControlObserver *)
	?SetObserver@CAknEcsDetector@@QAEXPAVMAknEcsObserver@@@Z @ 2498 NONAME ; void CAknEcsDetector::SetObserver(class MAknEcsObserver *)
	?SetObserver@CAknListBoxFilterItems@@QAEXPAVMCoeControlObserver@@@Z @ 2499 NONAME ; void CAknListBoxFilterItems::SetObserver(class MCoeControlObserver *)
	?SetObserver@CAknTabGroup@@QAEXPAVMAknTabObserver@@@Z @ 2500 NONAME ; void CAknTabGroup::SetObserver(class MAknTabObserver *)
	?SetOldBitmap@CAknAnimationData@@QAEXPAVCFbsBitmap@@@Z @ 2501 NONAME ; void CAknAnimationData::SetOldBitmap(class CFbsBitmap *)
	?SetOldPasswordConfirmationResourceId@CAknPasswordSettingPage@@QAEXH@Z @ 2502 NONAME ; void CAknPasswordSettingPage::SetOldPasswordConfirmationResourceId(int)
	?SetOrientationL@CAknAppUiBase@@QAEXW4TAppUiOrientation@1@@Z @ 2503 NONAME ; void CAknAppUiBase::SetOrientationL(enum CAknAppUiBase::TAppUiOrientation)
	?SetOrigin@CAknAnimatedGc@@MAEXABVTPoint@@@Z @ 2504 NONAME ; void CAknAnimatedGc::SetOrigin(class TPoint const &)
	?SetOtherTextL@CAknPopupField@@QAEXABVTDesC16@@@Z @ 2505 NONAME ; void CAknPopupField::SetOtherTextL(class TDesC16 const &)
	?SetOwnershipType@CAknListQueryDialog@@QAEXW4TListBoxModelItemArrayOwnership@@@Z @ 2506 NONAME ; void CAknListQueryDialog::SetOwnershipType(enum TListBoxModelItemArrayOwnership)
	?SetParentControl@CAknListBoxFilterItems@@QAEXPAVCCoeControl@@@Z @ 2507 NONAME ; void CAknListBoxFilterItems::SetParentControl(class CCoeControl *)
	?SetPenColor@CAknAnimatedGc@@MAEXABVTRgb@@@Z @ 2508 NONAME ; void CAknAnimatedGc::SetPenColor(class TRgb const &)
	?SetPenSize@CAknAnimatedGc@@MAEXABVTSize@@@Z @ 2509 NONAME ; void CAknAnimatedGc::SetPenSize(class TSize const &)
	?SetPenStyle@CAknAnimatedGc@@MAEXW4TPenStyle@CGraphicsContext@@@Z @ 2510 NONAME ; void CAknAnimatedGc::SetPenStyle(enum CGraphicsContext::TPenStyle)
	?SetPicture@CAknContextPane@@QAEXPAVCEikImage@@@Z @ 2511 NONAME ; void CAknContextPane::SetPicture(class CEikImage *)
	?SetPicture@CAknContextPane@@QAEXPBVCFbsBitmap@@0@Z @ 2512 NONAME ; void CAknContextPane::SetPicture(class CFbsBitmap const *, class CFbsBitmap const *)
	?SetPicture@CAknTitlePane@@QAEXPBVCFbsBitmap@@0@Z @ 2513 NONAME ; void CAknTitlePane::SetPicture(class CFbsBitmap const *, class CFbsBitmap const *)
	?SetPictureFromFileL@CAknContextPane@@QAEXABVTDesC16@@HH@Z @ 2514 NONAME ; void CAknContextPane::SetPictureFromFileL(class TDesC16 const &, int, int)
	?SetPictureFromFileL@CAknTitlePane@@QAEXABVTDesC16@@HH@Z @ 2515 NONAME ; void CAknTitlePane::SetPictureFromFileL(class TDesC16 const &, int, int)
	?SetPictureToDefaultL@CAknContextPane@@QAEXXZ @ 2516 NONAME ; void CAknContextPane::SetPictureToDefaultL(void)
	?SetPopup@CAknListBoxFilterItems@@QAEXXZ @ 2517 NONAME ; void CAknListBoxFilterItems::SetPopup(void)
	?SetPopupFieldObserver@CAknPopupField@@QAEXPAVMAknPopupFieldObserver@@@Z @ 2518 NONAME ; void CAknPopupField::SetPopupFieldObserver(class MAknPopupFieldObserver *)
	?SetPopupFormType@CAknPopupForm@@QAEXW4TPopupFormType@@@Z @ 2519 NONAME ; void CAknPopupForm::SetPopupFormType(enum TPopupFormType)
	?SetPopupSettingListObserver@CAknPopupSettingList@@QAEXPAVMAknPopupSettingListObserver@@@Z @ 2520 NONAME ; void CAknPopupSettingList::SetPopupSettingListObserver(class MAknPopupSettingListObserver *)
	?SetPredictiveTextInputPermitted@CAknQueryDialog@@QAEXH@Z @ 2521 NONAME ; void CAknQueryDialog::SetPredictiveTextInputPermitted(int)
	?SetPrimaryScrollingType@CAknGrid@@QAEXW4TScrollingType@CAknGridView@@@Z @ 2522 NONAME ; void CAknGrid::SetPrimaryScrollingType(enum CAknGridView::TScrollingType)
	?SetPrimaryScrollingType@CAknGridView@@QAEXW4TScrollingType@1@@Z @ 2523 NONAME ; void CAknGridView::SetPrimaryScrollingType(enum CAknGridView::TScrollingType)
	?SetProgressBarAndDraw@CAknPopupForm@@QAEXH@Z @ 2524 NONAME ; void CAknPopupForm::SetProgressBarAndDraw(int)
	?SetPromptL@CAknMultiLineDataQueryDialog@@QAEXABVTDesC16@@0@Z @ 2525 NONAME ; void CAknMultiLineDataQueryDialog::SetPromptL(class TDesC16 const &, class TDesC16 const &)
	?SetPromptL@CAknMultiLineIpQueryDialog@@QAEXABVTDesC16@@0@Z @ 2526 NONAME ; void CAknMultiLineIpQueryDialog::SetPromptL(class TDesC16 const &, class TDesC16 const &)
	?SetPromptL@CAknQueryControl@@UAEXABVTDesC16@@@Z @ 2527 NONAME ; void CAknQueryControl::SetPromptL(class TDesC16 const &)
	?SetPromptL@CAknQueryDialog@@QAEXABVTDesC16@@@Z @ 2528 NONAME ; void CAknQueryDialog::SetPromptL(class TDesC16 const &)
	?SetPropertiesL@CFormattedCellListBoxItemDrawer@@QAEXHVTListItemProperties@@@Z @ 2529 NONAME ; void CFormattedCellListBoxItemDrawer::SetPropertiesL(int, class TListItemProperties)
	?SetQueryCaption@CAknQueryValueDate@@QAEXH@Z @ 2530 NONAME ; void CAknQueryValueDate::SetQueryCaption(int)
	?SetQueryCaption@CAknQueryValueDuration@@QAEXH@Z @ 2531 NONAME ; void CAknQueryValueDuration::SetQueryCaption(int)
	?SetQueryCaption@CAknQueryValueNumber@@QAEXH@Z @ 2532 NONAME ; void CAknQueryValueNumber::SetQueryCaption(int)
	?SetQueryCaption@CAknQueryValuePhone@@QAEXH@Z @ 2533 NONAME ; void CAknQueryValuePhone::SetQueryCaption(int)
	?SetQueryCaption@CAknQueryValueText@@QAEXH@Z @ 2534 NONAME ; void CAknQueryValueText::SetQueryCaption(int)
	?SetQueryCaption@CAknQueryValueTime@@QAEXH@Z @ 2535 NONAME ; void CAknQueryValueTime::SetQueryCaption(int)
	?SetQueryControlObserver@CAknQueryControl@@QAEXPAVMAknQueryControlObserver@@@Z @ 2536 NONAME ; void CAknQueryControl::SetQueryControlObserver(class MAknQueryControlObserver *)
	?SetQueryMode@CAknQueryValue@@UAEXW4TMode@MAknQueryValue@@@Z @ 2537 NONAME ; void CAknQueryValue::SetQueryMode(enum MAknQueryValue::TMode)
	?SetQueryValue@CAknPopupFieldList@@QAEXPAVMAknQueryValue@@@Z @ 2538 NONAME ; void CAknPopupFieldList::SetQueryValue(class MAknQueryValue *)
	?SetQueryValueL@CAknPopupField@@QAEXPAVMAknQueryValue@@@Z @ 2539 NONAME ; void CAknPopupField::SetQueryValueL(class MAknQueryValue *)
	?SetQueryValueL@CAknPopupSettingList@@QAEXPAVMAknQueryValue@@@Z @ 2540 NONAME ; void CAknPopupSettingList::SetQueryValueL(class MAknQueryValue *)
	?SetRange@CAknSlider@@QAEXHH@Z @ 2541 NONAME ; void CAknSlider::SetRange(int, int)
	?SetRect@CAknGrid@@QAEXABVTRect@@@Z @ 2542 NONAME ; void CAknGrid::SetRect(class TRect const &)
	?SetRedrawCallBack@CAknMarqueeControl@@QAEXAAVTCallBack@@@Z @ 2543 NONAME ; void CAknMarqueeControl::SetRedrawCallBack(class TCallBack &)
	?SetRespectFocus@CFormattedCellListBoxData@@QAEXH@Z @ 2544 NONAME ; void CFormattedCellListBoxData::SetRespectFocus(int)
	?SetScreenSize@CAknAnimationData@@QAEXVTSize@@@Z @ 2545 NONAME ; void CAknAnimationData::SetScreenSize(class TSize)
	?SetScrollButtonDimmed@CAknNavigationDecorator@@QAEXW4TScrollButton@1@H@Z @ 2546 NONAME ; void CAknNavigationDecorator::SetScrollButtonDimmed(enum CAknNavigationDecorator::TScrollButton, int)
	?SetSearchField@CAknListBoxFilterItems@@QAEXPAVCAknSearchField@@@Z @ 2547 NONAME ; void CAknListBoxFilterItems::SetSearchField(class CAknSearchField *)
	?SetSearchTextL@CAknSearchField@@QAEXABVTDesC16@@@Z @ 2548 NONAME ; void CAknSearchField::SetSearchTextL(class TDesC16 const &)
	?SetSecondaryScrollingType@CAknGrid@@QAEXW4TScrollingType@CAknGridView@@@Z @ 2549 NONAME ; void CAknGrid::SetSecondaryScrollingType(enum CAknGridView::TScrollingType)
	?SetSecondaryScrollingType@CAknGridView@@QAEXW4TScrollingType@1@@Z @ 2550 NONAME ; void CAknGridView::SetSecondaryScrollingType(enum CAknGridView::TScrollingType)
	?SetSelectedIndex@CAknEnumeratedTextPopupSettingItem@@IAEXH@Z @ 2551 NONAME ; void CAknEnumeratedTextPopupSettingItem::SetSelectedIndex(int)
	?SetSelectionItemArrayL@CAknCheckBoxSettingPage@@QAEXPAVCSelectionItemList@@@Z @ 2552 NONAME ; void CAknCheckBoxSettingPage::SetSelectionItemArrayL(class CSelectionItemList *)
	?SetSelectionL@CAknPhoneNumberEditor@@QAEXHH@Z @ 2553 NONAME ; void CAknPhoneNumberEditor::SetSelectionL(int, int)
	?SetSelectionStatus@CSelectableItem@@QAEXH@Z @ 2554 NONAME ; void CSelectableItem::SetSelectionStatus(int)
	?SetSeparatorLinePosition@CFormattedCellListBoxData@@QAEXW4TAknSeparatorLinePosition@@@Z @ 2555 NONAME ; void CFormattedCellListBoxData::SetSeparatorLinePosition(enum TAknSeparatorLinePosition)
	?SetSettingId@CAknSettingPage@@QAEXH@Z @ 2556 NONAME ; void CAknSettingPage::SetSettingId(int)
	?SetSettingNumberL@CAknSettingPage@@QAEXH@Z @ 2557 NONAME ; void CAknSettingPage::SetSettingNumberL(int)
	?SetSettingPage@CAknSettingItem@@IAEXPAVCAknSettingPage@@@Z @ 2558 NONAME ; void CAknSettingItem::SetSettingPage(class CAknSettingPage *)
	?SetSettingPageFlags@CAknSettingItem@@QAEXH@Z @ 2559 NONAME ; void CAknSettingItem::SetSettingPageFlags(int)
	?SetSettingPageObserver@CAknSettingPage@@QAEXPAVMAknSettingPageObserver@@@Z @ 2560 NONAME ; void CAknSettingPage::SetSettingPageObserver(class MAknSettingPageObserver *)
	?SetSettingPageResourceIds@CAknQueryValue@@UAEXHH@Z @ 2561 NONAME ; void CAknQueryValue::SetSettingPageResourceIds(int, int)
	?SetSettingPageTextL@CAknEnumeratedTextSettingItem@@IAEXXZ @ 2562 NONAME ; void CAknEnumeratedTextSettingItem::SetSettingPageTextL(void)
	?SetSettingTextL@CAknSettingPage@@QAEXABVTDesC16@@@Z @ 2563 NONAME ; void CAknSettingPage::SetSettingTextL(class TDesC16 const &)
	?SetSgcParams@RAknEikAppUiSession@@QAEHHV?$TBitFlagsT@K@@HH@Z @ 2564 NONAME ; int RAknEikAppUiSession::SetSgcParams(int, class TBitFlagsT<unsigned long>, int, int)
	?SetShortcutEnabledL@CAknAppStyleGrid@@QAEXH@Z @ 2565 NONAME ; void CAknAppStyleGrid::SetShortcutEnabledL(int)
	?SetShortcutValueFromPrevList@AknListBoxShortCutsImplementation@@UAEXH@Z @ 2566 NONAME ; void AknListBoxShortCutsImplementation::SetShortcutValueFromPrevList(int)
	?SetShowIndicators@CAknPopupSettingList@@QAEXH@Z @ 2567 NONAME ; void CAknPopupSettingList::SetShowIndicators(int)
	?SetShowIndicatorsL@CAknPopupField@@QAEXH@Z @ 2568 NONAME ; void CAknPopupField::SetShowIndicatorsL(int)
	?SetSignalLevel@CAknSignalPane@@QAEXH@Z @ 2569 NONAME ; void CAknSignalPane::SetSignalLevel(int)
	?SetSizeAndPosition@CAknCharMapDialog@@MAEXABVTSize@@@Z @ 2570 NONAME ; void CAknCharMapDialog::SetSizeAndPosition(class TSize const &)
	?SetSizeAndPosition@CAknFixedPointQueryDialog@@MAEXABVTSize@@@Z @ 2571 NONAME ; void CAknFixedPointQueryDialog::SetSizeAndPosition(class TSize const &)
	?SetSizeAndPosition@CAknIpAddressQueryDialog@@MAEXABVTSize@@@Z @ 2572 NONAME ; void CAknIpAddressQueryDialog::SetSizeAndPosition(class TSize const &)
	?SetSizeAndPosition@CAknListQueryDialog@@UAEXABVTSize@@@Z @ 2573 NONAME ; void CAknListQueryDialog::SetSizeAndPosition(class TSize const &)
	?SetSizeAndPosition@CAknMessageQueryDialog@@MAEXABVTSize@@@Z @ 2574 NONAME ; void CAknMessageQueryDialog::SetSizeAndPosition(class TSize const &)
	?SetSizeAndPosition@CAknNoteDialog@@MAEXABVTSize@@@Z @ 2575 NONAME ; void CAknNoteDialog::SetSizeAndPosition(class TSize const &)
	?SetSizeAndPosition@CAknPopupForm@@UAEXABVTSize@@@Z @ 2576 NONAME ; void CAknPopupForm::SetSizeAndPosition(class TSize const &)
	?SetSizeAndPosition@CAknQueryDialog@@MAEXABVTSize@@@Z @ 2577 NONAME ; void CAknQueryDialog::SetSizeAndPosition(class TSize const &)
	?SetSizeAndPosition@CAknSelectionListDialog@@MAEXABVTSize@@@Z @ 2578 NONAME ; void CAknSelectionListDialog::SetSizeAndPosition(class TSize const &)
	?SetSkinEnabledL@CAknSearchField@@QAEXH@Z @ 2579 NONAME ; void CAknSearchField::SetSkinEnabledL(int)
	?SetSkinEnabledL@CFormattedCellListBoxData@@QAEXH@Z @ 2580 NONAME ; void CFormattedCellListBoxData::SetSkinEnabledL(int)
	?SetSkinHighlightFrame@CFormattedCellListBoxData@@QAEXPBVTAknsItemID@@0@Z @ 2581 NONAME ; void CFormattedCellListBoxData::SetSkinHighlightFrame(class TAknsItemID const *, class TAknsItemID const *)
	?SetSkinParentPos@CFormattedCellListBoxData@@QAEXABVTPoint@@@Z @ 2582 NONAME ; void CFormattedCellListBoxData::SetSkinParentPos(class TPoint const &)
	?SetSkinPopupFrame@CFormattedCellListBoxData@@QAEXPBVTAknsItemID@@0@Z @ 2583 NONAME ; void CFormattedCellListBoxData::SetSkinPopupFrame(class TAknsItemID const *, class TAknsItemID const *)
	?SetSkinPopupFramePosition@CFormattedCellListBoxData@@QAEXABVTRect@@0@Z @ 2584 NONAME ; void CFormattedCellListBoxData::SetSkinPopupFramePosition(class TRect const &, class TRect const &)
	?SetSkinStyle@CFormattedCellListBoxData@@QAEXPBVTAknsItemID@@ABVTRect@@@Z @ 2585 NONAME ; void CFormattedCellListBoxData::SetSkinStyle(class TAknsItemID const *, class TRect const &)
	?SetSpacesBetweenItems@CAknGridView@@QAEXVTSize@@@Z @ 2586 NONAME ; void CAknGridView::SetSpacesBetweenItems(class TSize)
	?SetSpeedInPixels@CAknMarqueeControl@@QAEXH@Z @ 2587 NONAME ; void CAknMarqueeControl::SetSpeedInPixels(int)
	?SetStartCells@CAknGridM@@QAEXH@Z @ 2588 NONAME ; void CAknGridM::SetStartCells(int)
	?SetStartPositionL@CAknGrid@@QAEXVTPoint@@@Z @ 2589 NONAME ; void CAknGrid::SetStartPositionL(class TPoint)
	?SetState@CAknEcsDetector@@IAEXW4TState@1@@Z @ 2590 NONAME ; void CAknEcsDetector::SetState(enum CAknEcsDetector::TState)
	?SetStatusPaneRedrawCoordinator@CAknSgcClient@@SAXPAVMAknSgcStatusPaneRedrawCoordinator@@@Z @ 2591 NONAME ; void CAknSgcClient::SetStatusPaneRedrawCoordinator(class MAknSgcStatusPaneRedrawCoordinator *)
	?SetStepSize@CAknSlider@@QAEXH@Z @ 2592 NONAME ; void CAknSlider::SetStepSize(int)
	?SetStrikethroughStyle@CAknAnimatedGc@@MAEXW4TFontStrikethrough@@@Z @ 2593 NONAME ; void CAknAnimatedGc::SetStrikethroughStyle(enum TFontStrikethrough)
	?SetSubCellAlignmentL@CFormattedCellListBoxData@@QAEXHW4TTextAlign@CGraphicsContext@@@Z @ 2594 NONAME ; void CFormattedCellListBoxData::SetSubCellAlignmentL(int, enum CGraphicsContext::TTextAlign)
	?SetSubCellBaselinePosL@CFormattedCellListBoxData@@QAEXHH@Z @ 2595 NONAME ; void CFormattedCellListBoxData::SetSubCellBaselinePosL(int, int)
	?SetSubCellColorsL@CFormattedCellListBoxData@@QAEXHABVTColors@1@@Z @ 2596 NONAME ; void CFormattedCellListBoxData::SetSubCellColorsL(int, class CFormattedCellListBoxData::TColors const &)
	?SetSubCellFontForRowL@CFormattedCellListBoxData@@QAEXHHPBVCFont@@@Z @ 2597 NONAME ; void CFormattedCellListBoxData::SetSubCellFontForRowL(int, int, class CFont const *)
	?SetSubCellFontL@CFormattedCellListBoxData@@QAEXHPBVCFont@@@Z @ 2598 NONAME ; void CFormattedCellListBoxData::SetSubCellFontL(int, class CFont const *)
	?SetSubCellIconSize@CFormattedCellListBoxData@@QAEXHVTSize@@@Z @ 2599 NONAME ; void CFormattedCellListBoxData::SetSubCellIconSize(int, class TSize)
	?SetSubCellMarginsL@CFormattedCellListBoxData@@QAEXHVTMargins@@@Z @ 2600 NONAME ; void CFormattedCellListBoxData::SetSubCellMarginsL(int, class TMargins)
	?SetSubCellPositionL@CFormattedCellListBoxData@@QAEXHVTPoint@@@Z @ 2601 NONAME ; void CFormattedCellListBoxData::SetSubCellPositionL(int, class TPoint)
	?SetSubCellRightSeparatorStyleL@CFormattedCellListBoxData@@QAEXHW4TPenStyle@CGraphicsContext@@@Z @ 2602 NONAME ; void CFormattedCellListBoxData::SetSubCellRightSeparatorStyleL(int, enum CGraphicsContext::TPenStyle)
	?SetSubCellSizeL@CFormattedCellListBoxData@@QAEXHVTSize@@@Z @ 2603 NONAME ; void CFormattedCellListBoxData::SetSubCellSizeL(int, class TSize)
	?SetSubCellTextClipGapL@CFormattedCellListBoxData@@QAEXHH@Z @ 2604 NONAME ; void CFormattedCellListBoxData::SetSubCellTextClipGapL(int, int)
	?SetSystemFaded@CAknSgcClient@@SAXH@Z @ 2605 NONAME ; void CAknSgcClient::SetSystemFaded(int)
	?SetSystemFaded@RAknEikAppUiSession@@QAEHH@Z @ 2606 NONAME ; int RAknEikAppUiSession::SetSystemFaded(int)
	?SetTabFixedWidthL@CAknTabGroup@@QAEXH@Z @ 2607 NONAME ; void CAknTabGroup::SetTabFixedWidthL(int)
	?SetText@CAknPhoneNumberEditor@@QAEXABVTDesC16@@@Z @ 2608 NONAME ; void CAknPhoneNumberEditor::SetText(class TDesC16 const &)
	?SetText@CAknTitlePane@@QAEXPAVHBufC16@@@Z @ 2609 NONAME ; void CAknTitlePane::SetText(class HBufC16 *)
	?SetTextEntryLength@CAknQueryControl@@QAEXH@Z @ 2610 NONAME ; void CAknQueryControl::SetTextEntryLength(int)
	?SetTextL@CAknInfoPopupNoteController@@QAEXABVTDesC16@@@Z @ 2611 NONAME ; void CAknInfoPopupNoteController::SetTextL(class TDesC16 const &)
	?SetTextL@CAknNaviLabel@@QAEXABVTDesC16@@@Z @ 2612 NONAME ; void CAknNaviLabel::SetTextL(class TDesC16 const &)
	?SetTextL@CAknNoteControl@@QAEXABVTDesC16@@@Z @ 2613 NONAME ; void CAknNoteControl::SetTextL(class TDesC16 const &)
	?SetTextL@CAknNoteControl@@QAEXABVTDesC16@@H@Z @ 2614 NONAME ; void CAknNoteControl::SetTextL(class TDesC16 const &, int)
	?SetTextL@CAknNoteDialog@@QAEXABVTDesC16@@@Z @ 2615 NONAME ; void CAknNoteDialog::SetTextL(class TDesC16 const &)
	?SetTextL@CAknPhoneNumberEditor@@QAEXPBVTDesC16@@@Z @ 2616 NONAME ; void CAknPhoneNumberEditor::SetTextL(class TDesC16 const *)
	?SetTextL@CAknPopupForm@@QAEXPBVTDesC16@@@Z @ 2617 NONAME ; void CAknPopupForm::SetTextL(class TDesC16 const *)
	?SetTextL@CAknPopupHeadingPane@@QAEXVTPtrC16@@@Z @ 2618 NONAME ; void CAknPopupHeadingPane::SetTextL(class TPtrC16)
	?SetTextL@CAknQueryControl@@QAEXABVTDesC16@@@Z @ 2619 NONAME ; void CAknQueryControl::SetTextL(class TDesC16 const &)
	?SetTextL@CAknTitlePane@@QAEXABVTDesC16@@@Z @ 2620 NONAME ; void CAknTitlePane::SetTextL(class TDesC16 const &)
	?SetTextNumberL@CAknNoteControl@@QAEXH@Z @ 2621 NONAME ; void CAknNoteControl::SetTextNumberL(int)
	?SetTextNumberL@CAknNoteDialog@@QAEXH@Z @ 2622 NONAME ; void CAknNoteDialog::SetTextNumberL(int)
	?SetTextPluralityL@CAknNoteControl@@QAEXH@Z @ 2623 NONAME ; void CAknNoteControl::SetTextPluralityL(int)
	?SetTextPluralityL@CAknNoteDialog@@QAEXH@Z @ 2624 NONAME ; void CAknNoteDialog::SetTextPluralityL(int)
	?SetTextProcessing@CAknNoteDialog@@QAEXH@Z @ 2625 NONAME ; void CAknNoteDialog::SetTextProcessing(int)
	?SetTextToDefaultL@CAknTitlePane@@QAEXXZ @ 2626 NONAME ; void CAknTitlePane::SetTextToDefaultL(void)
	?SetTextWrapping@CAknNoteDialog@@QAEXH@Z @ 2627 NONAME ; void CAknNoteDialog::SetTextWrapping(int)
	?SetTime@CAknQueryControl@@QAEXAAVTTime@@@Z @ 2628 NONAME ; void CAknQueryControl::SetTime(class TTime &)
	?SetTimeDelayBeforeShow@CAknInfoPopupNoteController@@QAEXH@Z @ 2629 NONAME ; void CAknInfoPopupNoteController::SetTimeDelayBeforeShow(int)
	?SetTimeFormatStringL@CAknTimeOffsetSettingItem@@QAEXABVTDesC16@@@Z @ 2630 NONAME ; void CAknTimeOffsetSettingItem::SetTimeFormatStringL(class TDesC16 const &)
	?SetTimeFormatStringL@CAknTimeOrDateSettingItem@@QAEXABVTDesC16@@@Z @ 2631 NONAME ; void CAknTimeOrDateSettingItem::SetTimeFormatStringL(class TDesC16 const &)
	?SetTimePopupInView@CAknInfoPopupNoteController@@QAEXH@Z @ 2632 NONAME ; void CAknInfoPopupNoteController::SetTimePopupInView(int)
	?SetTimeout@CAknNoteDialog@@QAEXABW4TTimeout@1@@Z @ 2633 NONAME ; void CAknNoteDialog::SetTimeout(enum CAknNoteDialog::TTimeout const &)
	?SetTimeout@CAknPopupForm@@QAEXH@Z @ 2634 NONAME ; void CAknPopupForm::SetTimeout(int)
	?SetTitleL@CAknPopupForm@@QAEXABVTDesC16@@@Z @ 2635 NONAME ; void CAknPopupForm::SetTitleL(class TDesC16 const &)
	?SetTitleL@CAknPopupList@@QAEXABVTDesC16@@@Z @ 2636 NONAME ; void CAknPopupList::SetTitleL(class TDesC16 const &)
	?SetTitlePaneObserver@CAknTitlePane@@QAEXPAVMAknTitlePaneObserver@@@Z @ 2637 NONAME ; void CAknTitlePane::SetTitlePaneObserver(class MAknTitlePaneObserver *)
	?SetTitleTextL@CAknVolumePopup@@QAEXABVTDesC16@@@Z @ 2638 NONAME ; void CAknVolumePopup::SetTitleTextL(class TDesC16 const &)
	?SetTone@CAknListQueryDialog@@QAEXH@Z @ 2639 NONAME ; void CAknListQueryDialog::SetTone(int)
	?SetTone@CAknNoteDialog@@QAEXABW4TTone@1@@Z @ 2640 NONAME ; void CAknNoteDialog::SetTone(enum CAknNoteDialog::TTone const &)
	?SetTone@CAknPopupForm@@QAEXW4TTone@@@Z @ 2641 NONAME ; void CAknPopupForm::SetTone(enum TTone)
	?SetTopItemIndex@CAknGrid@@UBEXH@Z @ 2642 NONAME ; void CAknGrid::SetTopItemIndex(int) const
	?SetTopItemIndex@CAknGridView@@UAEXH@Z @ 2643 NONAME ; void CAknGridView::SetTopItemIndex(int)
	?SetTopItemIndex@CFormattedCellListBoxItemDrawer@@QAEXH@Z @ 2644 NONAME ; void CFormattedCellListBoxItemDrawer::SetTopItemIndex(int)
	?SetTopItemIndex@CSingleHeadingStyleItemDrawer@@QAEXH@Z @ 2645 NONAME ; void CSingleHeadingStyleItemDrawer::SetTopItemIndex(int)
	?SetTrailingDecorationTextL@CAknListBoxLayoutDecorator@@QAEXABVTDesC16@@@Z @ 2646 NONAME ; void CAknListBoxLayoutDecorator::SetTrailingDecorationTextL(class TDesC16 const &)
	?SetTransparentSubCellL@CFormattedCellListBoxData@@QAEXHH@Z @ 2647 NONAME ; void CFormattedCellListBoxData::SetTransparentSubCellL(int, int)
	?SetUnderlineStyle@CAknAnimatedGc@@MAEXW4TFontUnderline@@@Z @ 2648 NONAME ; void CAknAnimatedGc::SetUnderlineStyle(enum TFontUnderline)
	?SetUnsetValue@CAknIntegerEdwin@@QAEXH@Z @ 2649 NONAME ; void CAknIntegerEdwin::SetUnsetValue(int)
	?SetUpStandardSettingPageL@CAknSettingItem@@IAEXXZ @ 2650 NONAME ; void CAknSettingItem::SetUpStandardSettingPageL(void)
	?SetValue@CAknEnumeratedItemBase@@QAEXPAX@Z @ 2651 NONAME ; void CAknEnumeratedItemBase::SetValue(void *)
	?SetValue@CAknVolumeControl@@QAEXH@Z @ 2652 NONAME ; void CAknVolumeControl::SetValue(int)
	?SetValue@CAknVolumePopup@@QAEXH@Z @ 2653 NONAME ; void CAknVolumePopup::SetValue(int)
	?SetValueL@CAknIntegerEdwin@@QAEXH@Z @ 2654 NONAME ; void CAknIntegerEdwin::SetValueL(int)
	?SetValueL@CAknSlider@@QAEXH@Z @ 2655 NONAME ; void CAknSlider::SetValueL(int)
	?SetValueTextL@CAknSlider@@IAEXXZ @ 2656 NONAME ; void CAknSlider::SetValueTextL(void)
	?SetView@CAknListBoxFilterItems@@QAEXPAVCListBoxView@@@Z @ 2657 NONAME ; void CAknListBoxFilterItems::SetView(class CListBoxView *)
	?SetViewBitmap@CAknAnimationData@@QAEXPAVCFbsBitmap@@@Z @ 2658 NONAME ; void CAknAnimationData::SetViewBitmap(class CFbsBitmap *)
	?SetVisibleCount@CAknSettingItemArray@@IAEXH@Z @ 2659 NONAME ; void CAknSettingItemArray::SetVisibleCount(int)
	?SetWaitForeverAtEnd@CAknAnimationData@@QAEXXZ @ 2660 NONAME ; void CAknAnimationData::SetWaitForeverAtEnd(void)
	?SetWordJustification@CAknAnimatedGc@@MAEXHH@Z @ 2661 NONAME ; void CAknAnimatedGc::SetWordJustification(int, int)
	?SettingCache@CAknEnv@@QBEAAVCAknSettingCache@@XZ @ 2662 NONAME ; class CAknSettingCache & CAknEnv::SettingCache(void) const
	?SettingEditorResourceId@CAknSettingItem@@IBEHXZ @ 2663 NONAME ; int CAknSettingItem::SettingEditorResourceId(void) const
	?SettingId@CAknSettingPage@@QBEHXZ @ 2664 NONAME ; int CAknSettingPage::SettingId(void) const
	?SettingItemArray@CAknSettingItemList@@QBEPAVCAknSettingItemArray@@XZ @ 2665 NONAME ; class CAknSettingItemArray * CAknSettingItemList::SettingItemArray(void) const
	?SettingName@CAknSettingItem@@QAE?AVTPtrC16@@XZ @ 2666 NONAME ; class TPtrC16 CAknSettingItem::SettingName(void)
	?SettingNumber@CAknSettingItem@@QBEHXZ @ 2667 NONAME ; int CAknSettingItem::SettingNumber(void) const
	?SettingNumber@CAknSettingPage@@QBEHXZ @ 2668 NONAME ; int CAknSettingPage::SettingNumber(void) const
	?SettingPage@CAknSettingItem@@IBEPAVCAknSettingPage@@XZ @ 2669 NONAME ; class CAknSettingPage * CAknSettingItem::SettingPage(void) const
	?SettingPageFlags@CAknSettingItem@@QBEHXZ @ 2670 NONAME ; int CAknSettingItem::SettingPageFlags(void) const
	?SettingPageResourceId@CAknSettingItem@@IBEHXZ @ 2671 NONAME ; int CAknSettingItem::SettingPageResourceId(void) const
	?SettingPageResourceId@CAknSettingPage@@IAEHXZ @ 2672 NONAME ; int CAknSettingPage::SettingPageResourceId(void)
	?SettingPageTextArray@CAknEnumeratedTextSettingItem@@IBEPAVCDesC16Array@@XZ @ 2673 NONAME ; class CDesC16Array * CAknEnumeratedTextSettingItem::SettingPageTextArray(void) const
	?SettingTextL@CAknBigSettingItemBase@@MAEABVTDesC16@@XZ @ 2674 NONAME ; class TDesC16 const & CAknBigSettingItemBase::SettingTextL(void)
	?SettingTextL@CAknEnumeratedTextPopupSettingItem@@UAEABVTDesC16@@XZ @ 2675 NONAME ; class TDesC16 const & CAknEnumeratedTextPopupSettingItem::SettingTextL(void)
	?SettingTextL@CAknIntegerSettingItem@@UAEABVTDesC16@@XZ @ 2676 NONAME ; class TDesC16 const & CAknIntegerSettingItem::SettingTextL(void)
	?SettingTextL@CAknIpFieldSettingItem@@UAEABVTDesC16@@XZ @ 2677 NONAME ; class TDesC16 const & CAknIpFieldSettingItem::SettingTextL(void)
	?SettingTextL@CAknPasswordSettingItem@@UAEABVTDesC16@@XZ @ 2678 NONAME ; class TDesC16 const & CAknPasswordSettingItem::SettingTextL(void)
	?SettingTextL@CAknSettingItem@@UAEABVTDesC16@@XZ @ 2679 NONAME ; class TDesC16 const & CAknSettingItem::SettingTextL(void)
	?SettingTextL@CAknSliderSettingItem@@UAEABVTDesC16@@XZ @ 2680 NONAME ; class TDesC16 const & CAknSliderSettingItem::SettingTextL(void)
	?SettingTextL@CAknTextSettingItem@@UAEABVTDesC16@@XZ @ 2681 NONAME ; class TDesC16 const & CAknTextSettingItem::SettingTextL(void)
	?SettingTextL@CAknTimeOffsetSettingItem@@UAEABVTDesC16@@XZ @ 2682 NONAME ; class TDesC16 const & CAknTimeOffsetSettingItem::SettingTextL(void)
	?SettingTextL@CAknTimeOrDateSettingItem@@UAEABVTDesC16@@XZ @ 2683 NONAME ; class TDesC16 const & CAknTimeOrDateSettingItem::SettingTextL(void)
	?SettingTextL@CAknVolumeSettingItem@@UAEABVTDesC16@@XZ @ 2684 NONAME ; class TDesC16 const & CAknVolumeSettingItem::SettingTextL(void)
	?SettingsData@CSettingsListBoxItemDrawer@@QBEPAVCSettingsListBoxData@@XZ @ 2685 NONAME ; class CSettingsListBoxData * CSettingsListBoxItemDrawer::SettingsData(void) const
	?SetupColumnGfxCell@AknListBoxLayouts@@SAXAAVCEikListBox@@PAVCColumnListBoxItemDrawer@@HABVTAknWindowLineLayout@@HH@Z @ 2686 NONAME ; void AknListBoxLayouts::SetupColumnGfxCell(class CEikListBox &, class CColumnListBoxItemDrawer *, int, class TAknWindowLineLayout const &, int, int)
	?SetupColumnGfxCell@AknListBoxLayouts@@SAXAAVCEikListBox@@PAVCColumnListBoxItemDrawer@@HHHHHHHHH@Z @ 2687 NONAME ; void AknListBoxLayouts::SetupColumnGfxCell(class CEikListBox &, class CColumnListBoxItemDrawer *, int, int, int, int, int, int, int, int, int)
	?SetupColumnTextCell@AknListBoxLayouts@@SAXAAVCEikListBox@@PAVCColumnListBoxItemDrawer@@HABVTAknTextLineLayout@@HH@Z @ 2688 NONAME ; void AknListBoxLayouts::SetupColumnTextCell(class CEikListBox &, class CColumnListBoxItemDrawer *, int, class TAknTextLineLayout const &, int, int)
	?SetupColumnTextCell@AknListBoxLayouts@@SAXAAVCEikListBox@@PAVCColumnListBoxItemDrawer@@HPBVCFont@@HHHHHW4TTextAlign@CGraphicsContext@@HH@Z @ 2689 NONAME ; void AknListBoxLayouts::SetupColumnTextCell(class CEikListBox &, class CColumnListBoxItemDrawer *, int, class CFont const *, int, int, int, int, int, enum CGraphicsContext::TTextAlign, int, int)
	?SetupDefaults@AknPopupLayouts@@SAXAAUTAknPopupWindowLayoutDef@@@Z @ 2690 NONAME ; void AknPopupLayouts::SetupDefaults(struct TAknPopupWindowLayoutDef &)
	?SetupFind@CAknSelectionListDialog@@QAEXW4TFindType@1@@Z @ 2691 NONAME ; void CAknSelectionListDialog::SetupFind(enum CAknSelectionListDialog::TFindType)
	?SetupFormAntiFlickerTextCell@AknListBoxLayouts@@SAXAAVCEikListBox@@PAVCFormattedCellListBoxItemDrawer@@HABVTAknTextLineLayout@@ABVTPoint@@3@Z @ 2692 NONAME ; void AknListBoxLayouts::SetupFormAntiFlickerTextCell(class CEikListBox &, class CFormattedCellListBoxItemDrawer *, int, class TAknTextLineLayout const &, class TPoint const &, class TPoint const &)
	?SetupFormAntiFlickerTextCell@AknListBoxLayouts@@SAXAAVCEikListBox@@PAVCFormattedCellListBoxItemDrawer@@HPBVCFont@@HHHHHW4TTextAlign@CGraphicsContext@@VTPoint@@4@Z @ 2693 NONAME ; void AknListBoxLayouts::SetupFormAntiFlickerTextCell(class CEikListBox &, class CFormattedCellListBoxItemDrawer *, int, class CFont const *, int, int, int, int, int, enum CGraphicsContext::TTextAlign, class TPoint, class TPoint)
	?SetupFormGfxCell@AknListBoxLayouts@@SAXAAVCEikListBox@@PAVCFormattedCellListBoxItemDrawer@@HABVTAknWindowLineLayout@@ABVTPoint@@3@Z @ 2694 NONAME ; void AknListBoxLayouts::SetupFormGfxCell(class CEikListBox &, class CFormattedCellListBoxItemDrawer *, int, class TAknWindowLineLayout const &, class TPoint const &, class TPoint const &)
	?SetupFormGfxCell@AknListBoxLayouts@@SAXAAVCEikListBox@@PAVCFormattedCellListBoxItemDrawer@@HHHHHHHVTPoint@@2@Z @ 2695 NONAME ; void AknListBoxLayouts::SetupFormGfxCell(class CEikListBox &, class CFormattedCellListBoxItemDrawer *, int, int, int, int, int, int, int, class TPoint, class TPoint)
	?SetupFormTextCell@AknListBoxLayouts@@SAXAAVCEikListBox@@PAVCFormattedCellListBoxItemDrawer@@HABVTAknTextLineLayout@@ABVTPoint@@3@Z @ 2696 NONAME ; void AknListBoxLayouts::SetupFormTextCell(class CEikListBox &, class CFormattedCellListBoxItemDrawer *, int, class TAknTextLineLayout const &, class TPoint const &, class TPoint const &)
	?SetupFormTextCell@AknListBoxLayouts@@SAXAAVCEikListBox@@PAVCFormattedCellListBoxItemDrawer@@HPBVCFont@@HHHHHW4TTextAlign@CGraphicsContext@@VTPoint@@4@Z @ 2697 NONAME ; void AknListBoxLayouts::SetupFormTextCell(class CEikListBox &, class CFormattedCellListBoxItemDrawer *, int, class CFont const *, int, int, int, int, int, enum CGraphicsContext::TTextAlign, class TPoint, class TPoint)
	?SetupGridFormGfxCell@AknListBoxLayouts@@SAXAAVCAknGrid@@PAVCFormattedCellListBoxItemDrawer@@HABVTAknWindowLineLayout@@AAVTPoint@@3@Z @ 2698 NONAME ; void AknListBoxLayouts::SetupGridFormGfxCell(class CAknGrid &, class CFormattedCellListBoxItemDrawer *, int, class TAknWindowLineLayout const &, class TPoint &, class TPoint &)
	?SetupGridFormGfxCell@AknListBoxLayouts@@SAXAAVCAknGrid@@PAVCFormattedCellListBoxItemDrawer@@HHHHHHHVTPoint@@2@Z @ 2699 NONAME ; void AknListBoxLayouts::SetupGridFormGfxCell(class CAknGrid &, class CFormattedCellListBoxItemDrawer *, int, int, int, int, int, int, int, class TPoint, class TPoint)
	?SetupGridPos@AknListBoxLayouts@@SAXAAVCAknGrid@@HHHHHH@Z @ 2700 NONAME ; void AknListBoxLayouts::SetupGridPos(class CAknGrid &, int, int, int, int, int, int)
	?SetupImageSelectionMenuPopupWindow@AknPopupLayouts@@SAXAAUTAknPopupWindowLayoutDef@@HH@Z @ 2701 NONAME ; void AknPopupLayouts::SetupImageSelectionMenuPopupWindow(struct TAknPopupWindowLayoutDef &, int, int)
	?SetupLayout@CAknGMSStyleGrid@@QAEXXZ @ 2702 NONAME ; void CAknGMSStyleGrid::SetupLayout(void)
	?SetupLayout@CAknGMSStyleGridView@@QAEXABVTRect@@HH@Z @ 2703 NONAME ; void CAknGMSStyleGridView::SetupLayout(class TRect const &, int, int)
	?SetupListboxPos@AknListBoxLayouts@@SAXAAVCEikListBox@@ABVTAknWindowLineLayout@@@Z @ 2704 NONAME ; void AknListBoxLayouts::SetupListboxPos(class CEikListBox &, class TAknWindowLineLayout const &)
	?SetupListboxPos@AknListBoxLayouts@@SAXAAVCEikListBox@@HHHHHH@Z @ 2705 NONAME ; void AknListBoxLayouts::SetupListboxPos(class CEikListBox &, int, int, int, int, int, int)
	?SetupMenuPopupWindow@AknPopupLayouts@@SAXAAUTAknPopupWindowLayoutDef@@HH@Z @ 2706 NONAME ; void AknPopupLayouts::SetupMenuPopupWindow(struct TAknPopupWindowLayoutDef &, int, int)
	?SetupPopupGridLargeGraphicWindow@CAknGMSPopupGrid@@SAXAAUTAknPopupWindowLayoutDef@@HH@Z @ 2707 NONAME ; void CAknGMSPopupGrid::SetupPopupGridLargeGraphicWindow(struct TAknPopupWindowLayoutDef &, int, int)
	?SetupPopupMenuDoubleWindow@AknPopupLayouts@@SAXAAUTAknPopupWindowLayoutDef@@HH@Z @ 2708 NONAME ; void AknPopupLayouts::SetupPopupMenuDoubleWindow(struct TAknPopupWindowLayoutDef &, int, int)
	?SetupPopupMenuGraphicHeadingWindow@AknPopupLayouts@@SAXAAUTAknPopupWindowLayoutDef@@HH@Z @ 2709 NONAME ; void AknPopupLayouts::SetupPopupMenuGraphicHeadingWindow(struct TAknPopupWindowLayoutDef &, int, int)
	?SetupPopupMenuGraphicWindow@AknPopupLayouts@@SAXAAUTAknPopupWindowLayoutDef@@HH@Z @ 2710 NONAME ; void AknPopupLayouts::SetupPopupMenuGraphicWindow(struct TAknPopupWindowLayoutDef &, int, int)
	?SetupPopupSNoteGroupWindow@AknPopupLayouts@@SAXAAUTAknPopupWindowLayoutDef@@HH@Z @ 2711 NONAME ; void AknPopupLayouts::SetupPopupSNoteGroupWindow(struct TAknPopupWindowLayoutDef &, int, int)
	?SetupStandardColumnListbox@AknListBoxLayouts@@SAXPAVCColumnListBoxItemDrawer@@@Z @ 2712 NONAME ; void AknListBoxLayouts::SetupStandardColumnListbox(class CColumnListBoxItemDrawer *)
	?SetupStandardFormListbox@AknListBoxLayouts@@SAXPAVCFormattedCellListBoxItemDrawer@@@Z @ 2713 NONAME ; void AknListBoxLayouts::SetupStandardFormListbox(class CFormattedCellListBoxItemDrawer *)
	?SetupStandardGrid@AknListBoxLayouts@@SAXAAVCAknGrid@@@Z @ 2714 NONAME ; void AknListBoxLayouts::SetupStandardGrid(class CAknGrid &)
	?SetupStandardListBox@AknListBoxLayouts@@SAXAAVCEikListBox@@@Z @ 2715 NONAME ; void AknListBoxLayouts::SetupStandardListBox(class CEikListBox &)
	?SetupWindowLayout@CAknGMSPopupGrid@@UAEXW4TAknPopupLayouts@AknPopupLayouts@@@Z @ 2716 NONAME ; void CAknGMSPopupGrid::SetupWindowLayout(enum AknPopupLayouts::TAknPopupLayouts)
	?SetupWindowLayout@CAknPopupList@@MAEXW4TAknPopupLayouts@AknPopupLayouts@@@Z @ 2717 NONAME ; void CAknPopupList::SetupWindowLayout(enum AknPopupLayouts::TAknPopupLayouts)
	?ShortcutValueForNextList@AknListBoxShortCutsImplementation@@UAEHXZ @ 2718 NONAME ; int AknListBoxShortCutsImplementation::ShortcutValueForNextList(void)
	?ShowAnotherTable@CAknCharMapDialog@@QAEXH@Z @ 2719 NONAME ; void CAknCharMapDialog::ShowAnotherTable(int)
	?ShowCdmaIcon@CAknSignalPane@@QAEXH@Z @ 2720 NONAME ; void CAknSignalPane::ShowCdmaIcon(int)
	?ShowCommonPacketDataIcon@CAknSignalPane@@QAEXH@Z @ 2721 NONAME ; void CAknSignalPane::ShowCommonPacketDataIcon(int)
	?ShowGprsIcon@CAknSignalPane@@QAEXH@Z @ 2722 NONAME ; void CAknSignalPane::ShowGprsIcon(int)
	?ShowInfoPopupNote@CAknInfoPopupNoteController@@QAEXXZ @ 2723 NONAME ; void CAknInfoPopupNoteController::ShowInfoPopupNote(void)
	?ShowNoPictographs@CAknCharMapDialog@@QAEXXZ @ 2724 NONAME ; void CAknCharMapDialog::ShowNoPictographs(void)
	?ShowPictographsFirst@CAknCharMapDialog@@QAEXXZ @ 2725 NONAME ; void CAknCharMapDialog::ShowPictographsFirst(void)
	?ShowProfileName@CAknVolumePopup@@QAEXH@Z @ 2726 NONAME ; void CAknVolumePopup::ShowProfileName(int)
	?ShowVolumePopupL@CAknVolumePopup@@QAEXXZ @ 2727 NONAME ; void CAknVolumePopup::ShowVolumePopupL(void)
	?ShowWcdmaIcon@CAknSignalPane@@QAEXH@Z @ 2728 NONAME ; void CAknSignalPane::ShowWcdmaIcon(int)
	?ShutDialogsL@AknDialogShutter@@SAXAAVCEikonEnv@@@Z @ 2729 NONAME ; void AknDialogShutter::ShutDialogsL(class CEikonEnv &)
	?ShutdownApps@RAknEikAppUiSession@@QBEHVTUid@@H@Z @ 2730 NONAME ; int RAknEikAppUiSession::ShutdownApps(class TUid, int) const
	?Signal@CAknDrawSynchronizer@@QAEXPBVMAknSyncDrawer@@@Z @ 2731 NONAME ; void CAknDrawSynchronizer::Signal(class MAknSyncDrawer const *)
	?SizeChanged@?$AknListBoxLinesTemplate@VCAknColumnListBox@@@@UAEXXZ @ 2732 NONAME ; void AknListBoxLinesTemplate<class CAknColumnListBox>::SizeChanged(void)
	?SizeChanged@?$AknListBoxLinesTemplate@VCEikFormattedCellListBox@@@@UAEXXZ @ 2733 NONAME ; void AknListBoxLinesTemplate<class CEikFormattedCellListBox>::SizeChanged(void)
	?SizeChanged@?$AknListBoxLinesTemplate@VCEikSettingsListBox@@@@UAEXXZ @ 2734 NONAME ; void AknListBoxLinesTemplate<class CEikSettingsListBox>::SizeChanged(void)
	?SizeChanged@CAknAppStyleGrid@@UAEXXZ @ 2735 NONAME ; void CAknAppStyleGrid::SizeChanged(void)
	?SizeChanged@CAknBatteryPane@@MAEXXZ @ 2736 NONAME ; void CAknBatteryPane::SizeChanged(void)
	?SizeChanged@CAknCaleMonthStyleGrid@@UAEXXZ @ 2737 NONAME ; void CAknCaleMonthStyleGrid::SizeChanged(void)
	?SizeChanged@CAknCharMap@@MAEXXZ @ 2738 NONAME ; void CAknCharMap::SizeChanged(void)
	?SizeChanged@CAknContextPane@@MAEXXZ @ 2739 NONAME ; void CAknContextPane::SizeChanged(void)
	?SizeChanged@CAknDialog@@MAEXXZ @ 2740 NONAME ; void CAknDialog::SizeChanged(void)
	?SizeChanged@CAknDouble2GraphicLargeGraphicStyleListBox@@UAEXXZ @ 2741 NONAME ; void CAknDouble2GraphicLargeGraphicStyleListBox::SizeChanged(void)
	?SizeChanged@CAknDouble2GraphicLargeStyleListBox@@UAEXXZ @ 2742 NONAME ; void CAknDouble2GraphicLargeStyleListBox::SizeChanged(void)
	?SizeChanged@CAknDouble2GraphicStyleListBox@@UAEXXZ @ 2743 NONAME ; void CAknDouble2GraphicStyleListBox::SizeChanged(void)
	?SizeChanged@CAknDouble2LargeStyleListBox@@UAEXXZ @ 2744 NONAME ; void CAknDouble2LargeStyleListBox::SizeChanged(void)
	?SizeChanged@CAknDouble2PopupMenuStyleListBox@@UAEXXZ @ 2745 NONAME ; void CAknDouble2PopupMenuStyleListBox::SizeChanged(void)
	?SizeChanged@CAknDoubleGraphicStyleListBox@@UAEXXZ @ 2746 NONAME ; void CAknDoubleGraphicStyleListBox::SizeChanged(void)
	?SizeChanged@CAknDoubleLargeGraphicPopupMenuStyleListBox@@UAEXXZ @ 2747 NONAME ; void CAknDoubleLargeGraphicPopupMenuStyleListBox::SizeChanged(void)
	?SizeChanged@CAknDoubleLargeStyleListBox@@UAEXXZ @ 2748 NONAME ; void CAknDoubleLargeStyleListBox::SizeChanged(void)
	?SizeChanged@CAknDoubleNumberStyleListBox@@UAEXXZ @ 2749 NONAME ; void CAknDoubleNumberStyleListBox::SizeChanged(void)
	?SizeChanged@CAknDoublePopupMenuStyleListBox@@UAEXXZ @ 2750 NONAME ; void CAknDoublePopupMenuStyleListBox::SizeChanged(void)
	?SizeChanged@CAknDoubleStyle2ListBox@@UAEXXZ @ 2751 NONAME ; void CAknDoubleStyle2ListBox::SizeChanged(void)
	?SizeChanged@CAknDoubleStyleListBox@@UAEXXZ @ 2752 NONAME ; void CAknDoubleStyleListBox::SizeChanged(void)
	?SizeChanged@CAknDoubleTimeStyleListBox@@UAEXXZ @ 2753 NONAME ; void CAknDoubleTimeStyleListBox::SizeChanged(void)
	?SizeChanged@CAknFormDoubleGraphicStyleListBox@@UAEXXZ @ 2754 NONAME ; void CAknFormDoubleGraphicStyleListBox::SizeChanged(void)
	?SizeChanged@CAknFormDoubleStyleListBox@@UAEXXZ @ 2755 NONAME ; void CAknFormDoubleStyleListBox::SizeChanged(void)
	?SizeChanged@CAknFormGraphicStyleListBox@@UAEXXZ @ 2756 NONAME ; void CAknFormGraphicStyleListBox::SizeChanged(void)
	?SizeChanged@CAknFormGraphicWideStyleListBox@@UAEXXZ @ 2757 NONAME ; void CAknFormGraphicWideStyleListBox::SizeChanged(void)
	?SizeChanged@CAknGMSStyleGrid@@UAEXXZ @ 2758 NONAME ; void CAknGMSStyleGrid::SizeChanged(void)
	?SizeChanged@CAknGrid@@UAEXXZ @ 2759 NONAME ; void CAknGrid::SizeChanged(void)
	?SizeChanged@CAknIndicatorContainer@@MAEXXZ @ 2760 NONAME ; void CAknIndicatorContainer::SizeChanged(void)
	?SizeChanged@CAknIntegerSettingPage@@MAEXXZ @ 2761 NONAME ; void CAknIntegerSettingPage::SizeChanged(void)
	?SizeChanged@CAknListBoxSettingPage@@MAEXXZ @ 2762 NONAME ; void CAknListBoxSettingPage::SizeChanged(void)
	?SizeChanged@CAknMfneSettingPage@@MAEXXZ @ 2763 NONAME ; void CAknMfneSettingPage::SizeChanged(void)
	?SizeChanged@CAknNaviLabel@@MAEXXZ @ 2764 NONAME ; void CAknNaviLabel::SizeChanged(void)
	?SizeChanged@CAknNavigationControlContainer@@MAEXXZ @ 2765 NONAME ; void CAknNavigationControlContainer::SizeChanged(void)
	?SizeChanged@CAknNavigationDecorator@@MAEXXZ @ 2766 NONAME ; void CAknNavigationDecorator::SizeChanged(void)
	?SizeChanged@CAknNoteDialog@@EAEXXZ @ 2767 NONAME ; void CAknNoteDialog::SizeChanged(void)
	?SizeChanged@CAknPasswordSettingPage@@MAEXXZ @ 2768 NONAME ; void CAknPasswordSettingPage::SizeChanged(void)
	?SizeChanged@CAknPhoneNumberEditor@@UAEXXZ @ 2769 NONAME ; void CAknPhoneNumberEditor::SizeChanged(void)
	?SizeChanged@CAknPinbStyleGrid@@UAEXXZ @ 2770 NONAME ; void CAknPinbStyleGrid::SizeChanged(void)
	?SizeChanged@CAknPopupField@@MAEXXZ @ 2771 NONAME ; void CAknPopupField::SizeChanged(void)
	?SizeChanged@CAknPopupForm@@MAEXXZ @ 2772 NONAME ; void CAknPopupForm::SizeChanged(void)
	?SizeChanged@CAknPopupHeadingPane@@UAEXXZ @ 2773 NONAME ; void CAknPopupHeadingPane::SizeChanged(void)
	?SizeChanged@CAknQdialStyleGrid@@UAEXXZ @ 2774 NONAME ; void CAknQdialStyleGrid::SizeChanged(void)
	?SizeChanged@CAknSetStyleListBox@@UAEXXZ @ 2775 NONAME ; void CAknSetStyleListBox::SizeChanged(void)
	?SizeChanged@CAknSettingNumberStyleListBox@@UAEXXZ @ 2776 NONAME ; void CAknSettingNumberStyleListBox::SizeChanged(void)
	?SizeChanged@CAknSettingPage@@MAEXXZ @ 2777 NONAME ; void CAknSettingPage::SizeChanged(void)
	?SizeChanged@CAknSettingStyleListBox@@UAEXXZ @ 2778 NONAME ; void CAknSettingStyleListBox::SizeChanged(void)
	?SizeChanged@CAknSignalPane@@MAEXXZ @ 2779 NONAME ; void CAknSignalPane::SizeChanged(void)
	?SizeChanged@CAknSingle2GraphicStyleListBox@@UAEXXZ @ 2780 NONAME ; void CAknSingle2GraphicStyleListBox::SizeChanged(void)
	?SizeChanged@CAknSingleGraphicBtPopupMenuStyleListBox@@UAEXXZ @ 2781 NONAME ; void CAknSingleGraphicBtPopupMenuStyleListBox::SizeChanged(void)
	?SizeChanged@CAknSingleGraphicHeadingPopupMenuStyleListBox@@UAEXXZ @ 2782 NONAME ; void CAknSingleGraphicHeadingPopupMenuStyleListBox::SizeChanged(void)
	?SizeChanged@CAknSingleGraphicHeadingStyleListBox@@UAEXXZ @ 2783 NONAME ; void CAknSingleGraphicHeadingStyleListBox::SizeChanged(void)
	?SizeChanged@CAknSingleGraphicPopupMenuStyleListBox@@UAEXXZ @ 2784 NONAME ; void CAknSingleGraphicPopupMenuStyleListBox::SizeChanged(void)
	?SizeChanged@CAknSingleGraphicStyleListBox@@UAEXXZ @ 2785 NONAME ; void CAknSingleGraphicStyleListBox::SizeChanged(void)
	?SizeChanged@CAknSingleHeadingPopupMenuStyleListBox@@UAEXXZ @ 2786 NONAME ; void CAknSingleHeadingPopupMenuStyleListBox::SizeChanged(void)
	?SizeChanged@CAknSingleHeadingStyleListBox@@UAEXXZ @ 2787 NONAME ; void CAknSingleHeadingStyleListBox::SizeChanged(void)
	?SizeChanged@CAknSingleLargeStyleListBox@@UAEXXZ @ 2788 NONAME ; void CAknSingleLargeStyleListBox::SizeChanged(void)
	?SizeChanged@CAknSingleNumberHeadingStyleListBox@@UAEXXZ @ 2789 NONAME ; void CAknSingleNumberHeadingStyleListBox::SizeChanged(void)
	?SizeChanged@CAknSingleNumberStyleListBox@@UAEXXZ @ 2790 NONAME ; void CAknSingleNumberStyleListBox::SizeChanged(void)
	?SizeChanged@CAknSinglePopupMenuStyleListBox@@UAEXXZ @ 2791 NONAME ; void CAknSinglePopupMenuStyleListBox::SizeChanged(void)
	?SizeChanged@CAknSinglePopupSubmenuStyleListBox@@UAEXXZ @ 2792 NONAME ; void CAknSinglePopupSubmenuStyleListBox::SizeChanged(void)
	?SizeChanged@CAknSingleStyleListBox@@UAEXXZ @ 2793 NONAME ; void CAknSingleStyleListBox::SizeChanged(void)
	?SizeChanged@CAknSliderSettingPage@@MAEXXZ @ 2794 NONAME ; void CAknSliderSettingPage::SizeChanged(void)
	?SizeChanged@CAknTabGroup@@MAEXXZ @ 2795 NONAME ; void CAknTabGroup::SizeChanged(void)
	?SizeChanged@CAknTextSettingPage@@MAEXXZ @ 2796 NONAME ; void CAknTextSettingPage::SizeChanged(void)
	?SizeChanged@CAknTitlePane@@MAEXXZ @ 2797 NONAME ; void CAknTitlePane::SizeChanged(void)
	?SizeChanged@CAknTransparentCameraSettingPage@@MAEXXZ @ 2798 NONAME ; void CAknTransparentCameraSettingPage::SizeChanged(void)
	?SizeChanged@CAknVolumeSettingPage@@MAEXXZ @ 2799 NONAME ; void CAknVolumeSettingPage::SizeChanged(void)
	?SkinBackgroundContext@CFormattedCellListBoxData@@QBEPAVMAknsControlContext@@XZ @ 2800 NONAME ; class MAknsControlContext * CFormattedCellListBoxData::SkinBackgroundContext(void) const
	?SkinEnabled@CFormattedCellListBoxData@@QBEHXZ @ 2801 NONAME ; int CFormattedCellListBoxData::SkinEnabled(void) const
	?SliderControl@CAknSliderSettingPage@@QAEPAVCAknSlider@@XZ @ 2802 NONAME ; class CAknSlider * CAknSliderSettingPage::SliderControl(void)
	?SoundSystem@CAknNoteDialog@@IBEPAVCAknKeySoundSystem@@XZ @ 2803 NONAME ; class CAknKeySoundSystem * CAknNoteDialog::SoundSystem(void) const
	?SoundSystem@CAknPopupForm@@IBEPAVCAknKeySoundSystem@@XZ @ 2804 NONAME ; class CAknKeySoundSystem * CAknPopupForm::SoundSystem(void) const
	?StandardSettingPageLayout@CAknSettingPage@@IAEXXZ @ 2805 NONAME ; void CAknSettingPage::StandardSettingPageLayout(void)
	?Start@CAknMarqueeControl@@QAEXXZ @ 2806 NONAME ; void CAknMarqueeControl::Start(void)
	?StartAnimationL@CAknBitmapAnimation@@QAEXXZ @ 2807 NONAME ; void CAknBitmapAnimation::StartAnimationL(void)
	?StartAnimationL@CAknNoteControl@@QAEXXZ @ 2808 NONAME ; void CAknNoteControl::StartAnimationL(void)
	?StartAnimationL@CAknPopupHeadingPane@@QAEXXZ @ 2809 NONAME ; void CAknPopupHeadingPane::StartAnimationL(void)
	?StartAnimationL@CAknQueryControl@@QAEXXZ @ 2810 NONAME ; void CAknQueryControl::StartAnimationL(void)
	?StartTimerL@AknListBoxShortCuts@@QAEXW4TShortcutTimerType@1@@Z @ 2811 NONAME ; void AknListBoxShortCuts::StartTimerL(enum AknListBoxShortCuts::TShortcutTimerType)
	?State@CAknEcsDetector@@QAE?AW4TState@1@XZ @ 2812 NONAME ; enum CAknEcsDetector::TState CAknEcsDetector::State(void)
	?Static@CAknEnv@@SAPAV1@XZ @ 2813 NONAME ; class CAknEnv * CAknEnv::Static(void)
	?StaticDeleteL@CAknNoteDialog@@KAHPAX@Z @ 2814 NONAME ; int CAknNoteDialog::StaticDeleteL(void *)
	?StaticDeleteL@CAknPopupForm@@KAHPAX@Z @ 2815 NONAME ; int CAknPopupForm::StaticDeleteL(void *)
	?StatusPane@CAknAppUi@@QAEPAVCEikStatusPane@@XZ @ 2816 NONAME ; class CEikStatusPane * CAknAppUi::StatusPane(void)
	?StatusPane@CAknView@@IBEPAVCEikStatusPane@@XZ @ 2817 NONAME ; class CEikStatusPane * CAknView::StatusPane(void) const
	?StatusPaneResIdForCurrentLayout@CAknEnv@@QBEHH@Z @ 2818 NONAME ; int CAknEnv::StatusPaneResIdForCurrentLayout(int) const
	?Stop@CAknMarqueeControl@@QAEXXZ @ 2819 NONAME ; void CAknMarqueeControl::Stop(void)
	?StopDisplayingMenuBar@CAknView@@QAEXXZ @ 2820 NONAME ; void CAknView::StopDisplayingMenuBar(void)
	?StopDisplayingMenuBar@CAknViewAppUi@@UAEXXZ @ 2821 NONAME ; void CAknViewAppUi::StopDisplayingMenuBar(void)
	?StopSchedulerWaitWithBusyMessage@CAknEnv@@SAXAAVCActiveSchedulerWait@@@Z @ 2822 NONAME ; void CAknEnv::StopSchedulerWaitWithBusyMessage(class CActiveSchedulerWait &)
	?StopSound@CAknKeySoundSystem@@QAEXH@Z @ 2823 NONAME ; void CAknKeySoundSystem::StopSound(int)
	?StoreL@CAknBinaryPopupSettingItem@@UAEXXZ @ 2824 NONAME ; void CAknBinaryPopupSettingItem::StoreL(void)
	?StoreL@CAknEnumeratedTextPopupSettingItem@@UAEXXZ @ 2825 NONAME ; void CAknEnumeratedTextPopupSettingItem::StoreL(void)
	?StoreL@CAknIntegerSettingItem@@UAEXXZ @ 2826 NONAME ; void CAknIntegerSettingItem::StoreL(void)
	?StoreL@CAknIpFieldSettingItem@@UAEXXZ @ 2827 NONAME ; void CAknIpFieldSettingItem::StoreL(void)
	?StoreL@CAknSettingItem@@UAEXXZ @ 2828 NONAME ; void CAknSettingItem::StoreL(void)
	?StoreL@CAknSliderSettingItem@@UAEXXZ @ 2829 NONAME ; void CAknSliderSettingItem::StoreL(void)
	?StoreL@CAknTextSettingItem@@UAEXXZ @ 2830 NONAME ; void CAknTextSettingItem::StoreL(void)
	?StoreL@CAknTimeOffsetSettingItem@@UAEXXZ @ 2831 NONAME ; void CAknTimeOffsetSettingItem::StoreL(void)
	?StoreL@CAknTimeOrDateSettingItem@@UAEXXZ @ 2832 NONAME ; void CAknTimeOrDateSettingItem::StoreL(void)
	?StoreL@CAknVolumeSettingItem@@UAEXXZ @ 2833 NONAME ; void CAknVolumeSettingItem::StoreL(void)
	?StoreSettingsL@CAknSettingItemList@@UAEXXZ @ 2834 NONAME ; void CAknSettingItemList::StoreSettingsL(void)
	?StripCharacters@AknTextUtils@@SAXAAVTDes16@@ABVTDesC16@@@Z @ 2835 NONAME ; void AknTextUtils::StripCharacters(class TDes16 &, class TDesC16 const &)
	?SubCellAlignment@CFormattedCellListBoxData@@QBE?AW4TTextAlign@CGraphicsContext@@H@Z @ 2836 NONAME ; enum CGraphicsContext::TTextAlign CFormattedCellListBoxData::SubCellAlignment(int) const
	?SubCellBaselinePos@CFormattedCellListBoxData@@QBEHH@Z @ 2837 NONAME ; int CFormattedCellListBoxData::SubCellBaselinePos(int) const
	?SubCellColors@CFormattedCellListBoxData@@QBEABVTColors@1@H@Z @ 2838 NONAME ; class CFormattedCellListBoxData::TColors const & CFormattedCellListBoxData::SubCellColors(int) const
	?SubCellFont@CFormattedCellListBoxData@@QBEPBVCFont@@H@Z @ 2839 NONAME ; class CFont const * CFormattedCellListBoxData::SubCellFont(int) const
	?SubCellIsGraphics@CFormattedCellListBoxData@@QBEHH@Z @ 2840 NONAME ; int CFormattedCellListBoxData::SubCellIsGraphics(int) const
	?SubCellIsNotAlwaysDrawn@CFormattedCellListBoxData@@QBEHH@Z @ 2841 NONAME ; int CFormattedCellListBoxData::SubCellIsNotAlwaysDrawn(int) const
	?SubCellIsNumberCell@CFormattedCellListBoxData@@QBEHH@Z @ 2842 NONAME ; int CFormattedCellListBoxData::SubCellIsNumberCell(int) const
	?SubCellIsTransparent@CFormattedCellListBoxData@@QBEHH@Z @ 2843 NONAME ; int CFormattedCellListBoxData::SubCellIsTransparent(int) const
	?SubCellMargins@CFormattedCellListBoxData@@QBE?AVTMargins@@H@Z @ 2844 NONAME ; class TMargins CFormattedCellListBoxData::SubCellMargins(int) const
	?SubCellPosition@CFormattedCellListBoxData@@QBE?AVTPoint@@H@Z @ 2845 NONAME ; class TPoint CFormattedCellListBoxData::SubCellPosition(int) const
	?SubCellRightSeparatorStyle@CFormattedCellListBoxData@@QBE?AW4TPenStyle@CGraphicsContext@@H@Z @ 2846 NONAME ; enum CGraphicsContext::TPenStyle CFormattedCellListBoxData::SubCellRightSeparatorStyle(int) const
	?SubCellSize@CFormattedCellListBoxData@@QBE?AVTSize@@H@Z @ 2847 NONAME ; class TSize CFormattedCellListBoxData::SubCellSize(int) const
	?SubCellTextClipGap@CFormattedCellListBoxData@@QBEHH@Z @ 2848 NONAME ; int CFormattedCellListBoxData::SubCellTextClipGap(int) const
	?SubVariant@AknLayoutUtils@@SA?AW4ESubVariantFlag@@XZ @ 2849 NONAME ; enum ESubVariantFlag AknLayoutUtils::SubVariant(void)
	?SwapEditingStateIndicator@CAknEnv@@QAEPAVMAknEditingStateIndicator@@PAV2@@Z @ 2850 NONAME ; class MAknEditingStateIndicator * CAknEnv::SwapEditingStateIndicator(class MAknEditingStateIndicator *)
	?SwapListBoxGc@CAknAnimatedView@@QAEPAVCWindowGc@@PAVCEikListBox@@PAV2@@Z @ 2851 NONAME ; class CWindowGc * CAknAnimatedView::SwapListBoxGc(class CEikListBox *, class CWindowGc *)
	?SwapPicture@CAknContextPane@@QAEPAVCEikImage@@PAV2@@Z @ 2852 NONAME ; class CEikImage * CAknContextPane::SwapPicture(class CEikImage *)
	?TabCount@CAknTabGroup@@UBEHXZ @ 2853 NONAME ; int CAknTabGroup::TabCount(void) const
	?TabIdFromIndex@CAknTabGroup@@UBEHH@Z @ 2854 NONAME ; int CAknTabGroup::TabIdFromIndex(int) const
	?TabIndexFromId@CAknTabGroup@@UBEHH@Z @ 2855 NONAME ; int CAknTabGroup::TabIndexFromId(int) const
	?Text@CAknPhoneNumberEditor@@QBE?AVTPtrC16@@H@Z @ 2856 NONAME ; class TPtrC16 CAknPhoneNumberEditor::Text(int) const
	?TextAlignFromId@AknLayoutUtils@@SA?AW4TTextAlign@CGraphicsContext@@H@Z @ 2857 NONAME ; enum CGraphicsContext::TTextAlign AknLayoutUtils::TextAlignFromId(int)
	?TextControl@CAknEdwinSettingPage@@QAEPAVCEikEdwin@@XZ @ 2858 NONAME ; class CEikEdwin * CAknEdwinSettingPage::TextControl(void)
	?TextEditorDigitType@AknTextUtils@@SA?AW4TDigitType@@XZ @ 2859 NONAME ; enum TDigitType AknTextUtils::TextEditorDigitType(void)
	?TextIsScrollable@CAknPopupForm@@QAEHXZ @ 2860 NONAME ; int CAknPopupForm::TextIsScrollable(void)
	?TextItem@CAknGenericReader@@QBEPBUSAknLayoutText@@H@Z @ 2861 NONAME ; struct SAknLayoutText const * CAknGenericReader::TextItem(int) const
	?TextLength@CAknPhoneNumberEditor@@QBEHXZ @ 2862 NONAME ; int CAknPhoneNumberEditor::TextLength(void) const
	?TextLength@CAknSearchField@@QBEHXZ @ 2863 NONAME ; int CAknSearchField::TextLength(void) const
	?TextPaneHeight@CAknLayoutFont@@QBEHXZ @ 2864 NONAME ; int CAknLayoutFont::TextPaneHeight(void) const
	?TextPaneTopToBaseline@CAknLayoutFont@@QBEHXZ @ 2865 NONAME ; int CAknLayoutFont::TextPaneTopToBaseline(void) const
	?TextRect@TAknLayoutText@@QBE?AVTRect@@XZ @ 2866 NONAME ; class TRect TAknLayoutText::TextRect(void) const
	?TextRectFromCoords@AknLayoutUtils@@SA?AVTRect@@ABV2@PBVCFont@@HHHHH@Z @ 2867 NONAME ; class TRect AknLayoutUtils::TextRectFromCoords(class TRect const &, class CFont const *, int, int, int, int, int)
	?TimeEditor@CAknTimeSettingPage@@QAEPAVCEikTimeEditor@@XZ @ 2868 NONAME ; class CEikTimeEditor * CAknTimeSettingPage::TimeEditor(void)
	?TimeFormatString@CAknTimeOffsetSettingItem@@QAE?BVTPtrC16@@XZ @ 2869 NONAME ; class TPtrC16 const CAknTimeOffsetSettingItem::TimeFormatString(void)
	?TimeFormatString@CAknTimeOrDateSettingItem@@QAE?BVTPtrC16@@XZ @ 2870 NONAME ; class TPtrC16 const CAknTimeOrDateSettingItem::TimeFormatString(void)
	?TimeOffsetEditor@CAknTimeOffsetSettingPage@@QAEPAVCEikTimeOffsetEditor@@XZ @ 2871 NONAME ; class CEikTimeOffsetEditor * CAknTimeOffsetSettingPage::TimeOffsetEditor(void)
	?Top@CAknNavigationControlContainer@@QAEPAVCAknNavigationDecorator@@XZ @ 2872 NONAME ; class CAknNavigationDecorator * CAknNavigationControlContainer::Top(void)
	?TransferControlAttributes@CAknNoteDialog@@IAEXXZ @ 2873 NONAME ; void CAknNoteDialog::TransferControlAttributes(void)
	?UnRegisterIntermediateState@CAknEnv@@QAEXPAVMAknIntermediateState@@@Z @ 2874 NONAME ; void CAknEnv::UnRegisterIntermediateState(class MAknIntermediateState *)
	?UnderlineHeight@TAknTextDecorationMetrics@@QBEHXZ @ 2875 NONAME ; int TAknTextDecorationMetrics::UnderlineHeight(void) const
	?UnsavedEdit@CAknForm@@IBEHXZ @ 2876 NONAME ; int CAknForm::UnsavedEdit(void) const
	?Update@CAknLayoutFont@@QAEXXZ @ 2877 NONAME ; void CAknLayoutFont::Update(void)
	?Update@CAknSettingCache@@QAEHH@Z @ 2878 NONAME ; int CAknSettingCache::Update(int)
	?UpdateAndFormatLabelsL@CAknNoteControl@@QAEXABVTDesC16@@@Z @ 2879 NONAME ; void CAknNoteControl::UpdateAndFormatLabelsL(class TDesC16 const &)
	?UpdateCachedDataL@CAknListBoxFilterItems@@QAEXXZ @ 2880 NONAME ; void CAknListBoxFilterItems::UpdateCachedDataL(void)
	?UpdateCbaL@CAknIntegerSettingPage@@MAEXXZ @ 2881 NONAME ; void CAknIntegerSettingPage::UpdateCbaL(void)
	?UpdateCbaL@CAknListBoxSettingPage@@MAEXXZ @ 2882 NONAME ; void CAknListBoxSettingPage::UpdateCbaL(void)
	?UpdateCbaL@CAknSettingPage@@MAEXXZ @ 2883 NONAME ; void CAknSettingPage::UpdateCbaL(void)
	?UpdateCbaL@CAknTextSettingPage@@MAEXXZ @ 2884 NONAME ; void CAknTextSettingPage::UpdateCbaL(void)
	?UpdateDisplay@CAknSkinnableClock@@QAEXXZ @ 2885 NONAME ; void CAknSkinnableClock::UpdateDisplay(void)
	?UpdateHScrollOffsetBasedOnTopItemIndex@CAknGridView@@IAEXXZ @ 2886 NONAME ; void CAknGridView::UpdateHScrollOffsetBasedOnTopItemIndex(void)
	?UpdateId@CAknFontIdLayoutFont@@QAEXH@Z @ 2887 NONAME ; void CAknFontIdLayoutFont::UpdateId(int)
	?UpdateL@CListBoxNumbers@@QAEXXZ @ 2888 NONAME ; void CListBoxNumbers::UpdateL(void)
	?UpdateLabels@CAknNoteControl@@QAEXABVTDesC16@@00@Z @ 2889 NONAME ; void CAknNoteControl::UpdateLabels(class TDesC16 const &, class TDesC16 const &, class TDesC16 const &)
	?UpdateLabelsL@CAknNoteControl@@QAEXABVTDesC16@@00@Z @ 2890 NONAME ; void CAknNoteControl::UpdateLabelsL(class TDesC16 const &, class TDesC16 const &, class TDesC16 const &)
	?UpdateLeftSoftKeyL@CAknFixedPointQueryDialog@@MAEXXZ @ 2891 NONAME ; void CAknFixedPointQueryDialog::UpdateLeftSoftKeyL(void)
	?UpdateLeftSoftKeyL@CAknIpAddressQueryDialog@@MAEXXZ @ 2892 NONAME ; void CAknIpAddressQueryDialog::UpdateLeftSoftKeyL(void)
	?UpdateLeftSoftKeyL@CAknMultiLineDataQueryDialog@@MAEXXZ @ 2893 NONAME ; void CAknMultiLineDataQueryDialog::UpdateLeftSoftKeyL(void)
	?UpdateLeftSoftKeyL@CAknMultiLineIpQueryDialog@@MAEXXZ @ 2894 NONAME ; void CAknMultiLineIpQueryDialog::UpdateLeftSoftKeyL(void)
	?UpdateLeftSoftKeyL@CAknQueryDialog@@MAEXXZ @ 2895 NONAME ; void CAknQueryDialog::UpdateLeftSoftKeyL(void)
	?UpdateListBoxTextL@CAknSettingItem@@UAEXXZ @ 2896 NONAME ; void CAknSettingItem::UpdateListBoxTextL(void)
	?UpdateQueryValueL@CAknPopupSettingPage@@QAEXPAVMAknQueryValue@@@Z @ 2897 NONAME ; void CAknPopupSettingPage::UpdateQueryValueL(class MAknQueryValue *)
	?UpdateScrollBarThumbs@CAknGrid@@MBEXXZ @ 2898 NONAME ; void CAknGrid::UpdateScrollBarThumbs(void) const
	?UpdateScrollBarsL@CAknGrid@@UAEXXZ @ 2899 NONAME ; void CAknGrid::UpdateScrollBarsL(void)
	?UpdateScrollBarsL@CAknPhoneNumberEditor@@QAEXXZ @ 2900 NONAME ; void CAknPhoneNumberEditor::UpdateScrollBarsL(void)
	?UpdateSelectionIndexL@CAknListBoxFilterItems@@QAEXH@Z @ 2901 NONAME ; void CAknListBoxFilterItems::UpdateSelectionIndexL(int)
	?UpdateSelectionIndexesL@CAknListBoxFilterItems@@QAEXXZ @ 2902 NONAME ; void CAknListBoxFilterItems::UpdateSelectionIndexesL(void)
	?UpdateSettingL@CAknCheckBoxSettingPage@@MAEXXZ @ 2903 NONAME ; void CAknCheckBoxSettingPage::UpdateSettingL(void)
	?UpdateSettingL@CAknDateSettingPage@@MAEXXZ @ 2904 NONAME ; void CAknDateSettingPage::UpdateSettingL(void)
	?UpdateSettingL@CAknDurationSettingPage@@MAEXXZ @ 2905 NONAME ; void CAknDurationSettingPage::UpdateSettingL(void)
	?UpdateSettingL@CAknIntegerSettingPage@@MAEXXZ @ 2906 NONAME ; void CAknIntegerSettingPage::UpdateSettingL(void)
	?UpdateSettingL@CAknIpFieldSettingPage@@MAEXXZ @ 2907 NONAME ; void CAknIpFieldSettingPage::UpdateSettingL(void)
	?UpdateSettingL@CAknPasswordSettingPage@@MAEXXZ @ 2908 NONAME ; void CAknPasswordSettingPage::UpdateSettingL(void)
	?UpdateSettingL@CAknRadioButtonSettingPage@@MAEXXZ @ 2909 NONAME ; void CAknRadioButtonSettingPage::UpdateSettingL(void)
	?UpdateSettingL@CAknSettingPage@@MAEXXZ @ 2910 NONAME ; void CAknSettingPage::UpdateSettingL(void)
	?UpdateSettingL@CAknSliderSettingPage@@MAEXXZ @ 2911 NONAME ; void CAknSliderSettingPage::UpdateSettingL(void)
	?UpdateSettingL@CAknTextSettingPage@@MAEXXZ @ 2912 NONAME ; void CAknTextSettingPage::UpdateSettingL(void)
	?UpdateSettingL@CAknTimeOffsetSettingPage@@MAEXXZ @ 2913 NONAME ; void CAknTimeOffsetSettingPage::UpdateSettingL(void)
	?UpdateSettingL@CAknTimeSettingPage@@MAEXXZ @ 2914 NONAME ; void CAknTimeSettingPage::UpdateSettingL(void)
	?UpdateSettingL@CAknTransparentCameraSettingPage@@MAEXXZ @ 2915 NONAME ; void CAknTransparentCameraSettingPage::UpdateSettingL(void)
	?UpdateSettingL@CAknVolumeSettingPage@@MAEXXZ @ 2916 NONAME ; void CAknVolumeSettingPage::UpdateSettingL(void)
	?UpdateTextL@CAknAlphaPasswordSettingPage@@MAEXXZ @ 2917 NONAME ; void CAknAlphaPasswordSettingPage::UpdateTextL(void)
	?UpdateTextL@CAknNumericPasswordSettingPage@@MAEXXZ @ 2918 NONAME ; void CAknNumericPasswordSettingPage::UpdateTextL(void)
	?UpdateTextL@CAknTextSettingPage@@MAEXXZ @ 2919 NONAME ; void CAknTextSettingPage::UpdateTextL(void)
	?UseBrushPattern@CAknAnimatedGc@@MAEXPBVCFbsBitmap@@@Z @ 2920 NONAME ; void CAknAnimatedGc::UseBrushPattern(class CFbsBitmap const *)
	?UseFont@CAknAnimatedGc@@MAEXPBVCFont@@@Z @ 2921 NONAME ; void CAknAnimatedGc::UseFont(class CFont const *)
	?UseLogicalToVisualConversion@CEikFormattedCellListBox@@QAEXH@Z @ 2922 NONAME ; void CEikFormattedCellListBox::UseLogicalToVisualConversion(int)
	?UseLogicalToVisualConversion@CFormattedCellListBoxData@@QAEXH@Z @ 2923 NONAME ; void CFormattedCellListBoxData::UseLogicalToVisualConversion(int)
	?UseSubCellColors@CFormattedCellListBoxData@@QBEHH@Z @ 2924 NONAME ; int CFormattedCellListBoxData::UseSubCellColors(int) const
	?Value@CAknEnumeratedItemBase@@QBEPAXXZ @ 2925 NONAME ; void * CAknEnumeratedItemBase::Value(void) const
	?Value@CAknQueryValueDate@@QBE?AVTTime@@XZ @ 2926 NONAME ; class TTime CAknQueryValueDate::Value(void) const
	?Value@CAknQueryValueDuration@@QBE?AVTTimeIntervalSeconds@@XZ @ 2927 NONAME ; class TTimeIntervalSeconds CAknQueryValueDuration::Value(void) const
	?Value@CAknQueryValueNumber@@QBEHXZ @ 2928 NONAME ; int CAknQueryValueNumber::Value(void) const
	?Value@CAknQueryValuePhone@@QBEPAVHBufC16@@XZ @ 2929 NONAME ; class HBufC16 * CAknQueryValuePhone::Value(void) const
	?Value@CAknQueryValueText@@QBEPAVHBufC16@@XZ @ 2930 NONAME ; class HBufC16 * CAknQueryValueText::Value(void) const
	?Value@CAknQueryValueTime@@QBE?AVTTime@@XZ @ 2931 NONAME ; class TTime CAknQueryValueTime::Value(void) const
	?Value@CAknSlider@@QBEHXZ @ 2932 NONAME ; int CAknSlider::Value(void) const
	?Value@CAknVolumeControl@@QBEHXZ @ 2933 NONAME ; int CAknVolumeControl::Value(void) const
	?Value@CAknVolumePopup@@QBEHXZ @ 2934 NONAME ; int CAknVolumePopup::Value(void) const
	?Variant@AknLayoutUtils@@SA?AW4EVariantFlag@@XZ @ 2935 NONAME ; enum EVariantFlag AknLayoutUtils::Variant(void)
	?View@CAknViewAppUi@@QBEPAVCAknView@@VTUid@@@Z @ 2936 NONAME ; class CAknView * CAknViewAppUi::View(class TUid) const
	?ViewActivatedL@CAknView@@MAEXABVTVwsViewId@@VTUid@@ABVTDesC8@@@Z @ 2937 NONAME ; void CAknView::ViewActivatedL(class TVwsViewId const &, class TUid, class TDesC8 const &)
	?ViewDeactivated@CAknView@@MAEXXZ @ 2938 NONAME ; void CAknView::ViewDeactivated(void)
	?ViewId@CAknView@@UBE?AVTVwsViewId@@XZ @ 2939 NONAME ; class TVwsViewId CAknView::ViewId(void) const
	?ViewScreenDeviceChangedL@CAknView@@MAE?AVTVwsViewIdAndMessage@@XZ @ 2940 NONAME ; class TVwsViewIdAndMessage CAknView::ViewScreenDeviceChangedL(void)
	?VisibleCount@CAknSettingItemArray@@IBEHXZ @ 2941 NONAME ; int CAknSettingItemArray::VisibleCount(void) const
	?VisibleIndex@CAknSettingItem@@QAEHXZ @ 2942 NONAME ; int CAknSettingItem::VisibleIndex(void)
	?VisibleItemIndex@CAknListBoxFilterItems@@QBEHH@Z @ 2943 NONAME ; int CAknListBoxFilterItems::VisibleItemIndex(int) const
	?VisibleWidth@CAknGridView@@UBEHABVTRect@@@Z @ 2944 NONAME ; int CAknGridView::VisibleWidth(class TRect const &) const
	?VolumeControl@CAknVolumeSettingPage@@IAEPAVCAknVolumeControl@@XZ @ 2945 NONAME ; class CAknVolumeControl * CAknVolumeSettingPage::VolumeControl(void)
	?WaitBetweenSections@CAknAnimationData@@QAEHXZ @ 2946 NONAME ; int CAknAnimationData::WaitBetweenSections(void)
	?WaitForeverAtEnd@CAknAnimationData@@QAEHXZ @ 2947 NONAME ; int CAknAnimationData::WaitForeverAtEnd(void)
	?Waiting@CAknSettingPage@@IAEHXZ @ 2948 NONAME ; int CAknSettingPage::Waiting(void)
	?WindowRect@AknPopupLayouts@@SA?AVTRect@@AAUTAknPopupWindowLayoutDef@@@Z @ 2949 NONAME ; class TRect AknPopupLayouts::WindowRect(struct TAknPopupWindowLayoutDef &)
	?WouldTextFitInFormat@CAknPhoneNumberEditor@@QBEHH@Z @ 2950 NONAME ; int CAknPhoneNumberEditor::WouldTextFitInFormat(int) const
	?WrapPhoneNumberToArrayL@AknPhoneNumberTextUtils@@SAHABVTDesC16@@HHABVCFont@@AAV?$CArrayFix@VTPtrC16@@@@@Z @ 2951 NONAME ; int AknPhoneNumberTextUtils::WrapPhoneNumberToArrayL(class TDesC16 const &, int, int, class CFont const &, class CArrayFix<class TPtrC16> &)
	?WrapToArrayAndClipL@AknTextUtils@@SAXAAVTDes16@@ABV?$CArrayFix@H@@ABVCFont@@AAV?$CArrayFix@VTPtrC16@@@@@Z @ 2952 NONAME ; void AknTextUtils::WrapToArrayAndClipL(class TDes16 &, class CArrayFix<int> const &, class CFont const &, class CArrayFix<class TPtrC16> &)
	?WrapToArrayL@AknTextUtils@@SAXABVTDesC16@@ABV?$CArrayFix@H@@ABVCFont@@AAV?$CArrayFix@VTPtrC16@@@@@Z @ 2953 NONAME ; void AknTextUtils::WrapToArrayL(class TDesC16 const &, class CArrayFix<int> const &, class CFont const &, class CArrayFix<class TPtrC16> &)
	?WrapToArrayL@AknTextUtils@@SAXABVTDesC16@@HABVCFont@@AAV?$CArrayFix@VTPtrC16@@@@@Z @ 2954 NONAME ; void AknTextUtils::WrapToArrayL(class TDesC16 const &, int, class CFont const &, class CArrayFix<class TPtrC16> &)
	?WrapToStringAndClipL@AknTextUtils@@SAXABVTDesC16@@ABV?$CArrayFix@H@@ABVCFont@@AAVTDes16@@@Z @ 2955 NONAME ; void AknTextUtils::WrapToStringAndClipL(class TDesC16 const &, class CArrayFix<int> const &, class CFont const &, class TDes16 &)
	?WrapToStringL@AknTextUtils@@SAXABVTDesC16@@ABV?$CArrayFix@H@@ABVCFont@@AAVTDes16@@@Z @ 2956 NONAME ; void AknTextUtils::WrapToStringL(class TDesC16 const &, class CArrayFix<int> const &, class CFont const &, class TDes16 &)
	?WriteInternalStateL@CAknAlphaPasswordSettingPage@@MBEXAAVRWriteStream@@@Z @ 2957 NONAME ; void CAknAlphaPasswordSettingPage::WriteInternalStateL(class RWriteStream &) const
	?WriteInternalStateL@CAknCheckBoxSettingPage@@MBEXAAVRWriteStream@@@Z @ 2958 NONAME ; void CAknCheckBoxSettingPage::WriteInternalStateL(class RWriteStream &) const
	?WriteInternalStateL@CAknDateSettingPage@@MBEXAAVRWriteStream@@@Z @ 2959 NONAME ; void CAknDateSettingPage::WriteInternalStateL(class RWriteStream &) const
	?WriteInternalStateL@CAknDurationSettingPage@@MBEXAAVRWriteStream@@@Z @ 2960 NONAME ; void CAknDurationSettingPage::WriteInternalStateL(class RWriteStream &) const
	?WriteInternalStateL@CAknIntegerSettingPage@@MBEXAAVRWriteStream@@@Z @ 2961 NONAME ; void CAknIntegerSettingPage::WriteInternalStateL(class RWriteStream &) const
	?WriteInternalStateL@CAknIpFieldSettingPage@@MBEXAAVRWriteStream@@@Z @ 2962 NONAME ; void CAknIpFieldSettingPage::WriteInternalStateL(class RWriteStream &) const
	?WriteInternalStateL@CAknNumericPasswordSettingPage@@MBEXAAVRWriteStream@@@Z @ 2963 NONAME ; void CAknNumericPasswordSettingPage::WriteInternalStateL(class RWriteStream &) const
	?WriteInternalStateL@CAknPasswordSettingPage@@MBEXAAVRWriteStream@@@Z @ 2964 NONAME ; void CAknPasswordSettingPage::WriteInternalStateL(class RWriteStream &) const
	?WriteInternalStateL@CAknPopupSettingPage@@MBEXAAVRWriteStream@@@Z @ 2965 NONAME ; void CAknPopupSettingPage::WriteInternalStateL(class RWriteStream &) const
	?WriteInternalStateL@CAknRadioButtonSettingPage@@MBEXAAVRWriteStream@@@Z @ 2966 NONAME ; void CAknRadioButtonSettingPage::WriteInternalStateL(class RWriteStream &) const
	?WriteInternalStateL@CAknSettingPage@@MBEXAAVRWriteStream@@@Z @ 2967 NONAME ; void CAknSettingPage::WriteInternalStateL(class RWriteStream &) const
	?WriteInternalStateL@CAknSliderSettingPage@@MBEXAAVRWriteStream@@@Z @ 2968 NONAME ; void CAknSliderSettingPage::WriteInternalStateL(class RWriteStream &) const
	?WriteInternalStateL@CAknTextSettingPage@@MBEXAAVRWriteStream@@@Z @ 2969 NONAME ; void CAknTextSettingPage::WriteInternalStateL(class RWriteStream &) const
	?WriteInternalStateL@CAknTimeOffsetSettingPage@@MBEXAAVRWriteStream@@@Z @ 2970 NONAME ; void CAknTimeOffsetSettingPage::WriteInternalStateL(class RWriteStream &) const
	?WriteInternalStateL@CAknTimeSettingPage@@MBEXAAVRWriteStream@@@Z @ 2971 NONAME ; void CAknTimeSettingPage::WriteInternalStateL(class RWriteStream &) const
	?WriteInternalStateL@CAknTransparentCameraSettingPage@@MBEXAAVRWriteStream@@@Z @ 2972 NONAME ; void CAknTransparentCameraSettingPage::WriteInternalStateL(class RWriteStream &) const
	?WriteInternalStateL@CAknVolumeSettingPage@@MBEXAAVRWriteStream@@@Z @ 2973 NONAME ; void CAknVolumeSettingPage::WriteInternalStateL(class RWriteStream &) const
	?XYPosToItemIndex@CAknGridView@@UBEHVTPoint@@AAH@Z @ 2974 NONAME ; int CAknGridView::XYPosToItemIndex(class TPoint, int &) const
	?__DbgTestInvariant@CAknGrid@@QBEXXZ @ 2975 NONAME ; void CAknGrid::__DbgTestInvariant(void) const
	?__DbgTestInvariant@CAknListBoxLayoutDecorator@@QBEXXZ @ 2976 NONAME ; void CAknListBoxLayoutDecorator::__DbgTestInvariant(void) const
	?__DbgTestInvariant@CAknPopupFieldList@@QBEXXZ @ 2977 NONAME ; void CAknPopupFieldList::__DbgTestInvariant(void) const
	?__DbgTestInvariant@TAknDesCArrayDecorator@@QBEXXZ @ 2978 NONAME ; void TAknDesCArrayDecorator::__DbgTestInvariant(void) const
	?ExtensionInterface@CEikFormattedCellListBox@@EAEPAXVTUid@@@Z @ 2979 NONAME ; void * CEikFormattedCellListBox::ExtensionInterface(class TUid)
	?HandleViewRectChange@CAknView@@UAEXXZ @ 2980 NONAME ; void CAknView::HandleViewRectChange(void)
	?HandleWsEventL@CAknViewAppUi@@MAEXABVTWsEvent@@PAVCCoeControl@@@Z @ 2981 NONAME ; void CAknViewAppUi::HandleWsEventL(class TWsEvent const &, class CCoeControl *)
	?InsertControlL@CAknPopupForm@@QAEXHHH@Z @ 2982 NONAME ; void CAknPopupForm::InsertControlL(int, int, int)
	?Redraw@CAknView@@UBEXXZ @ 2983 NONAME ; void CAknView::Redraw(void) const
	?SetWaitAnimationResourceIndex@CAknPopupForm@@QAEXH@Z @ 2984 NONAME ; void CAknPopupForm::SetWaitAnimationResourceIndex(int)
	?HandleTouchPaneSizeChange@CAknAppUi@@UAEXXZ @ 2985 NONAME ; void CAknAppUi::HandleTouchPaneSizeChange(void)
	?OpenFileL@CAknDocument@@UAEXAAPAVCFileStore@@AAVRFile@@@Z @ 2986 NONAME ; void CAknDocument::OpenFileL(class CFileStore * &, class RFile &)
	?ComponentControl@CAknMfneSettingPage@@MBEPAVCCoeControl@@H@Z @ 2987 NONAME ; class CCoeControl * CAknMfneSettingPage::ComponentControl(int) const
	?CountComponentControls@CAknMfneSettingPage@@MBEHXZ @ 2988 NONAME ; int CAknMfneSettingPage::CountComponentControls(void) const
	?SetIncallBubbleAllowedInIdle@CAknIndicatorContainer@@QAEXH@Z @ 2989 NONAME ; void CAknIndicatorContainer::SetIncallBubbleAllowedInIdle(int)
	?HandlePointerEventL@CAknIndicator@@UAEXABUTPointerEvent@@@Z @ 2990 NONAME ; void CAknIndicator::HandlePointerEventL(struct TPointerEvent const &)
	?SetIndicatorObserver@CAknIndicator@@QAEXPAVMAknIndicatorObserver@@@Z @ 2991 NONAME ; void CAknIndicator::SetIndicatorObserver(class MAknIndicatorObserver *)
	?SetIndicatorObserver@CAknIndicatorContainer@@QAEXPAVMAknIndicatorObserver@@VTUid@@@Z @ 2992 NONAME ; void CAknIndicatorContainer::SetIndicatorObserver(class MAknIndicatorObserver *, class TUid)
	?DefaultInputLanguageFromUILanguage@@YAHH@Z @ 2993 NONAME ; int DefaultInputLanguageFromUILanguage(int)
	?CreateLayoutFontFromSpecificationL@AknLayoutUtils@@SAPAVCAknLayoutFont@@ABVTAknFontSpecification@@@Z @ 2994 NONAME ; class CAknLayoutFont * AknLayoutUtils::CreateLayoutFontFromSpecificationL(class TAknFontSpecification const &)
	?CreateLayoutFontFromSpecificationL@AknLayoutUtils@@SAPAVCAknLayoutFont@@ABVTTypeface@@ABVTAknFontSpecification@@@Z @ 2995 NONAME ; class CAknLayoutFont * AknLayoutUtils::CreateLayoutFontFromSpecificationL(class TTypeface const &, class TAknFontSpecification const &)
	?FontSpecification@CAknLayoutFont@@QBE?AVTAknFontSpecification@@XZ @ 2996 NONAME ; class TAknFontSpecification CAknLayoutFont::FontSpecification(void) const
	?MaxAscent@CAknLayoutFont@@QBEHXZ @ 2997 NONAME ; int CAknLayoutFont::MaxAscent(void) const
	?MaxDescent@CAknLayoutFont@@QBEHXZ @ 2998 NONAME ; int CAknLayoutFont::MaxDescent(void) const
	?TextDecorationMetrics@CAknLayoutFont@@QBE?AVTAknTextDecorationMetrics@@XZ @ 2999 NONAME ; class TAknTextDecorationMetrics CAknLayoutFont::TextDecorationMetrics(void) const
	?LockNumericKeys@CAknCharMapDialog@@QAEXH@Z @ 3000 NONAME ; void CAknCharMapDialog::LockNumericKeys(int)
	?NaviControlLayoutMode@CAknNavigationDecorator@@QAE?AW4TAknNaviControlLayoutMode@1@XZ @ 3001 NONAME ; enum CAknNavigationDecorator::TAknNaviControlLayoutMode CAknNavigationDecorator::NaviControlLayoutMode(void)
	?NaviControlLayoutStyle@CAknNavigationDecorator@@QAE?AW4TAknNaviControlLayoutStyle@1@XZ @ 3002 NONAME ; enum CAknNavigationDecorator::TAknNaviControlLayoutStyle CAknNavigationDecorator::NaviControlLayoutStyle(void)
	?NaviControlLayoutStyleSupported@CAknNavigationDecorator@@QAEHW4TAknNaviControlLayoutStyle@1@@Z @ 3003 NONAME ; int CAknNavigationDecorator::NaviControlLayoutStyleSupported(enum CAknNavigationDecorator::TAknNaviControlLayoutStyle)
	?SetNaviControlLayoutMode@CAknNavigationDecorator@@QAEXW4TAknNaviControlLayoutMode@1@@Z @ 3004 NONAME ; void CAknNavigationDecorator::SetNaviControlLayoutMode(enum CAknNavigationDecorator::TAknNaviControlLayoutMode)
	?SetNaviControlLayoutStyle@CAknNavigationDecorator@@QAEXW4TAknNaviControlLayoutStyle@1@@Z @ 3005 NONAME ; void CAknNavigationDecorator::SetNaviControlLayoutStyle(enum CAknNavigationDecorator::TAknNaviControlLayoutStyle)
	?ShowEdgeIcon@CAknSignalPane@@QAEXH@Z @ 3006 NONAME ; void CAknSignalPane::ShowEdgeIcon(int)
	??1CAknTaskList@@UAE@XZ @ 3007 NONAME ; CAknTaskList::~CAknTaskList(void)
	?FindRootApp@CAknTaskList@@QBE?AVTApaTask@@VTUid@@@Z @ 3008 NONAME ; class TApaTask CAknTaskList::FindRootApp(class TUid) const
	?IsRootWindowGroup@CAknTaskList@@QBEHH@Z @ 3009 NONAME ; int CAknTaskList::IsRootWindowGroup(int) const
	?NewL@CAknTaskList@@SAPAV1@AAVRWsSession@@@Z @ 3010 NONAME ; class CAknTaskList * CAknTaskList::NewL(class RWsSession &)
	?NewLC@CAknTaskList@@SAPAV1@AAVRWsSession@@@Z @ 3011 NONAME ; class CAknTaskList * CAknTaskList::NewLC(class RWsSession &)
	?UpdateListL@CAknTaskList@@QAEXXZ @ 3012 NONAME ; void CAknTaskList::UpdateListL(void)
	?WgArray@CAknTaskList@@QBEABV?$RArray@UTWindowGroupChainInfo@RWsSession@@@@XZ @ 3013 NONAME ; class RArray<struct RWsSession::TWindowGroupChainInfo> const & CAknTaskList::WgArray(void) const
	?AddObserverL@CAknInfoPopupNoteController@@QAEXABVMAknInfoPopupNoteObserver@@@Z @ 3014 NONAME ; void CAknInfoPopupNoteController::AddObserverL(class MAknInfoPopupNoteObserver const &)
	?RemoveObserver@CAknInfoPopupNoteController@@QAEXABVMAknInfoPopupNoteObserver@@@Z @ 3015 NONAME ; void CAknInfoPopupNoteController::RemoveObserver(class MAknInfoPopupNoteObserver const &)
	?CreateLayoutFontFromSpecificationL@AknFontAccess@@SAPAVCAknLayoutFont@@AAVCBitmapDevice@@ABVTAknFontSpecification@@@Z @ 3016 NONAME ; class CAknLayoutFont * AknFontAccess::CreateLayoutFontFromSpecificationL(class CBitmapDevice &, class TAknFontSpecification const &)
	?CreateLayoutFontFromSpecificationL@AknFontAccess@@SAPAVCAknLayoutFont@@AAVCBitmapDevice@@ABVTTypeface@@ABVTAknFontSpecification@@@Z @ 3017 NONAME ; class CAknLayoutFont * AknFontAccess::CreateLayoutFontFromSpecificationL(class CBitmapDevice &, class TTypeface const &, class TAknFontSpecification const &)
	?GetClosestFont@AknFontAccess@@SAPAVCFbsFont@@AAVCBitmapDevice@@VTFontStyle@@HABVTDesC16@@@Z @ 3018 NONAME ; class CFbsFont * AknFontAccess::GetClosestFont(class CBitmapDevice &, class TFontStyle, int, class TDesC16 const &)
	?GetClosestFont@AknFontAccess@@SAPAVCFbsFont@@AAVCBitmapDevice@@VTFontStyle@@HW4TAknFontFamily@1@@Z @ 3019 NONAME ; class CFbsFont * AknFontAccess::GetClosestFont(class CBitmapDevice &, class TFontStyle, int, enum AknFontAccess::TAknFontFamily)
	?GetFont@AknFontAccess@@SAPAVCFbsFont@@AAVCBitmapDevice@@VTFontStyle@@HABVTDesC16@@@Z @ 3020 NONAME ; class CFbsFont * AknFontAccess::GetFont(class CBitmapDevice &, class TFontStyle, int, class TDesC16 const &)
	?GetFont@AknFontAccess@@SAPAVCFbsFont@@AAVCBitmapDevice@@VTFontStyle@@HW4TAknFontFamily@1@@Z @ 3021 NONAME ; class CFbsFont * AknFontAccess::GetFont(class CBitmapDevice &, class TFontStyle, int, enum AknFontAccess::TAknFontFamily)
	?SetIncallBubbleAllowedInUsual@CAknIndicatorContainer@@QAEXH@Z @ 3022 NONAME ; void CAknIndicatorContainer::SetIncallBubbleAllowedInUsual(int)
	?CustomBidiTextCursorId@AknCustomCursorSupport@@SAHW4TAknFontCategory@@VTRect@@H@Z @ 3023 NONAME ; int AknCustomCursorSupport::CustomBidiTextCursorId(enum TAknFontCategory, class TRect, int)
	?Font@CLafSystemFont@@QBEPAVCFont@@XZ @ 3024 NONAME ; class CFont * CLafSystemFont::Font(void) const
	?GetBidiTextCursorFromFontSpec@AknCustomCursorSupport@@SAHABVTFontSpec@@HAAUTTextCursor@@@Z @ 3025 NONAME ; int AknCustomCursorSupport::GetBidiTextCursorFromFontSpec(class TFontSpec const &, int, struct TTextCursor &)
	?NewL@CLafSystemFont@@SAPAV1@VTUid@@PAVCAknLayoutFont@@@Z @ 3026 NONAME ; class CLafSystemFont * CLafSystemFont::NewL(class TUid, class CAknLayoutFont *)
	?Uid@CLafSystemFont@@QBE?AVTUid@@XZ @ 3027 NONAME ; class TUid CLafSystemFont::Uid(void) const
	?CurrentPopupToolbar@CAknAppUi@@QBEPAVCAknToolbar@@XZ @ 3028 NONAME ; class CAknToolbar * CAknAppUi::CurrentPopupToolbar(void) const
	?FocusedView@CAknViewAppUi@@QBE?AVTUid@@XZ @ 3029 NONAME ; class TUid CAknViewAppUi::FocusedView(void) const
	?PopupToolbar@CAknAppUi@@QBEPAVCAknToolbar@@XZ @ 3030 NONAME ; class CAknToolbar * CAknAppUi::PopupToolbar(void) const
	?ProcessCommandL@CAknMessageQueryDialog@@UAEXH@Z @ 3031 NONAME ; void CAknMessageQueryDialog::ProcessCommandL(int)
	?RemoveSplitViewL@CAknViewAppUi@@QAEXVTUid@@@Z @ 3032 NONAME ; void CAknViewAppUi::RemoveSplitViewL(class TUid)
	?SetSplitViewL@CAknViewAppUi@@QAEXVTUid@@0H@Z @ 3033 NONAME ; void CAknViewAppUi::SetSplitViewL(class TUid, class TUid, int)
	?SplitViewActive@CAknEnv@@QBEHXZ @ 3034 NONAME ; int CAknEnv::SplitViewActive(void) const
	?SplitViewActive@CAknViewAppUi@@QBEHXZ @ 3035 NONAME ; int CAknViewAppUi::SplitViewActive(void) const
	?StopDisplayingPopupToolbar@CAknAppUi@@QAEXXZ @ 3036 NONAME ; void CAknAppUi::StopDisplayingPopupToolbar(void)
	?StopDisplayingToolbar@CAknView@@QAEXXZ @ 3037 NONAME ; void CAknView::StopDisplayingToolbar(void)
	?Toolbar@CAknView@@QBEPAVCAknToolbar@@XZ @ 3038 NONAME ; class CAknToolbar * CAknView::Toolbar(void) const
	?TouchPane@CAknAppUi@@QAEPAVCAknTouchPane@@XZ @ 3039 NONAME ; class CAknTouchPane * CAknAppUi::TouchPane(void)
	?ViewShown@CAknViewAppUi@@QBEHVTUid@@@Z @ 3040 NONAME ; int CAknViewAppUi::ViewShown(class TUid) const
	?CheckNumber@CAknIntegerEdwin@@QAEHXZ @ 3041 NONAME ; int CAknIntegerEdwin::CheckNumber(void)
	?CheckNumber@CAknQueryControl@@QAEHXZ @ 3042 NONAME ; int CAknQueryControl::CheckNumber(void)
	?CurrentStatuspaneResource@CAknSgcClient@@SAHXZ @ 3043 NONAME ; int CAknSgcClient::CurrentStatuspaneResource(void)
	?GetCurrentGlobalUiZoom@CAknEnv@@QBEXAAW4TAknUiZoom@@@Z @ 3044 NONAME ; void CAknEnv::GetCurrentGlobalUiZoom(enum TAknUiZoom &) const
	?GlobalUiZoom@CAknSettingCache@@QAE?AW4TAknUiZoom@@XZ @ 3045 NONAME ; enum TAknUiZoom CAknSettingCache::GlobalUiZoom(void)
	?LocalUiZoom@CAknAppUiBase@@QBE?AW4TAknUiZoom@@XZ @ 3046 NONAME ; enum TAknUiZoom CAknAppUiBase::LocalUiZoom(void) const
	?SetLocalUiZoom@CAknAppUiBase@@QAEXW4TAknUiZoom@@@Z @ 3047 NONAME ; void CAknAppUiBase::SetLocalUiZoom(enum TAknUiZoom)
	?HandleResourceChange@CAknVolumeControl@@UAEXH@Z @ 3048 NONAME ; void CAknVolumeControl::HandleResourceChange(int)
	?StaconPaneActive@AknStatuspaneUtils@@SAHXZ @ 3049 NONAME ; int AknStatuspaneUtils::StaconPaneActive(void)
	?StaconSoftKeysLeft@AknStatuspaneUtils@@SAHXZ @ 3050 NONAME ; int AknStatuspaneUtils::StaconSoftKeysLeft(void)
	?StaconSoftKeysRight@AknStatuspaneUtils@@SAHXZ @ 3051 NONAME ; int AknStatuspaneUtils::StaconSoftKeysRight(void)
	?SetSkinFrameCenterId@CAknPopupHeadingPane@@QAEXABVTAknsItemID@@@Z @ 3052 NONAME ; void CAknPopupHeadingPane::SetSkinFrameCenterId(class TAknsItemID const &)
	?SetSkinFrameId@CAknPopupHeadingPane@@QAEXABVTAknsItemID@@@Z @ 3053 NONAME ; void CAknPopupHeadingPane::SetSkinFrameId(class TAknsItemID const &)
	?FocusChanged@CAknPopupField@@MAEXW4TDrawNow@@@Z @ 3054 NONAME ; void CAknPopupField::FocusChanged(enum TDrawNow)
	?AboutToDrawHighlightAnim@CFormattedCellListBoxData@@QBEXXZ @ 3055 NONAME ; void CFormattedCellListBoxData::AboutToDrawHighlightAnim(void) const
	?ConstructLD@CFormattedCellListBoxData@@IAEXABVTAknsItemID@@@Z @ 3056 NONAME ; void CFormattedCellListBoxData::ConstructLD(class TAknsItemID const &)
	?HighlightAnim@CFormattedCellListBoxData@@QBEPBVCAknsEffectAnim@@XZ @ 3057 NONAME ; class CAknsEffectAnim const * CFormattedCellListBoxData::HighlightAnim(void) const
	?SetHighlightAnimBackgroundDrawer@CFormattedCellListBoxData@@QAEXPAVMListBoxAnimBackgroundDrawer@@@Z @ 3058 NONAME ; void CFormattedCellListBoxData::SetHighlightAnimBackgroundDrawer(class MListBoxAnimBackgroundDrawer *)
	?IdleLayoutActive@AknStatuspaneUtils@@SAHXZ @ 3059 NONAME ; int AknStatuspaneUtils::IdleLayoutActive(void)
	?SetSmallPicture@CAknTitlePane@@QAEXPBVCFbsBitmap@@0H@Z @ 3060 NONAME ; void CAknTitlePane::SetSmallPicture(class CFbsBitmap const *, class CFbsBitmap const *, int)
	?RestoreDefaultPosition@CAknInfoPopupNoteController@@QAEXXZ @ 3061 NONAME ; void CAknInfoPopupNoteController::RestoreDefaultPosition(void)
	?SetPositionAndAlignment@CAknInfoPopupNoteController@@QAEXABVTPoint@@ABW4TGulAlignmentValue@@@Z @ 3062 NONAME ; void CAknInfoPopupNoteController::SetPositionAndAlignment(class TPoint const &, enum TGulAlignmentValue const &)
	?SetTooltipModeL@CAknInfoPopupNoteController@@QAEXH@Z @ 3063 NONAME ; void CAknInfoPopupNoteController::SetTooltipModeL(int)
	?ExitSleepingDialog@CAknNoteDialog@@QAEXXZ @ 3064 NONAME ; void CAknNoteDialog::ExitSleepingDialog(void)
	?RemoveFilter@CAknFilteredTextListBoxModel@@QAEXXZ @ 3065 NONAME ; void CAknFilteredTextListBoxModel::RemoveFilter(void)
	??0CAknDoubleGraphicPopupMenuStyleListBox@@QAE@XZ @ 3066 NONAME ; CAknDoubleGraphicPopupMenuStyleListBox::CAknDoubleGraphicPopupMenuStyleListBox(void)
	??0CAknSingle2GraphicPopupMenuStyleListBox@@QAE@XZ @ 3067 NONAME ; CAknSingle2GraphicPopupMenuStyleListBox::CAknSingle2GraphicPopupMenuStyleListBox(void)
	?CreateItemDrawerL@CAknDoubleGraphicPopupMenuStyleListBox@@MAEXXZ @ 3068 NONAME ; void CAknDoubleGraphicPopupMenuStyleListBox::CreateItemDrawerL(void)
	?CreateItemDrawerL@CAknSingle2GraphicPopupMenuStyleListBox@@MAEXXZ @ 3069 NONAME ; void CAknSingle2GraphicPopupMenuStyleListBox::CreateItemDrawerL(void)
	?HandlePointerEventL@CAknDoubleGraphicPopupMenuStyleListBox@@MAEXABUTPointerEvent@@@Z @ 3070 NONAME ; void CAknDoubleGraphicPopupMenuStyleListBox::HandlePointerEventL(struct TPointerEvent const &)
	?HandlePointerEventL@CAknSingle2GraphicPopupMenuStyleListBox@@MAEXABUTPointerEvent@@@Z @ 3071 NONAME ; void CAknSingle2GraphicPopupMenuStyleListBox::HandlePointerEventL(struct TPointerEvent const &)
	?MinimumSize@CAknDoubleGraphicPopupMenuStyleListBox@@UAE?AVTSize@@XZ @ 3072 NONAME ; class TSize CAknDoubleGraphicPopupMenuStyleListBox::MinimumSize(void)
	?MinimumSize@CAknSingle2GraphicPopupMenuStyleListBox@@UAE?AVTSize@@XZ @ 3073 NONAME ; class TSize CAknSingle2GraphicPopupMenuStyleListBox::MinimumSize(void)
	?SizeChanged@CAknDoubleGraphicPopupMenuStyleListBox@@UAEXXZ @ 3074 NONAME ; void CAknDoubleGraphicPopupMenuStyleListBox::SizeChanged(void)
	?SizeChanged@CAknSingle2GraphicPopupMenuStyleListBox@@UAEXXZ @ 3075 NONAME ; void CAknSingle2GraphicPopupMenuStyleListBox::SizeChanged(void)
	?CbaLocation@AknLayoutUtils@@SA?AW4TAknCbaLocation@1@XZ @ 3076 NONAME ; enum AknLayoutUtils::TAknCbaLocation AknLayoutUtils::CbaLocation(void)
	?FlatLayoutActive@AknStatuspaneUtils@@SAHXZ @ 3077 NONAME ; int AknStatuspaneUtils::FlatLayoutActive(void)
	?SetText@CAknTitlePane@@QAEXPAVHBufC16@@H@Z @ 3078 NONAME ; void CAknTitlePane::SetText(class HBufC16 *, int)
	?SetTextL@CAknTitlePane@@QAEXABVTDesC16@@H@Z @ 3079 NONAME ; void CAknTitlePane::SetTextL(class TDesC16 const &, int)
	?SmallLayoutActive@AknStatuspaneUtils@@SAHXZ @ 3080 NONAME ; int AknStatuspaneUtils::SmallLayoutActive(void)
	?UsualLayoutActive@AknStatuspaneUtils@@SAHXZ @ 3081 NONAME ; int AknStatuspaneUtils::UsualLayoutActive(void)
	?LayoutContentChangedL@AknLayoutTree@@SAXABUTLafTable@@HPAVCAknLayoutData@@@Z @ 3082 NONAME ABSENT ; void AknLayoutTree::LayoutContentChangedL(struct TLafTable const &, int, class CAknLayoutData *)
	?AddObserverL@CAknPreviewPopUpController@@QAEXABVMAknPreviewPopUpObserver@@@Z @ 3083 NONAME ; void CAknPreviewPopUpController::AddObserverL(class MAknPreviewPopUpObserver const &)
	?ContentReady@CAknPreviewPopUpController@@QAEXXZ @ 3084 NONAME ; void CAknPreviewPopUpController::ContentReady(void)
	?HidePopUp@CAknPreviewPopUpController@@QAEXXZ @ 3085 NONAME ; void CAknPreviewPopUpController::HidePopUp(void)
	?NewL@CAknPreviewPopUpController@@SAPAV1@AAVCCoeControl@@@Z @ 3086 NONAME ; class CAknPreviewPopUpController * CAknPreviewPopUpController::NewL(class CCoeControl &)
	?NewL@CAknPreviewPopUpController@@SAPAV1@AAVCCoeControl@@AAVMAknPreviewPopUpContentProvider@@@Z @ 3087 NONAME ; class CAknPreviewPopUpController * CAknPreviewPopUpController::NewL(class CCoeControl &, class MAknPreviewPopUpContentProvider &)
	?RemoveObserver@CAknPreviewPopUpController@@QAEXABVMAknPreviewPopUpObserver@@@Z @ 3088 NONAME ; void CAknPreviewPopUpController::RemoveObserver(class MAknPreviewPopUpObserver const &)
	?SetPopUpHideDelay@CAknPreviewPopUpController@@QAEXABVTTimeIntervalMicroSeconds32@@@Z @ 3089 NONAME ; void CAknPreviewPopUpController::SetPopUpHideDelay(class TTimeIntervalMicroSeconds32 const &)
	?SetPopUpShowDelay@CAknPreviewPopUpController@@QAEXABVTTimeIntervalMicroSeconds32@@@Z @ 3090 NONAME ; void CAknPreviewPopUpController::SetPopUpShowDelay(class TTimeIntervalMicroSeconds32 const &)
	?SetPosition@CAknPreviewPopUpController@@QAEXABVTPoint@@@Z @ 3091 NONAME ; void CAknPreviewPopUpController::SetPosition(class TPoint const &)
	?SetPositionByHighlight@CAknPreviewPopUpController@@QAEXABVTRect@@@Z @ 3092 NONAME ; void CAknPreviewPopUpController::SetPositionByHighlight(class TRect const &)
	?ShowPopUp@CAknPreviewPopUpController@@QAEXXZ @ 3093 NONAME ; void CAknPreviewPopUpController::ShowPopUp(void)
	?HandleResourceChange@CAknMultiLineDataQueryDialog@@MAEXH@Z @ 3094 NONAME ; void CAknMultiLineDataQueryDialog::HandleResourceChange(int)
	?HandleResourceChange@CAknPopupForm@@UAEXH@Z @ 3095 NONAME ; void CAknPopupForm::HandleResourceChange(int)
	?SetPositionByHighlight@CAknInfoPopupNoteController@@QAEXABVTRect@@@Z @ 3096 NONAME ; void CAknInfoPopupNoteController::SetPositionByHighlight(class TRect const &)
	?SetDrawBackground@CFormattedCellListBoxData@@QAEXH@Z @ 3097 NONAME ; void CFormattedCellListBoxData::SetDrawBackground(int)
	??1CAknIndicatorPlugin@@UAE@XZ @ 3098 NONAME ; CAknIndicatorPlugin::~CAknIndicatorPlugin(void)
	?NewL@CAknIndicatorPlugin@@SAPAV1@ABVTUid@@@Z @ 3099 NONAME ; class CAknIndicatorPlugin * CAknIndicatorPlugin::NewL(class TUid const &)
	?ConstructMenuSctRowL@CAknCharMap@@QAEXXZ @ 3100 NONAME ; void CAknCharMap::ConstructMenuSctRowL(void)
	?SetMenuSctRect@CAknCharMap@@QAEXABVTRect@@@Z @ 3101 NONAME ; void CAknCharMap::SetMenuSctRect(class TRect const &)
	?At@THardwareStateArray@CAknLayoutConfig@@QBE?AVTHardwareState@2@H@Z @ 3102 NONAME ; class CAknLayoutConfig::THardwareState CAknLayoutConfig::THardwareStateArray::At(int) const
	?Count@THardwareStateArray@CAknLayoutConfig@@QBEHXZ @ 3103 NONAME ; int CAknLayoutConfig::THardwareStateArray::Count(void) const
	?HardwareStates@CAknLayoutConfig@@QBE?AVTHardwareStateArray@1@XZ @ 3104 NONAME ; class CAknLayoutConfig::THardwareStateArray CAknLayoutConfig::HardwareStates(void) const
	?KeyCode@THardwareState@CAknLayoutConfig@@QBEHXZ @ 3105 NONAME ; int CAknLayoutConfig::THardwareState::KeyCode(void) const
	?LayoutConfig@CAknSgcClient@@SAAAVCAknLayoutConfig@@XZ @ 3106 NONAME ; class CAknLayoutConfig & CAknSgcClient::LayoutConfig(void)
	?StateNumber@THardwareState@CAknLayoutConfig@@QBEHXZ @ 3107 NONAME ; int CAknLayoutConfig::THardwareState::StateNumber(void) const
	?ScreenMode@THardwareState@CAknLayoutConfig@@QBEHXZ @ 3108 NONAME ; int CAknLayoutConfig::THardwareState::ScreenMode(void) const
	?LayoutConfigBuf@CAknSgcClient@@SAABVTDesC8@@XZ @ 3109 NONAME ; class TDesC8 const & CAknSgcClient::LayoutConfigBuf(void)
	?AlternateScreenMode@THardwareState@CAknLayoutConfig@@QBEHXZ @ 3110 NONAME ; int CAknLayoutConfig::THardwareState::AlternateScreenMode(void) const
	?At@TScreenModeArray@CAknLayoutConfig@@QBE?AVTScreenMode@2@H@Z @ 3111 NONAME ; class CAknLayoutConfig::TScreenMode CAknLayoutConfig::TScreenModeArray::At(int) const
	?Count@TAknScreenModes@@QBEHXZ @ 3112 NONAME ; int TAknScreenModes::Count(void) const
	?Find@THardwareStateArray@CAknLayoutConfig@@QBE?AVTHardwareState@2@H@Z @ 3113 NONAME ; class CAknLayoutConfig::THardwareState CAknLayoutConfig::THardwareStateArray::Find(int) const
	?Find@TScreenModeArray@CAknLayoutConfig@@QBE?AVTScreenMode@2@H@Z @ 3114 NONAME ; class CAknLayoutConfig::TScreenMode CAknLayoutConfig::TScreenModeArray::Find(int) const
	?ModeNumber@TAknScreenMode@@QBEHXZ @ 3115 NONAME ; int TAknScreenMode::ModeNumber(void) const
	?PixelsTwipsAndRotation@TScreenMode@CAknLayoutConfig@@QBEABUTPixelsTwipsAndRotation@@XZ @ 3116 NONAME ; struct TPixelsTwipsAndRotation const & CAknLayoutConfig::TScreenMode::PixelsTwipsAndRotation(void) const
	?ScreenModes@CAknLayoutConfig@@QBE?AVTScreenModeArray@1@XZ @ 3117 NONAME ; class CAknLayoutConfig::TScreenModeArray CAknLayoutConfig::ScreenModes(void) const
	?SoftkeyLocation@TScreenMode@CAknLayoutConfig@@QBE?AW4TAknPrivSoftkeyLocation@@XZ @ 3118 NONAME ; enum TAknPrivSoftkeyLocation CAknLayoutConfig::TScreenMode::SoftkeyLocation(void) const
	?SetSubcellUnderlined@CFormattedCellListBoxData@@QAEXV?$TBitFlagsT@K@@@Z @ 3119 NONAME ; void CFormattedCellListBoxData::SetSubcellUnderlined(class TBitFlagsT<unsigned long>)
	?HandleResourceChange@CAknListQueryDialog@@UAEXH@Z @ 3120 NONAME ; void CAknListQueryDialog::HandleResourceChange(int)
	?Size@CAknPreviewPopUpController@@QBE?AVTSize@@XZ @ 3121 NONAME ; class TSize CAknPreviewPopUpController::Size(void) const
	?UpdateContentSize@CAknPreviewPopUpController@@QAEXXZ @ 3122 NONAME ; void CAknPreviewPopUpController::UpdateContentSize(void)
	?TouchPaneCompatibleLayoutActive@AknStatuspaneUtils@@SAHXZ @ 3123 NONAME ; int AknStatuspaneUtils::TouchPaneCompatibleLayoutActive(void)
	??1CAknLongTapDetector@@UAE@XZ @ 3124 NONAME ; CAknLongTapDetector::~CAknLongTapDetector(void)
	?EnableLongTapAnimation@CAknLongTapDetector@@QAEXH@Z @ 3125 NONAME ; void CAknLongTapDetector::EnableLongTapAnimation(int)
	?NewL@CAknLongTapDetector@@SAPAV1@PAVMAknLongTapDetectorCallBack@@@Z @ 3126 NONAME ; class CAknLongTapDetector * CAknLongTapDetector::NewL(class MAknLongTapDetectorCallBack *)
	?NewLC@CAknLongTapDetector@@SAPAV1@PAVMAknLongTapDetectorCallBack@@@Z @ 3127 NONAME ; class CAknLongTapDetector * CAknLongTapDetector::NewLC(class MAknLongTapDetectorCallBack *)
	?PointerEventL@CAknLongTapDetector@@QAEXABUTPointerEvent@@@Z @ 3128 NONAME ; void CAknLongTapDetector::PointerEventL(struct TPointerEvent const &)
	?SetLongTapDelay@CAknLongTapDetector@@QAEXH@Z @ 3129 NONAME ; void CAknLongTapDetector::SetLongTapDelay(int)
	?SetTimeDelayBeforeAnimation@CAknLongTapDetector@@QAEXH@Z @ 3130 NONAME ; void CAknLongTapDetector::SetTimeDelayBeforeAnimation(int)
	?DrawText@CAknMarqueeControl@@QAEHAAVCWindowGc@@ABVTRect@@ABVTAknTextComponentLayout@@ABVTDesC16@@PBVCFont@@@Z @ 3131 NONAME ; int CAknMarqueeControl::DrawText(class CWindowGc &, class TRect const &, class TAknTextComponentLayout const &, class TDesC16 const &, class CFont const *)
	?AddItemL@CAknChoiceList@@QAEHPBVTDesC16@@@Z @ 3132 NONAME ; int CAknChoiceList::AddItemL(class TDesC16 const *)
	?ComponentControl@CAknChoiceList@@UBEPAVCCoeControl@@H@Z @ 3133 NONAME ; class CCoeControl * CAknChoiceList::ComponentControl(int) const
	?CountComponentControls@CAknChoiceList@@UBEHXZ @ 3134 NONAME ; int CAknChoiceList::CountComponentControls(void) const
	?Draw@CAknChoiceList@@UBEXABVTRect@@@Z @ 3135 NONAME ; void CAknChoiceList::Draw(class TRect const &) const
	?Flags@CAknChoiceList@@QBEHXZ @ 3136 NONAME ; int CAknChoiceList::Flags(void) const
	?HandleControlEventL@CAknChoiceList@@UAEXPAVCCoeControl@@W4TCoeEvent@MCoeControlObserver@@@Z @ 3137 NONAME ; void CAknChoiceList::HandleControlEventL(class CCoeControl *, enum MCoeControlObserver::TCoeEvent)
	?HandleResourceChange@CAknChoiceList@@UAEXH@Z @ 3138 NONAME ; void CAknChoiceList::HandleResourceChange(int)
	?MinimumSize@CAknChoiceList@@UAE?AVTSize@@XZ @ 3139 NONAME ; class TSize CAknChoiceList::MinimumSize(void)
	?NewL@CAknChoiceList@@SAPAV1@PAVCCoeControl@@PAVCDesC16Array@@HPAVCAknButton@@@Z @ 3140 NONAME ; class CAknChoiceList * CAknChoiceList::NewL(class CCoeControl *, class CDesC16Array *, int, class CAknButton *)
	?NewLC@CAknChoiceList@@SAPAV1@PAVCCoeControl@@PAVCDesC16Array@@HPAVCAknButton@@@Z @ 3141 NONAME ; class CAknChoiceList * CAknChoiceList::NewLC(class CCoeControl *, class CDesC16Array *, int, class CAknButton *)
	?OfferKeyEventL@CAknChoiceList@@UAE?AW4TKeyResponse@@ABUTKeyEvent@@W4TEventCode@@@Z @ 3142 NONAME ; enum TKeyResponse CAknChoiceList::OfferKeyEventL(struct TKeyEvent const &, enum TEventCode)
	?RemoveItem@CAknChoiceList@@QAEXH@Z @ 3143 NONAME ; void CAknChoiceList::RemoveItem(int)
	?SelectedIndex@CAknChoiceList@@QBEHXZ @ 3144 NONAME ; int CAknChoiceList::SelectedIndex(void) const
	?SetButtonL@CAknChoiceList@@QAEXPAVCAknButton@@@Z @ 3145 NONAME ; void CAknChoiceList::SetButtonL(class CAknButton *)
	?SetFlags@CAknChoiceList@@QAEXH@Z @ 3146 NONAME ; void CAknChoiceList::SetFlags(int)
	?SetItems@CAknChoiceList@@QAEXPAVCDesC16Array@@@Z @ 3147 NONAME ; void CAknChoiceList::SetItems(class CDesC16Array *)
	?SetItemsL@CAknChoiceList@@QAEXH@Z @ 3148 NONAME ; void CAknChoiceList::SetItemsL(int)
	?SetSelectedIndex@CAknChoiceList@@QAEXH@Z @ 3149 NONAME ; void CAknChoiceList::SetSelectedIndex(int)
	?ShowChoiceListL@CAknChoiceList@@QAEHXZ @ 3150 NONAME ; int CAknChoiceList::ShowChoiceListL(void)
	?ComponentControl@CAknStylusActivatedPopUpContent@@EBEPAVCCoeControl@@H@Z @ 3151 NONAME ; class CCoeControl * CAknStylusActivatedPopUpContent::ComponentControl(int) const
	?ConstructFromResourceL@CAknStylusActivatedPopUpContent@@QAEXH@Z @ 3152 NONAME ; void CAknStylusActivatedPopUpContent::ConstructFromResourceL(int)
	?ConstructFromResourceL@CAknStylusActivatedPopUpContent@@UAEXAAVTResourceReader@@@Z @ 3153 NONAME ; void CAknStylusActivatedPopUpContent::ConstructFromResourceL(class TResourceReader &)
	?CountComponentControls@CAknStylusActivatedPopUpContent@@EBEHXZ @ 3154 NONAME ; int CAknStylusActivatedPopUpContent::CountComponentControls(void) const
	?Draw@CAknStylusActivatedPopUpContent@@EBEXABVTRect@@@Z @ 3155 NONAME ; void CAknStylusActivatedPopUpContent::Draw(class TRect const &) const
	?HandleControlEventL@CAknStylusActivatedPopUpContent@@UAEXPAVCCoeControl@@W4TCoeEvent@MCoeControlObserver@@@Z @ 3156 NONAME ; void CAknStylusActivatedPopUpContent::HandleControlEventL(class CCoeControl *, enum MCoeControlObserver::TCoeEvent)
	?HandleResourceChange@CAknStylusActivatedPopUpContent@@UAEXH@Z @ 3157 NONAME ; void CAknStylusActivatedPopUpContent::HandleResourceChange(int)
	?MinimumSize@CAknStylusActivatedPopUpContent@@EAE?AVTSize@@XZ @ 3158 NONAME ; class TSize CAknStylusActivatedPopUpContent::MinimumSize(void)
	?NewL@CAknStylusActivatedPopUpContent@@SAPAV1@AAVTResourceReader@@@Z @ 3159 NONAME ; class CAknStylusActivatedPopUpContent * CAknStylusActivatedPopUpContent::NewL(class TResourceReader &)
	?NewL@CAknStylusActivatedPopUpContent@@SAPAV1@ABVTDesC16@@0@Z @ 3160 NONAME ; class CAknStylusActivatedPopUpContent * CAknStylusActivatedPopUpContent::NewL(class TDesC16 const &, class TDesC16 const &)
	?NewL@CAknStylusActivatedPopUpContent@@SAPAV1@ABVTDesC16@@0ABV?$RArray@UTAknContentLink@@@@@Z @ 3161 NONAME ; class CAknStylusActivatedPopUpContent * CAknStylusActivatedPopUpContent::NewL(class TDesC16 const &, class TDesC16 const &, class RArray<struct TAknContentLink> const &)
	?NewL@CAknStylusActivatedPopUpContent@@SAPAV1@H@Z @ 3162 NONAME ; class CAknStylusActivatedPopUpContent * CAknStylusActivatedPopUpContent::NewL(int)
	?SetCommandObserver@CAknStylusActivatedPopUpContent@@QAEXAAVMEikCommandObserver@@@Z @ 3163 NONAME ; void CAknStylusActivatedPopUpContent::SetCommandObserver(class MEikCommandObserver &)
	?SetContainerWindowL@CAknStylusActivatedPopUpContent@@UAEXABVCCoeControl@@@Z @ 3164 NONAME ; void CAknStylusActivatedPopUpContent::SetContainerWindowL(class CCoeControl const &)
	?SizeChanged@CAknStylusActivatedPopUpContent@@EAEXXZ @ 3165 NONAME ; void CAknStylusActivatedPopUpContent::SizeChanged(void)
	?EnableStretching@CEikFormattedCellListBox@@QAEXH@Z @ 3166 NONAME ; void CEikFormattedCellListBox::EnableStretching(int)
	?HideSecondRow@CEikFormattedCellListBox@@QAEXH@Z @ 3167 NONAME ; void CEikFormattedCellListBox::HideSecondRow(int)
	?CalculateScreenMode@CAknSgcClient@@SA?AVTScreenMode@CAknLayoutConfig@@HHH@Z @ 3168 NONAME ; class CAknLayoutConfig::TScreenMode CAknSgcClient::CalculateScreenMode(int, int, int)
	?ScreenMode@CAknSgcClient@@SA?AVTScreenMode@CAknLayoutConfig@@XZ @ 3169 NONAME ; class CAknLayoutConfig::TScreenMode CAknSgcClient::ScreenMode(void)
	?ScreenStyleHash@TScreenMode@CAknLayoutConfig@@QBEHXZ @ 3170 NONAME ; int CAknLayoutConfig::TScreenMode::ScreenStyleHash(void) const
	?SetScaleModeForAnimationBackgroundFrame@CAknBitmapAnimation@@QAEXW4TScaleMode@@@Z @ 3171 NONAME ; void CAknBitmapAnimation::SetScaleModeForAnimationBackgroundFrame(enum TScaleMode)
	?SetScaleModeForAnimationFrames@CAknBitmapAnimation@@QAEXW4TScaleMode@@@Z @ 3172 NONAME ; void CAknBitmapAnimation::SetScaleModeForAnimationFrames(enum TScaleMode)
	?NewL@CAknPreviewPopUpController@@SAPAV1@AAVCCoeControl@@AAVMAknPreviewPopUpContentProvider@@H@Z @ 3173 NONAME ; class CAknPreviewPopUpController * CAknPreviewPopUpController::NewL(class CCoeControl &, class MAknPreviewPopUpContentProvider &, int)
	?NewL@CAknPreviewPopUpController@@SAPAV1@AAVCCoeControl@@H@Z @ 3174 NONAME ; class CAknPreviewPopUpController * CAknPreviewPopUpController::NewL(class CCoeControl &, int)
	?HandleResourceChange@CAknNavigationDecorator@@UAEXH@Z @ 3175 NONAME ; void CAknNavigationDecorator::HandleResourceChange(int)
	?MainPaneState@AknLayoutUtils@@SA?AW4TAknMainPaneState@1@XZ @ 3176 NONAME ; enum AknLayoutUtils::TAknMainPaneState AknLayoutUtils::MainPaneState(void)
	?MaxNumberOfVisibleTextRows@CAknTitlePane@@QBEHXZ @ 3177 NONAME ; int CAknTitlePane::MaxNumberOfVisibleTextRows(void) const
	?LoadAknLayoutL@CAknEnv@@QAEHABVTAknLayoutConfigScreenMode@@@Z @ 3178 NONAME ; int CAknEnv::LoadAknLayoutL(class TAknLayoutConfigScreenMode const &)
	?PublishDialogL@CAknListQueryDialog@@QAEXHVTUid@@PAV?$CArrayFixFlat@H@@@Z @ 3179 NONAME ; void CAknListQueryDialog::PublishDialogL(int, class TUid, class CArrayFixFlat<int> *)
	?SetMediatorObserver@CAknListQueryDialog@@QAEXPAVMAknDialogMediatorObserver@@@Z @ 3180 NONAME ; void CAknListQueryDialog::SetMediatorObserver(class MAknDialogMediatorObserver *)
	?CreateIndicatorFromResourceL@CAknIndicatorContainer@@QAE?AVTUid@@HH@Z @ 3181 NONAME ; class TUid CAknIndicatorContainer::CreateIndicatorFromResourceL(int, int)
	?SetNumberOfVisibleTextRows@CAknTitlePane@@QAEXH@Z @ 3182 NONAME ; void CAknTitlePane::SetNumberOfVisibleTextRows(int)
	?ReplaceIndicatorIconL@CAknIndicatorContainer@@QAEXVTUid@@HHPAVCFbsBitmap@@1H@Z @ 3183 NONAME ; void CAknIndicatorContainer::ReplaceIndicatorIconL(class TUid, int, int, class CFbsBitmap *, class CFbsBitmap *, int)
	?PenEnabled@AknLayoutUtils@@SAHXZ @ 3184 NONAME ; int AknLayoutUtils::PenEnabled(void)
	?HandleResourceChange@CAknCheckBoxSettingPage@@UAEXH@Z @ 3185 NONAME ; void CAknCheckBoxSettingPage::HandleResourceChange(int)
	?HandleResourceChange@CAknRadioButtonSettingPage@@UAEXH@Z @ 3186 NONAME ; void CAknRadioButtonSettingPage::HandleResourceChange(int)
	?HandleResourceChange@CAknPopupSettingList@@UAEXH@Z @ 3187 NONAME ; void CAknPopupSettingList::HandleResourceChange(int)
	?HandleResourceChange@CAknTransparentCameraSettingPage@@UAEXH@Z @ 3188 NONAME ; void CAknTransparentCameraSettingPage::HandleResourceChange(int)
	?ContentSizeInLayout@CAknPreviewPopUpController@@SA?AW4TAknPreviewPopUpContentSize@1@XZ @ 3189 NONAME ; enum CAknPreviewPopUpController::TAknPreviewPopUpContentSize CAknPreviewPopUpController::ContentSizeInLayout(void)
	?UseLogicalToVisualConversion@CAknMarqueeControl@@QAEXH@Z @ 3190 NONAME ; void CAknMarqueeControl::UseLogicalToVisualConversion(int)
	?DrawHighlightAnim@CFormattedCellListBoxData@@QBEHAAVCBitmapContext@@ABVTRect@@@Z @ 3191 NONAME ; int CFormattedCellListBoxData::DrawHighlightAnim(class CBitmapContext &, class TRect const &) const
	?HasHighlightAnim@CFormattedCellListBoxData@@QBEHXZ @ 3192 NONAME ; int CFormattedCellListBoxData::HasHighlightAnim(void) const
	?HandleResourceChange@CAknPopupHeadingPane@@UAEXH@Z @ 3193 NONAME ; void CAknPopupHeadingPane::HandleResourceChange(int)
	?ConvertUtcTimeToHomeTime@AknDateTimeUtils@@YAXAAVTTime@@@Z @ 3194 NONAME ; void AknDateTimeUtils::ConvertUtcTimeToHomeTime(class TTime &)
	?Top@CAknNavigationControlContainer@@QBEPAVCAknNavigationDecorator@@H@Z @ 3195 NONAME ; class CAknNavigationDecorator * CAknNavigationControlContainer::Top(int) const
	?PreferredOrientation@CAknSettingCache@@QAEHXZ @ 3196 NONAME ; int CAknSettingCache::PreferredOrientation(void)
	?DisplayLanguageTagL@AknLangUtils@@YAPAVHBufC16@@XZ @ 3197 NONAME ; class HBufC16 * AknLangUtils::DisplayLanguageTagL(void)
	??1CAknInputBlock@@UAE@XZ @ 3198 NONAME ; CAknInputBlock::~CAknInputBlock(void)
	?Cancel@CAknInputBlock@@QAEXXZ @ 3199 NONAME ; void CAknInputBlock::Cancel(void)
	?NewCancelActiveLC@CAknInputBlock@@SAPAV1@PAVCActive@@@Z @ 3200 NONAME ; class CAknInputBlock * CAknInputBlock::NewCancelActiveLC(class CActive *)
	?NewCancelDeleteLC@CAknInputBlock@@SAPAV1@PAVCBase@@@Z @ 3201 NONAME ; class CAknInputBlock * CAknInputBlock::NewCancelDeleteLC(class CBase *)
	?NewCancelHandlerLC@CAknInputBlock@@SAPAV1@PAVMAknInputBlockCancelHandler@@@Z @ 3202 NONAME ; class CAknInputBlock * CAknInputBlock::NewCancelHandlerLC(class MAknInputBlockCancelHandler *)
	?NewLC@CAknInputBlock@@SAPAV1@XZ @ 3203 NONAME ; class CAknInputBlock * CAknInputBlock::NewLC(void)
	?SetCancelActive@CAknInputBlock@@QAEXPAVCActive@@@Z @ 3204 NONAME ; void CAknInputBlock::SetCancelActive(class CActive *)
	?SetCancelDelete@CAknInputBlock@@QAEXPAVCBase@@@Z @ 3205 NONAME ; void CAknInputBlock::SetCancelDelete(class CBase *)
	?SetCancelHandler@CAknInputBlock@@QAEXPAVMAknInputBlockCancelHandler@@@Z @ 3206 NONAME ; void CAknInputBlock::SetCancelHandler(class MAknInputBlockCancelHandler *)
	?SetPreferredNaviDecoratorLayoutStyle@CAknNavigationControlContainer@@QAEXH@Z @ 3207 NONAME ; void CAknNavigationControlContainer::SetPreferredNaviDecoratorLayoutStyle(int)
	?ExcludeAnimationFramesFromCache@CAknBitmapAnimation@@QAEXXZ @ 3208 NONAME ; void CAknBitmapAnimation::ExcludeAnimationFramesFromCache(void)
	?HideChoiceList@CAknChoiceList@@QAEXXZ @ 3209 NONAME ; void CAknChoiceList::HideChoiceList(void)
	?HideAnimation@CAknLongTapAnimation@@QAEXXZ @ 3210 NONAME ; void CAknLongTapAnimation::HideAnimation(void)
	?NewL@CAknLongTapAnimation@@SAPAV1@XZ @ 3211 NONAME ; class CAknLongTapAnimation * CAknLongTapAnimation::NewL(void)
	?NewLC@CAknLongTapAnimation@@SAPAV1@XZ @ 3212 NONAME ; class CAknLongTapAnimation * CAknLongTapAnimation::NewLC(void)
	?ShowAnimationL@CAknLongTapAnimation@@QAEXHH@Z @ 3213 NONAME ; void CAknLongTapAnimation::ShowAnimationL(int, int)
	?TopContext@CAknKeySoundSystem@@QAEHXZ @ 3214 NONAME ; int CAknKeySoundSystem::TopContext(void)
	?SetTone@CAknInfoPopupNoteController@@QAEXABW4TTone@1@@Z @ 3215 NONAME ; void CAknInfoPopupNoteController::SetTone(enum CAknInfoPopupNoteController::TTone const &)
	?HandleResourceChange@CAknMultiLineIpQueryDialog@@MAEXH@Z @ 3216 NONAME ; void CAknMultiLineIpQueryDialog::HandleResourceChange(int)
	?SetHeadingTextL@CAknPreviewPopUpController@@QAEXABVTDesC16@@@Z @ 3217 NONAME ; void CAknPreviewPopUpController::SetHeadingTextL(class TDesC16 const &)
	?GetLocation@CAknQueryControl@@QBEXAAVTPosition@@@Z @ 3218 NONAME ; void CAknQueryControl::GetLocation(class TPosition &) const
	?NewL@CAknMultiLineDataQueryDialog@@SAPAV1@AAVTPosition@@W4TTone@CAknQueryDialog@@@Z @ 3219 NONAME ; class CAknMultiLineDataQueryDialog * CAknMultiLineDataQueryDialog::NewL(class TPosition &, enum CAknQueryDialog::TTone)
	?NewL@CAknQueryDialog@@SAPAV1@AAVTPosition@@ABW4TTone@1@@Z @ 3220 NONAME ; class CAknQueryDialog * CAknQueryDialog::NewL(class TPosition &, enum CAknQueryDialog::TTone const &)
	?SetLocation@CAknQueryControl@@QAEXABVTPosition@@@Z @ 3221 NONAME ; void CAknQueryControl::SetLocation(class TPosition const &)
	?GetAliasKeyCodeL@CAknAppUi@@QAEXAAIABUTKeyEvent@@W4TEventCode@@@Z @ 3222 NONAME ; void CAknAppUi::GetAliasKeyCodeL(unsigned int &, struct TKeyEvent const &, enum TEventCode)
	?SetAliasKeyCodeResolverL@CAknAppUi@@QAEXPAVMAknAliasKeyCodeResolver@@@Z @ 3223 NONAME ; void CAknAppUi::SetAliasKeyCodeResolverL(class MAknAliasKeyCodeResolver *)	
	?MeasureTextBoundsWidth@AknBidiTextUtils@@SAHABVCFont@@ABVTDesC16@@W4TFlags@TMeasureTextInput@2@@Z @ 3224 NONAME ; int AknBidiTextUtils::MeasureTextBoundsWidth(class CFont const &, class TDesC16 const &, enum CFont::TMeasureTextInput::TFlags)
	?DeRegisterPlugin@CAknSettingCache@@QAEXPAVMAknSettingCacheUpdatePlugin@@@Z @ 3225 NONAME ; void CAknSettingCache::DeRegisterPlugin(class MAknSettingCacheUpdatePlugin *)
	?RegisterPluginL@CAknSettingCache@@QAEXPAVMAknSettingCacheUpdatePlugin@@@Z @ 3226 NONAME ; void CAknSettingCache::RegisterPluginL(class MAknSettingCacheUpdatePlugin *)
	?ApplyLayoutChangeL@CAknAppUiBase@@QAEXH@Z @ 3227 NONAME ; void CAknAppUiBase::ApplyLayoutChangeL(int)
	?PluginValue@CAknSettingCache@@QAEHHAAH@Z @ 3228 NONAME ; int CAknSettingCache::PluginValue(int, int &)
	?MSKEnabled@AknLayoutUtils@@SAHXZ @ 3229 NONAME ; int AknLayoutUtils::MSKEnabled(void)
	??ATAknScreenModes@@QBE?AVTAknScreenMode@@H@Z @ 3230 NONAME ; class TAknScreenMode TAknScreenModes::operator[](int) const
	?CalculateScreenMode@CAknSgcClient@@SA?AVTScreenMode@CAknLayoutConfig@@HHHH@Z @ 3231 NONAME ; class CAknLayoutConfig::TScreenMode CAknSgcClient::CalculateScreenMode(int, int, int, int)
	?DisplayMode@TAknScreenMode@@QBE?AW4TDisplayMode@@XZ @ 3232 NONAME ; enum TDisplayMode TAknScreenMode::DisplayMode(void) const
	?GetModes@TAknScreenModes@@SA?AV1@XZ @ 3233 NONAME ; class TAknScreenModes TAknScreenModes::GetModes(void)
	?SetAppUiScreenModeL@TAknScreenModes@@SAXPAVCAknAppUiBase@@ABVTAknScreenMode@@@Z @ 3234 NONAME ; void TAknScreenModes::SetAppUiScreenModeL(class CAknAppUiBase *, class TAknScreenMode const &)
	?SizeInPixels@TAknScreenMode@@QBE?AVTSize@@XZ @ 3235 NONAME ; class TSize TAknScreenMode::SizeInPixels(void) const
	?SetBitmapPositionAndClipRect@CAknTransparentCameraSettingPage@@QAEXVTPoint@@VTRect@@H@Z @ 3236 NONAME ; void CAknTransparentCameraSettingPage::SetBitmapPositionAndClipRect(class TPoint, class TRect, int)
	?HandleResourceChange@CAknExtMultilineQueryControl@@UAEXH@Z @ 3237 NONAME ; void CAknExtMultilineQueryControl::HandleResourceChange(int)
	?HandleResourceChange@CAknMultilineQueryControl@@UAEXH@Z @ 3238 NONAME ; void CAknMultilineQueryControl::HandleResourceChange(int)
	?EdwinLinesWithinHeight@AknLayoutUtils@@SAHABVTAknTextLineLayout@@HHAAH@Z @ 3239 NONAME ; int AknLayoutUtils::EdwinLinesWithinHeight(class TAknTextLineLayout const &, int, int, int &)
	?GetEdwinVerticalPositionAndHeightFromLines@AknLayoutUtils@@SAXHABVTAknTextLineLayout@@HHAAH1@Z @ 3240 NONAME ; void AknLayoutUtils::GetEdwinVerticalPositionAndHeightFromLines(int, class TAknTextLineLayout const &, int, int, int &, int &)
	?LayoutEdwin@AknLayoutUtils@@SAXPAVCEikEdwin@@ABVTRect@@ABVTAknTextLineLayout@@HHW4TAknsQsnTextColorsIndex@@AAH@Z @ 3241 NONAME ; void AknLayoutUtils::LayoutEdwin(class CEikEdwin *, class TRect const &, class TAknTextLineLayout const &, int, int, enum TAknsQsnTextColorsIndex, int &)
	?SetKeyblockMode@@YAXW4TAknKeyBlockMode@@@Z @ 3242 NONAME ; void SetKeyblockMode(enum TAknKeyBlockMode)
	?HandleResourceChange@CAknQueryControl@@UAEXH@Z @ 3243 NONAME ; void CAknQueryControl::HandleResourceChange(int)
	?OfferKeyEventL@CAknTextSettingPage@@MAE?AW4TKeyResponse@@ABUTKeyEvent@@W4TEventCode@@@Z @ 3244 NONAME ; enum TKeyResponse CAknTextSettingPage::OfferKeyEventL(struct TKeyEvent const &, enum TEventCode)
	?OkToExitL@CAknTextSettingPage@@MAEHH@Z @ 3245 NONAME ; int CAknTextSettingPage::OkToExitL(int)
	?DrawText@CAknMarqueeControl@@QAEHAAVCWindowGc@@ABVTRect@@ABVTAknTextComponentLayout@@ABVTDesC16@@PBVCFont@@VTRgb@@@Z @ 3246 NONAME ; int CAknMarqueeControl::DrawText(class CWindowGc &, class TRect const &, class TAknTextComponentLayout const &, class TDesC16 const &, class CFont const *, class TRgb)
	?ProtectionState@CAknSettingItem@@QAE?AW4TSettingItemProtection@1@XZ @ 3247 NONAME ; enum CAknSettingItem::TSettingItemProtection CAknSettingItem::ProtectionState(void)
	?SetProtectionState@CAknSettingItem@@QAEXW4TSettingItemProtection@1@@Z @ 3248 NONAME ; void CAknSettingItem::SetProtectionState(enum CAknSettingItem::TSettingItemProtection)
	?ExtendedFlatLayoutActive@AknStatuspaneUtils@@SAHXZ @ 3249 NONAME ; int AknStatuspaneUtils::ExtendedFlatLayoutActive(void)
	?ExtendedStaconPaneActive@AknStatuspaneUtils@@SAHXZ @ 3250 NONAME ; int AknStatuspaneUtils::ExtendedStaconPaneActive(void)
	?IsEditable@CAknSettingPage@@QBEHXZ @ 3251 NONAME ; int CAknSettingPage::IsEditable(void) const
	?SetEditState@CAknSettingPage@@QAEXH@Z @ 3252 NONAME ; void CAknSettingPage::SetEditState(int)
	?OfferKeyEventL@CAknTransparentCameraSettingPage@@UAE?AW4TKeyResponse@@ABUTKeyEvent@@W4TEventCode@@@Z @ 3253 NONAME ; enum TKeyResponse CAknTransparentCameraSettingPage::OfferKeyEventL(struct TKeyEvent const &, enum TEventCode)
	?ConstructMenuSctRowL@CAknCharMap@@QAEXH@Z @ 3254 NONAME ; void CAknCharMap::ConstructMenuSctRowL(int)
	?Orientation@CAknSlider@@QBE?AW4TAknOrientation@@XZ @ 3255 NONAME ; enum TAknOrientation CAknSlider::Orientation(void) const
	?PositionIndicators@CAknSlider@@QBEKXZ @ 3256 NONAME ; unsigned long CAknSlider::PositionIndicators(void) const
	?SetPositionIndicators@CAknSlider@@QAEXK@Z @ 3257 NONAME ; void CAknSlider::SetPositionIndicators(unsigned long)
	?SetTickInterval@CAknSlider@@QAEXI@Z @ 3258 NONAME ; void CAknSlider::SetTickInterval(unsigned int)
	?SetTicksEnabled@CAknSlider@@QAEXH@Z @ 3259 NONAME ; void CAknSlider::SetTicksEnabled(int)
	?TickInterval@CAknSlider@@QBEIXZ @ 3260 NONAME ; unsigned int CAknSlider::TickInterval(void) const
	?TicksEnabled@CAknSlider@@QBEHXZ @ 3261 NONAME ; int CAknSlider::TicksEnabled(void) const
	?UseDefaultGraphics@CAknSlider@@QAEXH@Z @ 3262 NONAME ; void CAknSlider::UseDefaultGraphics(int)
	?UsesDefaultGraphics@CAknSlider@@QBEHH@Z @ 3263 NONAME ; int CAknSlider::UsesDefaultGraphics(int) const
	?SetGraphics@CAknSlider@@QAEXHPAVCFbsBitmap@@0@Z @ 3264 NONAME ; void CAknSlider::SetGraphics(int, class CFbsBitmap *, class CFbsBitmap *)
	?HideWhenAppFaded@CAknInfoPopupNoteController@@QAEXH@Z @ 3265 NONAME ; void CAknInfoPopupNoteController::HideWhenAppFaded(int)
	?ShowHsdpaIcon@CAknSignalPane@@QAEXH@Z @ 3266 NONAME ; void CAknSignalPane::ShowHsdpaIcon(int)
	?InsertItemL@CAknChoiceList@@QAEHHABVTDesC16@@@Z @ 3267 NONAME ; int CAknChoiceList::InsertItemL(int, class TDesC16 const &)
	?HighlightSctRow@CAknCharMap@@QAEXH@Z @ 3268 NONAME ; void CAknCharMap::HighlightSctRow(int)
	?ConstructMenuSctRowFromDialogL@CAknCharMap@@QAEXH@Z @ 3269 NONAME ; void CAknCharMap::ConstructMenuSctRowFromDialogL(int)
	?CaptureKey@CAknAppUi@@QAEJIII@Z @ 3270 NONAME ; long CAknAppUi::CaptureKey(unsigned int, unsigned int, unsigned int)
	?CaptureKeyL@CAknAppUi@@QAEXIIIAAJ@Z @ 3271 NONAME ; void CAknAppUi::CaptureKeyL(unsigned int, unsigned int, unsigned int, long &)
	?Enable@CAknWsEventMonitor@@QAEXH@Z @ 3272 NONAME ; void CAknWsEventMonitor::Enable(int)
	?NewL@CAknStatusPaneDataPublisher@@SAPAV1@XZ @ 3273 NONAME ; class CAknStatusPaneDataPublisher * CAknStatusPaneDataPublisher::NewL(void)
	?NewL@CAknStatusPaneDataSubscriber@@SAPAV1@XZ @ 3274 NONAME ; class CAknStatusPaneDataSubscriber * CAknStatusPaneDataSubscriber::NewL(void)
	?PublishDataL@CAknStatusPaneDataPublisher@@QAEXXZ @ 3275 NONAME ; void CAknStatusPaneDataPublisher::PublishDataL(void)
	?RefreshDataL@CAknStatusPaneDataSubscriber@@QAEXXZ @ 3276 NONAME ; void CAknStatusPaneDataSubscriber::RefreshDataL(void)
	?RefreshLevel@CAknStatusPaneDataSubscriber@@QAEHXZ @ 3277 NONAME ; int CAknStatusPaneDataSubscriber::RefreshLevel(void)
	?SetAlwaysBackground@CAknStatusPaneDataSubscriber@@QAEXH@Z @ 3278 NONAME ; void CAknStatusPaneDataSubscriber::SetAlwaysBackground(int)
	?SetBatteryLevel@CAknStatusPaneDataPublisher@@QAEXH@Z @ 3279 NONAME ; void CAknStatusPaneDataPublisher::SetBatteryLevel(int)
	?SetForegroundSubscriberId@CAknStatusPaneDataPublisher@@QAEXH@Z @ 3280 NONAME ; void CAknStatusPaneDataPublisher::SetForegroundSubscriberId(int)
	?SetIncallBubbleAllowedInIdle@CAknStatusPaneDataPublisher@@QAEXH@Z @ 3281 NONAME ; void CAknStatusPaneDataPublisher::SetIncallBubbleAllowedInIdle(int)
	?SetIncallBubbleAllowedInUsual@CAknStatusPaneDataPublisher@@QAEXH@Z @ 3282 NONAME ; void CAknStatusPaneDataPublisher::SetIncallBubbleAllowedInUsual(int)
	?SetIncallBubbleFlags@CAknStatusPaneDataPublisher@@QAEXH@Z @ 3283 NONAME ; void CAknStatusPaneDataPublisher::SetIncallBubbleFlags(int)
	?SetIndicatorState@CAknStatusPaneDataPublisher@@QAEXVTUid@@H@Z @ 3284 NONAME ; void CAknStatusPaneDataPublisher::SetIndicatorState(class TUid, int)
	?SetRecharge@CAknStatusPaneDataPublisher@@QAEXH@Z @ 3285 NONAME ; void CAknStatusPaneDataPublisher::SetRecharge(int)
	?SetRefreshLevel@CAknStatusPaneDataSubscriber@@QAEXHH@Z @ 3286 NONAME ; void CAknStatusPaneDataSubscriber::SetRefreshLevel(int, int)
	?SetSignalIcon@CAknStatusPaneDataPublisher@@QAEXH@Z @ 3287 NONAME ; void CAknStatusPaneDataPublisher::SetSignalIcon(int)
	?SetSignalLevel@CAknStatusPaneDataPublisher@@QAEXH@Z @ 3288 NONAME ; void CAknStatusPaneDataPublisher::SetSignalLevel(int)
	?HandleIndicatorTapL@CAknStatusPaneDataPublisher@@QAEXVTUid@@@Z @ 3289 NONAME ; void CAknStatusPaneDataPublisher::HandleIndicatorTapL(class TUid)
	?EnableDrag@CAknSlider@@QAEXXZ @ 3290 NONAME ; void CAknSlider::EnableDrag(void)
	?HandleLosingForeground@CAknStatusPaneDataSubscriber@@QAEXXZ @ 3291 NONAME ; void CAknStatusPaneDataSubscriber::HandleLosingForeground(void)
	?ShowToolbarOnViewActivation@CAknView@@QAEXH@Z @ 3292 NONAME ; void CAknView::ShowToolbarOnViewActivation(int)
	?ToolbarShownOnViewActivation@CAknView@@QBEHXZ @ 3293 NONAME ; int CAknView::ToolbarShownOnViewActivation(void) const
	?HandlePointerEventL@CAknPopupForm@@MAEXABUTPointerEvent@@@Z @ 3294 NONAME ; void CAknPopupForm::HandlePointerEventL(struct TPointerEvent const &)
	?EnableLocalScreenClearer@CAknViewAppUi@@QAEXH@Z @ 3295 NONAME ; void CAknViewAppUi::EnableLocalScreenClearer(int)
	?ConstructFromResourceL@CAknVolumePopup@@SAPAV1@H@Z @ 3296 NONAME ; class CAknVolumePopup * CAknVolumePopup::ConstructFromResourceL(int)
	?GetRange@CAknVolumeControl@@QAEXAAH0@Z @ 3297 NONAME ; void CAknVolumeControl::GetRange(int &, int &)
	?GetRange@CAknVolumePopup@@QAEXAAH0@Z @ 3298 NONAME ; void CAknVolumePopup::GetRange(int &, int &)
	?SetRange@CAknVolumeControl@@QAEXHH@Z @ 3299 NONAME ; void CAknVolumeControl::SetRange(int, int)
	?SetRange@CAknVolumePopup@@QAEXHH@Z @ 3300 NONAME ; void CAknVolumePopup::SetRange(int, int)
	?UseEmptyIconSpace@CAknSingle2GraphicStyleListBox@@QAEXH@Z @ 3301 NONAME ; void CAknSingle2GraphicStyleListBox::UseEmptyIconSpace(int)
	?CreateItemDrawerL@CAknSingle2GraphicStyleListBox@@UAEXXZ @ 3302 NONAME ; void CAknSingle2GraphicStyleListBox::CreateItemDrawerL(void)
	?HandleGainingForeground@CAknStatusPaneDataSubscriber@@QAEXXZ @ 3303 NONAME ; void CAknStatusPaneDataSubscriber::HandleGainingForeground(void)
	?OrientationCanBeChanged@CAknAppUiBase@@QBEHXZ @ 3304 NONAME ; int CAknAppUiBase::OrientationCanBeChanged(void) const
	?LinkHighLighted@CAknMessageQueryControl@@QBEHXZ @ 3305 NONAME ; int CAknMessageQueryControl::LinkHighLighted(void) const
	?ItemWasTappedL@CAknItemFinder@@QAEHVTPoint@@@Z @ 3306 NONAME ABSENT ; int CAknItemFinder::ItemWasTappedL(class TPoint)
	?CurrentItemTextWasClipped@CFormattedCellListBoxData@@QBEKXZ @ 3307 NONAME ; unsigned long CFormattedCellListBoxData::CurrentItemTextWasClipped(void) const
	?CreateSetDynRangeStyleListBoxIconL@CAknVolumeControl@@SAPAVCGulIcon@@HHH@Z @ 3308 NONAME ; class CGulIcon * CAknVolumeControl::CreateSetDynRangeStyleListBoxIconL(int, int, int)
	?MakeVisible@CAknSearchField@@UAEXH@Z @ 3309 NONAME ; void CAknSearchField::MakeVisible(int)
	?EndCommandMediation@CAknEnv@@QAEXAAVMEikCommandObserver@@@Z @ 3310 NONAME ; void CAknEnv::EndCommandMediation(class MEikCommandObserver &)
	?RequestCommandMediationL@CAknEnv@@QAEXAAVCEikButtonGroupContainer@@AAVMEikCommandObserver@@@Z @ 3311 NONAME ; void CAknEnv::RequestCommandMediationL(class CEikButtonGroupContainer &, class MEikCommandObserver &)
	?SetTooltipPosition@CAknChoiceList@@QAEXW4TTooltipPosition@1@@Z @ 3312 NONAME ; void CAknChoiceList::SetTooltipPosition(enum CAknChoiceList::TTooltipPosition)
	?SetTooltipTextL@CAknChoiceList@@QAEXABVTDesC16@@@Z @ 3313 NONAME ; void CAknChoiceList::SetTooltipTextL(class TDesC16 const &)
	?SetTooltipTimeouts@CAknChoiceList@@QAEXHH@Z @ 3314 NONAME ; void CAknChoiceList::SetTooltipTimeouts(int, int)
	?SetHeaderImageOwnedL@CAknPopupHeadingPane@@QAEXPAVCEikImage@@@Z @ 3315 NONAME ; void CAknPopupHeadingPane::SetHeaderImageOwnedL(class CEikImage *)
	?IsAnimationRunning@CAknLongTapDetector@@QBEHXZ @ 3316 NONAME ; int CAknLongTapDetector::IsAnimationRunning(void) const
	?CurrentItemExt@CAknItemFinder@@QAEAAVCFindItemExt@1@XZ @ 3317 NONAME ABSENT ; class CAknItemFinder::CFindItemExt & CAknItemFinder::CurrentItemExt(void)
	?CurrentSelection@CAknItemFinder@@QAE?AVTPtrC16@@XZ @ 3318 NONAME ABSENT ; class TPtrC16 CAknItemFinder::CurrentSelection(void)
	?SetExternalLinks@CAknItemFinder@@QAEHPAV?$CArrayPtrFlat@VCFindItemExt@CAknItemFinder@@@@@Z @ 3319 NONAME ABSENT ; int CAknItemFinder::SetExternalLinks(class CArrayPtrFlat<class CAknItemFinder::CFindItemExt> *)
	?AllowGlobalPopups@AknGlobalPopupPriorityController@@SAXH@Z @ 3320 NONAME ; void AknGlobalPopupPriorityController::AllowGlobalPopups(int)
	?EnablePriorityControlL@AknGlobalPopupPriorityController@@SAXXZ @ 3321 NONAME ; void AknGlobalPopupPriorityController::EnablePriorityControlL(void)
	?RemovePopupPriority@AknGlobalPopupPriorityController@@SAXAAVCCoeControl@@@Z @ 3322 NONAME ; void AknGlobalPopupPriorityController::RemovePopupPriority(class CCoeControl &)
	?SetPopupPriorityL@AknGlobalPopupPriorityController@@SAXAAVCCoeControl@@H@Z @ 3323 NONAME ; void AknGlobalPopupPriorityController::SetPopupPriorityL(class CCoeControl &, int)
	?ShowPopup@AknGlobalPopupPriorityController@@SAXAAVCCoeControl@@H@Z @ 3324 NONAME ; void AknGlobalPopupPriorityController::ShowPopup(class CCoeControl &, int)
	?SetRootWinOrdinalPosition@AknGlobalPopupPriorityController@@SAXH@Z @ 3325 NONAME ; void AknGlobalPopupPriorityController::SetRootWinOrdinalPosition(int)
	?FadeBehindPopup@CAknPopupList@@IAEXH@Z @ 3326 NONAME ; void CAknPopupList::FadeBehindPopup(int)
	?GetRange@CAknSlider@@QAEXAAH0@Z @ 3327 NONAME ; void CAknSlider::GetRange(int &, int &)
	?ExecuteLD@CAknTransparentCameraSettingPage@@QAEHW4TAknSettingPageUpdateMode@CAknSettingPage@@H@Z @ 3328 NONAME ; int CAknTransparentCameraSettingPage::ExecuteLD(enum CAknSettingPage::TAknSettingPageUpdateMode, int)
	?HandleControlEventL@CAknTransparentCameraSettingPage@@MAEXPAVCCoeControl@@W4TCoeEvent@MCoeControlObserver@@@Z @ 3329 NONAME ; void CAknTransparentCameraSettingPage::HandleControlEventL(class CCoeControl *, enum MCoeControlObserver::TCoeEvent)
	?ProcessCommandL@CAknTransparentCameraSettingPage@@MAEXH@Z @ 3330 NONAME ; void CAknTransparentCameraSettingPage::ProcessCommandL(int)
	?DisableRecentCharsRow@CAknCharMapDialog@@QAEXXZ @ 3331 NONAME ; void CAknCharMapDialog::DisableRecentCharsRow(void)
	?SetBatteryIcon@CAknStatusPaneDataPublisher@@QAEXH@Z @ 3332 NONAME ; void CAknStatusPaneDataPublisher::SetBatteryIcon(int)
        ?MopSupplyObject@CAknGrid@@MAE?AVPtr@TTypeUid@@V3@@Z @ 3333 NONAME ; class TTypeUid::Ptr CAknGrid::MopSupplyObject(class TTypeUid)
	?AddPopupToControlStackL@AknGlobalPopupPriorityController@@SAXAAVCCoeControl@@HH@Z @ 3334 NONAME ; void AknGlobalPopupPriorityController::AddPopupToControlStackL(class CCoeControl &, int, int)
	?AddSubPopupL@AknGlobalPopupPriorityController@@SAXAAVCCoeControl@@0@Z @ 3335 NONAME ; void AknGlobalPopupPriorityController::AddSubPopupL(class CCoeControl &, class CCoeControl &)
	?FadeBehindPopup@AknGlobalPopupPriorityController@@SAXAAVCCoeControl@@AAVTAknPopupFader@@AAVMAknFadedComponent@@H@Z @ 3336 NONAME ; void AknGlobalPopupPriorityController::FadeBehindPopup(class CCoeControl &, class TAknPopupFader &, class MAknFadedComponent &, int)
	?RouseSleepingPopup@AknGlobalPopupPriorityController@@SAXAAVCCoeControl@@H@Z @ 3337 NONAME ; void AknGlobalPopupPriorityController::RouseSleepingPopup(class CCoeControl &, int)
	?SetStepSize@CAknVolumePopup@@QAEXH@Z @ 3338 NONAME ; void CAknVolumePopup::SetStepSize(int)
	?SetTimeOutAsSecond@CAknVolumePopup@@QAEXH@Z @ 3339 NONAME ; void CAknVolumePopup::SetTimeOutAsSecond(int)
	?SetValueType@CAknVolumePopup@@QAEXH@Z @ 3340 NONAME ; void CAknVolumePopup::SetValueType(int)
	?SetDecimalPlaces@CAknVolumePopup@@QAEXH@Z @ 3341 NONAME ; void CAknVolumePopup::SetDecimalPlaces(int)
	?SetGraphics@CAknVolumePopup@@QAEXHPAVCFbsBitmap@@0@Z @ 3342 NONAME ; void CAknVolumePopup::SetGraphics(int, class CFbsBitmap *, class CFbsBitmap *)
	?AddAdaptiveSearchTextObserverL@CAknSearchField@@QAEXPAVMAdaptiveSearchTextObserver@@@Z @ 3343 NONAME ; void CAknSearchField::AddAdaptiveSearchTextObserverL(class MAdaptiveSearchTextObserver *)
	?IsAdaptiveFindMatch@AknFind@@SAHABVTDesC16@@0AAPAVHBufC16@@@Z @ 3344 NONAME ; int AknFind::IsAdaptiveFindMatch(class TDesC16 const &, class TDesC16 const &, class HBufC16 * &)
	?ListColumnFilterFlags@CAknSearchField@@QBE?AV?$TBitFlagsT@K@@XZ @ 3345 NONAME ; class TBitFlagsT<unsigned long> CAknSearchField::ListColumnFilterFlags(void) const
	?RemoveAdaptiveSearchTextObserver@CAknSearchField@@QAEHPAVMAdaptiveSearchTextObserver@@@Z @ 3346 NONAME ; int CAknSearchField::RemoveAdaptiveSearchTextObserver(class MAdaptiveSearchTextObserver *)
	?SearchFieldStyle@CAknSearchField@@QBE?AW4TSearchFieldStyle@1@XZ @ 3347 NONAME ; enum CAknSearchField::TSearchFieldStyle CAknSearchField::SearchFieldStyle(void) const
	?SetAdaptiveGridChars@CAknSearchField@@QBEXABVTDesC16@@@Z @ 3348 NONAME ; void CAknSearchField::SetAdaptiveGridChars(class TDesC16 const &) const
	?SetListColumnFilterFlags@CAknSearchField@@QAEXV?$TBitFlagsT@K@@@Z @ 3349 NONAME ; void CAknSearchField::SetListColumnFilterFlags(class TBitFlagsT<unsigned long>)
	?ShowAdaptiveSearchGrid@CAknSearchField@@QBEXXZ @ 3350 NONAME ; void CAknSearchField::ShowAdaptiveSearchGrid(void) const
	?UpdateItemTextAccordingToFlag@AknFind@@SAXABVTDesC16@@V?$TBitFlagsT@K@@AAVTDes16@@@Z @ 3351 NONAME ; void AknFind::UpdateItemTextAccordingToFlag(class TDesC16 const &, class TBitFlagsT<unsigned long>, class TDes16 &)
	?UpdateNextCharsFromString@AknFind@@SAXAAPAVHBufC16@@ABVTDesC16@@@Z @ 3352 NONAME ; void AknFind::UpdateNextCharsFromString(class HBufC16 * &, class TDesC16 const &)
	?SetTabMultiColorMode@CAknTabGroup@@QAEXHH@Z @ 3353 NONAME ; void CAknTabGroup::SetTabMultiColorMode(int, int)
        ?ShadowText@CAknSettingPage@@IBEPAVCEikLabel@@XZ @ 3354 NONAME ; class CEikLabel * CAknSettingPage::ShadowText(void) const
	?PositionChanged@CAknChoiceList@@UAEXXZ @ 3355 NONAME ; void CAknChoiceList::PositionChanged(void)
	?PositionChanged@CAknIndicator@@UAEXXZ @ 3356 NONAME ; void CAknIndicator::PositionChanged(void)
	?PositionChanged@CAknSkinnableClock@@UAEXXZ @ 3357 NONAME ; void CAknSkinnableClock::PositionChanged(void)
	?IconL@CAknIndicatorPlugin@@UAEPBVCGulIcon@@H@Z @ 3358 NONAME ; class CGulIcon const * CAknIndicatorPlugin::IconL(int)
	?TextL@CAknIndicatorPlugin@@UAEPAVHBufC16@@HAAH@Z @ 3359 NONAME ; class HBufC16 * CAknIndicatorPlugin::TextL(int, int &)
	?UpdateL@CAknIndicatorPlugin@@QAEXH@Z @ 3360 NONAME ; void CAknIndicatorPlugin::UpdateL(int)
	?GetBitmapIndexL@CAknIndicator@@SAXHHAAH0@Z @ 3361 NONAME ; void CAknIndicator::GetBitmapIndexL(int, int, int &, int &)
	?ExitHidesInBackground@CAknAppUi@@QBEHXZ @ 3362 NONAME ; int CAknAppUi::ExitHidesInBackground(void) const
	?HideInBackground@CAknAppUi@@QAEXXZ @ 3363 NONAME ; void CAknAppUi::HideInBackground(void)
	?UseMutedIcon@CAknVolumePopup@@QAEXH@Z @ 3364 NONAME ; void CAknVolumePopup::UseMutedIcon(int)
	?SetToolbar@CAknView@@QAEXPAVCAknToolbar@@@Z @ 3365 NONAME ; void CAknView::SetToolbar(class CAknToolbar *)
	?CreateAndSetToolbarL@CAknView@@QAEXH@Z @ 3366 NONAME ; void CAknView::CreateAndSetToolbarL(int)
	?CcpuCanCopy@CAknPhoneNumberEditor@@UBEHXZ @ 3367 NONAME ; int CAknPhoneNumberEditor::CcpuCanCopy(void) const
	?CcpuCanCut@CAknPhoneNumberEditor@@UBEHXZ @ 3368 NONAME ; int CAknPhoneNumberEditor::CcpuCanCut(void) const
	?CcpuCanPaste@CAknPhoneNumberEditor@@UBEHXZ @ 3369 NONAME ; int CAknPhoneNumberEditor::CcpuCanPaste(void) const
	?CcpuCanUndo@CAknPhoneNumberEditor@@UBEHXZ @ 3370 NONAME ; int CAknPhoneNumberEditor::CcpuCanUndo(void) const
	?CcpuCopyL@CAknPhoneNumberEditor@@UAEXXZ @ 3371 NONAME ; void CAknPhoneNumberEditor::CcpuCopyL(void)
	?CcpuCutL@CAknPhoneNumberEditor@@UAEXXZ @ 3372 NONAME ; void CAknPhoneNumberEditor::CcpuCutL(void)
	?CcpuIsFocused@CAknPhoneNumberEditor@@UBEHXZ @ 3373 NONAME ; int CAknPhoneNumberEditor::CcpuIsFocused(void) const
	?CcpuPasteL@CAknPhoneNumberEditor@@UAEXXZ @ 3374 NONAME ; void CAknPhoneNumberEditor::CcpuPasteL(void)
	?CcpuUndoL@CAknPhoneNumberEditor@@UAEXXZ @ 3375 NONAME ; void CAknPhoneNumberEditor::CcpuUndoL(void)
	?HandlePointerEventL@CAknPhoneNumberEditor@@UAEXABUTPointerEvent@@@Z @ 3376 NONAME ; void CAknPhoneNumberEditor::HandlePointerEventL(struct TPointerEvent const &)
	?MopSupplyObject@CAknPhoneNumberEditor@@UAE?AVPtr@TTypeUid@@V3@@Z @ 3377 NONAME ; class TTypeUid::Ptr CAknPhoneNumberEditor::MopSupplyObject(class TTypeUid)
	?TransparencyEnabled@CAknEnv@@QBEHXZ @ 3378 NONAME ; int CAknEnv::TransparencyEnabled(void) const
	?TransparencyEnabled@CAknSettingCache@@QAEHXZ @ 3379 NONAME ; int CAknSettingCache::TransparencyEnabled(void)
	?EnableAdaptiveFind@CAknPopupList@@QAEHH@Z @ 3380 NONAME ; int CAknPopupList::EnableAdaptiveFind(int)
	?GetCaptionForFep@CAknSettingPageExtension@@EBEXAAVTDes16@@@Z @ 3381 NONAME ; void CAknSettingPageExtension::GetCaptionForFep(class TDes16 &) const
	?InputCapabilities@CAknSettingPage@@UBE?AVTCoeInputCapabilities@@XZ @ 3382 NONAME ; class TCoeInputCapabilities CAknSettingPage::InputCapabilities(void) const
        ?TextLabel@CAknSettingPage@@IBEPAVCEikLabel@@XZ @ 3383 NONAME ; class CEikLabel * CAknSettingPage::TextLabel(void) const
        ?CurrentFixedToolbar@CAknAppUi@@QBEPAVCAknToolbar@@XZ @ 3384 NONAME ; class CAknToolbar * CAknAppUi::CurrentFixedToolbar(void) const
	?NewL@CAknVolumePopup@@SAPAV1@PAVCCoeControl@@H@Z @ 3385 NONAME ; class CAknVolumePopup * CAknVolumePopup::NewL(class CCoeControl *, int)
        ?SetAdjustmentIndicatorDisplay@CAknVolumePopup@@QAEXH@Z @ 3386 NONAME ; void CAknVolumePopup::SetAdjustmentIndicatorDisplay(int)
	?OpenVKB@CAknPhoneNumberEditor@@QAEXXZ @ 3387 NONAME ; void CAknPhoneNumberEditor::OpenVKB(void)
	?SetKeyEventFlags@CAknAppUiBase@@QAEXH@Z @ 3388 NONAME ; void CAknAppUiBase::SetKeyEventFlags(int)
	?AdaptiveSearchEnabled@CAknSearchField@@QAEHXZ @ 3389 NONAME ; int CAknSearchField::AdaptiveSearchEnabled(void)
	?NewL@CAknPointerEventSuppressor@@SAPAV1@XZ @3390 NONAME
	?SetMaxTapDuration@CAknPointerEventSuppressor@@QAEXVTTimeIntervalMicroSeconds@@@Z @3391 NONAME
	?SetMaxTapMove@CAknPointerEventSuppressor@@QAEXVTSize@@@Z @3392 NONAME
	?SetMinInterDragInterval@CAknPointerEventSuppressor@@QAEXVTTimeIntervalMicroSeconds@@@Z @3393 NONAME
	?SuppressPointerEvent@CAknPointerEventSuppressor@@QAEHABUTPointerEvent@@@Z @3394 NONAME
	??1CAknPointerEventSuppressor@@UAE@XZ @3395 NONAME
	?PointerEventModifier@CAknAppUiBase@@QAEPAVCAknPointerEventModifier@@XZ @ 3396 NONAME ; class CAknPointerEventModifier * CAknAppUiBase::PointerEventModifier(void)
	?Pop@CAknPointerEventModifier@@QAEXABVCCoeControl@@@Z @ 3397 NONAME ; void CAknPointerEventModifier::Pop(class CCoeControl &)
	?Push@CAknPointerEventModifier@@QAEXAAVCCoeControl@@ABVTRect@@@Z @ 3398 NONAME ; void CAknPointerEventModifier::Push(class CCoeControl &, class TRect const &)
	?Update@CAknPointerEventModifier@@QAEXABVCCoeControl@@ABVTRect@@@Z @ 3399 NONAME ; void CAknPointerEventModifier::Update(class CCoeControl const &, class TRect const &)
	?GetCaptionForFep@CAknMultilineQueryDialogExtension@@EBEXAAVTDes16@@@Z @ 3400 NONAME ; void CAknMultilineQueryDialogExtension::GetCaptionForFep(class TDes16 &) const
	?GetCaptionForFep@CAknQueryDialogExtension@@EBEXAAVTDes16@@@Z @ 3401 NONAME ; void CAknQueryDialogExtension::GetCaptionForFep(class TDes16 &) const
	?InputCapabilities@CAknQueryDialog@@UBE?AVTCoeInputCapabilities@@XZ @ 3402 NONAME ; class TCoeInputCapabilities CAknQueryDialog::InputCapabilities(void) const
	?ClosePopupWhenTappedOutside@CAknVolumePopup@@QAEXH@Z @ 3403 NONAME ; void CAknVolumePopup::ClosePopupWhenTappedOutside(int)
	?DisableNextKeySound@CAknAppUi@@QAEXH@Z @ 3404 NONAME ; void CAknAppUi::DisableNextKeySound(int)
	?IsTouchCompatible@CAknAppUiBase@@QBEHXZ @ 3405 NONAME ; int CAknAppUiBase::IsTouchCompatible(void) const
	?MoveApp@CAknSgcClient@@SAXHW4TSgcMoveAppToWhere@@@Z @ 3406 NONAME ; void CAknSgcClient::MoveApp(int, enum TSgcMoveAppToWhere)
	?SetImpl@CAknSgcClient@@SAXPAVCAknSgcImpl@@@Z @ 3407 NONAME ; void CAknSgcClient::SetImpl(class CAknSgcImpl *)
	?LanguageChanged@CAknSearchField@@QBEHXZ @ 3408 NONAME ; int CAknSearchField::LanguageChanged(void) const
	?SetEmergencyCallSupportForCBA@CAknQueryDialog@@QAEXH@Z @ 3409 NONAME ; void CAknQueryDialog::SetEmergencyCallSupportForCBA(int)		
	?EnableResetViaValueField@CAknVolumePopup@@QAEXH@Z @ 3410 NONAME ; void CAknVolumePopup::EnableResetViaValueField(int)
	?SetDefaultValue@CAknVolumePopup@@QAEXH@Z @ 3411 NONAME ; void CAknVolumePopup::SetDefaultValue(int)
	?SetIncallBubbleAllowedInUsual@CAknStatusPaneDataPublisher@@QAEXHAB_K@Z @ 3412 NONAME ; void CAknStatusPaneDataPublisher::SetIncallBubbleAllowedInUsual(int, unsigned long long const &)
	?HandlePointerEventL@CAknCharMapDialog@@UAEXABUTPointerEvent@@@Z @ 3413 NONAME ; void CAknCharMapDialog::HandlePointerEventL(struct TPointerEvent const &)
	?HandlePointerEventL@CAknColourSelectionGrid@@UAEXABUTPointerEvent@@@Z @ 3414 NONAME ; void CAknColourSelectionGrid::HandlePointerEventL(struct TPointerEvent const &)
	?NewL@CAknLayoutConfig@@SAPAV1@XZ @ 3415 NONAME ; class CAknLayoutConfig * CAknLayoutConfig::NewL(void)
	?NewL@CAknLongTapAnimation@@SAPAV1@H@Z @ 3416 NONAME ; class CAknLongTapAnimation * CAknLongTapAnimation::NewL(int)
	?GlobalPopupsAllowed@AknGlobalPopupPriorityController@@SAHXZ @ 3417 NONAME ; int AknGlobalPopupPriorityController::GlobalPopupsAllowed(void)
	?CurrentStatusPaneLayoutResId@AknStatuspaneUtils@@SAHXZ @ 3418 NONAME ; int AknStatuspaneUtils::CurrentStatusPaneLayoutResId(void)
	?FindChildWgId@CAknTaskList@@QBEHH@Z @ 3419 NONAME ; int CAknTaskList::FindChildWgId(int) const
	?FindParentWgId@CAknTaskList@@QBEHH@Z @ 3420 NONAME ; int CAknTaskList::FindParentWgId(int) const
	?CancelAnimationL@CAknLongTapDetector@@QAEXXZ @ 3421 NONAME ; void CAknLongTapDetector::CancelAnimationL(void)
	?HandlePointerEvent@CAknPointerEventModifier@@QAEXAAUTPointerEvent@@AAPAVCCoeControl@@@Z @ 3422 NONAME ; void CAknPointerEventModifier::HandlePointerEvent(struct TPointerEvent &, class CCoeControl * &)
	?ResetTimer@CAknPreviewPopUpController@@QAEXXZ @ 3423 NONAME ; void CAknPreviewPopUpController::ResetTimer(void)
	?ExtendedLayoutActive@AknStatuspaneUtils@@SAHXZ @ 3424 NONAME ; int AknStatuspaneUtils::ExtendedLayoutActive(void)
	?FocusChanged@CAknSlider@@UAEXW4TDrawNow@@@Z @ 3425 NONAME ; void CAknSlider::FocusChanged(enum TDrawNow)
	?GetAknUiLC@CAknTasHook@@QAEXAAVMTasObject@@@Z @ 3426 NONAME ; void CAknTasHook::GetAknUiLC(class MTasObject &)
	?GetControl@CAknTasObjectInfo@@QBEPAXXZ @ 3427 NONAME ; void * CAknTasObjectInfo::GetControl(void) const
	?GetAll@CAknTasHook@@QAEPAV?$RPointerArray@VCAknTasObjectInfo@@@@XZ @ 3428 NONAME ; class RPointerArray<class CAknTasObjectInfo> * CAknTasHook::GetAll(void)
	?IsA@CAknTasObjectInfo@@QAEHVTPtrC16@@@Z @ 3429 NONAME ; int CAknTasObjectInfo::IsA(class TPtrC16)
	?Get@CAknTasHook@@SAPAVCAknTasObjectInfo@@PAX@Z @ 3430 NONAME ; class CAknTasObjectInfo * CAknTasHook::Get(void *)
	?Type@CAknTasObjectInfo@@QBE?AW4TAknTasHookObjectType@@XZ @ 3431 NONAME ; enum TAknTasHookObjectType CAknTasObjectInfo::Type(void) const
	?GetClassNames@CAknTasObjectInfo@@QAEPAVHBufC16@@XZ @ 3432 NONAME ; class HBufC16 * CAknTasObjectInfo::GetClassNames(void)
	?AddL@CAknTasHook@@SAXPAXVTPtrC16@@W4TAknTasHookObjectType@@@Z @ 3433 NONAME ; void CAknTasHook::AddL(void *, class TPtrC16, enum TAknTasHookObjectType)
	?Remove@CAknTasHook@@SAXPAX@Z @ 3434 NONAME ; void CAknTasHook::Remove(void *)
	?ShowLocalPopupL@CAknDiscreetPopup@@SAHABVTDesC16@@0PAVCGulIcon@@ABVTAknsItemID@@0HHHHPAVMEikCommandObserver@@@Z @ 3435 NONAME ; int CAknDiscreetPopup::ShowLocalPopupL(class TDesC16 const &, class TDesC16 const &, class CGulIcon *, class TAknsItemID const &, class TDesC16 const &, int, int, int, int, class MEikCommandObserver *)
	?ShowGlobalPopupL@CAknDiscreetPopup@@SAHABVTDesC16@@0ABVTAknsItemID@@0HHHHPAVMEikCommandObserver@@ABVTUid@@3@Z @ 3436 NONAME ; int CAknDiscreetPopup::ShowGlobalPopupL(class TDesC16 const &, class TDesC16 const &, class TAknsItemID const &, class TDesC16 const &, int, int, int, int, class MEikCommandObserver *, class TUid const &, class TUid const &)
	?NewL@CAknDiscreetPopupControl@@SAPAV1@HABVTDesC16@@0PAVCGulIcon@@ABVTAknsItemID@@0ABH3333PAVMEikCommandObserver@@@Z @ 3437 NONAME ; class CAknDiscreetPopupControl * CAknDiscreetPopupControl::NewL(int, class TDesC16 const &, class TDesC16 const &, class CGulIcon *, class TAknsItemID const &, class TDesC16 const &, int const &, int const &, int const &, int const &, int const &, class MEikCommandObserver *)
	?PopupId@CAknDiscreetPopupControl@@QAEHXZ @ 3438 NONAME ; int CAknDiscreetPopupControl::PopupId(void)
	?ShowLocalPopupL@CAknDiscreetPopup@@SAHHHPAVMEikCommandObserver@@@Z @ 3439 NONAME ; int CAknDiscreetPopup::ShowLocalPopupL(int, int, class MEikCommandObserver *)
        ?HandleDiscreetPopupActionL@CAknDiscreetPopupControl@@QAEXABH@Z @ 3440 NONAME ; void CAknDiscreetPopupControl::HandleDiscreetPopupActionL(int const &)
	?ShowGlobalPopupL@CAknDiscreetPopup@@SAHHABVTDesC16@@HPAVMEikCommandObserver@@ABVTUid@@2@Z @ 3441 NONAME ; int CAknDiscreetPopup::ShowGlobalPopupL(int, class TDesC16 const &, int, class MEikCommandObserver *, class TUid const &, class TUid const &)
	?NewL@CAknDiscreetPopupControl@@SAPAV1@HABHABVTDesC16@@00PAVMEikCommandObserver@@@Z @ 3442 NONAME ; class CAknDiscreetPopupControl * CAknDiscreetPopupControl::NewL(int, int const &, class TDesC16 const &, int const &, int const &, class MEikCommandObserver *)
	?AknEditorFlags@CAknPhoneNumberEditor@@QAEHXZ @ 3443 NONAME ; int CAknPhoneNumberEditor::AknEditorFlags(void)
	?SetIndicatorPopupPosition@CAknStatusPaneDataPublisher@@QAEXXZ @ 3444 NONAME ; void CAknStatusPaneDataPublisher::SetIndicatorPopupPosition(void)
	?SetEmotionModeL@CAknCharMap@@QAEXW4TAknCharMapEmotionMode@@@Z @ 3445 NONAME ; void CAknCharMap::SetEmotionModeL(enum TAknCharMapEmotionMode)
	?SetEmotionMode@CAknCharMapDialog@@QAEXW4TAknCharMapEmotionMode@@@Z @ 3446 NONAME ; void CAknCharMapDialog::SetEmotionMode(enum TAknCharMapEmotionMode)
	?Position@AknPopupUtils@@SA?AVTPoint@@ABVTSize@@PAVCCoeControl@@@Z @ 3447 NONAME ; class TPoint AknPopupUtils::Position(class TSize const &, class CCoeControl *)
	?Position@AknPopupUtils@@SA?AVTPoint@@ABVTSize@@H@Z @ 3448 NONAME ; class TPoint AknPopupUtils::Position(class TSize const &, int)
	?Release@CAknDiscreetPopup@@SAXXZ @ 3449 NONAME ; void CAknDiscreetPopup::Release(void)
	?InitL@CAknDiscreetPopup@@SAXXZ @ 3450 NONAME ; void CAknDiscreetPopup::InitL(void)
	?IsSingleClickCompatible@CAknAppUiBase@@QBEHXZ @ 3451 NONAME ; int CAknAppUiBase::IsSingleClickCompatible(void) const

