EXPORTS
	??0CAiwGenericParamConsumer@@IAE@AAVCEikApplication@@@Z @ 1 NONAME ; CAiwGenericParamConsumer::CAiwGenericParamConsumer(class CEikApplication &)
	??1CAiwGenericParamConsumer@@UAE@XZ @ 2 NONAME ; CAiwGenericParamConsumer::~CAiwGenericParamConsumer(void)
	??1CDocumentHandler@@UAE@XZ @ 3 NONAME ; CDocumentHandler::~CDocumentHandler(void)
	??1CErrorUI@@UAE@XZ @ 4 NONAME ; CErrorUI::~CErrorUI(void)
	??1CFindItemDialog@@UAE@XZ @ 5 NONAME ; CFindItemDialog::~CFindItemDialog(void)
	?AddItemFinderMenuL@CFindItemMenu@@QAEXPAVCAknItemFinder@@PAVCEikMenuPane@@HABVTDesC16@@HH@Z @ 6 NONAME ABSENT ; void CFindItemMenu::AddItemFinderMenuL(class CAknItemFinder *, class CEikMenuPane *, int, class TDesC16 const &, int, int)
	?AttachItemFinderMenuL@CFindItemMenu@@QAEXH@Z @ 7 NONAME ; void CFindItemMenu::AttachItemFinderMenuL(int)
	?CanHandleL@CDocumentHandler@@QAEHABVTDataType@@@Z @ 8 NONAME ; int CDocumentHandler::CanHandleL(class TDataType const &)
	?CanOpenL@CDocumentHandler@@QAEHABVTDataType@@@Z @ 9 NONAME ; int CDocumentHandler::CanOpenL(class TDataType const &)
	?CanSaveL@CDocumentHandler@@QAEHABVTDataType@@@Z @ 10 NONAME ; int CDocumentHandler::CanSaveL(class TDataType const &)
	?CommandIsValidL@CFindItemMenu@@QBEHH@Z @ 11 NONAME ; int CFindItemMenu::CommandIsValidL(int) const
	?CopyL@CDocumentHandler@@QAEHABVTDesC16@@0AAVTDataType@@I@Z @ 12 NONAME ; int CDocumentHandler::CopyL(class TDesC16 const &, class TDesC16 const &, class TDataType &, unsigned int)
	?DisplayFindItemCascadeMenuL@CFindItemMenu@@QBEXAAVCEikMenuPane@@@Z @ 13 NONAME ; void CFindItemMenu::DisplayFindItemCascadeMenuL(class CEikMenuPane &) const
	?DisplayFindItemMenuItemL@CFindItemMenu@@QAEXAAVCEikMenuPane@@H@Z @ 14 NONAME ; void CFindItemMenu::DisplayFindItemMenuItemL(class CEikMenuPane &, int)
	?DynInitMenuPaneL@CFindItemDialog@@MAEXHPAVCEikMenuPane@@@Z @ 15 NONAME ; void CFindItemDialog::DynInitMenuPaneL(int, class CEikMenuPane *)
	?ExecuteLD@CFindItemDialog@@QAEHXZ @ 16 NONAME ; int CFindItemDialog::ExecuteLD(void)
	?GetPath@CDocumentHandler@@QAEHAAVTDes16@@@Z @ 17 NONAME ; int CDocumentHandler::GetPath(class TDes16 &)
	?HandleCallL@CFindItemMenu@@QAEXABVTDesC16@@@Z @ 18 NONAME ; void CFindItemMenu::HandleCallL(class TDesC16 const &)
	?HandleItemFinderCommandL@CFindItemMenu@@QAEXH@Z @ 19 NONAME ; void CFindItemMenu::HandleItemFinderCommandL(int)
	?HandlerAppUid@CDocumentHandler@@QAEHAAVTUid@@@Z @ 20 NONAME ; int CDocumentHandler::HandlerAppUid(class TUid &)
	?InParamListL@CDocumentHandler@@QAEAAVCAiwGenericParamList@@XZ @ 21 NONAME ; class CAiwGenericParamList & CDocumentHandler::InParamListL(void)
	?MoveL@CDocumentHandler@@QAEHABVTDesC16@@0AAVTDataType@@I@Z @ 22 NONAME ; int CDocumentHandler::MoveL(class TDesC16 const &, class TDesC16 const &, class TDataType &, unsigned int)
	?NewL@CDocumentHandler@@SAPAV1@PAVCEikProcess@@@Z @ 23 NONAME ; class CDocumentHandler * CDocumentHandler::NewL(class CEikProcess *)
	?NewL@CDocumentHandler@@SAPAV1@XZ @ 24 NONAME ; class CDocumentHandler * CDocumentHandler::NewL(void)
	?NewL@CErrorUI@@SAPAV1@AAVCCoeEnv@@@Z @ 25 NONAME ; class CErrorUI * CErrorUI::NewL(class CCoeEnv &)
	?NewL@CErrorUI@@SAPAV1@XZ @ 26 NONAME ; class CErrorUI * CErrorUI::NewL(void)
	?NewL@CFindItemDialog@@SAPAV1@ABVTDesC16@@W4TFindItemSearchCase@CFindItemEngine@@@Z @ 27 NONAME ; class CFindItemDialog * CFindItemDialog::NewL(class TDesC16 const &, enum CFindItemEngine::TFindItemSearchCase)
	?NewL@CFindItemMenu@@SAPAV1@H@Z @ 28 NONAME ; class CFindItemMenu * CFindItemMenu::NewL(int)
	?NewLC@CDocumentHandler@@SAPAV1@PAVCEikProcess@@@Z @ 29 NONAME ; class CDocumentHandler * CDocumentHandler::NewLC(class CEikProcess *)
	?NewLC@CDocumentHandler@@SAPAV1@XZ @ 30 NONAME ; class CDocumentHandler * CDocumentHandler::NewLC(void)
	?NewLC@CErrorUI@@SAPAV1@AAVCCoeEnv@@@Z @ 31 NONAME ; class CErrorUI * CErrorUI::NewLC(class CCoeEnv &)
	?NewLC@CErrorUI@@SAPAV1@XZ @ 32 NONAME ; class CErrorUI * CErrorUI::NewLC(void)
	?NewLC@CFindItemMenu@@SAPAV1@H@Z @ 33 NONAME ; class CFindItemMenu * CFindItemMenu::NewLC(int)
	?OfferKeyEventL@CFindItemDialog@@UAE?AW4TKeyResponse@@ABUTKeyEvent@@W4TEventCode@@@Z @ 34 NONAME ; enum TKeyResponse CFindItemDialog::OfferKeyEventL(struct TKeyEvent const &, enum TEventCode)
	?OpenFileEmbeddedL@CDocumentHandler@@QAEHAAVRFile@@AAVTDataType@@@Z @ 35 NONAME ; int CDocumentHandler::OpenFileEmbeddedL(class RFile &, class TDataType &)
	?OpenFileEmbeddedL@CDocumentHandler@@QAEHAAVRFile@@AAVTDataType@@ABVCAiwGenericParamList@@@Z @ 36 NONAME ; int CDocumentHandler::OpenFileEmbeddedL(class RFile &, class TDataType &, class CAiwGenericParamList const &)
	?OpenFileEmbeddedL@CDocumentHandler@@QAEHABVTDesC16@@AAVTDataType@@@Z @ 37 NONAME ; int CDocumentHandler::OpenFileEmbeddedL(class TDesC16 const &, class TDataType &)
	?OpenFileL@CDocumentHandler@@QAEHAAVRFile@@AAVTDataType@@@Z @ 38 NONAME ; int CDocumentHandler::OpenFileL(class RFile &, class TDataType &)
	?OpenFileL@CDocumentHandler@@QAEHABVTDesC16@@AAVTDataType@@@Z @ 39 NONAME ; int CDocumentHandler::OpenFileL(class TDesC16 const &, class TDataType &)
	?OpenTempFileL@CDocumentHandler@@QAEXABVTDesC16@@AAVRFile@@@Z @ 40 NONAME ; void CDocumentHandler::OpenTempFileL(class TDesC16 const &, class RFile &)
	?OutParamList@CDocumentHandler@@QAEPBVCAiwGenericParamList@@XZ @ 41 NONAME ; class CAiwGenericParamList const * CDocumentHandler::OutParamList(void)
	?ProcessCommandL@CFindItemDialog@@UAEXH@Z @ 42 NONAME ; void CFindItemDialog::ProcessCommandL(int)
	?RestoreL@CAiwGenericParamConsumer@@UAEXABVCStreamStore@@ABVCStreamDictionary@@@Z @ 43 NONAME ; void CAiwGenericParamConsumer::RestoreL(class CStreamStore const &, class CStreamDictionary const &)
	?SaveL@CDocumentHandler@@QAEHABVTDesC8@@AAVTDataType@@ABVTDesC16@@I@Z @ 44 NONAME ; int CDocumentHandler::SaveL(class TDesC8 const &, class TDataType &, class TDesC16 const &, unsigned int)
	?SaveL@CDocumentHandler@@QAEHABVTDesC8@@AAVTDataType@@I@Z @ 45 NONAME ; int CDocumentHandler::SaveL(class TDesC8 const &, class TDataType &, unsigned int)
	?SaveTempFileL@CDocumentHandler@@QAEXABVTDesC8@@AAVTDataType@@ABVTDesC16@@AAVRFile@@@Z @ 46 NONAME ; void CDocumentHandler::SaveTempFileL(class TDesC8 const &, class TDataType &, class TDesC16 const &, class RFile &)
	?SearchCase@CFindItemMenu@@QBE?AW4TFindItemSearchCase@CFindItemEngine@@H@Z @ 47 NONAME ; enum CFindItemEngine::TFindItemSearchCase CFindItemMenu::SearchCase(int) const
	?SetCallbackNumber@CFindItemMenu@@QAEXABVTDesC16@@@Z @ 48 NONAME ; void CFindItemMenu::SetCallbackNumber(class TDesC16 const &)
	?SetExitObserver@CDocumentHandler@@QAEXPAVMAknServerAppExitObserver@@@Z @ 49 NONAME ; void CDocumentHandler::SetExitObserver(class MAknServerAppExitObserver *)
	?SetOutputParamsL@CAiwGenericParamConsumer@@IAEXPBVCAiwGenericParamList@@@Z @ 50 NONAME ; void CAiwGenericParamConsumer::SetOutputParamsL(class CAiwGenericParamList const *)
	?SetSenderDescriptorType@CFindItemMenu@@QAEXW4TItemType@CAknItemFinder@@@Z @ 51 NONAME ABSENT ; void CFindItemMenu::SetSenderDescriptorType(enum CAknItemFinder::TItemType)
	?ShowGlobalErrorNoteL@CErrorUI@@QAEHHW4TErrorContext@CTextResolver@@@Z @ 52 NONAME ; int CErrorUI::ShowGlobalErrorNoteL(int, enum CTextResolver::TErrorContext)
	?ShowGlobalErrorQueryL@CErrorUI@@QAEHHW4TErrorContext@CTextResolver@@@Z @ 53 NONAME ; int CErrorUI::ShowGlobalErrorQueryL(int, enum CTextResolver::TErrorContext)
	?SilentMoveL@CDocumentHandler@@QAEHABVTDesC16@@00AAVTDataType@@I@Z @ 54 NONAME ; int CDocumentHandler::SilentMoveL(class TDesC16 const &, class TDesC16 const &, class TDesC16 const &, class TDataType &, unsigned int)
	?UpdateItemFinderMenuL@CFindItemMenu@@QAEXHPAVCEikMenuPane@@@Z @ 55 NONAME ; void CFindItemMenu::UpdateItemFinderMenuL(int, class CEikMenuPane *)
	?HandleVoIPCallL@CFindItemMenu@@QAEXABVTDesC16@@@Z @ 56 NONAME ; void CFindItemMenu::HandleVoIPCallL(class TDesC16 const &)
	?CopyL@CDocumentHandler@@QAEHABVRFile@@ABVTDesC16@@AAVTDataType@@I@Z @ 57 NONAME ; int CDocumentHandler::CopyL(class RFile const &, class TDesC16 const &, class TDataType &, unsigned int)
	?CheckFileNameExtension@CDocumentHandler@@QAEXAAVTDes16@@ABVTDataType@@@Z @ 58 NONAME ; void CDocumentHandler::CheckFileNameExtension(class TDes16 &, class TDataType const &)
	?CanHandleProgressivelyL@CDocumentHandler@@QAEHABVTDataType@@AAVTUid@@@Z @ 59 NONAME ; int CDocumentHandler::CanHandleProgressivelyL(class TDataType const &, class TUid &)
	?GetProgressiveDownloadAppUidsL@CDocumentHandler@@QAEXAAV?$RArray@J@@@Z @ 60 NONAME ; void CDocumentHandler::GetProgressiveDownloadAppUidsL(class RArray<long> &)
	?SetSenderHighlightStatus@CFindItemMenu@@QAEXH@Z @ 61 NONAME ; void CFindItemMenu::SetSenderHighlightStatus(int)
	?SetSenderDisplayText@CFindItemMenu@@QAEXABVTDesC16@@@Z @ 62 NONAME ; void CFindItemMenu::SetSenderDisplayText(class TDesC16 const &)
	?ActivateThisTextL@CItemFinder@@UAEXABVCRichText@@HH@Z @ 63 NONAME ; void CItemFinder::ActivateThisTextL(class CRichText const &, int, int)
	?AddObserver@CItemFinder@@QAEXAAVMItemFinderObserver@@@Z @ 64 NONAME ; void CItemFinder::AddObserver(class MItemFinderObserver &)
	?ConfirmCursorOverTag@CItemFinder@@UAEHABVCRichText@@HHH@Z @ 65 NONAME ; int CItemFinder::ConfirmCursorOverTag(class CRichText const &, int, int, int)
	?CreateDoItText@CItemFinder@@UAEABVTDesC16@@ABVCRichText@@HH@Z @ 66 NONAME ; class TDesC16 const & CItemFinder::CreateDoItText(class CRichText const &, int, int)
	?CurrentItem@CItemFinder@@QAEAAVCFindItemDef@1@XZ @ 67 NONAME ABSENT ; class CItemFinder::CFindItemDef & CItemFinder::CurrentItem(void)
	?CurrentItemExt@CItemFinder@@QAEAAVCFindItemExt@1@XZ @ 68 NONAME ; class CItemFinder::CFindItemExt & CItemFinder::CurrentItemExt(void)
	?CurrentSelection@CItemFinder@@QAE?AVTPtrC16@@XZ @ 69 NONAME ; class TPtrC16 CItemFinder::CurrentSelection(void)
	?GetRecogniseFormat@CItemFinder@@UAEXAAVTCharFormat@@@Z @ 70 NONAME ; void CItemFinder::GetRecogniseFormat(class TCharFormat &)
	?GetRolloverFormat@CItemFinder@@UAEXAAVTCharFormat@@@Z @ 71 NONAME ; void CItemFinder::GetRolloverFormat(class TCharFormat &)
	?ItemWasTappedL@CItemFinder@@QAEHVTPoint@@@Z @ 72 NONAME ; int CItemFinder::ItemWasTappedL(class TPoint)
	?MParser_Reserved_2@CItemFinder@@UAEXXZ @ 73 NONAME ; void CItemFinder::MParser_Reserved_2(void)
	?NewL@CItemFinder@@SAPAV1@H@Z @ 74 NONAME ; class CItemFinder * CItemFinder::NewL(int)
	?NextItemOrScrollL@CItemFinder@@QAEHW4TFindDirection@1@@Z @ 75 NONAME ; int CItemFinder::NextItemOrScrollL(enum CItemFinder::TFindDirection)
	?ParseThisText@CItemFinder@@UAEHABVCRichText@@HHHAAH1@Z @ 76 NONAME ; int CItemFinder::ParseThisText(class CRichText const &, int, int, int, int &, int &)
	?PositionOfNextItem@CItemFinder@@QAEHW4TFindDirection@1@@Z @ 77 NONAME ; int CItemFinder::PositionOfNextItem(enum CItemFinder::TFindDirection)
	?ReformatOnRecognise@CItemFinder@@UBEHXZ @ 78 NONAME ; int CItemFinder::ReformatOnRecognise(void) const
	?ReformatOnRollover@CItemFinder@@UBEHXZ @ 79 NONAME ; int CItemFinder::ReformatOnRollover(void) const
	?Release@CItemFinder@@UAEXXZ @ 80 NONAME ; void CItemFinder::Release(void)
	?ResetCurrentItem@CItemFinder@@QAEXXZ @ 81 NONAME ; void CItemFinder::ResetCurrentItem(void)
	?ResolveAndSetItemTypeL@CItemFinder@@QAEXH@Z @ 82 NONAME ; void CItemFinder::ResolveAndSetItemTypeL(int)
	?SetEditor@CItemFinder@@QAEXPAPAVCEikRichTextEditor@@@Z @ 83 NONAME ; void CItemFinder::SetEditor(class CEikRichTextEditor * *)
	?SetExternalLinks@CItemFinder@@QAEHPAV?$CArrayPtrFlat@VCFindItemExt@CItemFinder@@@@@Z @ 84 NONAME ; int CItemFinder::SetExternalLinks(class CArrayPtrFlat<class CItemFinder::CFindItemExt> *)
	?SetFindModeL@CItemFinder@@QAEXH@Z @ 85 NONAME ; void CItemFinder::SetFindModeL(int)
	?AddItemFindMenuL@CFindItemMenu@@QAEXPAVCItemFinder@@PAVCEikMenuPane@@HABVTDesC16@@HH@Z @ 86 NONAME ; void CFindItemMenu::AddItemFindMenuL(class CItemFinder *, class CEikMenuPane *, int, class TDesC16 const &, int, int)
	?SetSenderDescriptorType@CFindItemMenu@@QAEXW4TItemType@CItemFinder@@@Z @ 87 NONAME ; void CFindItemMenu::SetSenderDescriptorType(enum CItemFinder::TItemType)
	??1CFindItemExt@CItemFinder@@UAE@XZ @ 88 NONAME ; CItemFinder::CFindItemExt::~CFindItemExt(void)
	?SetMenuItemVisibility@CFindItemMenu@@QAEXW4TMenuItem@1@H@Z @ 89 NONAME ; void CFindItemMenu::SetMenuItemVisibility(enum CFindItemMenu::TMenuItem, int)
	?HandleNotifyL@MPBAiwNotify@@UAEHHHAAVCAiwGenericParamList@@ABV2@@Z @ 90 NONAME ; int MPBAiwNotify::HandleNotifyL(int, int, class CAiwGenericParamList &, class CAiwGenericParamList const &)

