EXPORTS ??0CGridCellImg@@IAE@XZ @1 NONAME
EXPORTS ??0CGridLabelImg@@IAE@ABVTFontSpec@@PAVMGraphicsDeviceMap@@@Z @2 NONAME
EXPORTS ??0CGridLay@@QAE@PAVMGraphicsDeviceMap@@@Z @3 NONAME
EXPORTS ??1CGridCellImg@@UAE@XZ @4 NONAME
EXPORTS ??1CGridCellRegion@@UAE@XZ @5 NONAME
EXPORTS ??1CGridImg@@UAE@XZ @6 NONAME
EXPORTS ??1CGridLabelImg@@UAE@XZ @7 NONAME
EXPORTS ??1CGridLay@@UAE@XZ @8 NONAME
EXPORTS ??1CGridPrinter@@UAE@XZ @9 NONAME
EXPORTS ??ACGridCellRegion@@QBE?AVTRangeRef@@H@Z @10 NONAME
EXPORTS ?AddCellRangeL@CGridCellRegion@@QAEXABVTRangeRef@@@Z @11 NONAME
EXPORTS ?AddColL@CGridCellRegion@@QAEXH@Z @12 NONAME
EXPORTS ?AddColToSelectedL@CGridImg@@QAEXHW4TSelectType@1@@Z @13 NONAME
EXPORTS ?AddRangeToSelectedL@CGridImg@@QAEXABVTRangeRef@@W4TSelectType@1@@Z @14 NONAME
EXPORTS ?AddRegionToSelectedL@CGridImg@@QAEXPBV?$CArrayFix@VTRangeRef@@@@W4TSelectType@1@@Z @15 NONAME
EXPORTS ?AddRowL@CGridCellRegion@@QAEXH@Z @16 NONAME
EXPORTS ?AddRowToSelectedL@CGridImg@@QAEXHW4TSelectType@1@@Z @17 NONAME
EXPORTS ?CellToPoint@CGridLay@@QBE?AVTPoint@@ABVTCellRef@@0@Z @18 NONAME
EXPORTS ?CellToPoint@CGridLay@@QBE?AVTPoint@@ABVTCellRef@@@Z @19 NONAME
EXPORTS ?CellToRect@CGridLay@@QBE?AVTRect@@ABVTCellRef@@@Z @20 NONAME
EXPORTS ?CheckSideLabelWidth@CGridImg@@QAEHXZ @21 NONAME
EXPORTS ?CheckSideLabelWidthAndScrollL@CGridImg@@QAEXXZ @22 NONAME
EXPORTS ?ClearAllHardPageBreaksL@CGridLay@@QAEXXZ @23 NONAME
EXPORTS ?ClearHardColumnPageBreakL@CGridLay@@QAEXH@Z @24 NONAME
EXPORTS ?ClearHardRowPageBreakL@CGridLay@@QAEXH@Z @25 NONAME
EXPORTS ?ClearPagination@CGridLay@@QAEXXZ @26 NONAME
EXPORTS ?ClearTitleLineRegionL@CGridImg@@QBEXABVTPoint@@@Z @27 NONAME
EXPORTS ?ColumnExtent@CGridLay@@QBEHXZ @28 NONAME
EXPORTS ?ColumnExtent@MGridTable@@UBEHXZ @29 NONAME
EXPORTS ?ColumnToXVal@CGridLay@@QBEHH@Z @30 NONAME
EXPORTS ?ColumnToXVal@CGridLay@@QBEHHH@Z @31 NONAME
EXPORTS ?ColumnWidthInTwips@CGridLay@@QBEHH@Z @32 NONAME
EXPORTS ?ColumnWidthOfSelectedInTwips@CGridLay@@QBEHXZ @33 NONAME
EXPORTS ?ConstructL@CGridLabelImg@@QAEXXZ @34 NONAME
EXPORTS ?ConstructL@CGridLay@@QAEXPAV1@PAVCGridImg@@@Z @35 NONAME
EXPORTS ?ConstructL@CGridLay@@QAEXPBVMGridTable@@PAVCGridImg@@H@Z @36 NONAME
EXPORTS ?ConstructL@CGridLay@@QAEXPBVMGridTable@@PAVCGridImg@@HH@Z @37 NONAME
EXPORTS ?Count@CGridCellRegion@@QBEHXZ @38 NONAME
EXPORTS ?DataWidthInPixelsL@CGridCellImg@@EBEHABVTCellRef@@@Z @39 NONAME
EXPORTS ?DefaultColumnWidthInTwips@CGridLay@@QBEHXZ @40 NONAME
EXPORTS ?DefaultRowHeightInTwips@CGridLay@@QBEHXZ @41 NONAME
EXPORTS ?DoesCellContainDataL@CGridCellImg@@EBEHABVTCellRef@@@Z @42 NONAME
EXPORTS ?DrawCellL@CGridImg@@QBEXABVTCellRef@@@Z @43 NONAME
EXPORTS ?DrawL@CGridImg@@QBEXPAVCGraphicsContext@@@Z @44 NONAME
EXPORTS ?DrawL@CGridImg@@QBEXPAVCGraphicsContext@@ABVTRect@@@Z @45 NONAME
EXPORTS ?DrawRangeL@CGridImg@@QBEXABVTRangeRef@@@Z @46 NONAME
EXPORTS ?DrawRowCursorL@CGridLabelImg@@EBEXPAVCGraphicsContext@@ABVTRect@@@Z @47 NONAME
EXPORTS ?DrawSelectedL@CGridImg@@QBEXXZ @48 NONAME
EXPORTS ?DrawTitleLines@CGridImg@@QBEXXZ @49 NONAME
EXPORTS ?DrawTopLeftLabelL@CGridLabelImg@@EBEXPAVCGraphicsContext@@ABVTRect@@@Z @50 NONAME
EXPORTS ?ExposeCell@CGridLay@@QAE?AVTPoint@@ABVTCellRef@@@Z @51 NONAME
EXPORTS ?ExposeCellToTopLeft@CGridLay@@QAE?AVTPoint@@ABVTCellRef@@@Z @52 NONAME
EXPORTS ?ExternalizeL@CGridLay@@QBEXAAVRWriteStream@@@Z @53 NONAME
EXPORTS ?FillRect@TGridUtils@@SAXPAVCGraphicsContext@@VTRgb@@ABVTRect@@@Z @54 NONAME
EXPORTS ?FinishLabelDragL@CGridImg@@QAEXXZ @55 NONAME
EXPORTS ?InsertDeleteColumns@CGridLay@@QAEXHHW4TFixGridRange@1@@Z @56 NONAME
EXPORTS ?InsertDeleteRows@CGridLay@@QAEXHHW4TFixGridRange@1@@Z @57 NONAME
EXPORTS ?InternalizeL@CGridLay@@QAEXAAVRReadStream@@@Z @58 NONAME
EXPORTS ?IsAnyColSelected@CGridCellRegion@@QBEHXZ @59 NONAME
EXPORTS ?IsAnyRowSelected@CGridCellRegion@@QBEHXZ @60 NONAME
EXPORTS ?IsCellSelected@CGridCellRegion@@QBEHABVTCellRef@@@Z @61 NONAME
EXPORTS ?IsCellSelected@CGridCellRegion@@QBEHABVTCellRef@@H@Z @62 NONAME
EXPORTS ?IsCellSelectedLastIndex@CGridCellRegion@@QBEHABVTCellRef@@@Z @63 NONAME
EXPORTS ?IsColSelected@CGridCellRegion@@QBEHH@Z @64 NONAME
EXPORTS ?IsColSelected@CGridCellRegion@@QBEHHH@Z @65 NONAME
EXPORTS ?IsColSelectedLastIndex@CGridCellRegion@@QBEHH@Z @66 NONAME
EXPORTS ?IsHardColumnPageBreak@CGridLay@@QBEHH@Z @67 NONAME
EXPORTS ?IsHardRowPageBreak@CGridLay@@QBEHH@Z @68 NONAME
EXPORTS ?IsRangeSelected@CGridCellRegion@@QBEHABVTRangeRef@@@Z @69 NONAME
EXPORTS ?IsRangeSelected@CGridCellRegion@@QBEHABVTRangeRef@@H@Z @70 NONAME
EXPORTS ?IsRangeSelectedLastIndex@CGridCellRegion@@QBEHABVTRangeRef@@@Z @71 NONAME
EXPORTS ?IsRowSelected@CGridCellRegion@@QBEHH@Z @72 NONAME
EXPORTS ?IsRowSelected@CGridCellRegion@@QBEHHH@Z @73 NONAME
EXPORTS ?IsRowSelectedLastIndex@CGridCellRegion@@QBEHH@Z @74 NONAME
EXPORTS ?MaxSideLabelWidthInPixels@CGridImg@@QBEHXZ @75 NONAME
EXPORTS ?MinColumnWidthInPixels@CGridLay@@QBEHXZ @76 NONAME
EXPORTS ?MinRowHeightInPixels@CGridLay@@QBEHXZ @77 NONAME
EXPORTS ?MinVisibleFromColumn@CGridLay@@QBEHXZ @78 NONAME
EXPORTS ?MinVisibleFromRow@CGridLay@@QBEHXZ @79 NONAME
EXPORTS ?MoveCursorL@CGridImg@@QAEXW4TMoveDirectionAndAmount@@I@Z @80 NONAME
EXPORTS ?NewL@CGridCellRegion@@SAPAV1@ABVTRangeRef@@@Z @81 NONAME
EXPORTS ?NewL@CGridImg@@SAPAV1@PAVCGraphicsDevice@@PAVCGridCellImg@@PAVCGridLay@@@Z @82 NONAME
EXPORTS ?NewL@CGridImg@@SAPAV1@PAVCGridCellImg@@PAVCGridLay@@@Z @83 NONAME
EXPORTS ?NewL@CGridPrinter@@SAPAV1@PAVCGridLay@@PAVCGridLabelImg@@PAVCGridCellImg@@PAVTZoomFactor@@@Z @84 NONAME
EXPORTS ?NoOfPages@CGridLay@@QBEHXZ @85 NONAME
EXPORTS ?NotifyGraphicsDeviceMapChangeL@CGridLabelImg@@QAEXXZ @86 NONAME
EXPORTS ?NotifyGridRangeResize@CGridImg@@QAEXXZ @87 NONAME
EXPORTS ?NotifyPaginationOutOfDateL@CGridLay@@QAEXXZ @88 NONAME
EXPORTS ?PageScroll@CGridLay@@QAE?AVTPoint@@W4TMoveDirectionAndAmount@@@Z @89 NONAME
EXPORTS ?PageToRange@CGridLay@@QBE?AVTRangeRef@@HW4TPageOrder@1@@Z @90 NONAME
EXPORTS ?PaginateL@CGridLay@@QAEXXZ @91 NONAME
EXPORTS ?PointToCell@CGridLay@@QBE?AVTCellRef@@ABV2@ABVTPoint@@@Z @92 NONAME
EXPORTS ?PointToCell@CGridLay@@QBE?AVTCellRef@@ABVTPoint@@@Z @93 NONAME
EXPORTS ?PrintBandL@CGridPrinter@@UAEXPAVCGraphicsDevice@@HABVTBandAttributes@@@Z @94 NONAME
EXPORTS ?PrintGridLinesAndCellsInRangeL@CGridImg@@QBEXPAVCGraphicsContext@@ABVTRangeRef@@H@Z @95 NONAME
EXPORTS ?RangeList@CGridCellRegion@@QBEPBV?$CArrayFix@VTRangeRef@@@@XZ @96 NONAME
EXPORTS ?RecalcPixelSparseMaps@CGridLay@@QAEXXZ @97 NONAME
EXPORTS ?ReleaseFont@CGridLabelImg@@QAEXXZ @98 NONAME
EXPORTS ?RequestRow@MGridTable@@UBEHHAAH@Z @99 NONAME
EXPORTS ?Reserved_1@CGridCellImg@@EAEXXZ @100 NONAME
EXPORTS ?Reset@CGridCellRegion@@QAEXXZ @101 NONAME
EXPORTS ?ResetReferencePoints@CGridImg@@QAEXXZ @102 NONAME
EXPORTS ?ResetSelectedL@CGridImg@@QAEXXZ @103 NONAME
EXPORTS ?ResetVisibleToCell@CGridLay@@QAEXXZ @104 NONAME
EXPORTS ?ResetVisibleToColumn@CGridLay@@QAEXXZ @105 NONAME
EXPORTS ?ResetVisibleToRow@CGridLay@@QAEXXZ @106 NONAME
EXPORTS ?ResizeBounds@CGridCellRegion@@QAEXABVTCellRef@@@Z @107 NONAME
EXPORTS ?RestoreL@CGridLay@@QAEXABVCStreamStore@@VTStreamId@@@Z @108 NONAME
EXPORTS ?RowExtent@CGridLay@@QBEHXZ @109 NONAME
EXPORTS ?RowExtent@MGridTable@@UBEHXZ @110 NONAME
EXPORTS ?RowHeightInTwips@CGridLay@@QBEHH@Z @111 NONAME
EXPORTS ?RowHeightOfSelectedInTwips@CGridLay@@QBEHXZ @112 NONAME
EXPORTS ?RowToYVal@CGridLay@@QBEHH@Z @113 NONAME
EXPORTS ?RowToYVal@CGridLay@@QBEHHH@Z @114 NONAME
EXPORTS ?ScrollL@CGridImg@@QAEXABVTPoint@@@Z @115 NONAME
EXPORTS ?SetAnchorPosL@CGridImg@@QAEXABVTCellRef@@@Z @116 NONAME
EXPORTS ?SetAutoClearGridCells@CGridLay@@QAEXH@Z @117 NONAME
EXPORTS ?SetAutoPagination@CGridLay@@QAEXH@Z @118 NONAME
EXPORTS ?SetColumnBursting@CGridLay@@QAEXH@Z @119 NONAME
EXPORTS ?SetColumnSelectionDisabled@CGridLay@@QAEXH@Z @120 NONAME
EXPORTS ?SetColumnWidthInTwipsL@CGridLay@@QAEHHHH@Z @121 NONAME
EXPORTS ?SetColumnWidthInTwipsL@CGridLay@@QAEXHH@Z @122 NONAME
EXPORTS ?SetColumnWidthOfSelectedInTwipsL@CGridLay@@QAEXH@Z @123 NONAME
EXPORTS ?SetColumnWidthsToDefault@CGridLay@@QAEXXZ @124 NONAME
EXPORTS ?SetCursorPosL@CGridImg@@QAEXABVTCellRef@@@Z @125 NONAME
EXPORTS ?SetCursorVisible@CGridLay@@QAEXH@Z @126 NONAME
EXPORTS ?SetCursorWithPointerL@CGridImg@@QAEXABVTPoint@@I@Z @127 NONAME
EXPORTS ?SetDefaultColumnWidthInTwips@CGridLay@@QAEXH@Z @128 NONAME
EXPORTS ?SetDefaultRowHeightInTwips@CGridLay@@QAEXH@Z @129 NONAME
EXPORTS ?SetEncroachingCellBorders@CGridLay@@QAEXH@Z @130 NONAME
EXPORTS ?SetGraphicsDeviceMap@CGridLay@@QAEXPAVMGraphicsDeviceMap@@@Z @131 NONAME
EXPORTS ?SetGridImgL@CGridLay@@QAEXPAVCGridImg@@@Z @132 NONAME
EXPORTS ?SetGridLabelSeparators@CGridLay@@QAEXH@Z @133 NONAME
EXPORTS ?SetGridRect@CGridImg@@QAEXABVTRect@@@Z @134 NONAME
EXPORTS ?SetGridToDefault@CGridLay@@QAEXXZ @135 NONAME
EXPORTS ?SetHardColumnPageBreakL@CGridLay@@QAEXH@Z @136 NONAME
EXPORTS ?SetHardRowPageBreakL@CGridLay@@QAEXH@Z @137 NONAME
EXPORTS ?SetHighlightVisible@CGridLay@@QAEXH@Z @138 NONAME
EXPORTS ?SetHorizontalGridLines@CGridLay@@QAEXH@Z @139 NONAME
EXPORTS ?SetLastCellRange@CGridCellRegion@@QAEXABVTRangeRef@@@Z @140 NONAME
EXPORTS ?SetMinColumnWidthInPixels@CGridLay@@QAEXH@Z @141 NONAME
EXPORTS ?SetMinRowHeightInPixels@CGridLay@@QAEXH@Z @142 NONAME
EXPORTS ?SetPageBreakLinesHidden@CGridLay@@QAEXH@Z @143 NONAME
EXPORTS ?SetPageSizeInTwipsL@CGridLay@@QAEXABVTSize@@@Z @144 NONAME
EXPORTS ?SetPrintGridRect@CGridImg@@QAEXABVTRect@@@Z @145 NONAME
EXPORTS ?SetPrintedGridLines@CGridLay@@QAEXH@Z @146 NONAME
EXPORTS ?SetPrintedLabels@CGridLay@@QAEXH@Z @147 NONAME
EXPORTS ?SetRowHeightInTwipsL@CGridLay@@QAEHHHH@Z @148 NONAME
EXPORTS ?SetRowHeightInTwipsL@CGridLay@@QAEXHH@Z @149 NONAME
EXPORTS ?SetRowHeightOfSelectedInTwipsL@CGridLay@@QAEXH@Z @150 NONAME
EXPORTS ?SetRowHeightsToDefault@CGridLay@@QAEXXZ @151 NONAME
EXPORTS ?SetRowPermanentlySelectedL@CGridLay@@QAEXH@Z @152 NONAME
EXPORTS ?SetRowSelectionDisabled@CGridLay@@QAEXH@Z @153 NONAME
EXPORTS ?SetSideLabelDragDisabled@CGridLay@@QAEXH@Z @154 NONAME
EXPORTS ?SetSideLabels@CGridLay@@QAEXH@Z @155 NONAME
EXPORTS ?SetTitleLinesL@CGridLay@@QAEXABVTCellRef@@@Z @156 NONAME
EXPORTS ?SetTitleLinesL@CGridLay@@QAEXH@Z @157 NONAME
EXPORTS ?SetTopLabelDragDisabled@CGridLay@@QAEXH@Z @158 NONAME
EXPORTS ?SetTopLabels@CGridLay@@QAEXH@Z @159 NONAME
EXPORTS ?SetTopLeftMargin@CGridPrinter@@QAEXABVTPoint@@@Z @160 NONAME
EXPORTS ?SetUniformColumnWidth@CGridLay@@QAEXH@Z @161 NONAME
EXPORTS ?SetUniformRowHeight@CGridLay@@QAEXH@Z @162 NONAME
EXPORTS ?SetVerticalGridLines@CGridLay@@QAEXH@Z @163 NONAME
EXPORTS ?SetVisibleRange@CGridLay@@QAEXABVTCellRef@@@Z @164 NONAME
EXPORTS ?SideLabelWidthInPixels@CGridImg@@QBEHXZ @165 NONAME
EXPORTS ?SideLabelWidthInPixels@CGridLabelImg@@EBEHHH@Z @166 NONAME
EXPORTS ?StartLabelDrag@CGridImg@@QAEHABVTPoint@@@Z @167 NONAME
EXPORTS ?StoreL@CGridLay@@QBE?AVTStreamId@@AAVCStreamStore@@@Z @168 NONAME
EXPORTS ?TitleCellToPoint@CGridLay@@QBE?AVTPoint@@ABVTCellRef@@@Z @169 NONAME
EXPORTS ?TitleColumnToXVal@CGridLay@@QBEHH@Z @170 NONAME
EXPORTS ?TitleRowToYVal@CGridLay@@QBEHH@Z @171 NONAME
EXPORTS ?ToggleTitleLinesL@CGridLay@@QAEXXZ @172 NONAME
EXPORTS ?TopLabelHeightInPixels@CGridImg@@QBEHXZ @173 NONAME
EXPORTS ?TopLabelHeightInPixels@CGridLabelImg@@EBEHXZ @174 NONAME
EXPORTS ?TopLeftTitleRangeSize@CGridLay@@QBE?AVTSize@@XZ @175 NONAME
EXPORTS ?UpdateLabelDrag@CGridImg@@QAEHABVTPoint@@@Z @176 NONAME
EXPORTS ?VisibleColumnToXVal@CGridLay@@QBEHH@Z @177 NONAME
EXPORTS ?VisibleRowToYVal@CGridLay@@QBEHH@Z @178 NONAME
EXPORTS ?XValToColumn@CGridLay@@QBEHH@Z @179 NONAME
EXPORTS ?XValToColumn@CGridLay@@QBEHHH@Z @180 NONAME
EXPORTS ?XValToNearestColumn@CGridLay@@QBEHHH@Z @181 NONAME
EXPORTS ?XValToTitleColumn@CGridLay@@QBEHH@Z @182 NONAME
EXPORTS ?YValToNearestRow@CGridLay@@QBEHHH@Z @183 NONAME
EXPORTS ?YValToRow@CGridLay@@QBEHH@Z @184 NONAME
EXPORTS ?YValToRow@CGridLay@@QBEHHH@Z @185 NONAME
EXPORTS ?YValToTitleRow@CGridLay@@QBEHH@Z @186 NONAME
EXPORTS ?SetPageSizeInTwipsL@CGridPrinter@@QAEXABVTSize@@@Z @187 NONAME
EXPORTS ?PaginateL@CGridPrinter@@QAEXXZ @188 NONAME
EXPORTS ?FinishLabelResizeL@CGridImg@@QAEXH@Z @ 189 NONAME ; public: void __thiscall CGridImg::FinishLabelResizeL(int)
EXPORTS	?StartLabelResize@CGridImg@@QAEHHH@Z @ 190 NONAME ; public: int __thiscall CGridImg::StartLabelResize(int,int)
EXPORTS	?UpdateLabelResize@CGridImg@@QAEHH@Z @ 191 NONAME ; public: int __thiscall CGridImg::UpdateLabelResize(int)
EXPORTS	?DrawTopLeftLabelL@CGridLabelImg@@IBEXPAVCGraphicsContext@@ABVTRect@@VTRgb@@@Z @ 192 NONAME ; protected: void __thiscall CGridLabelImg::DrawTopLeftLabelL(class CGraphicsContext *,class TRect const &,class TRgb)const 
EXPORTS	?GridColors@CGridLay@@QBEABVTGridColors@@XZ @ 193 NONAME ; public: class TGridColors const & __thiscall CGridLay::GridColors(void)const 
EXPORTS	?SetGridColors@CGridLay@@QAEXVTGridColors@@@Z @ 194 NONAME ; public: void __thiscall CGridLay::SetGridColors(class TGridColors)
EXPORTS	?SetGridLabelImg@CGridImg@@QAEXPAVCGridLabelImg@@@Z @ 195 NONAME ; public: void __thiscall CGridImg::SetGridLabelImg(class CGridLabelImg *)
EXPORTS	??0TGridColors@@QAE@VTRgb@@000@Z @ 196 NONAME ; public: __thiscall TGridColors::TGridColors(class TRgb,class TRgb,class TRgb,class TRgb)
EXPORTS	??0TGridColors@@QAE@XZ @ 197 NONAME ; public: __thiscall TGridColors::TGridColors(void)

