EXPORTS
	?CancelUnlockMedia@RAknUiServer@@QAEXXZ @ 1 NONAME ; void RAknUiServer::CancelUnlockMedia(void)
	?ConnectAndSendAppsKeySuppress@RAknUiServer@@QAEHH@Z @ 2 NONAME ; int RAknUiServer::ConnectAndSendAppsKeySuppress(int)
	?EnableTaskList@RAknUiServer@@QAEHH@Z @ 3 NONAME ; int RAknUiServer::EnableTaskList(int)
	?HideApplicationFromFsw@RAknUiServer@@QAEHHH@Z @ 4 NONAME ; int RAknUiServer::HideApplicationFromFsw(int, int)
	?MakeTaskListVisible@RAknUiServer@@QAEHH@Z @ 5 NONAME ; int RAknUiServer::MakeTaskListVisible(int)
	?UnlockMedia@RAknUiServer@@QAEXHHAAVTRequestStatus@@@Z @ 6 NONAME ; void RAknUiServer::UnlockMedia(int, int, class TRequestStatus &)
	?UpdateTaskList@RAknUiServer@@QAEHXZ @ 7 NONAME ; int RAknUiServer::UpdateTaskList(void)
	?BlockServerStatusPaneRedraws@RAknUiServer@@QAEHXZ @ 8 NONAME ; int RAknUiServer::BlockServerStatusPaneRedraws(void)
	?IsSystemFaded@RAknUiServer@@QBEHAAH@Z @ 9 NONAME ; int RAknUiServer::IsSystemFaded(int &) const
	?PrepareForAppExit@RAknUiServer@@QAEHH@Z @ 10 NONAME ; int RAknUiServer::PrepareForAppExit(int)
	?RedrawServerStatusPane@RAknUiServer@@QAEHXZ @ 11 NONAME ; int RAknUiServer::RedrawServerStatusPane(void)
	?SetSgcParams@RAknUiServer@@QAEHHV?$TBitFlagsT@K@@HH@Z @ 12 NONAME ; int RAknUiServer::SetSgcParams(int, class TBitFlagsT<unsigned long>, int, int)
	?SetSystemFaded@RAknUiServer@@QAEHH@Z @ 13 NONAME ; int RAknUiServer::SetSystemFaded(int)
	?Connect@RAknUiServer@@QAEHXZ @ 14 NONAME ; int RAknUiServer::Connect(void)
	?BlankScreen@RAknUiServer@@QBEHXZ @ 15 NONAME ; int RAknUiServer::BlankScreen(void) const
	?SetStatusPaneFlags@RAknUiServer@@QBEHH@Z @ 16 NONAME ; int RAknUiServer::SetStatusPaneFlags(int) const
	?SetStatusPaneLayout@RAknUiServer@@QBEHH@Z @ 17 NONAME ; int RAknUiServer::SetStatusPaneLayout(int) const
	?UnblankScreen@RAknUiServer@@QBEHXZ @ 18 NONAME ; int RAknUiServer::UnblankScreen(void) const
	?ServiceUid@RAknUiServer@@EBE?AVTUid@@XZ @ 19 NONAME ; class TUid RAknUiServer::ServiceUid(void) const
	?SetKeyblockMode@RAknUiServer@@QAEHW4TAknKeySoundOpcode@@@Z @ 20 NONAME ; int RAknUiServer::SetKeyblockMode(enum TAknKeySoundOpcode)
	?SetKeyboardRepeatRate@RAknUiServer@@QAEHW4TAknDefaultKeyboardRepeatRate@@@Z @ 21 NONAME ; int RAknUiServer::SetKeyboardRepeatRate(enum TAknDefaultKeyboardRepeatRate)
	?DoEikonServerConnect@RAknUiServer@@QAEHXZ @ 22 NONAME ; int RAknUiServer::DoEikonServerConnect(void)
	?ShowKeysLockedNote@RAknUiServer@@QAEHAAH@Z @ 23 NONAME ; int RAknUiServer::ShowKeysLockedNote(int &)
	?ShutdownApps@RAknUiServer@@QBEXVTUid@@HAAVTRequestStatus@@@Z @ 24 NONAME ; void RAknUiServer::ShutdownApps(class TUid, int, class TRequestStatus &) const
	?ShowGlobalNoteL@RAknUiServer@@QAEHABVTDesC16@@H@Z @ 25 NONAME ; int RAknUiServer::ShowGlobalNoteL(class TDesC16 const &, int)
	?StatusPaneResourceId@RAknUiServer@@QAEHXZ @ 26 NONAME ; int RAknUiServer::StatusPaneResourceId(void)
	?CreateActivateViewEventL@RAknUiServer@@QAEHABVTVwsViewId@@VTUid@@ABVTDesC8@@@Z @ 27 NONAME ; int RAknUiServer::CreateActivateViewEventL(class TVwsViewId const &, class TUid, class TDesC8 const &)
	?RelinquishPriorityToForegroundApp@RAknUiServer@@QAEHXZ @ 28 NONAME ; 
	?GetPackedConfigL@RAknUiServer@@QBEPAVHBufC8@@XZ @ 29 NONAME ; class HBufC8 * RAknUiServer::GetPackedConfigL(void) const
	?CurrentAppStatuspaneResource@RAknUiServer@@QAEHXZ @ 30 NONAME ; int RAknUiServer::CurrentAppStatuspaneResource(void)
	?SetCurrentAppStatuspaneResource@RAknUiServer@@QAEHH@Z @ 31 NONAME ; int RAknUiServer::SetCurrentAppStatuspaneResource(int)
	?RotateScreen@RAknUiServer@@QAEHXZ @ 32 NONAME ; int RAknUiServer::RotateScreen(void)
	?TaskSwitchingSupressed@RAknUiServer@@QAEHXZ @ 33 NONAME ; int RAknUiServer::TaskSwitchingSupressed(void)
	?HideLongTapAnimation@RAknUiServer@@QAEHXZ @ 34 NONAME ; int RAknUiServer::HideLongTapAnimation(void)
	?ShowLongTapAnimation@RAknUiServer@@QAEHABUTPointerEvent@@@Z @ 35 NONAME ; int RAknUiServer::ShowLongTapAnimation(struct TPointerEvent const &)
	?AknStartupApaServerProcess@@YAHXZ @ 36 NONAME ; int AknStartupApaServerProcess(void)
	?StartAknCapserverL@RAknUiServer@@SAXXZ @ 37 NONAME ; void RAknUiServer::StartAknCapserverL(void)
	??0CAknOomMonitorPlugin@@QAE@XZ @ 38 NONAME ABSENT; CAknOomMonitorPlugin::CAknOomMonitorPlugin(void)
	??1CAknOomMonitorPlugin@@UAE@XZ @ 39 NONAME ABSENT; CAknOomMonitorPlugin::~CAknOomMonitorPlugin(void)
	?CancelRequestFreeMemory@RAknOomMonitorSession@@QAEXXZ @ 40 NONAME ABSENT; void RAknOomMonitorSession::CancelRequestFreeMemory(void)
	?Connect@RAknOomMonitorSession@@QAEHXZ @ 41 NONAME ABSENT; int RAknOomMonitorSession::Connect(void)
	?ConstructL@CAknOomMonitorPlugin@@QAEXXZ @ 42 NONAME ABSENT; void CAknOomMonitorPlugin::ConstructL(void)
	?ExtensionInterface@CAknOomMonitorPlugin@@MAEXVTUid@@AAPAX@Z @ 43 NONAME ABSENT; void CAknOomMonitorPlugin::ExtensionInterface(class TUid, void * &)
	?RequestFreeMemory@RAknOomMonitorSession@@QAEHH@Z @ 44 NONAME ABSENT; int RAknOomMonitorSession::RequestFreeMemory(int)
	?RequestFreeMemory@RAknOomMonitorSession@@QAEXHAAVTRequestStatus@@@Z @ 45 NONAME ABSENT; void RAknOomMonitorSession::RequestFreeMemory(int, class TRequestStatus &)
	?ThisAppIsNotExiting@RAknOomMonitorSession@@QAEXH@Z @ 46 NONAME ABSENT; void RAknOomMonitorSession::ThisAppIsNotExiting(int)
	?GetAliasKeyCode@RAknUiServer@@QAEHAAIABUTKeyEvent@@W4TEventCode@@@Z @ 47 NONAME ; int RAknUiServer::GetAliasKeyCode(unsigned int &, struct TKeyEvent const &, enum TEventCode)
	?FsSession@CAknOomMonitorPlugin@@QAEAAVRFs@@XZ @ 48 NONAME ABSENT; class RFs & CAknOomMonitorPlugin::FsSession(void)
	?SetAknMemoryMonitorTls@@YAXPAVCAknMemoryMonitor@@@Z @ 49 NONAME ABSENT; void SetAknMemoryMonitorTls(class CAknMemoryMonitor *)
	?WsSession@CAknOomMonitorPlugin@@QAEAAVRWsSession@@XZ @ 50 NONAME ABSENT; class RWsSession & CAknOomMonitorPlugin::WsSession(void)
	?NewL@CAknAppOomMonitorPlugin@@SAPAV1@VTUid@@@Z @ 51 NONAME ABSENT; class CAknAppOomMonitorPlugin * CAknAppOomMonitorPlugin::NewL(class TUid)
	?SetSgcParams@RAknUiServer@@QAEHHV?$TBitFlagsT@K@@HHH@Z @ 52 NONAME ; int RAknUiServer::SetSgcParams(int, class TBitFlagsT<unsigned long>, int, int, int)
	?DoNotifierControllerCommand@RAknUiServer@@QAEHH@Z @ 53 NONAME ; int RAknUiServer::DoNotifierControllerCommand(int)
	?SetFgSpDataSubscriberId@RAknUiServer@@QAEHH@Z @ 54 NONAME ; int RAknUiServer::SetFgSpDataSubscriberId(int)
	?CancelShutdownApps@RAknUiServer@@QAEXXZ @ 55 NONAME ; void RAknUiServer::CancelShutdownApps(void)
	?GetPhoneIdleViewId@RAknUiServer@@QAEHAAVTVwsViewId@@@Z @ 56 NONAME ; int RAknUiServer::GetPhoneIdleViewId(class TVwsViewId &)
	?CancelDynamicSoftNoteEventNotification@RAknUiServer@@QAEXXZ @ 57 NONAME ; void RAknUiServer::CancelDynamicSoftNoteEventNotification(void)
	?NotifyDynamicSoftNoteEvent@RAknUiServer@@QAEXAAVTRequestStatus@@AAVTDes8@@@Z @ 58 NONAME ; void RAknUiServer::NotifyDynamicSoftNoteEvent(class TRequestStatus &, class TDes8 &)
	?PreAllocateDynamicSoftNoteEvent@RAknUiServer@@QAEHH@Z @ 59 NONAME ; int RAknUiServer::PreAllocateDynamicSoftNoteEvent(int)
	?MoveAppInZOrder@RAknUiServer@@QAEHHH@Z @ 60 NONAME ; int RAknUiServer::MoveAppInZOrder(int, int)
	?DoDiscreetPopupAction@RAknUiServer@@QAEXPAVTAknDiscreetPopupData@@PAVTRequestStatus@@@Z @ 61 NONAME ; void RAknUiServer::DoDiscreetPopupAction(class TAknDiscreetPopupData *, class TRequestStatus *)
	?GetInUseGlobalDiscreetPopupRect@RAknUiServer@@QAE?BVTRect@@XZ @ 62 NONAME ; class TRect const RAknUiServer::GetInUseGlobalDiscreetPopupRect(void)

