EXPORTS
	??1CPNGNumberGrouping@@UAE@XZ @ 1 NONAME ; public: virtual __thiscall CPNGNumberGrouping::~CPNGNumberGrouping(void)
	?Append@CPNGNumberGrouping@@QAEHG@Z @ 2 NONAME ; public: int __thiscall CPNGNumberGrouping::Append(unsigned short)
	?Delete@CPNGNumberGrouping@@QAEHH@Z @ 3 NONAME ; public: int __thiscall CPNGNumberGrouping::Delete(int)
	?FormattedNumber@CPNGNumberGrouping@@QBEABVTDesC16@@HH@Z @ 4 NONAME ; public: class TDesC16 const & __thiscall CPNGNumberGrouping::FormattedNumber(int,int)const 
	?FormattedNumber@CPNGNumberGrouping@@QBEABVTDesC16@@XZ @ 5 NONAME ; public: class TDesC16 const & __thiscall CPNGNumberGrouping::FormattedNumber(void)const 
	?Insert@CPNGNumberGrouping@@QAEHHG@Z @ 6 NONAME ; public: int __thiscall CPNGNumberGrouping::Insert(int,unsigned short)
	?IsSpace@CPNGNumberGrouping@@QBEHH@Z @ 7 NONAME ; public: int __thiscall CPNGNumberGrouping::IsSpace(int)const 
	?Length@CPNGNumberGrouping@@QBEHXZ @ 8 NONAME ; public: int __thiscall CPNGNumberGrouping::Length(void)const 
	?MaxDisplayLength@CPNGNumberGrouping@@QBEHXZ @ 9 NONAME ; public: int __thiscall CPNGNumberGrouping::MaxDisplayLength(void)const 
	?NewL@CPNGNumberGrouping@@SAPAV1@HH@Z @ 10 NONAME ; public: static class CPNGNumberGrouping * __cdecl CPNGNumberGrouping::NewL(int,int)
	?NewLC@CPNGNumberGrouping@@SAPAV1@HH@Z @ 11 NONAME ; public: static class CPNGNumberGrouping * __cdecl CPNGNumberGrouping::NewLC(int,int)
	?Selection@CPNGNumberGrouping@@QBEABVTDesC16@@HH@Z @ 12 NONAME ; public: class TDesC16 const & __thiscall CPNGNumberGrouping::Selection(int,int)const 
	?Set@CPNGNumberGrouping@@QAEHABVTDesC16@@@Z @ 13 NONAME ; public: int __thiscall CPNGNumberGrouping::Set(class TDesC16 const &)
	?ReverseFormattedNumber@CPNGNumberGrouping@@QBEABVTDesC16@@HH@Z @ 14 NONAME ; public: class TDesC16 const & __thiscall CPNGNumberGrouping::ReverseFormattedNumber(int,int)const 
	?ReverseFormattedNumber@CPNGNumberGrouping@@QBEABVTDesC16@@XZ @ 15 NONAME ; public: class TDesC16 const & __thiscall CPNGNumberGrouping::ReverseFormattedNumber(void)const 
	?UnFormattedNumber@CPNGNumberGrouping@@QBEABVTDesC16@@HH@Z @ 16 NONAME ; public: class TDesC16 const & __thiscall CPNGNumberGrouping::UnFormattedNumber(int,int)const 
	?UnFormattedNumber@CPNGNumberGrouping@@QBEABVTDesC16@@XZ @ 17 NONAME ; public: class TDesC16 const & __thiscall CPNGNumberGrouping::UnFormattedNumber(void)const 
	?UnFormattedLength@CPNGNumberGrouping@@QBEHXZ @ 18 NONAME ; public: int __thiscall CPNGNumberGrouping::UnFormattedLength(void)const 
	?IsChangedByGrouping@CPNGNumberGrouping@@QBEHXZ @ 19 NONAME ; public: int __thiscall CPNGNumberGrouping::IsChangedByGrouping(void)const 
	?IsCharacterInsertedByNumberGrouping@CPNGNumberGrouping@@QBEHH@Z @ 20 NONAME ; public: int __thiscall CPNGNumberGrouping::IsCharacterInsertedByNumberGrouping(int)const 

