EXPORTS
	??1CHgDoubleGraphicList@@UAE@XZ @ 1 NONAME ; CHgDoubleGraphicList::~CHgDoubleGraphicList(void)
	??1CHgDoubleTextList@@UAE@XZ @ 2 NONAME ; CHgDoubleTextList::~CHgDoubleTextList(void)
	??1CHgGrid@@UAE@XZ @ 3 NONAME ; CHgGrid::~CHgGrid(void)
	??1CHgItem@@UAE@XZ @ 4 NONAME ; CHgItem::~CHgItem(void)
	??1CHgList@@UAE@XZ @ 5 NONAME ; CHgList::~CHgList(void)
	??1CHgScroller@@UAE@XZ @ 6 NONAME ; CHgScroller::~CHgScroller(void)
	??1CHgSingleGraphicList@@UAE@XZ @ 7 NONAME ; CHgSingleGraphicList::~CHgSingleGraphicList(void)
	??1CHgSingleLargeList@@UAE@XZ @ 8 NONAME ; CHgSingleLargeList::~CHgSingleLargeList(void)
	?AddItem@CHgScroller@@QAEXPAVCHgItem@@@Z @ 9 NONAME ; void CHgScroller::AddItem(class CHgItem *)
	?ClearFlags@CHgItem@@QAEXH@Z @ 10 NONAME ; void CHgItem::ClearFlags(int)
	?ClearFlags@CHgScroller@@QAEXH@Z @ 11 NONAME ; void CHgScroller::ClearFlags(int)
	?DisableScrollBuffer@CHgScroller@@QAEXXZ @ 12 NONAME ; void CHgScroller::DisableScrollBuffer(void)
	?EnableScrollBufferL@CHgScroller@@QAEXAAVMHgScrollBufferObserver@@HH@Z @ 13 NONAME ; void CHgScroller::EnableScrollBufferL(class MHgScrollBufferObserver &, int, int)
	?FirstIndexOnScreen@CHgScroller@@QAEHXZ @ 14 NONAME ; int CHgScroller::FirstIndexOnScreen(void)
	?Flags@CHgItem@@QAEHXZ @ 15 NONAME ; int CHgItem::Flags(void)
	?Flags@CHgScroller@@QAEHXZ @ 16 NONAME ; int CHgScroller::Flags(void)
	?GetMarkedItemsL@CHgScroller@@QAEXAAV?$RArray@H@@@Z @ 17 NONAME ; void CHgScroller::GetMarkedItemsL(class RArray<int> &)
	?HightlightItem@CHgScroller@@QAEHABVTDesC16@@@Z @ 18 NONAME ; int CHgScroller::HightlightItem(class TDesC16 const &)
	?Icon@CHgItem@@QBEPAVCGulIcon@@XZ @ 19 NONAME ; class CGulIcon * CHgItem::Icon(void) const
	?InitScreenL@CHgScroller@@QAEXABVTRect@@@Z @ 20 NONAME ; void CHgScroller::InitScreenL(class TRect const &)
	?InitScreenL@CHgScroller@@QAEXABVTRect@@AAVRWsSession@@@Z @ 21 NONAME ; void CHgScroller::InitScreenL(class TRect const &, class RWsSession &)
	?InsertItem@CHgScroller@@QAEXPAVCHgItem@@H@Z @ 22 NONAME ; void CHgScroller::InsertItem(class CHgItem *, int)
	?ItemCount@CHgScroller@@QBEHXZ @ 23 NONAME ; int CHgScroller::ItemCount(void) const
	?ItemL@CHgScroller@@QAEAAVCHgItem@@H@Z @ 24 NONAME ; class CHgItem & CHgScroller::ItemL(int)
	?ItemsOnScreen@CHgScroller@@QAEHXZ @ 25 NONAME ; int CHgScroller::ItemsOnScreen(void)
	?Mark@CHgScroller@@QAEXH@Z @ 26 NONAME ; void CHgScroller::Mark(int)
	?MarkAll@CHgScroller@@QAEXXZ @ 27 NONAME ; void CHgScroller::MarkAll(void)
	?NewL@CHgDoubleGraphicList@@SAPAV1@ABVTRect@@HPAVCGulIcon@@PAVRWsSession@@@Z @ 28 NONAME ; class CHgDoubleGraphicList * CHgDoubleGraphicList::NewL(class TRect const &, int, class CGulIcon *, class RWsSession *)
	?NewL@CHgDoubleTextList@@SAPAV1@ABVTRect@@HPAVCGulIcon@@PAVRWsSession@@@Z @ 29 NONAME ; class CHgDoubleTextList * CHgDoubleTextList::NewL(class TRect const &, int, class CGulIcon *, class RWsSession *)
	?NewL@CHgGrid@@SAPAV1@ABVTRect@@HPAVCGulIcon@@PAVRWsSession@@@Z @ 30 NONAME ; class CHgGrid * CHgGrid::NewL(class TRect const &, int, class CGulIcon *, class RWsSession *)
	?NewL@CHgItem@@SAPAV1@HPAVCGulIcon@@ABVTDesC16@@1@Z @ 31 NONAME ; class CHgItem * CHgItem::NewL(int, class CGulIcon *, class TDesC16 const &, class TDesC16 const &)
	?NewL@CHgSingleGraphicList@@SAPAV1@ABVTRect@@HPAVCGulIcon@@PAVRWsSession@@@Z @ 32 NONAME ; class CHgSingleGraphicList * CHgSingleGraphicList::NewL(class TRect const &, int, class CGulIcon *, class RWsSession *)
	?NewL@CHgSingleLargeList@@SAPAV1@ABVTRect@@HPAVCGulIcon@@PAVRWsSession@@@Z @ 33 NONAME ; class CHgSingleLargeList * CHgSingleLargeList::NewL(class TRect const &, int, class CGulIcon *, class RWsSession *)
	?NewLC@CHgItem@@SAPAV1@HPAVCGulIcon@@ABVTDesC16@@1@Z @ 34 NONAME ; class CHgItem * CHgItem::NewLC(int, class CGulIcon *, class TDesC16 const &, class TDesC16 const &)
	?PreferredImageSize@CHgDoubleGraphicList@@SA?AVTSize@@XZ @ 35 NONAME ; class TSize CHgDoubleGraphicList::PreferredImageSize(void)
	?PreferredImageSize@CHgDoubleTextList@@SA?AVTSize@@XZ @ 36 NONAME ; class TSize CHgDoubleTextList::PreferredImageSize(void)
	?PreferredImageSize@CHgGrid@@SA?AVTSize@@XZ @ 37 NONAME ; class TSize CHgGrid::PreferredImageSize(void)
	?PreferredImageSize@CHgSingleGraphicList@@SA?AVTSize@@XZ @ 38 NONAME ; class TSize CHgSingleGraphicList::PreferredImageSize(void)
	?PreferredImageSize@CHgSingleLargeList@@SA?AVTSize@@XZ @ 39 NONAME ; class TSize CHgSingleLargeList::PreferredImageSize(void)
	?RefreshScreen@CHgScroller@@QAEXH@Z @ 40 NONAME ; void CHgScroller::RefreshScreen(int)
	?RemoveItem@CHgScroller@@QAEXH@Z @ 41 NONAME ; void CHgScroller::RemoveItem(int)
	?Reset@CHgScroller@@QAEXXZ @ 42 NONAME ; void CHgScroller::Reset(void)
	?ResizeL@CHgScroller@@QAEXH@Z @ 43 NONAME ; void CHgScroller::ResizeL(int)
	?SelectedIndex@CHgScroller@@QAEHXZ @ 44 NONAME ; int CHgScroller::SelectedIndex(void)
	?SetDefaultIconL@CHgScroller@@QAEXPAVCGulIcon@@@Z @ 45 NONAME ; void CHgScroller::SetDefaultIconL(class CGulIcon *)
	?SetEmptyTextL@CHgScroller@@QAEXABVTDesC16@@@Z @ 46 NONAME ; void CHgScroller::SetEmptyTextL(class TDesC16 const &)
	?SetFlags@CHgItem@@QAEXH@Z @ 47 NONAME ; void CHgItem::SetFlags(int)
	?SetFlags@CHgScroller@@QAEXH@Z @ 48 NONAME ; void CHgScroller::SetFlags(int)
	?SetIcon@CHgItem@@QAEXPAVCGulIcon@@H@Z @ 49 NONAME ABSENT ; void CHgItem::SetIcon(class CGulIcon *, int)
	?SetItem@CHgScroller@@QAEXPAVCHgItem@@H@Z @ 50 NONAME ; void CHgScroller::SetItem(class CHgItem *, int)
	?SetScrollBarTypeL@CHgScroller@@QAEXW4THgScrollBarType@1@@Z @ 51 NONAME ; void CHgScroller::SetScrollBarTypeL(enum CHgScroller::THgScrollBarType)
	?SetSelectedIndex@CHgScroller@@QAEXH@Z @ 52 NONAME ; void CHgScroller::SetSelectedIndex(int)
	?SetSelectionObserver@CHgScroller@@QAEXAAVMHgSelectionObserver@@@Z @ 53 NONAME ; void CHgScroller::SetSelectionObserver(class MHgSelectionObserver &)
	?SetTextL@CHgItem@@QAEXABVTDesC16@@@Z @ 54 NONAME ; void CHgItem::SetTextL(class TDesC16 const &)
	?SetTime@CHgItem@@QAEXVTTime@@@Z @ 55 NONAME ; void CHgItem::SetTime(class TTime)
	?SetTitleL@CHgItem@@QAEXABVTDesC16@@@Z @ 56 NONAME ; void CHgItem::SetTitleL(class TDesC16 const &)
	?Text@CHgItem@@QBEABVTDesC16@@XZ @ 57 NONAME ; class TDesC16 const & CHgItem::Text(void) const
	?Time@CHgItem@@QBE?AVTTime@@XZ @ 58 NONAME ; class TTime CHgItem::Time(void) const
	?Title@CHgItem@@QBEABVTDesC16@@XZ @ 59 NONAME ; class TDesC16 const & CHgItem::Title(void) const
	?UnMark@CHgScroller@@QAEXH@Z @ 60 NONAME ; void CHgScroller::UnMark(int)
	?UnMarkAll@CHgScroller@@QAEXXZ @ 61 NONAME ; void CHgScroller::UnMarkAll(void)
	??1CHgSingleTextList@@UAE@XZ @ 62 NONAME ; CHgSingleTextList::~CHgSingleTextList(void)
	?NewL@CHgSingleTextList@@SAPAV1@ABVTRect@@HPAVCGulIcon@@PAVRWsSession@@@Z @ 63 NONAME ; class CHgSingleTextList * CHgSingleTextList::NewL(class TRect const &, int, class CGulIcon *, class RWsSession *)
	??1CHgScrollerWithTitle@@UAE@XZ @ 64 NONAME ; CHgScrollerWithTitle::~CHgScrollerWithTitle(void)
	?InitScreenL@CHgScrollerWithTitle@@QAEXABVTRect@@@Z @ 65 NONAME ; void CHgScrollerWithTitle::InitScreenL(class TRect const &)
	?NewL@CHgScrollerWithTitle@@SAPAV1@ABVTRect@@HW4THgScrollerType@1@PAVCGulIcon@@@Z @ 66 NONAME ; class CHgScrollerWithTitle * CHgScrollerWithTitle::NewL(class TRect const &, int, enum CHgScrollerWithTitle::THgScrollerType, class CGulIcon *)
	?PreferredImageSize@CHgScrollerWithTitle@@SA?AVTSize@@XZ @ 67 NONAME ; class TSize CHgScrollerWithTitle::PreferredImageSize(void)
	?Scroller@CHgScrollerWithTitle@@QAEAAVCHgScroller@@XZ @ 68 NONAME ; class CHgScroller & CHgScrollerWithTitle::Scroller(void)
	?TitleItem@CHgScrollerWithTitle@@QAEAAVCHgItem@@XZ @ 69 NONAME ; class CHgItem & CHgScrollerWithTitle::TitleItem(void)
	?SetMarkingObserver@CHgScroller@@QAEXAAVMHgMarkingObserver@@@Z @ 70 NONAME ; void CHgScroller::SetMarkingObserver(class MHgMarkingObserver &)
	?SetLandscapeScrollingSupport@CHgGrid@@QAEXH@Z @ 71 NONAME ; void CHgGrid::SetLandscapeScrollingSupport(int)
	?ChangeStyleL@CHgVgMediaWall@@QAEXW4THgVgMediaWallStyle@1@ABVTRect@@H@Z @ 72 NONAME ; void CHgVgMediaWall::ChangeStyleL(enum CHgVgMediaWall::THgVgMediaWallStyle, class TRect const &, int)
	?ItemsOnScreen@CHgVgMediaWall@@QAEHXZ @ 73 NONAME ; int CHgVgMediaWall::ItemsOnScreen(void)
	?SetItem@CHgVgMediaWall@@QAEXPAVCHgVgItem@@H@Z @ 74 NONAME ; void CHgVgMediaWall::SetItem(class CHgVgItem *, int)
	?ItemCount@CHgVgMediaWall@@QBEHXZ @ 75 NONAME ; int CHgVgMediaWall::ItemCount(void) const
	??1CHgSingleTextListWithIcon@@UAE@XZ @ 76 NONAME ; CHgSingleTextListWithIcon::~CHgSingleTextListWithIcon(void)
	?SetIcon@CHgVgItem@@UAEXPAVCGulIcon@@H@Z @ 77 NONAME ; void CHgVgItem::SetIcon(class CGulIcon *, int)
	?AddItem@CHgVgMediaWall@@QAEXPAVCHgVgItem@@@Z @ 78 NONAME ; void CHgVgMediaWall::AddItem(class CHgVgItem *)
	?EnableScrollBufferL@CHgVgMediaWall@@QAEXAAVMHgScrollBufferObserver@@HH@Z @ 79 NONAME ; void CHgVgMediaWall::EnableScrollBufferL(class MHgScrollBufferObserver &, int, int)
	?SetIcon@CHgItem@@UAEXPAVCGulIcon@@H@Z @ 80 NONAME ; void CHgItem::SetIcon(class CGulIcon *, int)
	?SetOpeningAnimationType@CHgVgMediaWall@@QAEXW4THgVgOpeningAnimationType@1@@Z @ 81 NONAME ; void CHgVgMediaWall::SetOpeningAnimationType(enum CHgVgMediaWall::THgVgOpeningAnimationType)
	?RemoveItem@CHgVgMediaWall@@QAEXH@Z @ 82 NONAME ; void CHgVgMediaWall::RemoveItem(int)
	?SetSelectionObserver@CHgVgMediaWall@@QAEXAAVMHgSelectionObserver@@@Z @ 83 NONAME ; void CHgVgMediaWall::SetSelectionObserver(class MHgSelectionObserver &)
	?SetDefaultIconL@CHgVgMediaWall@@QAEXPAVCGulIcon@@@Z @ 84 NONAME ; void CHgVgMediaWall::SetDefaultIconL(class CGulIcon *)
	?NewL@CHgSingleTextListWithIcon@@SAPAV1@ABVTRect@@HPAVCGulIcon@@PAVRWsSession@@@Z @ 85 NONAME ; class CHgSingleTextListWithIcon * CHgSingleTextListWithIcon::NewL(class TRect const &, int, class CGulIcon *, class RWsSession *)
	?Style@CHgVgMediaWall@@QBE?AW4THgVgMediaWallStyle@1@XZ @ 86 NONAME ; enum CHgVgMediaWall::THgVgMediaWallStyle CHgVgMediaWall::Style(void) const
	?ItemL@CHgVgMediaWall@@QAEAAVCHgVgItem@@H@Z @ 87 NONAME ; class CHgVgItem & CHgVgMediaWall::ItemL(int)
	?ResizeL@CHgVgMediaWall@@QAEXH@Z @ 88 NONAME ; void CHgVgMediaWall::ResizeL(int)
	?NewL@CHgVgItem@@SAPAV1@HPAVCGulIcon@@ABVTDesC16@@1@Z @ 89 NONAME ; class CHgVgItem * CHgVgItem::NewL(int, class CGulIcon *, class TDesC16 const &, class TDesC16 const &)
	?NewLC@CHgVgItem@@SAPAV1@HPAVCGulIcon@@ABVTDesC16@@1@Z @ 90 NONAME ; class CHgVgItem * CHgVgItem::NewLC(int, class CGulIcon *, class TDesC16 const &, class TDesC16 const &)
	?OpeningAnimationType@CHgVgMediaWall@@QBE?AW4THgVgOpeningAnimationType@1@XZ @ 91 NONAME ; enum CHgVgMediaWall::THgVgOpeningAnimationType CHgVgMediaWall::OpeningAnimationType(void) const
	?InsertItem@CHgVgMediaWall@@QAEXPAVCHgVgItem@@H@Z @ 92 NONAME ; void CHgVgMediaWall::InsertItem(class CHgVgItem *, int)
	?NewL@CHgVgMediaWall@@SAPAV1@ABVTRect@@HW4THgVgMediaWallStyle@1@HPAVMObjectProvider@@PAVCGulIcon@@@Z @ 93 NONAME ; class CHgVgMediaWall * CHgVgMediaWall::NewL(class TRect const &, int, enum CHgVgMediaWall::THgVgMediaWallStyle, int, class MObjectProvider *, class CGulIcon *)
	??1CHgVgItem@@UAE@XZ @ 94 NONAME ; CHgVgItem::~CHgVgItem(void)
	?SelectedIndex@CHgVgMediaWall@@QAEHXZ @ 95 NONAME ; int CHgVgMediaWall::SelectedIndex(void)
	?SetEmptyTextL@CHgVgMediaWall@@QAEXABVTDesC16@@@Z @ 96 NONAME ; void CHgVgMediaWall::SetEmptyTextL(class TDesC16 const &)
	?DisableScrollBuffer@CHgVgMediaWall@@QAEXXZ @ 97 NONAME ; void CHgVgMediaWall::DisableScrollBuffer(void)
	??1CHgVgMediaWall@@UAE@XZ @ 98 NONAME ; CHgVgMediaWall::~CHgVgMediaWall(void)
	?RefreshScreen@CHgVgMediaWall@@QAEXH@Z @ 99 NONAME ; void CHgVgMediaWall::RefreshScreen(int)
	?FirstIndexOnScreen@CHgVgMediaWall@@QAEHXZ @ 100 NONAME ; int CHgVgMediaWall::FirstIndexOnScreen(void)
	?SetObserver@CHgVgMediaWall@@QAEXPAVMHgVgMediaWallObserver@@@Z @ 101 NONAME ; void CHgVgMediaWall::SetObserver(class MHgVgMediaWallObserver *)
	?StartOpeningAnimationL@CHgVgMediaWall@@QAEXH@Z @ 102 NONAME ; void CHgVgMediaWall::StartOpeningAnimationL(int)
	?SetSelectedIndex@CHgVgMediaWall@@QAEXH@Z @ 103 NONAME ; void CHgVgMediaWall::SetSelectedIndex(int)
	?Reset@CHgVgMediaWall@@QAEXXZ @ 104 NONAME ; void CHgVgMediaWall::Reset(void)
	?InitScreenL@CHgVgMediaWall@@QAEXABVTRect@@@Z @ 105 NONAME ; void CHgVgMediaWall::InitScreenL(class TRect const &)
	?NewL@CHgDoubleGraphicListFlat@@SAPAV1@ABVTRect@@HPAVCGulIcon@@PAVRWsSession@@@Z @ 106 NONAME ; class CHgDoubleGraphicListFlat * CHgDoubleGraphicListFlat::NewL(class TRect const &, int, class CGulIcon *, class RWsSession *)
	??1CHgDoubleGraphicListFlat@@UAE@XZ @ 107 NONAME ; CHgDoubleGraphicListFlat::~CHgDoubleGraphicListFlat(void)
	?PreferredImageSize@CHgDoubleGraphicListFlat@@SA?AVTSize@@XZ @ 108 NONAME ; class TSize CHgDoubleGraphicListFlat::PreferredImageSize(void)
	?SetIconOverlayIndicator@CHgDoubleGraphicList@@QAEXPAVCGulIcon@@@Z @ 109 NONAME ; void CHgDoubleGraphicList::SetIconOverlayIndicator(class CGulIcon *)
	?ClearFlags@CHgVgMediaWall@@QAEXH@Z @ 110 NONAME ; void CHgVgMediaWall::ClearFlags(int)
	?Flags@CHgVgMediaWall@@QAEHXZ @ 111 NONAME ; int CHgVgMediaWall::Flags(void)
	?SetFlags@CHgVgMediaWall@@QAEXH@Z @ 112 NONAME ; void CHgVgMediaWall::SetFlags(int)
	?SetItemToOpenedState@CHgVgMediaWall@@QAEXH@Z @ 113 NONAME ; void CHgVgMediaWall::SetItemToOpenedState(int)
	?SetOpenedItemRect@CHgVgMediaWall@@QAEXABVTRect@@@Z @ 114 NONAME ; void CHgVgMediaWall::SetOpenedItemRect(class TRect const &)

