EXPORTS
	?Connect@RAknIconSrvClient@@SAHXZ @ 1 NONAME ; public: static int __cdecl RAknIconSrvClient::Connect(void)
	?CreateIconL@AknIconUtils@@SAXAAPAVCFbsBitmap@@0ABVTDesC16@@HH@Z @ 2 NONAME ; public: static void __cdecl AknIconUtils::CreateIconL(class CFbsBitmap * &,class CFbsBitmap * &,class TDesC16 const &,int,int)
	?CreateIconLC@AknIconUtils@@SAXAAPAVCFbsBitmap@@0ABVTDesC16@@HH@Z @ 3 NONAME ; public: static void __cdecl AknIconUtils::CreateIconLC(class CFbsBitmap * &,class CFbsBitmap * &,class TDesC16 const &,int,int)
	?Disconnect@RAknIconSrvClient@@SAXXZ @ 4 NONAME ; public: static void __cdecl RAknIconSrvClient::Disconnect(void)
	?SetObserver@AknIconUtils@@SAXPAVCFbsBitmap@@PAVMAknIconObserver@@@Z @ 5 NONAME ; public: static void __cdecl AknIconUtils::SetObserver(class CFbsBitmap *,class MAknIconObserver *)
	?SetSize@AknIconUtils@@SAHPAVCFbsBitmap@@ABVTSize@@W4TScaleMode@@@Z @ 6 NONAME ; public: static int __cdecl AknIconUtils::SetSize(class CFbsBitmap *,class TSize const &,enum TScaleMode)
	?ThreadStart@CAknIconServer@@SAHXZ @ 7 NONAME ; public: static int __cdecl CAknIconServer::ThreadStart(void)
	?AvkonIconFileName@AknIconUtils@@SAABVTDesC16@@XZ @ 8 NONAME ; public: static class TDesC16 const & __cdecl AknIconUtils::AvkonIconFileName(void)
	?__SERVER_HEAP_FAILNEXT@@YAXH@Z @ 9 NONAME ; void __cdecl __SERVER_HEAP_FAILNEXT(int)
	?__SERVER_HEAP_FAILNEXT_INCREASING@@YAXH@Z @ 10 NONAME ; void __cdecl __SERVER_HEAP_FAILNEXT_INCREASING(int)
	?__SERVER_HEAP_MARK@@YAXXZ @ 11 NONAME ; void __cdecl __SERVER_HEAP_MARK(void)
	?__SERVER_HEAP_MARKEND@@YAXXZ @ 12 NONAME ; void __cdecl __SERVER_HEAP_MARKEND(void)
	?__SERVER_HEAP_RESET@@YAXXZ @ 13 NONAME ; void __cdecl __SERVER_HEAP_RESET(void)
	?__SERVER_RESET_DYNAMICALLY_CHANGING_ALLOCATIONS@@YAXXZ @ 14 NONAME ; void __cdecl __SERVER_RESET_DYNAMICALLY_CHANGING_ALLOCATIONS(void)
	?CreateIconL@AknIconUtils@@SAPAVCFbsBitmap@@ABVTDesC16@@H@Z @ 15 NONAME ; public: static class CFbsBitmap * __cdecl AknIconUtils::CreateIconL(class TDesC16 const &,int)
	?ValidateLogicalAppIconId@AknIconUtils@@SAXABVTDesC16@@AAH1@Z @ 16 NONAME ; public: static void __cdecl AknIconUtils::ValidateLogicalAppIconId(class TDesC16 const &,int &,int &)
	?IsMifFile@AknIconUtils@@SAHABVTDesC16@@@Z @ 17 NONAME ; public: static int __cdecl AknIconUtils::IsMifFile(class TDesC16 const &)
	?IsMifIcon@AknIconUtils@@SAHPBVCFbsBitmap@@@Z @ 18 NONAME ; public: static int __cdecl AknIconUtils::IsMifIcon(class CFbsBitmap const *)
	?DestroyIconData@AknIconUtils@@SAXPAVCFbsBitmap@@@Z @ 19 NONAME ; public: static void __cdecl AknIconUtils::DestroyIconData(class CFbsBitmap *)
	?GetContentDimensions@AknIconUtils@@SAHPAVCFbsBitmap@@AAVTSize@@@Z @ 20 NONAME ; public: static int __cdecl AknIconUtils::GetContentDimensions(class CFbsBitmap *,class TSize &)
	?PreserveIconData@AknIconUtils@@SAXPAVCFbsBitmap@@@Z @ 21 NONAME ; public: static void __cdecl AknIconUtils::PreserveIconData(class CFbsBitmap *)
	?SetSizeAndRotation@AknIconUtils@@SAHPAVCFbsBitmap@@ABVTSize@@W4TScaleMode@@H@Z @ 22 NONAME ; public: static int __cdecl AknIconUtils::SetSizeAndRotation(class CFbsBitmap *,class TSize const &,enum TScaleMode,int)
	?Bitmap@CAknIcon@@QBEPAVCFbsBitmap@@XZ @ 23 NONAME ; public: class CFbsBitmap * __thiscall CAknIcon::Bitmap(void)const 
	?CreateIconL@AknIconUtils@@SAPAVCAknIcon@@PAV2@@Z @ 24 NONAME ; public: static class CAknIcon * __cdecl AknIconUtils::CreateIconL(class CAknIcon *)
	?CreateIconL@AknIconUtils@@SAPAVCFbsBitmap@@PAV2@@Z @ 25 NONAME ; public: static class CFbsBitmap * __cdecl AknIconUtils::CreateIconL(class CFbsBitmap *)
	?Mask@CAknIcon@@QBEPAVCFbsBitmap@@XZ @ 26 NONAME ; public: class CFbsBitmap * __thiscall CAknIcon::Mask(void)const 
	?NewL@CAknIcon@@SAPAV1@XZ @ 27 NONAME ; public: static class CAknIcon * __cdecl CAknIcon::NewL(void)
	?SetBitmap@CAknIcon@@QAEXPAVCFbsBitmap@@@Z @ 28 NONAME ; public: void __thiscall CAknIcon::SetBitmap(class CFbsBitmap *)
	?SetMask@CAknIcon@@QAEXPAVCFbsBitmap@@@Z @ 29 NONAME ; public: void __thiscall CAknIcon::SetMask(class CFbsBitmap *)
	?SetIconColor@AknIconUtils@@SAXPAVCFbsBitmap@@VTRgb@@@Z @ 30 NONAME ; public: static void __cdecl AknIconUtils::SetIconColor(class CFbsBitmap *,class TRgb)
	?__SERVER_HEAP_USED@@YAHXZ @ 31 NONAME ; int __cdecl __SERVER_HEAP_USED(void)
	?__SERVER_SET_PREFERRED_ICON_DISPLAY_MODE@@YAXW4TDisplayMode@@@Z @ 32 NONAME ; void __cdecl __SERVER_SET_PREFERRED_ICON_DISPLAY_MODE(enum TDisplayMode)
	?CreateIconL@AknIconUtils@@SAPAVCFbsBitmap@@AAVMAknIconFileProvider@@H@Z @ 33 NONAME ; class CFbsBitmap * AknIconUtils::CreateIconL(class MAknIconFileProvider &, int)
	?CreateIconL@AknIconUtils@@SAXAAPAVCFbsBitmap@@0AAVMAknIconFileProvider@@HH@Z @ 34 NONAME ; void AknIconUtils::CreateIconL(class CFbsBitmap * &, class CFbsBitmap * &, class MAknIconFileProvider &, int, int)
	?CreateIconLC@AknIconUtils@@SAXAAPAVCFbsBitmap@@0AAVMAknIconFileProvider@@HH@Z @ 35 NONAME ; void AknIconUtils::CreateIconLC(class CFbsBitmap * &, class CFbsBitmap * &, class MAknIconFileProvider &, int, int)

