EXPORTS
	?TableLimits@AknLayoutScalableDecodeSupport@@SA?AVTAknLayoutScalableTableLimits@@PBG@Z @ 1 NONAME ; public: static class TAknLayoutScalableTableLimits  __cdecl AknLayoutScalableDecodeSupport::TableLimits(unsigned short const *)
	?TextLine@AknLayoutScalableDecodeSupport@@SAXAAVTAknTextComponentLayoutImp@@PBUSCompDataImplData@@@Z @ 2 NONAME ; public: static void __cdecl AknLayoutScalableDecodeSupport::TextLine(class TAknTextComponentLayoutImp &,struct SCompDataImplData const *)
	?TextLine@AknLayoutScalableDecodeSupport@@SAXAAVTAknTextComponentLayoutImp@@PBUSCompDataImplData@@HHH@Z @ 3 NONAME ; public: static void __cdecl AknLayoutScalableDecodeSupport::TextLine(class TAknTextComponentLayoutImp &,struct SCompDataImplData const *,int,int,int)
	?TextTable@AknLayoutScalableDecodeSupport@@SAXAAVTAknTextComponentLayoutImp@@PBUSCompDataImplData@@HHHH@Z @ 4 NONAME ; public: static void __cdecl AknLayoutScalableDecodeSupport::TextTable(class TAknTextComponentLayoutImp &,struct SCompDataImplData const *,int,int,int,int)
	?WindowLine@AknLayoutScalableDecodeSupport@@SAXAAVTAknWindowComponentLayoutImp@@PBUSCompDataImplData@@@Z @ 5 NONAME ; public: static void __cdecl AknLayoutScalableDecodeSupport::WindowLine(class TAknWindowComponentLayoutImp &,struct SCompDataImplData const *)
	?WindowLine@AknLayoutScalableDecodeSupport@@SAXAAVTAknWindowComponentLayoutImp@@PBUSCompDataImplData@@HHH@Z @ 6 NONAME ; public: static void __cdecl AknLayoutScalableDecodeSupport::WindowLine(class TAknWindowComponentLayoutImp &,struct SCompDataImplData const *,int,int,int)
	?WindowTable@AknLayoutScalableDecodeSupport@@SAXAAVTAknWindowComponentLayoutImp@@PBUSCompDataImplData@@HHHH@Z @ 7 NONAME ; public: static void __cdecl AknLayoutScalableDecodeSupport::WindowTable(class TAknWindowComponentLayoutImp &,struct SCompDataImplData const *,int,int,int,int)
	?TextTable@AknLayoutScalableDecodeSupport@@SAXAAVTAknTextComponentLayoutImp@@PBUSCompDataImplData@@H@Z @ 8 NONAME ; public: static void __cdecl AknLayoutScalableDecodeSupport::TextTable(class TAknTextComponentLayoutImp &,struct SCompDataImplData const *,int)
	?WindowTable@AknLayoutScalableDecodeSupport@@SAXAAVTAknWindowComponentLayoutImp@@PBUSCompDataImplData@@H@Z @ 9 NONAME ; public: static void __cdecl AknLayoutScalableDecodeSupport::WindowTable(class TAknWindowComponentLayoutImp &,struct SCompDataImplData const *,int)
	??0TAknLayoutScalableTableLimits@@QAE@HH@Z @ 10 NONAME ; public: __thiscall TAknLayoutScalableTableLimits::TAknLayoutScalableTableLimits(int,int)
	??0TAknTextComponentLayout@@QAE@XZ @ 11 NONAME ; public: __thiscall TAknTextComponentLayout::TAknTextComponentLayout(void)
	??0TAknWindowComponentLayout@@QAE@XZ @ 12 NONAME ; public: __thiscall TAknWindowComponentLayout::TAknWindowComponentLayout(void)
	?C@TAknTextComponentLayout@@QBEFXZ @ 13 NONAME ; public: short __thiscall TAknTextComponentLayout::C(void)const 
	?C@TAknWindowComponentLayout@@ABEFXZ @ 14 NONAME ; private: short __thiscall TAknWindowComponentLayout::C(void)const 
	?FirstIndex@TAknLayoutScalableTableLimits@@QBEHXZ @ 15 NONAME ; public: int __thiscall TAknLayoutScalableTableLimits::FirstIndex(void)const 
	?Font@TAknTextComponentLayout@@QBEJXZ @ 16 NONAME ; public: long __thiscall TAknTextComponentLayout::Font(void) const
	?H@TAknTextComponentLayout@@QBEFXZ @ 17 NONAME ; public: short __thiscall TAknTextComponentLayout::H(void)const 
	?H@TAknWindowComponentLayout@@ABEFXZ @ 18 NONAME ; private: short __thiscall TAknWindowComponentLayout::H(void)const 
	?J@TAknTextComponentLayout@@QBEFXZ @ 19 NONAME ; public: short __thiscall TAknTextComponentLayout::J(void)const 
	?LastIndex@TAknLayoutScalableTableLimits@@QBEHXZ @ 20 NONAME ; public: int __thiscall TAknLayoutScalableTableLimits::LastIndex(void)const 
	?SetC@TAknTextComponentLayout@@QAEXF@Z @ 21 NONAME ; public: void __thiscall TAknTextComponentLayout::SetC(short)
	?SetC@TAknWindowComponentLayout@@AAEXF@Z @ 22 NONAME ; private: void __thiscall TAknWindowComponentLayout::SetC(short)
	?SetFirstIndex@TAknLayoutScalableTableLimits@@QAEXH@Z @ 23 NONAME ; public: void __thiscall TAknLayoutScalableTableLimits::SetFirstIndex(int)
	?SetFont@TAknTextComponentLayout@@QAEXJ@Z @ 24 NONAME ; public: void __thiscall TAknTextComponentLayout::SetFont(long)
	?SetH@TAknTextComponentLayout@@QAEXF@Z @ 25 NONAME ; public: void __thiscall TAknTextComponentLayout::SetH(short)
	?SetH@TAknWindowComponentLayout@@AAEXF@Z @ 26 NONAME ; private: void __thiscall TAknWindowComponentLayout::SetH(short)
	?SetJ@TAknTextComponentLayout@@QAEXF@Z @ 27 NONAME ; public: void __thiscall TAknTextComponentLayout::SetJ(short)
	?SetLastIndex@TAknLayoutScalableTableLimits@@QAEXH@Z @ 28 NONAME ; public: void __thiscall TAknLayoutScalableTableLimits::SetLastIndex(int)
	?SetW@TAknTextComponentLayout@@QAEXF@Z @ 29 NONAME ; public: void __thiscall TAknTextComponentLayout::SetW(short)
	?SetW@TAknWindowComponentLayout@@AAEXF@Z @ 30 NONAME ; private: void __thiscall TAknWindowComponentLayout::SetW(short)
	?Setb@TAknTextComponentLayout@@QAEXF@Z @ 31 NONAME ; public: void __thiscall TAknTextComponentLayout::Setb(short)
	?Setb@TAknWindowComponentLayout@@AAEXF@Z @ 32 NONAME ; private: void __thiscall TAknWindowComponentLayout::Setb(short)
	?Setl@TAknTextComponentLayout@@QAEXF@Z @ 33 NONAME ; public: void __thiscall TAknTextComponentLayout::Setl(short)
	?Setl@TAknWindowComponentLayout@@AAEXF@Z @ 34 NONAME ; private: void __thiscall TAknWindowComponentLayout::Setl(short)
	?Setr@TAknTextComponentLayout@@QAEXF@Z @ 35 NONAME ; public: void __thiscall TAknTextComponentLayout::Setr(short)
	?Setr@TAknWindowComponentLayout@@AAEXF@Z @ 36 NONAME ; private: void __thiscall TAknWindowComponentLayout::Setr(short)
	?Sett@TAknTextComponentLayout@@QAEXF@Z @ 37 NONAME ; public: void __thiscall TAknTextComponentLayout::Sett(short)
	?Sett@TAknWindowComponentLayout@@AAEXF@Z @ 38 NONAME ; private: void __thiscall TAknWindowComponentLayout::Sett(short)
	?W@TAknTextComponentLayout@@QBEFXZ @ 39 NONAME ; public: short __thiscall TAknTextComponentLayout::W(void)const 
	?W@TAknWindowComponentLayout@@ABEFXZ @ 40 NONAME ; private: short __thiscall TAknWindowComponentLayout::W(void)const 
	?b@TAknTextComponentLayout@@QBEFXZ @ 41 NONAME ; public: short __thiscall TAknTextComponentLayout::b(void)const 
	?b@TAknWindowComponentLayout@@ABEFXZ @ 42 NONAME ; private: short __thiscall TAknWindowComponentLayout::b(void)const 
	?l@TAknTextComponentLayout@@QBEFXZ @ 43 NONAME ; public: short __thiscall TAknTextComponentLayout::l(void)const 
	?l@TAknWindowComponentLayout@@ABEFXZ @ 44 NONAME ; private: short __thiscall TAknWindowComponentLayout::l(void)const 
	?r@TAknTextComponentLayout@@QBEFXZ @ 45 NONAME ; public: short __thiscall TAknTextComponentLayout::r(void)const 
	?r@TAknWindowComponentLayout@@ABEFXZ @ 46 NONAME ; private: short __thiscall TAknWindowComponentLayout::r(void)const 
	?t@TAknTextComponentLayout@@QBEFXZ @ 47 NONAME ; public: short __thiscall TAknTextComponentLayout::t(void)const 
	?t@TAknWindowComponentLayout@@ABEFXZ @ 48 NONAME ; private: short __thiscall TAknWindowComponentLayout::t(void)const 
	??0TAknLayoutScalableTableLimits@@QAE@XZ @ 49 NONAME ; public: __thiscall TAknLayoutScalableTableLimits::TAknLayoutScalableTableLimits(void)
	?LayoutLimits@TAknLayoutScalableTableLimits@@QBE?AVTAknLayoutTableLimits@@XZ @ 50 NONAME ; public: class TAknLayoutTableLimits  __thiscall TAknLayoutScalableTableLimits::LayoutLimits(void)const 
	?LayoutLine@TAknTextComponentLayout@@QBE?AVTAknTextLineLayout@@XZ @ 51 NONAME ; public: class TAknTextLineLayout  __thiscall TAknTextComponentLayout::LayoutLine(void)const 
	?LayoutLine@TAknWindowComponentLayout@@QBE?AVTAknWindowLineLayout@@XZ @ 52 NONAME ; public: class TAknWindowLineLayout  __thiscall TAknWindowComponentLayout::LayoutLine(void)const 
	?Compose@TAknWindowComponentLayout@@SA?AV1@V1@0@Z @ 53 NONAME ; public: static class TAknWindowComponentLayout  __cdecl TAknWindowComponentLayout::Compose(class TAknWindowComponentLayout,class TAknWindowComponentLayout)
	?ComposeText@TAknWindowComponentLayout@@SA?AVTAknTextComponentLayout@@V1@V2@@Z @ 54 NONAME ; public: static class TAknTextComponentLayout  __cdecl TAknWindowComponentLayout::ComposeText(class TAknWindowComponentLayout,class TAknTextComponentLayout)
	?Intersect@TAknWindowComponentLayout@@SA?AV1@V1@0@Z @ 55 NONAME ; public: static class TAknWindowComponentLayout  __cdecl TAknWindowComponentLayout::Intersect(class TAknWindowComponentLayout,class TAknWindowComponentLayout)
	?Minus@TAknWindowComponentLayout@@SA?AV1@V1@0@Z @ 56 NONAME ; public: static class TAknWindowComponentLayout  __cdecl TAknWindowComponentLayout::Minus(class TAknWindowComponentLayout,class TAknWindowComponentLayout)
	?Split@TAknWindowComponentLayout@@SA?AV1@V1@H@Z @ 57 NONAME ; public: static class TAknWindowComponentLayout  __cdecl TAknWindowComponentLayout::Split(class TAknWindowComponentLayout,int)
	?Anim@TAknWindowComponentLayout@@SA?AV1@V1@0ABUTRangeTriplet@1@@Z @ 58 NONAME ; public: static class TAknWindowComponentLayout  __cdecl TAknWindowComponentLayout::Anim(class TAknWindowComponentLayout,class TAknWindowComponentLayout,struct TAknWindowComponentLayout::TRangeTriplet const &)
	?MultiLineGrid@TAknWindowComponentLayout@@SA?AV1@V1@HHHH@Z @ 59 NONAME ; public: static class TAknWindowComponentLayout  __cdecl TAknWindowComponentLayout::MultiLineGrid(class TAknWindowComponentLayout,int,int,int,int)
	?MultiLineX@TAknWindowComponentLayout@@SA?AV1@V1@HH@Z @ 60 NONAME ; public: static class TAknWindowComponentLayout  __cdecl TAknWindowComponentLayout::MultiLineX(class TAknWindowComponentLayout,int,int)
	?MultiLineY@TAknWindowComponentLayout@@SA?AV1@V1@HH@Z @ 61 NONAME ; public: static class TAknWindowComponentLayout  __cdecl TAknWindowComponentLayout::MultiLineY(class TAknWindowComponentLayout,int,int)
	??0TAknLayoutScalableParameterLimits@@QAE@HHHHHH@Z @ 62 NONAME ; public: __thiscall TAknLayoutScalableParameterLimits::TAknLayoutScalableParameterLimits(int,int,int,int,int,int)
	??0TAknLayoutScalableParameterLimits@@QAE@XZ @ 63 NONAME ; public: __thiscall TAknLayoutScalableParameterLimits::TAknLayoutScalableParameterLimits(void)
	?FirstColumn@TAknLayoutScalableParameterLimits@@QBEHXZ @ 64 NONAME ; public: int __thiscall TAknLayoutScalableParameterLimits::FirstColumn(void)const 
	?FirstRow@TAknLayoutScalableParameterLimits@@QBEHXZ @ 65 NONAME ; public: int __thiscall TAknLayoutScalableParameterLimits::FirstRow(void)const 
	?FirstVariety@TAknLayoutScalableParameterLimits@@QBEHXZ @ 66 NONAME ; public: int __thiscall TAknLayoutScalableParameterLimits::FirstVariety(void)const 
	?LastColumn@TAknLayoutScalableParameterLimits@@QBEHXZ @ 67 NONAME ; public: int __thiscall TAknLayoutScalableParameterLimits::LastColumn(void)const 
	?LastRow@TAknLayoutScalableParameterLimits@@QBEHXZ @ 68 NONAME ; public: int __thiscall TAknLayoutScalableParameterLimits::LastRow(void)const 
	?LastVariety@TAknLayoutScalableParameterLimits@@QBEHXZ @ 69 NONAME ; public: int __thiscall TAknLayoutScalableParameterLimits::LastVariety(void)const 
	?SetFirstColumn@TAknLayoutScalableParameterLimits@@QAEXH@Z @ 70 NONAME ; public: void __thiscall TAknLayoutScalableParameterLimits::SetFirstColumn(int)
	?SetFirstRow@TAknLayoutScalableParameterLimits@@QAEXH@Z @ 71 NONAME ; public: void __thiscall TAknLayoutScalableParameterLimits::SetFirstRow(int)
	?SetFirstVariety@TAknLayoutScalableParameterLimits@@QAEXH@Z @ 72 NONAME ; public: void __thiscall TAknLayoutScalableParameterLimits::SetFirstVariety(int)
	?SetLastColumn@TAknLayoutScalableParameterLimits@@QAEXH@Z @ 73 NONAME ; public: void __thiscall TAknLayoutScalableParameterLimits::SetLastColumn(int)
	?SetLastRow@TAknLayoutScalableParameterLimits@@QAEXH@Z @ 74 NONAME ; public: void __thiscall TAknLayoutScalableParameterLimits::SetLastRow(int)
	?SetLastVariety@TAknLayoutScalableParameterLimits@@QAEXH@Z @ 75 NONAME ; public: void __thiscall TAknLayoutScalableParameterLimits::SetLastVariety(int)
	?ParameterLimits@AknLayoutScalableDecodeSupport@@SAXAAVTAknLayoutScalableParameterLimitsImp@@PBUSCompDataImplData@@@Z @ 76 NONAME ; public: static void __cdecl AknLayoutScalableDecodeSupport::ParameterLimits(class TAknLayoutScalableParameterLimitsImp &,struct SCompDataImplData const *)
	?ParameterLimitsTable@AknLayoutScalableDecodeSupport@@SAXAAVTAknLayoutScalableParameterLimitsImp@@PBUSCompDataImplData@@H@Z @ 77 NONAME ; public: static void __cdecl AknLayoutScalableDecodeSupport::ParameterLimitsTable(class TAknLayoutScalableParameterLimitsImp &,struct SCompDataImplData const *,int)
	?MultiLineY@TAknTextComponentLayout@@SA?AV1@V1@HH@Z @ 78 NONAME ; public: static class TAknTextComponentLayout  __cdecl TAknTextComponentLayout::MultiLineY(class TAknTextComponentLayout,int,int)
	?RemoveLayoutEmptys@TAknTextComponentLayout@@CA?AV1@V1@@Z @ 79 NONAME ; private: static class TAknTextComponentLayout  __cdecl TAknTextComponentLayout::RemoveLayoutEmptys(class TAknTextComponentLayout)
	?SetZeroSized@TAknWindowComponentLayout@@QAEXXZ @ 80 NONAME ; public: void __thiscall TAknWindowComponentLayout::SetZeroSized(void)
	?SiblingAsChild@TAknWindowComponentLayout@@SA?AV1@V1@0@Z @ 81 NONAME ; public: static class TAknWindowComponentLayout  __cdecl TAknWindowComponentLayout::SiblingAsChild(class TAknWindowComponentLayout,class TAknWindowComponentLayout)
	?Anim@TAknTextComponentLayout@@SA?AV1@V1@0ABUTRangeTriplet@TAknWindowComponentLayout@@@Z @ 82 NONAME ; public: static class TAknTextComponentLayout  __cdecl TAknTextComponentLayout::Anim(class TAknTextComponentLayout,class TAknTextComponentLayout,struct TAknWindowComponentLayout::TRangeTriplet const &)
	??0TAknTextComponentLayout@@QAE@VTAknTextLineLayout@@@Z @ 83 NONAME ; TAknTextComponentLayout::TAknTextComponentLayout(class TAknTextLineLayout)
	??0TAknWindowComponentLayout@@QAE@VTAknWindowLineLayout@@@Z @ 84 NONAME ; TAknWindowComponentLayout::TAknWindowComponentLayout(class TAknWindowLineLayout)
	??4TAknTextComponentLayout@@QAE?AV0@VTAknTextLineLayout@@@Z @ 85 NONAME ; class TAknTextComponentLayout TAknTextComponentLayout::operator=(class TAknTextLineLayout)
	??4TAknWindowComponentLayout@@QAE?AV0@VTAknWindowLineLayout@@@Z @ 86 NONAME ; class TAknWindowComponentLayout TAknWindowComponentLayout::operator=(class TAknWindowLineLayout)
	?Multiline@TAknTextComponentLayout@@SA?AVTAknMultiLineTextLayout@@ABV?$RArray@VTAknTextComponentLayout@@@@@Z @ 87 NONAME ; class TAknMultiLineTextLayout TAknTextComponentLayout::Multiline(class RArray<class TAknTextComponentLayout> const &)

