EXPORTS
	?SetAllParentOffsets@TAknTextLineLayoutImp@@QAEXABVTRect@@@Z @ 1 NONAME ; public: void __thiscall TAknTextLineLayoutImp::SetAllParentOffsets(class TRect const &)
	?SetAllParentOffsets@TAknWindowLineLayoutImp@@QAEXABVTRect@@@Z @ 2 NONAME ; public: void __thiscall TAknWindowLineLayoutImp::SetAllParentOffsets(class TRect const &)
	?TextLine@AknLayoutDecodeSupport@@SAXAAVTAknTextLineLayoutImp@@PBUSImplData@@@Z @ 3 NONAME ; public: static void __cdecl AknLayoutDecodeSupport::TextLine(class TAknTextLineLayoutImp &,struct SImplData const *)
	?TextLine@AknLayoutDecodeSupport@@SAXAAVTAknTextLineLayoutImp@@PBUSImplData@@HHHHH@Z @ 4 NONAME ; public: static void __cdecl AknLayoutDecodeSupport::TextLine(class TAknTextLineLayoutImp &,struct SImplData const *,int,int,int,int,int)
	?TextTable@AknLayoutDecodeSupport@@SAXAAVTAknTextLineLayoutImp@@PBUSImplData@@HHHHHH@Z @ 5 NONAME ; public: static void __cdecl AknLayoutDecodeSupport::TextTable(class TAknTextLineLayoutImp &,struct SImplData const *,int,int,int,int,int,int)
	?WindowLine@AknLayoutDecodeSupport@@SAXAAVTAknWindowLineLayoutImp@@PBUSImplData@@@Z @ 6 NONAME ; public: static void __cdecl AknLayoutDecodeSupport::WindowLine(class TAknWindowLineLayoutImp &,struct SImplData const *)
	?WindowLine@AknLayoutDecodeSupport@@SAXAAVTAknWindowLineLayoutImp@@PBUSImplData@@HHHHH@Z @ 7 NONAME ; public: static void __cdecl AknLayoutDecodeSupport::WindowLine(class TAknWindowLineLayoutImp &,struct SImplData const *,int,int,int,int,int)
	?WindowTable@AknLayoutDecodeSupport@@SAXAAVTAknWindowLineLayoutImp@@PBUSImplData@@HHHHHH@Z @ 8 NONAME ; public: static void __cdecl AknLayoutDecodeSupport::WindowTable(class TAknWindowLineLayoutImp &,struct SImplData const *,int,int,int,int,int,int)
	?MultiLineTextLine@AknLayoutDecodeSupport@@SAXAAVTAknTextLineLayoutImp@@PBUSImplData@@ABVTRect@@HHHHH@Z @ 9 NONAME ; public: static void __cdecl AknLayoutDecodeSupport::MultiLineTextLine(class TAknTextLineLayoutImp &,struct SImplData const *,class TRect const &,int,int,int,int,int)
	?MultiLineTextLine@AknLayoutDecodeSupport@@SAXAAVTAknTextLineLayoutImp@@PBUSImplData@@HHHHH@Z @ 10 NONAME ; public: static void __cdecl AknLayoutDecodeSupport::MultiLineTextLine(class TAknTextLineLayoutImp &,struct SImplData const *,int,int,int,int,int)
	?TextLine@AknLayoutDecodeSupport@@SAXAAVTAknTextLineLayoutImp@@PBUSImplData@@ABVTRect@@HHHHH@Z @ 11 NONAME ; public: static void __cdecl AknLayoutDecodeSupport::TextLine(class TAknTextLineLayoutImp &,struct SImplData const *,class TRect const &,int,int,int,int,int)
	?TextTable@AknLayoutDecodeSupport@@SAXAAVTAknTextLineLayoutImp@@PBUSImplData@@HABVTRect@@HHHHH@Z @ 12 NONAME ; public: static void __cdecl AknLayoutDecodeSupport::TextTable(class TAknTextLineLayoutImp &,struct SImplData const *,int,class TRect const &,int,int,int,int,int)
	?WindowLine@AknLayoutDecodeSupport@@SAXAAVTAknWindowLineLayoutImp@@PBUSImplData@@ABVTRect@@HHHHH@Z @ 13 NONAME ; public: static void __cdecl AknLayoutDecodeSupport::WindowLine(class TAknWindowLineLayoutImp &,struct SImplData const *,class TRect const &,int,int,int,int,int)
	?WindowTable@AknLayoutDecodeSupport@@SAXAAVTAknWindowLineLayoutImp@@PBUSImplData@@HABVTRect@@HHHHH@Z @ 14 NONAME ; public: static void __cdecl AknLayoutDecodeSupport::WindowTable(class TAknWindowLineLayoutImp &,struct SImplData const *,int,class TRect const &,int,int,int,int,int)
	?TableLimits@AknLayoutDecodeSupport@@SA?AVTAknLayoutTableLimits@@PBG@Z @ 15 NONAME ; public: static class TAknLayoutTableLimits  __cdecl AknLayoutDecodeSupport::TableLimits(unsigned short const *)
	?CombineLines@TAknWindowLineLayout@@SA?AV1@V1@0@Z @ 16 NONAME ; public: static class TAknWindowLineLayout  __cdecl TAknWindowLineLayout::CombineLines(class TAknWindowLineLayout,class TAknWindowLineLayout)
	??0TAknTextLineLayout@@QAE@ABVTAknTextComponentLayout@@@Z @ 17 NONAME ; public: __thiscall TAknTextLineLayout::TAknTextLineLayout(class TAknTextComponentLayout const &)
	??0TAknWindowLineLayout@@QAE@ABVTAknWindowComponentLayout@@@Z @ 18 NONAME ; public: __thiscall TAknWindowLineLayout::TAknWindowLineLayout(class TAknWindowComponentLayout const &)
	??4TAknTextLineLayout@@QAE?AV0@ABVTAknTextComponentLayout@@@Z @ 19 NONAME ; public: class TAknTextLineLayout  __thiscall TAknTextLineLayout::operator=(class TAknTextComponentLayout const &)
	??4TAknWindowLineLayout@@QAE?AV0@ABVTAknWindowComponentLayout@@@Z @ 20 NONAME ; public: class TAknWindowLineLayout  __thiscall TAknWindowLineLayout::operator=(class TAknWindowComponentLayout const &)

