EXPORTS
	??0TItemAttributes@LafMenuPane@@QAE@XZ @ 1 NONAME ; LafMenuPane::TItemAttributes::TItemAttributes(void)
	??0TLidColors@LafListItemDrawer@@QAE@VTRgb@@000000@Z @ 2 NONAME ; LafListItemDrawer::TLidColors::TLidColors(class TRgb, class TRgb, class TRgb, class TRgb, class TRgb, class TRgb, class TRgb)
	??0TScrollBarAttributes@LafScrollBarFrame@@QAE@XZ @ 3 NONAME ; LafScrollBarFrame::TScrollBarAttributes::TScrollBarAttributes(void)
	??0TTitleAttributes@LafMenuBar@@QAE@XZ @ 4 NONAME ; LafMenuBar::TTitleAttributes::TTitleAttributes(void)
	?AdjustButtonExtentForScrollBarBorder@LafScrollBar@@SAXAAVTPoint@@AAVTSize@@HHHABVTMargins@@@Z @ 5 NONAME ; void LafScrollBar::AdjustButtonExtentForScrollBarBorder(class TPoint &, class TSize &, int, int, int, class TMargins const &)
	?AdjustShaftRangeForScrollBarBorder@LafScrollBar@@SAXAAH0HHABVTMargins@@@Z @ 6 NONAME ; void LafScrollBar::AdjustShaftRangeForScrollBarBorder(int &, int &, int, int, class TMargins const &)
	?AdornmentSpace@LafMenuPane@@SAHABVTItemAttributes@1@@Z @ 7 NONAME ; int LafMenuPane::AdornmentSpace(class LafMenuPane::TItemAttributes const &)
	?BubbleHelpState@LafButtonBase@@SA?AW4TBubbleHelpState@1@ABVCCoeControl@@ABUTPointerEvent@@H@Z @ 8 NONAME ; enum LafButtonBase::TBubbleHelpState LafButtonBase::BubbleHelpState(class CCoeControl const &, struct TPointerEvent const &, int)
	?ButtonBreadth@LafArrowHeadScrollButton@@SAHXZ @ 9 NONAME ; int LafArrowHeadScrollButton::ButtonBreadth(void)
	?ButtonBreadth@LafScrollButton@@SAHXZ @ 10 NONAME ; int LafScrollButton::ButtonBreadth(void)
	?ButtonType@LafButtonGroupContainer@@SAHH@Z @ 11 NONAME ; int LafButtonGroupContainer::ButtonType(int)
	?ButtonsAllSameSize@LafButtonPanel@@SAHXZ @ 12 NONAME ; int LafButtonPanel::ButtonsAllSameSize(void)
	?CalcThumbPosInScrollBar@LafScrollBar@@SAHHHHHHH@Z @ 13 NONAME ; int LafScrollBar::CalcThumbPosInScrollBar(int, int, int, int, int, int)
	?CalcThumbPosInScrollBarModel@LafScrollBar@@SAHHHHHHH@Z @ 14 NONAME ; int LafScrollBar::CalcThumbPosInScrollBarModel(int, int, int, int, int, int)
	?CalculateThumbLength@LafScrollBar@@SAHHHH@Z @ 15 NONAME ; int LafScrollBar::CalculateThumbLength(int, int, int)
	?CascadeMargins@LafMenuPane@@SA?BVTMargins8@@XZ @ 16 NONAME ; class TMargins8 const LafMenuPane::CascadeMargins(void)
	?ComponentOffset@LafCommandButtonBase@@SAHHH@Z @ 17 NONAME ; int LafCommandButtonBase::ComponentOffset(int, int)
	?Constant@LafButtonPanel@@CAHW4TConstantType@1@@Z @ 18 NONAME ; int LafButtonPanel::Constant(enum LafButtonPanel::TConstantType)
	?Constant@LafCommandButtonBase@@CAHW4TConstantType@1@@Z @ 19 NONAME ; int LafCommandButtonBase::Constant(enum LafCommandButtonBase::TConstantType)
	?Constant@LafLabel@@CAHW4TConstantType@1@@Z @ 20 NONAME ; int LafLabel::Constant(enum LafLabel::TConstantType)
	?Constant@LafLabeledButton@@CAHW4TConstantType@1@@Z @ 21 NONAME ; int LafLabeledButton::Constant(enum LafLabeledButton::TConstantType)
	?Constant@LafListBox@@CAHW4TConstantType@1@@Z @ 22 NONAME ; int LafListBox::Constant(enum LafListBox::TConstantType)
	?Constant@LafListItemDrawer@@CAHW4TConstantType@1@@Z @ 23 NONAME ; int LafListItemDrawer::Constant(enum LafListItemDrawer::TConstantType)
	?Constant@LafMenuBar@@CAHW4TConstantType@1@@Z @ 24 NONAME ; int LafMenuBar::Constant(enum LafMenuBar::TConstantType)
	?Constant@LafMenuPane@@CAHW4TConstantType@1@@Z @ 25 NONAME ; int LafMenuPane::Constant(enum LafMenuPane::TConstantType)
	?Constant@LafMenuPaneTitle@@CAHW4TConstantType@1@@Z @ 26 NONAME ; int LafMenuPaneTitle::Constant(enum LafMenuPaneTitle::TConstantType)
	?Constant@LafScrollBar@@CAHW4TConstantType@1@@Z @ 27 NONAME ; int LafScrollBar::Constant(enum LafScrollBar::TConstantType)
	?CreateEdwinCustomDrawL@LafEdwin@@SAPAVCLafEdwinCustomDrawBase@@ABVMLafEnv@@ABVCCoeControl@@AAVCTextLayout@@@Z @ 28 NONAME ; class CLafEdwinCustomDrawBase * LafEdwin::CreateEdwinCustomDrawL(class MLafEnv const &, class CCoeControl const &, class CTextLayout &)
	?DefaultCbaResId@LafMenuPane@@SAHXZ @ 29 NONAME ; int LafMenuPane::DefaultCbaResId(void)
	?DefaultFlags@LafScrollBarFrame@@SAHXZ @ 30 NONAME ; int LafScrollBarFrame::DefaultFlags(void)
	?DefaultScrollBarFlags@LafEdwin@@SAHH@Z @ 31 NONAME ; int LafEdwin::DefaultScrollBarFlags(int)
	?DefaultScrollBarFlags@LafListBox@@SAHH@Z @ 32 NONAME ; int LafListBox::DefaultScrollBarFlags(int)
	?DefaultScrollBarFlags@LafMenuPane@@SAHH@Z @ 33 NONAME ; int LafMenuPane::DefaultScrollBarFlags(int)
	?DefaultScrollBarFlags@LafScrollBarFrame@@SAHH@Z @ 34 NONAME ; int LafScrollBarFrame::DefaultScrollBarFlags(int)
	?DefaultSpan@LafMenuBar@@SA?AW4TWidth@1@XZ @ 35 NONAME ; enum LafMenuBar::TWidth LafMenuBar::DefaultSpan(void)
	?Draw@LafCommandButtonBase@@SAXABVMLafEnv@@ABVCCoeControl@@AAVCWindowGc@@ABVTGulBorder@@HHVTMargins8@@H@Z @ 36 NONAME ; void LafCommandButtonBase::Draw(class MLafEnv const &, class CCoeControl const &, class CWindowGc &, class TGulBorder const &, int, int, class TMargins8, int)
	?Draw@LafImage@@SAXABVMLafEnv@@ABVCCoeControl@@AAVCWindowGc@@ABVTRect@@VTMargins8@@VTGulAlignment@@ABVCFbsBitmap@@PBV8@H@Z @ 37 NONAME ; void LafImage::Draw(class MLafEnv const &, class CCoeControl const &, class CWindowGc &, class TRect const &, class TMargins8, class TGulAlignment, class CFbsBitmap const &, class CFbsBitmap const *, int)
	?DrawBetweenRects@LafMenuBar@@SAXABVMLafEnv@@ABVCCoeControl@@AAVCWindowGc@@ABVTRect@@3@Z @ 38 NONAME ; void LafMenuBar::DrawBetweenRects(class MLafEnv const &, class CCoeControl const &, class CWindowGc &, class TRect const &, class TRect const &)
	?DrawButton@LafArrowHeadScrollButton@@SAXABVMLafEnv@@AAVCWindowGc@@ABVCCoeControl@@ABVTRect@@HH@Z @ 39 NONAME ; void LafArrowHeadScrollButton::DrawButton(class MLafEnv const &, class CWindowGc &, class CCoeControl const &, class TRect const &, int, int)
	?DrawButton@LafScrollButton@@SAXABVMLafEnv@@AAVCWindowGc@@ABVCCoeControl@@ABVTRect@@HH@Z @ 40 NONAME ; void LafScrollButton::DrawButton(class MLafEnv const &, class CWindowGc &, class CCoeControl const &, class TRect const &, int, int)
	?DrawDragState@LafScrollThumb@@SAXABVMLafEnv@@AAVCWindowGc@@ABVCCoeControl@@HABVTRect@@H@Z @ 41 NONAME ; void LafScrollThumb::DrawDragState(class MLafEnv const &, class CWindowGc &, class CCoeControl const &, int, class TRect const &, int)
	?DrawFrame@LafListItemDrawer@@SAXAAVCWindowGc@@ABVTRect@@HABVTLidColors@1@@Z @ 42 NONAME ; void LafListItemDrawer::DrawFrame(class CWindowGc &, class TRect const &, int, class LafListItemDrawer::TLidColors const &)
	?DrawHighlightedShaftArea@LafScrollBar@@SAXABVMLafEnv@@ABVCCoeControl@@AAVCWindowGc@@AAVTRect@@HHHH@Z @ 43 NONAME ; void LafScrollBar::DrawHighlightedShaftArea(class MLafEnv const &, class CCoeControl const &, class CWindowGc &, class TRect &, int, int, int, int)
	?DrawHotKeyText@LafMenuPane@@SAXABVMLafEnv@@ABVCCoeControl@@AAVCWindowGc@@ABVTRect@@ABVTDesC16@@ABVTItemAttributes@1@@Z @ 44 NONAME ; void LafMenuPane::DrawHotKeyText(class MLafEnv const &, class CCoeControl const &, class CWindowGc &, class TRect const &, class TDesC16 const &, class LafMenuPane::TItemAttributes const &)
	?DrawIcon@LafMenuBarTitle@@SAXAAVCWindowGc@@ABVTRect@@ABVCGulIcon@@@Z @ 45 NONAME ; void LafMenuBarTitle::DrawIcon(class CWindowGc &, class TRect const &, class CGulIcon const &)
	?DrawIcon@LafMenuPaneItem@@SAXABVMLafEnv@@ABVCCoeControl@@AAVCWindowGc@@ABVTRect@@PBVCGulIcon@@W4THighlightType@SLafMenuPane@@@Z @ 46 NONAME ; void LafMenuPaneItem::DrawIcon(class MLafEnv const &, class CCoeControl const &, class CWindowGc &, class TRect const &, class CGulIcon const *, enum SLafMenuPane::THighlightType)
	?DrawLeftAdornment@LafMenuPane@@SAXABVMLafEnv@@ABVCCoeControl@@AAVCWindowGc@@ABVTRect@@ABVTItemAttributes@1@@Z @ 47 NONAME ; void LafMenuPane::DrawLeftAdornment(class MLafEnv const &, class CCoeControl const &, class CWindowGc &, class TRect const &, class LafMenuPane::TItemAttributes const &)
	?DrawNormalText@LafTextListItemDrawer@@SAXABVTDesC16@@ABVCFont@@AAVCWindowGc@@ABVTRect@@HW4TTextAlign@CGraphicsContext@@@Z @ 48 NONAME ; void LafTextListItemDrawer::DrawNormalText(class TDesC16 const &, class CFont const &, class CWindowGc &, class TRect const &, int, enum CGraphicsContext::TTextAlign)
	?DrawRightAdornment@LafMenuPane@@SAXABVMLafEnv@@ABVCCoeControl@@AAVCWindowGc@@ABVTRect@@ABVTItemAttributes@1@@Z @ 49 NONAME ; void LafMenuPane::DrawRightAdornment(class MLafEnv const &, class CCoeControl const &, class CWindowGc &, class TRect const &, class LafMenuPane::TItemAttributes const &)
	?DrawSearchText@LafListBoxData@@SAXABVTRect@@AAVCWindowGc@@ABVCFont@@2ABVTDesC16@@HHHW4TTextAlign@CGraphicsContext@@@Z @ 50 NONAME ; void LafListBoxData::DrawSearchText(class TRect const &, class CWindowGc &, class CFont const &, class CFont const &, class TDesC16 const &, int, int, int, enum CGraphicsContext::TTextAlign)
	?DrawSeperator@LafMenuPane@@SAXABVMLafEnv@@ABVCCoeControl@@AAVCWindowGc@@ABVTRect@@ABVTItemAttributes@1@@Z @ 51 NONAME ; void LafMenuPane::DrawSeperator(class MLafEnv const &, class CCoeControl const &, class CWindowGc &, class TRect const &, class LafMenuPane::TItemAttributes const &)
	?DrawShaft@LafScrollBar@@SAXABVMLafEnv@@ABVCCoeControl@@AAVCWindowGc@@ABVTRect@@HH@Z @ 52 NONAME ; void LafScrollBar::DrawShaft(class MLafEnv const &, class CCoeControl const &, class CWindowGc &, class TRect const &, int, int)
	?DrawShaftAroundThumb@LafScrollBar@@SAXABVMLafEnv@@ABVCCoeControl@@AAVCWindowGc@@ABVTRect@@HHH@Z @ 53 NONAME ; void LafScrollBar::DrawShaftAroundThumb(class MLafEnv const &, class CCoeControl const &, class CWindowGc &, class TRect const &, int, int, int)
	?DrawText@LafMenuBar@@SAXABVMLafEnv@@ABVCCoeControl@@AAVCWindowGc@@ABVTRect@@ABVTDesC16@@ABVTTitleAttributes@1@@Z @ 54 NONAME ; void LafMenuBar::DrawText(class MLafEnv const &, class CCoeControl const &, class CWindowGc &, class TRect const &, class TDesC16 const &, class LafMenuBar::TTitleAttributes const &)
	?DrawText@LafMenuPane@@SAXABVMLafEnv@@ABVCCoeControl@@AAVCWindowGc@@ABVTRect@@ABVTDesC16@@ABVTItemAttributes@1@@Z @ 55 NONAME ; void LafMenuPane::DrawText(class MLafEnv const &, class CCoeControl const &, class CWindowGc &, class TRect const &, class TDesC16 const &, class LafMenuPane::TItemAttributes const &)
	?DrawText@LafMenuPaneTitle@@SAXABVMLafEnv@@ABVCCoeControl@@AAVCWindowGc@@ABVTRect@@ABVTDesC16@@VTTitleAttributes@LafMenuBar@@@Z @ 56 NONAME ; void LafMenuPaneTitle::DrawText(class MLafEnv const &, class CCoeControl const &, class CWindowGc &, class TRect const &, class TDesC16 const &, class LafMenuBar::TTitleAttributes)
	?DrawTitlePaneJoint@LafMenuPane@@SAXABVMLafEnv@@ABVCCoeControl@@AAVCWindowGc@@PBV3@ABVTRect@@@Z @ 57 NONAME ; void LafMenuPane::DrawTitlePaneJoint(class MLafEnv const &, class CCoeControl const &, class CWindowGc &, class CCoeControl const *, class TRect const &)
	?DrawTitlePaneJoint@LafMenuPaneTitle@@SAXABVMLafEnv@@ABVCCoeControl@@AAVCWindowGc@@ABVTRect@@@Z @ 58 NONAME ; void LafMenuPaneTitle::DrawTitlePaneJoint(class MLafEnv const &, class CCoeControl const &, class CWindowGc &, class TRect const &)
	?DrawVisualFeedback@LafMenuPane@@SAXABVMLafEnv@@ABVCCoeControl@@AAVCWindowGc@@ABVTRect@@@Z @ 59 NONAME ; void LafMenuPane::DrawVisualFeedback(class MLafEnv const &, class CCoeControl const &, class CWindowGc &, class TRect const &)
	?FadeBehind@LafListBox@@SAHXZ @ 60 NONAME ; int LafListBox::FadeBehind(void)
	?FadeBehind@LafMenuBar@@SAHXZ @ 61 NONAME ; int LafMenuBar::FadeBehind(void)
	?FadeBehind@LafMenuPane@@SAHXZ @ 62 NONAME ; int LafMenuPane::FadeBehind(void)
	?FloatingScrollBarLength@LafScrollBarFrame@@SAHHABVTScrollBarAttributes@1@ABVTRect@@ABVTSize@@@Z @ 63 NONAME ; int LafScrollBarFrame::FloatingScrollBarLength(int, class LafScrollBarFrame::TScrollBarAttributes const &, class TRect const &, class TSize const &)
	?Font@LafMenuBar@@CAPBVCFont@@ABVMLafEnv@@W4TFontType@1@@Z @ 64 NONAME ; class CFont const * LafMenuBar::Font(class MLafEnv const &, enum LafMenuBar::TFontType)
	?Font@LafMenuPane@@CAPBVCFont@@ABVMLafEnv@@W4TFontType@1@@Z @ 65 NONAME ; class CFont const * LafMenuPane::Font(class MLafEnv const &, enum LafMenuPane::TFontType)
	?Font@LafSnakingTextListBox@@SAPBVCFont@@ABVMLafEnv@@@Z @ 66 NONAME ; class CFont const * LafSnakingTextListBox::Font(class MLafEnv const &)
	?Font@LafTextListBox@@SAPBVCFont@@ABVMLafEnv@@@Z @ 67 NONAME ; class CFont const * LafTextListBox::Font(class MLafEnv const &)
	?GetBorder@LafArrowHeadScrollButton@@SAXAAVTGulBorder@@H@Z @ 68 NONAME ; void LafArrowHeadScrollButton::GetBorder(class TGulBorder &, int)
	?GetBorder@LafCommandButtonBase@@SAXAAVTGulBorder@@HHABVCCoeControl@@H@Z @ 69 NONAME ; void LafCommandButtonBase::GetBorder(class TGulBorder &, int, int, class CCoeControl const &, int)
	?GetBorder@LafScrollButton@@SAXAAVTGulBorder@@H@Z @ 70 NONAME ; void LafScrollButton::GetBorder(class TGulBorder &, int)
	?GetBorderColors@LafArrowHeadScrollBar@@SAXAAVTColors@TGulBorder@@ABVMLafEnv@@ABVCCoeControl@@@Z @ 71 NONAME ; void LafArrowHeadScrollBar::GetBorderColors(class TGulBorder::TColors &, class MLafEnv const &, class CCoeControl const &)
	?GetBorderColors@LafArrowHeadScrollButton@@SAXAAVTColors@TGulBorder@@ABVMLafEnv@@ABVCCoeControl@@@Z @ 72 NONAME ; void LafArrowHeadScrollButton::GetBorderColors(class TGulBorder::TColors &, class MLafEnv const &, class CCoeControl const &)
	?GetBorderColors@LafCommandButtonBase@@SAXAAVTColors@TGulBorder@@ABVMLafEnv@@ABVCCoeControl@@@Z @ 73 NONAME ; void LafCommandButtonBase::GetBorderColors(class TGulBorder::TColors &, class MLafEnv const &, class CCoeControl const &)
	?GetBorderColors@LafEdwin@@SAXAAVTColors@TGulBorder@@ABVMLafEnv@@ABVCCoeControl@@@Z @ 74 NONAME ; void LafEdwin::GetBorderColors(class TGulBorder::TColors &, class MLafEnv const &, class CCoeControl const &)
	?GetBorderColors@LafFileNameLabel@@SAXAAVTColors@TGulBorder@@ABVMLafEnv@@ABVCCoeControl@@@Z @ 75 NONAME ; void LafFileNameLabel::GetBorderColors(class TGulBorder::TColors &, class MLafEnv const &, class CCoeControl const &)
	?GetBorderColors@LafListBox@@SAXAAVTColors@TGulBorder@@ABVMLafEnv@@ABVCCoeControl@@@Z @ 76 NONAME ; void LafListBox::GetBorderColors(class TGulBorder::TColors &, class MLafEnv const &, class CCoeControl const &)
	?GetBorderColors@LafListBoxTextEditor@@SAXAAVTColors@TGulBorder@@ABVMLafEnv@@ABVCCoeControl@@@Z @ 77 NONAME ; void LafListBoxTextEditor::GetBorderColors(class TGulBorder::TColors &, class MLafEnv const &, class CCoeControl const &)
	?GetBorderColors@LafMenuBar@@SAXAAVTColors@TGulBorder@@ABVMLafEnv@@ABVCCoeControl@@@Z @ 78 NONAME ; void LafMenuBar::GetBorderColors(class TGulBorder::TColors &, class MLafEnv const &, class CCoeControl const &)
	?GetBorderColors@LafMenuPane@@SAXAAVTColors@TGulBorder@@ABVMLafEnv@@ABVCCoeControl@@@Z @ 79 NONAME ; void LafMenuPane::GetBorderColors(class TGulBorder::TColors &, class MLafEnv const &, class CCoeControl const &)
	?GetBorderColors@LafMenuPaneTitle@@SAXAAVTColors@TGulBorder@@ABVMLafEnv@@ABVCCoeControl@@@Z @ 80 NONAME ; void LafMenuPaneTitle::GetBorderColors(class TGulBorder::TColors &, class MLafEnv const &, class CCoeControl const &)
	?GetBorderColors@LafScrollBar@@SAXAAVTColors@TGulBorder@@ABVMLafEnv@@ABVCCoeControl@@@Z @ 81 NONAME ; void LafScrollBar::GetBorderColors(class TGulBorder::TColors &, class MLafEnv const &, class CCoeControl const &)
	?GetBorderColors@LafScrollButton@@SAXAAVTColors@TGulBorder@@ABVMLafEnv@@ABVCCoeControl@@@Z @ 82 NONAME ; void LafScrollButton::GetBorderColors(class TGulBorder::TColors &, class MLafEnv const &, class CCoeControl const &)
	?GetBorderColors@LafScrollThumb@@SAXAAVTColors@TGulBorder@@ABVMLafEnv@@ABVCCoeControl@@@Z @ 83 NONAME ; void LafScrollThumb::GetBorderColors(class TGulBorder::TColors &, class MLafEnv const &, class CCoeControl const &)
	?GetBorderColors@LafToolBar@@SAXAAVTColors@TGulBorder@@ABVMLafEnv@@ABVCCoeControl@@@Z @ 84 NONAME ; void LafToolBar::GetBorderColors(class TGulBorder::TColors &, class MLafEnv const &, class CCoeControl const &)
	?GetBorderColors@LafTwoPictureCommandButton@@SAXAAVTColors@TGulBorder@@ABVMLafEnv@@ABVCCoeControl@@@Z @ 85 NONAME ; void LafTwoPictureCommandButton::GetBorderColors(class TGulBorder::TColors &, class MLafEnv const &, class CCoeControl const &)
	?GetColorUseListL@LafCommandButtonBase@@SAXAAV?$CArrayFix@VTCoeColorUse@@@@@Z @ 86 NONAME ; void LafCommandButtonBase::GetColorUseListL(class CArrayFix<class TCoeColorUse> &)
	?GetColorUseListL@LafEdwin@@SAXAAV?$CArrayFix@VTCoeColorUse@@@@@Z @ 87 NONAME ; void LafEdwin::GetColorUseListL(class CArrayFix<class TCoeColorUse> &)
	?GetColorUseListL@LafListBox@@SAXAAV?$CArrayFix@VTCoeColorUse@@@@@Z @ 88 NONAME ; void LafListBox::GetColorUseListL(class CArrayFix<class TCoeColorUse> &)
	?GetColorUseListL@LafMenuBar@@SAXAAV?$CArrayFix@VTCoeColorUse@@@@@Z @ 89 NONAME ; void LafMenuBar::GetColorUseListL(class CArrayFix<class TCoeColorUse> &)
	?GetColorUseListL@LafMenuPane@@SAXAAV?$CArrayFix@VTCoeColorUse@@@@@Z @ 90 NONAME ; void LafMenuPane::GetColorUseListL(class CArrayFix<class TCoeColorUse> &)
	?GetColorUseListL@LafMenuPaneTitle@@SAXAAV?$CArrayFix@VTCoeColorUse@@@@@Z @ 91 NONAME ; void LafMenuPaneTitle::GetColorUseListL(class CArrayFix<class TCoeColorUse> &)
	?GetColorUseListL@LafScrollBar@@SAXAAV?$CArrayFix@VTCoeColorUse@@@@@Z @ 92 NONAME ; void LafScrollBar::GetColorUseListL(class CArrayFix<class TCoeColorUse> &)
	?GetColorUseListL@LafScrollBarFrameCornerWindow@@SAXAAV?$CArrayFix@VTCoeColorUse@@@@@Z @ 93 NONAME ; void LafScrollBarFrameCornerWindow::GetColorUseListL(class CArrayFix<class TCoeColorUse> &)
	?GetColorUseListL@LafScrollButton@@SAXAAV?$CArrayFix@VTCoeColorUse@@@@@Z @ 94 NONAME ; void LafScrollButton::GetColorUseListL(class CArrayFix<class TCoeColorUse> &)
	?GetColorUseListL@LafScrollThumb@@SAXAAV?$CArrayFix@VTCoeColorUse@@@@@Z @ 95 NONAME ; void LafScrollThumb::GetColorUseListL(class CArrayFix<class TCoeColorUse> &)
	?GetColorUseListL@LafToolBar@@SAXAAV?$CArrayFix@VTCoeColorUse@@@@@Z @ 96 NONAME ; void LafToolBar::GetColorUseListL(class CArrayFix<class TCoeColorUse> &)
	?GetDefaultBorder@LafArrowHeadScrollBar@@SAXAAVTGulBorder@@@Z @ 97 NONAME ; void LafArrowHeadScrollBar::GetDefaultBorder(class TGulBorder &)
	?GetDefaultBorder@LafCommandButtonBase@@SAXAAVTGulBorder@@@Z @ 98 NONAME ; void LafCommandButtonBase::GetDefaultBorder(class TGulBorder &)
	?GetDefaultBorder@LafEdwin@@SAXAAVTGulBorder@@@Z @ 99 NONAME ; void LafEdwin::GetDefaultBorder(class TGulBorder &)
	?GetDefaultBorder@LafFileNameLabel@@SAXAAVTGulBorder@@@Z @ 100 NONAME ; void LafFileNameLabel::GetDefaultBorder(class TGulBorder &)
	?GetDefaultBorder@LafListBox@@SAXAAVTGulBorder@@@Z @ 101 NONAME ; void LafListBox::GetDefaultBorder(class TGulBorder &)
	?GetDefaultBorder@LafListBoxTextEditor@@SAXAAVTGulBorder@@@Z @ 102 NONAME ; void LafListBoxTextEditor::GetDefaultBorder(class TGulBorder &)
	?GetDefaultBorder@LafMenuBar@@SAXAAVTGulBorder@@@Z @ 103 NONAME ; void LafMenuBar::GetDefaultBorder(class TGulBorder &)
	?GetDefaultBorder@LafMenuPane@@SAXAAVTGulBorder@@@Z @ 104 NONAME ; void LafMenuPane::GetDefaultBorder(class TGulBorder &)
	?GetDefaultBorder@LafMenuPaneTitle@@SAXAAVTGulBorder@@@Z @ 105 NONAME ; void LafMenuPaneTitle::GetDefaultBorder(class TGulBorder &)
	?GetDefaultBorder@LafScrollBar@@SAXAAVTGulBorder@@@Z @ 106 NONAME ; void LafScrollBar::GetDefaultBorder(class TGulBorder &)
	?GetDefaultBorder@LafScrollThumb@@SAXAAVTGulBorder@@H@Z @ 107 NONAME ; void LafScrollThumb::GetDefaultBorder(class TGulBorder &, int)
	?GetDefaultBorder@LafToolBar@@SAXAAVTGulBorder@@@Z @ 108 NONAME ; void LafToolBar::GetDefaultBorder(class TGulBorder &)
	?GetDefaultBorder@LafTwoPictureCommandButton@@SAXAAVTGulBorder@@@Z @ 109 NONAME ; void LafTwoPictureCommandButton::GetDefaultBorder(class TGulBorder &)
	?GetDefaultPopoutBorder@LafListBox@@SAXAAVTGulBorder@@@Z @ 110 NONAME ; void LafListBox::GetDefaultPopoutBorder(class TGulBorder &)
	?GetDefaultScrollBarAttributes@LafEdwin@@SAXHAAVTScrollBarAttributes@LafScrollBarFrame@@@Z @ 111 NONAME ; void LafEdwin::GetDefaultScrollBarAttributes(int, class LafScrollBarFrame::TScrollBarAttributes &)
	?GetDefaultScrollBarAttributes@LafListBox@@SAXHAAVTScrollBarAttributes@LafScrollBarFrame@@@Z @ 112 NONAME ; void LafListBox::GetDefaultScrollBarAttributes(int, class LafScrollBarFrame::TScrollBarAttributes &)
	?GetDefaultScrollBarAttributes@LafMenuPane@@SAXHAAVTScrollBarAttributes@LafScrollBarFrame@@@Z @ 113 NONAME ; void LafMenuPane::GetDefaultScrollBarAttributes(int, class LafScrollBarFrame::TScrollBarAttributes &)
	?GetDefaultScrollBarAttributes@LafScrollBarFrame@@SAXHAAVTScrollBarAttributes@1@@Z @ 114 NONAME ; void LafScrollBarFrame::GetDefaultScrollBarAttributes(int, class LafScrollBarFrame::TScrollBarAttributes &)
	?GetFloatingScrollBarPosition@LafScrollBarFrame@@SAXHABVTScrollBarAttributes@1@ABVTRect@@ABVTSize@@AAVTPoint@@@Z @ 115 NONAME ; void LafScrollBarFrame::GetFloatingScrollBarPosition(int, class LafScrollBarFrame::TScrollBarAttributes const &, class TRect const &, class TSize const &, class TPoint &)
	?GetMenuPosition@LafMenuButton@@SAXAAVTPoint@@ABVTRect@@ABVTSize@@2@Z @ 116 NONAME ; void LafMenuButton::GetMenuPosition(class TPoint &, class TRect const &, class TSize const &, class TSize const &)
	?GetPopoutBorderColors@LafListBox@@SAXAAVTColors@TGulBorder@@ABVMLafEnv@@ABVCCoeControl@@@Z @ 117 NONAME ; void LafListBox::GetPopoutBorderColors(class TGulBorder::TColors &, class MLafEnv const &, class CCoeControl const &)
	?InputCapabilities@LafButtonBase@@SAHXZ @ 118 NONAME ; int LafButtonBase::InputCapabilities(void)
	?InputCapabilities@LafEdwin@@SAHXZ @ 119 NONAME ; int LafEdwin::InputCapabilities(void)
	?InputCapabilities@LafLabeledButton@@SAHXZ @ 120 NONAME ; int LafLabeledButton::InputCapabilities(void)
	?InputCapabilities@LafListBox@@SAHH@Z @ 121 NONAME ; int LafListBox::InputCapabilities(int)
	?InputCapabilities@LafMenuBar@@SAHXZ @ 122 NONAME ; int LafMenuBar::InputCapabilities(void)
	?InputCapabilities@LafMenuPane@@SAHXZ @ 123 NONAME ; int LafMenuPane::InputCapabilities(void)
	?IsAlwaysVisible@LafMenuBar@@SAHXZ @ 124 NONAME ; int LafMenuBar::IsAlwaysVisible(void)
	?IsBorderOutsideButtons@LafScrollBar@@SAHXZ @ 125 NONAME ; int LafScrollBar::IsBorderOutsideButtons(void)
	?IsPointerOutOfDragRange@LafScrollBar@@SAHABVTPoint@@ABVTRect@@H@Z @ 126 NONAME ; int LafScrollBar::IsPointerOutOfDragRange(class TPoint const &, class TRect const &, int)
	?IsReportingOnButtonDown@LafMenuButton@@SAHXZ @ 127 NONAME ; int LafMenuButton::IsReportingOnButtonDown(void)
	?ItemWidth@LafListBoxView@@SAHHH@Z @ 128 NONAME ; int LafListBoxView::ItemWidth(int, int)
	?LabelAlignment@LafLabeledButton@@SA?AW4TGulAlignmentValue@@XZ @ 129 NONAME ; enum TGulAlignmentValue LafLabeledButton::LabelAlignment(void)
	?Location@LafButtonGroupContainer@@SAHH@Z @ 130 NONAME ; int LafButtonGroupContainer::Location(int)
	?MapKeyCode@LafListBox@@SAIABUTKeyEvent@@W4TEventCode@@@Z @ 131 NONAME ; unsigned int LafListBox::MapKeyCode(struct TKeyEvent const &, enum TEventCode)
	?MapKeyCode@LafMenuBar@@SAIABUTKeyEvent@@W4TEventCode@@@Z @ 132 NONAME ; unsigned int LafMenuBar::MapKeyCode(struct TKeyEvent const &, enum TEventCode)
	?MapKeyCode@LafMenuPane@@SAIABUTKeyEvent@@W4TEventCode@@@Z @ 133 NONAME ; unsigned int LafMenuPane::MapKeyCode(struct TKeyEvent const &, enum TEventCode)
	?MapKeyEvent@LafEdwin@@SAXAAUTKeyEvent@@W4TEventCode@@@Z @ 134 NONAME ; void LafEdwin::MapKeyEvent(struct TKeyEvent &, enum TEventCode)
	?Margins@LafBitmapButton@@SA?AVTMargins8@@XZ @ 135 NONAME ; class TMargins8 LafBitmapButton::Margins(void)
	?Margins@LafButtonPanel@@SA?AVTMargins8@@XZ @ 136 NONAME ; class TMargins8 LafButtonPanel::Margins(void)
	?Margins@LafCommandButton@@SA?AVTMargins8@@XZ @ 137 NONAME ; class TMargins8 LafCommandButton::Margins(void)
	?Margins@LafEdwin@@SA?AVTMargins8@@XZ @ 138 NONAME ; class TMargins8 LafEdwin::Margins(void)
	?Margins@LafInverterCommandButton@@SA?AVTMargins8@@XZ @ 139 NONAME ; class TMargins8 LafInverterCommandButton::Margins(void)
	?Margins@LafListBox@@SA?AVTMargins8@@XZ @ 140 NONAME ; class TMargins8 LafListBox::Margins(void)
	?Margins@LafMenuPane@@SA?BVTMargins8@@XZ @ 141 NONAME ; class TMargins8 const LafMenuPane::Margins(void)
	?Margins@LafTextButton@@SA?AVTMargins8@@XZ @ 142 NONAME ; class TMargins8 LafTextButton::Margins(void)
	?Margins@LafTwoPictureCommandButton@@SA?AVTMargins8@@XZ @ 143 NONAME ; class TMargins8 LafTwoPictureCommandButton::Margins(void)
	?PointerCursorOnMode@LafVirtualCursor@@SA?AW4TPointerCursorMode@@XZ @ 144 NONAME ; enum TPointerCursorMode LafVirtualCursor::PointerCursorOnMode(void)
	?PrepareContext@LafCommandButtonBase@@SAXAAVCWindowGc@@HABVMLafEnv@@ABVCCoeControl@@@Z @ 145 NONAME ; void LafCommandButtonBase::PrepareContext(class CWindowGc &, int, class MLafEnv const &, class CCoeControl const &)
	?PrepareGcForDrawingItems@LafMenuPane@@SAXABVMLafEnv@@ABVCCoeControl@@AAVCWindowGc@@@Z @ 146 NONAME ; void LafMenuPane::PrepareGcForDrawingItems(class MLafEnv const &, class CCoeControl const &, class CWindowGc &)
	?PrepareGcForDrawingTitle@LafMenuBar@@SAXABVMLafEnv@@ABVCCoeControl@@AAVCWindowGc@@@Z @ 147 NONAME ; void LafMenuBar::PrepareGcForDrawingTitle(class MLafEnv const &, class CCoeControl const &, class CWindowGc &)
	?PrepareGcForDrawingTitle@LafMenuPaneTitle@@SAXABVMLafEnv@@ABVCCoeControl@@AAVCWindowGc@@@Z @ 148 NONAME ; void LafMenuPaneTitle::PrepareGcForDrawingTitle(class MLafEnv const &, class CCoeControl const &, class CWindowGc &)
	?PrepareGcForHighlight@LafMenuPane@@SAXABVMLafEnv@@ABVCCoeControl@@AAVCWindowGc@@ABVTItemAttributes@1@@Z @ 149 NONAME ; void LafMenuPane::PrepareGcForHighlight(class MLafEnv const &, class CCoeControl const &, class CWindowGc &, class LafMenuPane::TItemAttributes const &)
	?PrepareItemAttribute@LafTextListItemDrawer@@SAHHHHH@Z @ 150 NONAME ; int LafTextListItemDrawer::PrepareItemAttribute(int, int, int, int)
	?RedrawShaft@LafScrollBar@@SAXABVMLafEnv@@ABVCCoeControl@@AAVCWindowGc@@ABVTRect@@HHH@Z @ 151 NONAME ; void LafScrollBar::RedrawShaft(class MLafEnv const &, class CCoeControl const &, class CWindowGc &, class TRect const &, int, int, int)
	?ReduceMarginsToFit@LafButtonPanel@@SAXABV?$TFixedArray@VTDimensions@LafButtonPanel@@$04@@AAC1AAH@Z @ 152 NONAME ; void LafButtonPanel::ReduceMarginsToFit(class TFixedArray<class LafButtonPanel::TDimensions, 5> const &, signed char &, signed char &, int &)
	?ReportIfBubbleHelpDisplaying@LafButtonBase@@SAHXZ @ 153 NONAME ; int LafButtonBase::ReportIfBubbleHelpDisplaying(void)
	?ScrollBarMargins@LafMenuPane@@SA?BVTMargins8@@XZ @ 154 NONAME ; class TMargins8 const LafMenuPane::ScrollBarMargins(void)
	?SelectFirstItemOnConstruction@LafMenuPane@@SAHXZ @ 155 NONAME ; int LafMenuPane::SelectFirstItemOnConstruction(void)
	?ShowHotKey@LafLabeledButton@@SAHXZ @ 156 NONAME ; int LafLabeledButton::ShowHotKey(void)
	?ShowHotKeys@LafMenuBar@@SAHXZ @ 157 NONAME ; int LafMenuBar::ShowHotKeys(void)
	?ShowHotKeys@LafMenuPane@@SAHXZ @ 158 NONAME ; int LafMenuPane::ShowHotKeys(void)
	?TopLeftCornerPosition@LafMenuBar@@SAXAAVTPoint@@AAW4TAnchor@1@@Z @ 159 NONAME ; void LafMenuBar::TopLeftCornerPosition(class TPoint &, enum LafMenuBar::TAnchor &)
	?TranslateForExcessSpace@LafButtonPanel@@SAXHAAH0@Z @ 160 NONAME ; void LafButtonPanel::TranslateForExcessSpace(int, int &, int &)

