EXPORTS
	_ZN10CEikSpacer18ExtensionInterfaceE4TUid @ 1 NONAME
	_ZN10CEikSpacer19HandlePointerEventLERK13TPointerEvent @ 2 NONAME
	_ZN10CEikSpacer8SetClearEi @ 3 NONAME
	_ZN10CEikSpacer8SetColorE4TRgb @ 4 NONAME
	_ZN10CEikSpacer8SetWidthEi @ 5 NONAME
	_ZN10CEikSpacer9SetHeightEi @ 6 NONAME
	_ZN10CEikSpacerC1Eii4TRgb @ 7 NONAME
	_ZN10CEikSpacerC1Ev @ 8 NONAME
	_ZN10CEikSpacerC2Eii4TRgb @ 9 NONAME
	_ZN10CEikSpacerC2Ev @ 10 NONAME
	_ZN10CEikSpacerD0Ev @ 11 NONAME
	_ZN10CEikSpacerD1Ev @ 12 NONAME
	_ZN10CEikSpacerD2Ev @ 13 NONAME
	_ZN13CEikMfneField17HandleDeHighlightERK5CFontR9CEikonEnvRiS5_ @ 14 NONAME
	_ZN13CEikMfneField22HandleLeftOrRightArrowE5TCharRiS1_ @ 15 NONAME
	_ZN13CEikMfneField9HandleKeyERK5CFontRK9TKeyEventiRiS6_ @ 16 NONAME
	_ZN13CEikMfneFieldC2Ev @ 17 NONAME
	_ZN14CEikCtlLibrary11InitializeLEv @ 18 NONAME
	_ZN14CEikCtlLibrary12ResourceFileEv @ 19 NONAME
	_ZN14CEikCtlLibrary14ControlFactoryEv @ 20 NONAME
	_ZN14CEikCtlLibrary18ButtonGroupFactoryEv @ 21 NONAME
	_ZN14CEikDateEditor10ConstructLERK5TTimeS2_S2_i @ 22 NONAME
	_ZN14CEikDateEditor14OfferKeyEventLERK9TKeyEvent10TEventCode @ 23 NONAME
	_ZN14CEikDateEditor16SetUninitialisedEi @ 24 NONAME
	_ZN14CEikDateEditor17CEikMfne_ReservedEv @ 25 NONAME
	_ZN14CEikDateEditor18ExtensionInterfaceE4TUid @ 26 NONAME
	_ZN14CEikDateEditor19HandlePointerEventLERK13TPointerEvent @ 27 NONAME
	_ZN14CEikDateEditor20PrepareForFocusLossLEv @ 28 NONAME
	_ZN14CEikDateEditor20SetMinimumAndMaximumERK5TTimeS2_ @ 29 NONAME
	_ZN14CEikDateEditor22ConstructFromResourceLER15TResourceReader @ 30 NONAME
	_ZN14CEikDateEditor7SetDateERK5TTime @ 31 NONAME
	_ZN14CEikDateEditorC1Ev @ 32 NONAME
	_ZN14CEikDateEditorC2Ev @ 33 NONAME
	_ZN14CEikDateEditorD0Ev @ 34 NONAME
	_ZN14CEikDateEditorD1Ev @ 35 NONAME
	_ZN14CEikDateEditorD2Ev @ 36 NONAME
	_ZN14CEikMfneNumber16SetUninitialisedEi @ 37 NONAME
	_ZN14CEikMfneNumber20SetMinimumAndMaximumEiiRK5CFont @ 38 NONAME
	_ZN14CEikMfneNumber4NewLERK5CFontR15TResourceReader @ 39 NONAME
	_ZN14CEikMfneNumber4NewLERK5CFontiiim @ 40 NONAME
	_ZN14CEikMfneNumber8SetValueEiRK5CFont @ 41 NONAME
	_ZN14CEikMfneNumberD0Ev @ 42 NONAME
	_ZN14CEikMfneNumberD1Ev @ 43 NONAME
	_ZN14CEikMfneNumberD2Ev @ 44 NONAME
	_ZN14CEikMfneSymbol15AddSymbolicItemEPNS_5CItemEi @ 45 NONAME
	_ZN14CEikMfneSymbol16SetUninitialisedEi @ 46 NONAME
	_ZN14CEikMfneSymbol26SetCurrentSymbolicItemToIdEi @ 47 NONAME
	_ZN14CEikMfneSymbol4NewLER15TResourceReader @ 48 NONAME
	_ZN14CEikMfneSymbol4NewLEi @ 49 NONAME
	_ZN14CEikMfneSymbol5CItem4NewLER15TResourceReader @ 50 NONAME
	_ZN14CEikMfneSymbol5CItem4NewLEi5TCharP7HBufC16 @ 51 NONAME
	_ZN14CEikMfneSymbol5CItem7SetTextEP7HBufC16 @ 52 NONAME
	_ZN14CEikMfneSymbol5CItemD0Ev @ 53 NONAME
	_ZN14CEikMfneSymbol5CItemD1Ev @ 54 NONAME
	_ZN14CEikMfneSymbol5CItemD2Ev @ 55 NONAME
	_ZN14CEikMfneSymbolD0Ev @ 56 NONAME
	_ZN14CEikMfneSymbolD1Ev @ 57 NONAME
	_ZN14CEikMfneSymbolD2Ev @ 58 NONAME
	_ZN14CEikTimeEditor10ConstructLERK5TTimeS2_S2_m @ 59 NONAME
	_ZN14CEikTimeEditor16SetUninitialisedEi @ 60 NONAME
	_ZN14CEikTimeEditor17CEikMfne_ReservedEv @ 61 NONAME
	_ZN14CEikTimeEditor18ExtensionInterfaceE4TUid @ 62 NONAME
	_ZN14CEikTimeEditor19HandlePointerEventLERK13TPointerEvent @ 63 NONAME
	_ZN14CEikTimeEditor20PrepareForFocusLossLEv @ 64 NONAME
	_ZN14CEikTimeEditor20SetMinimumAndMaximumERK5TTimeS2_ @ 65 NONAME
	_ZN14CEikTimeEditor22ConstructFromResourceLER15TResourceReader @ 66 NONAME
	_ZN14CEikTimeEditor7SetTimeERK5TTime @ 67 NONAME
	_ZN14CEikTimeEditorC1Ev @ 68 NONAME
	_ZN14CEikTimeEditorC2Ev @ 69 NONAME
	_ZN14CEikTimeEditorD0Ev @ 70 NONAME
	_ZN14CEikTimeEditorD1Ev @ 71 NONAME
	_ZN14CEikTimeEditorD2Ev @ 72 NONAME
	_ZN15CEikRangeEditor10ConstructLEiiRK9SEikRangeP7HBufC16 @ 73 NONAME
	_ZN15CEikRangeEditor17CEikMfne_ReservedEv @ 74 NONAME
	_ZN15CEikRangeEditor18ExtensionInterfaceE4TUid @ 75 NONAME
	_ZN15CEikRangeEditor19HandlePointerEventLERK13TPointerEvent @ 76 NONAME
	_ZN15CEikRangeEditor20SetMinimumAndMaximumEii @ 77 NONAME
	_ZN15CEikRangeEditor22ConstructFromResourceLER15TResourceReader @ 78 NONAME
	_ZN15CEikRangeEditor8SetRangeERK9SEikRange @ 79 NONAME
	_ZN15CEikRangeEditorC1Ev @ 80 NONAME
	_ZN15CEikRangeEditorC2Ev @ 81 NONAME
	_ZN16CAknNumericEdwin10Reserved_3Ev @ 82 NONAME
	_ZN16CAknNumericEdwin18ExtensionInterfaceE4TUid @ 83 NONAME
	_ZN16CAknNumericEdwin19HandlePointerEventLERK13TPointerEvent @ 84 NONAME
	_ZN16CAknNumericEdwinD0Ev @ 85 NONAME
	_ZN16CAknNumericEdwinD1Ev @ 86 NONAME
	_ZN16CAknNumericEdwinD2Ev @ 87 NONAME
	_ZN16CEikNumberEditor10ConstructLEiii @ 88 NONAME
	_ZN16CEikNumberEditor17CEikMfne_ReservedEv @ 89 NONAME
	_ZN16CEikNumberEditor18ExtensionInterfaceE4TUid @ 90 NONAME
	_ZN16CEikNumberEditor19HandlePointerEventLERK13TPointerEvent @ 91 NONAME
	_ZN16CEikNumberEditor20SetMinimumAndMaximumEii @ 92 NONAME
	_ZN16CEikNumberEditor22ConstructFromResourceLER15TResourceReader @ 93 NONAME
	_ZN16CEikNumberEditor9SetNumberEi @ 94 NONAME
	_ZN16CEikNumberEditorC1Ev @ 95 NONAME
	_ZN16CEikNumberEditorC2Ev @ 96 NONAME
	_ZN16CEikProgressInfo10ConstructLEv @ 97 NONAME
	_ZN16CEikProgressInfo10Reserved_2Ev @ 98 NONAME
	_ZN16CEikProgressInfo10SetAndDrawEi @ 99 NONAME
	_ZN16CEikProgressInfo11MinimumSizeEv @ 100 NONAME
	_ZN16CEikProgressInfo11SizeChangedEv @ 101 NONAME
	_ZN16CEikProgressInfo13SetFinalValueEi @ 102 NONAME
	_ZN16CEikProgressInfo16IncrementAndDrawEi @ 103 NONAME
	_ZN16CEikProgressInfo18ExtensionInterfaceE4TUid @ 104 NONAME
	_ZN16CEikProgressInfo19HandlePointerEventLERK13TPointerEvent @ 105 NONAME
	_ZN16CEikProgressInfo20HandleResourceChangeEi @ 106 NONAME
	_ZN16CEikProgressInfo22ConstructFromResourceLER15TResourceReader @ 107 NONAME
	_ZN16CEikProgressInfo9ActivateLEv @ 108 NONAME
	_ZN16CEikProgressInfo9SetBorderERK10TGulBorder @ 109 NONAME
	_ZN16CEikProgressInfo9SetLayoutERKNS_7SLayoutE @ 110 NONAME
	_ZN16CEikProgressInfoC1ERKNS_5SInfoE @ 111 NONAME
	_ZN16CEikProgressInfoC1Ev @ 112 NONAME
	_ZN16CEikProgressInfoC2ERKNS_5SInfoE @ 113 NONAME
	_ZN16CEikProgressInfoC2Ev @ 114 NONAME
	_ZN16CEikProgressInfoD0Ev @ 115 NONAME
	_ZN16CEikProgressInfoD1Ev @ 116 NONAME
	_ZN16CEikProgressInfoD2Ev @ 117 NONAME
	_ZN16CEikSecretEditor10AknSetFontERK5CFont @ 118 NONAME
	_ZN16CEikSecretEditor10Extension1ERi @ 119 NONAME
	_ZN16CEikSecretEditor10Reserved_1Ev @ 120 NONAME
	_ZN16CEikSecretEditor10Reserved_2Ev @ 121 NONAME
	_ZN16CEikSecretEditor11MinimumSizeEv @ 122 NONAME
	_ZN16CEikSecretEditor11SizeChangedEv @ 123 NONAME
	_ZN16CEikSecretEditor12SetMaxLengthEi @ 124 NONAME
	_ZN16CEikSecretEditor14OfferKeyEventLERK9TKeyEvent10TEventCode @ 125 NONAME
	_ZN16CEikSecretEditor15AknSetAlignmentERKN16CGraphicsContext10TTextAlignE @ 126 NONAME
	_ZN16CEikSecretEditor15CreateFepStateLEv @ 127 NONAME
	_ZN16CEikSecretEditor16AppendCharacterLEi @ 128 NONAME
	_ZN16CEikSecretEditor16RevealSecretTextEi @ 129 NONAME
	_ZN16CEikSecretEditor17InitializeDisplayEi @ 130 NONAME
	_ZN16CEikSecretEditor18ExtensionInterfaceE4TUid @ 131 NONAME
	_ZN16CEikSecretEditor19CancelFepInlineEditEv @ 132 NONAME
	_ZN16CEikSecretEditor19HandlePointerEventLERK13TPointerEvent @ 133 NONAME
	_ZN16CEikSecretEditor19SetDefaultInputModeEi @ 134 NONAME
	_ZN16CEikSecretEditor19StartFepInlineEditLERK7TDesC16iiPK15MFormCustomDrawR29MFepInlineTextFormatRetrieverR39MFepPointerEventHandlerDuringInlineEdit @ 135 NONAME
	_ZN16CEikSecretEditor20HandleResourceChangeEi @ 136 NONAME
	_ZN16CEikSecretEditor20UpdateFepInlineTextLERK7TDesC16i @ 137 NONAME
	_ZN16CEikSecretEditor22ConstructFromResourceLER15TResourceReader @ 138 NONAME
	_ZN16CEikSecretEditor22DoCommitFepInlineEditLEv @ 139 NONAME
	_ZN16CEikSecretEditor25SetCursorSelectionForFepLERK16TCursorSelection @ 140 NONAME
	_ZN16CEikSecretEditor29SetStateTransferingOwnershipLEPN33MCoeFepAwareTextEditor_Extension16CStateE4TUid @ 141 NONAME
	_ZN16CEikSecretEditor32SetSkinBackgroundControlContextLEP19MAknsControlContext @ 142 NONAME
	_ZN16CEikSecretEditor33MCoeFepAwareTextEditor_Reserved_2Ev @ 143 NONAME
	_ZN16CEikSecretEditor33SetInlineEditingCursorVisibilityLEi @ 144 NONAME
	_ZN16CEikSecretEditor44MCoeFepAwareTextEditor_Extension1_Reserved_2Ev @ 145 NONAME
	_ZN16CEikSecretEditor44MCoeFepAwareTextEditor_Extension1_Reserved_3Ev @ 146 NONAME
	_ZN16CEikSecretEditor44MCoeFepAwareTextEditor_Extension1_Reserved_4Ev @ 147 NONAME
	_ZN16CEikSecretEditor5ResetEv @ 148 NONAME
	_ZN16CEikSecretEditor5StateE4TUid @ 149 NONAME
	_ZN16CEikSecretEditor6UpdateEv @ 150 NONAME
	_ZN16CEikSecretEditor7SetTextERK7TDesC16 @ 151 NONAME
	_ZN16CEikSecretEditorC1Ev @ 152 NONAME
	_ZN16CEikSecretEditorC2Ev @ 153 NONAME
	_ZN16CEikSecretEditorD0Ev @ 154 NONAME
	_ZN16CEikSecretEditorD1Ev @ 155 NONAME
	_ZN16CEikSecretEditorD2Ev @ 156 NONAME
	_ZN17CAknIpFieldEditor10SetAddressERK9TInetAddr @ 157 NONAME
	_ZN17CAknIpFieldEditor13ReadIPAddressER15TResourceReader @ 158 NONAME
	_ZN17CAknIpFieldEditor14OfferKeyEventLERK9TKeyEvent10TEventCode @ 159 NONAME
	_ZN17CAknIpFieldEditor17CEikMfne_ReservedEv @ 160 NONAME
	_ZN17CAknIpFieldEditor18ExtensionInterfaceE4TUid @ 161 NONAME
	_ZN17CAknIpFieldEditor19HandlePointerEventLERK13TPointerEvent @ 162 NONAME
	_ZN17CAknIpFieldEditor20SetMinimumAndMaximumERK9TInetAddrS2_ @ 163 NONAME
	_ZN17CAknIpFieldEditor22ConstructFromResourceLER15TResourceReader @ 164 NONAME
	_ZN17CAknIpFieldEditor4NewLER9TInetAddrS1_S1_ @ 165 NONAME
	_ZN17CAknIpFieldEditor4NewLEv @ 166 NONAME
	_ZN17CAknIpFieldEditorC1Ev @ 167 NONAME
	_ZN17CAknIpFieldEditorC2Ev @ 168 NONAME
	_ZN17CEikColumnListBox10ConstructLEPK11CCoeControli @ 169 NONAME
	_ZN17CEikColumnListBox12CreateModelLEv @ 170 NONAME
	_ZN17CEikColumnListBox12FocusChangedE8TDrawNow @ 171 NONAME
	_ZN17CEikColumnListBox15MopSupplyObjectE8TTypeUid @ 172 NONAME
	_ZN17CEikColumnListBox17CreateItemDrawerLEv @ 173 NONAME
	_ZN17CEikColumnListBox18ExtensionInterfaceE4TUid @ 174 NONAME
	_ZN17CEikColumnListBox19HandlePointerEventLERK13TPointerEvent @ 175 NONAME
	_ZN17CEikColumnListBox20CEikListBox_ReservedEv @ 176 NONAME
	_ZN17CEikColumnListBox20HandleResourceChangeEi @ 177 NONAME
	_ZN17CEikColumnListBox22ConstructFromResourceLER15TResourceReader @ 178 NONAME
	_ZN17CEikColumnListBox22EnableExtendedDrawingLEv @ 179 NONAME
	_ZN17CEikColumnListBox22MakeViewClassInstanceLEv @ 180 NONAME
	_ZN17CEikColumnListBox9EditItemLEii @ 181 NONAME
	_ZN17CEikColumnListBoxC1Ev @ 182 NONAME
	_ZN17CEikColumnListBoxC2Ev @ 183 NONAME
	_ZN17CEikMfneSeparator4NewLEP7HBufC16 @ 184 NONAME
	_ZN17CEikMfneSeparator4NewLER15TResourceReader @ 185 NONAME
	_ZN17CEikMfneSeparator7SetTextEP7HBufC16 @ 186 NONAME
	_ZN17CEikMfneSeparatorD0Ev @ 187 NONAME
	_ZN17CEikMfneSeparatorD1Ev @ 188 NONAME
	_ZN17CEikMfneSeparatorD2Ev @ 189 NONAME
	_ZN18CColumnListBoxData10SetControlEP11CCoeControl @ 190 NONAME
	_ZN18CColumnListBoxData11ConstructLDEv @ 191 NONAME
	_ZN18CColumnListBoxData12SetIconArrayEP9CArrayPtrI8CGulIconE @ 192 NONAME
	_ZN18CColumnListBoxData12SetSkinStyleEPK11TAknsItemIDRK5TRect @ 193 NONAME
	_ZN18CColumnListBoxData14EnableMarqueeLEi @ 194 NONAME
	_ZN18CColumnListBoxData14MakeColumnRectEiR5TRect @ 195 NONAME
	_ZN18CColumnListBoxData14SetColumnFontLEiPK5CFont @ 196 NONAME
	_ZN18CColumnListBoxData15SetItemCellSizeERK5TSize @ 197 NONAME
	_ZN18CColumnListBoxData15SetSkinEnabledLEi @ 198 NONAME
	_ZN18CColumnListBoxData16SetMarqueeParamsEiii @ 199 NONAME
	_ZN18CColumnListBoxData16SetMarqueeParamsEiiii @ 200 NONAME
	_ZN18CColumnListBoxData16SetNumberColumnLEii @ 201 NONAME
	_ZN18CColumnListBoxData17SetColumnMarginsLEi8TMargins @ 202 NONAME
	_ZN18CColumnListBoxData18SetGraphicsColumnLEii @ 203 NONAME
	_ZN18CColumnListBoxData18SetOptionalColumnLEii @ 204 NONAME
	_ZN18CColumnListBoxData18SetSubCellIconSizeEi5TSize @ 205 NONAME
	_ZN18CColumnListBoxData19SetColumnAlignmentLEiN16CGraphicsContext10TTextAlignE @ 206 NONAME
	_ZN18CColumnListBoxData19SetListEndSkinStyleEPK11TAknsItemIDRK5TRect @ 207 NONAME
	_ZN18CColumnListBoxData20SetColumnFontForRowLEiiPK5CFont @ 208 NONAME
	_ZN18CColumnListBoxData20SetColumnWidthPixelLEii @ 209 NONAME
	_ZN18CColumnListBoxData21SetColumnBaselinePosLEii @ 210 NONAME
	_ZN18CColumnListBoxData21SetColumnTextClipGapLEii @ 211 NONAME
	_ZN18CColumnListBoxData21SetSkinHighlightFrameEPK11TAknsItemIDS2_ @ 212 NONAME
	_ZN18CColumnListBoxData23SetColumnHorizontalGapLEii @ 213 NONAME
	_ZN18CColumnListBoxData24SetColumnSeparatorStyleLEiN16CGraphicsContext9TPenStyleE @ 214 NONAME
	_ZN18CColumnListBoxData24SetSeparatorLinePositionE25TAknSeparatorLinePosition @ 215 NONAME
	_ZN18CColumnListBoxData4NewLEv @ 216 NONAME
	_ZN18CColumnListBoxData7TColorsC1Ev @ 217 NONAME
	_ZN18CColumnListBoxData7TColorsC2Ev @ 218 NONAME
	_ZN18CColumnListBoxDataC1Ev @ 219 NONAME
	_ZN18CColumnListBoxDataC2Ev @ 220 NONAME
	_ZN18CColumnListBoxDataD0Ev @ 221 NONAME
	_ZN18CColumnListBoxDataD1Ev @ 222 NONAME
	_ZN18CColumnListBoxDataD2Ev @ 223 NONAME
	_ZN18CColumnListBoxView10Reserved_1Ev @ 224 NONAME
	_ZN18CColumnListBoxView19CalcBottomItemIndexEv @ 225 NONAME
	_ZN18CEikDurationEditor10ConstructLERK20TTimeIntervalSecondsS2_S2_m @ 226 NONAME
	_ZN18CEikDurationEditor11SetDurationERK20TTimeIntervalSeconds @ 227 NONAME
	_ZN18CEikDurationEditor17CEikMfne_ReservedEv @ 228 NONAME
	_ZN18CEikDurationEditor18ExtensionInterfaceE4TUid @ 229 NONAME
	_ZN18CEikDurationEditor19HandlePointerEventLERK13TPointerEvent @ 230 NONAME
	_ZN18CEikDurationEditor20PrepareForFocusLossLEv @ 231 NONAME
	_ZN18CEikDurationEditor20SetMinimumAndMaximumERK20TTimeIntervalSecondsS2_ @ 232 NONAME
	_ZN18CEikDurationEditor22ConstructFromResourceLER15TResourceReader @ 233 NONAME
	_ZN18CEikDurationEditorC1Ev @ 234 NONAME
	_ZN18CEikDurationEditorC2Ev @ 235 NONAME
	_ZN18CEikDurationEditorD0Ev @ 236 NONAME
	_ZN18CEikDurationEditorD1Ev @ 237 NONAME
	_ZN18CEikDurationEditorD2Ev @ 238 NONAME
	_ZN18CEikRichTextEditor10ConstructLEPK11CCoeControliiiii @ 239 NONAME
	_ZN18CEikRichTextEditor10NotifyExitEN23MApaEmbeddedDocObserver9TExitModeE @ 240 NONAME
	_ZN18CEikRichTextEditor10Reserved_2Ev @ 241 NONAME
	_ZN18CEikRichTextEditor10Reserved_3Ev @ 242 NONAME
	_ZN18CEikRichTextEditor12EditObserverEii @ 243 NONAME
	_ZN18CEikRichTextEditor13InsertObjectLE4TUidP5CBase @ 244 NONAME
	_ZN18CEikRichTextEditor13InsertObjectLENS_13TObjectFormatE @ 245 NONAME
	_ZN18CEikRichTextEditor13InsertObjectLERK7TDesC164TUidNS_13TObjectFormatE @ 246 NONAME
	_ZN18CEikRichTextEditor13InsertObjectLEv @ 247 NONAME
	_ZN18CEikRichTextEditor13ReEditObjectLEv @ 248 NONAME
	_ZN18CEikRichTextEditor14OfferKeyEventLERK9TKeyEvent10TEventCode @ 249 NONAME
	_ZN18CEikRichTextEditor15CheckForObjectLEv @ 250 NONAME
	_ZN18CEikRichTextEditor15GetEmbeddedAppLERP8CApaDoorRP12CApaDocumenti @ 251 NONAME
	_ZN18CEikRichTextEditor15RefreshParsersLEv @ 252 NONAME
	_ZN18CEikRichTextEditor17HandleTextPastedLEiRi @ 253 NONAME
	_ZN18CEikRichTextEditor17SetParserObserverEP32MEikRichTextEditorParserObserver @ 254 NONAME
	_ZN18CEikRichTextEditor18EditPictureFormatLEv @ 255 NONAME
	_ZN18CEikRichTextEditor18ExtensionInterfaceE4TUid @ 256 NONAME
	_ZN18CEikRichTextEditor18UpdatePictureSizeLEii @ 257 NONAME
	_ZN18CEikRichTextEditor18UpdatePictureSizeLEv @ 258 NONAME
	_ZN18CEikRichTextEditor19HandlePointerEventLERK13TPointerEvent @ 259 NONAME
	_ZN18CEikRichTextEditor20CopyDocumentContentLER11CGlobalTextS1_ @ 260 NONAME
	_ZN18CEikRichTextEditor20UpdatePictureFormatLEii @ 261 NONAME
	_ZN18CEikRichTextEditor20UpdatePictureFormatLEv @ 262 NONAME
	_ZN18CEikRichTextEditor21PictureFormatChangedLEv @ 263 NONAME
	_ZN18CEikRichTextEditor22ConstructFromResourceLER15TResourceReader @ 264 NONAME
	_ZN18CEikRichTextEditor22SetPhoneNumberGroupingEi @ 265 NONAME
	_ZN18CEikRichTextEditor24SetDefaultIconicDoorSizeERK5TSize @ 266 NONAME
	_ZN18CEikRichTextEditor9ActivateLEv @ 267 NONAME
	_ZN18CEikRichTextEditorC1ERK10TGulBorder @ 268 NONAME
	_ZN18CEikRichTextEditorC1Ev @ 269 NONAME
	_ZN18CEikRichTextEditorC2ERK10TGulBorder @ 270 NONAME
	_ZN18CEikRichTextEditorC2Ev @ 271 NONAME
	_ZN18CEikRichTextEditorD0Ev @ 272 NONAME
	_ZN18CEikRichTextEditorD1Ev @ 273 NONAME
	_ZN18CEikRichTextEditorD2Ev @ 274 NONAME
	_ZN20CEikFixedPointEditor10ConstructLEii @ 275 NONAME
	_ZN20CEikFixedPointEditor10Reserved_3Ev @ 276 NONAME
	_ZN20CEikFixedPointEditor14OfferKeyEventLERK9TKeyEvent10TEventCode @ 277 NONAME
	_ZN20CEikFixedPointEditor16SetDecimalPlacesEi @ 278 NONAME
	_ZN20CEikFixedPointEditor17GetValueAsIntegerERi @ 279 NONAME
	_ZN20CEikFixedPointEditor18ExtensionInterfaceE4TUid @ 280 NONAME
	_ZN20CEikFixedPointEditor19HandlePointerEventLERK13TPointerEvent @ 281 NONAME
	_ZN20CEikFixedPointEditor20HandleResourceChangeEi @ 282 NONAME
	_ZN20CEikFixedPointEditor20PrepareForFocusLossLEv @ 283 NONAME
	_ZN20CEikFixedPointEditor22ConstructFromResourceLER15TResourceReader @ 284 NONAME
	_ZN20CEikFixedPointEditor9SetMinMaxEii @ 285 NONAME
	_ZN20CEikFixedPointEditor9SetValueLEPKi @ 286 NONAME
	_ZN20CEikFixedPointEditorC1Ev @ 287 NONAME
	_ZN20CEikFixedPointEditorC2Ev @ 288 NONAME
	_ZN20CEikGlobalTextEditor10ConstructLEPK11CCoeControliiiii @ 289 NONAME
	_ZN20CEikGlobalTextEditor10Reserved_2Ev @ 290 NONAME
	_ZN20CEikGlobalTextEditor10Reserved_3Ev @ 291 NONAME
	_ZN20CEikGlobalTextEditor14BaseConstructLEv @ 292 NONAME
	_ZN20CEikGlobalTextEditor14OfferKeyEventLERK9TKeyEvent10TEventCode @ 293 NONAME
	_ZN20CEikGlobalTextEditor14RunFindDialogLEv @ 294 NONAME
	_ZN20CEikGlobalTextEditor14RunFontDialogLEiP15CGraphicsDevicei @ 295 NONAME
	_ZN20CEikGlobalTextEditor14RunTabsDialogLEi @ 296 NONAME
	_ZN20CEikGlobalTextEditor14SetButtonGroupEP11CCoeControl @ 297 NONAME
	_ZN20CEikGlobalTextEditor15RunParaDialogsLEi @ 298 NONAME
	_ZN20CEikGlobalTextEditor16ApplyCharFormatLER11TCharFormatR15TCharFormatMask @ 299 NONAME
	_ZN20CEikGlobalTextEditor16ApplyParaFormatLEP11CParaFormatR15TParaFormatMask @ 300 NONAME
	_ZN20CEikGlobalTextEditor17RunIndentsDialogLEi @ 301 NONAME
	_ZN20CEikGlobalTextEditor17RunReplaceDialogLEv @ 302 NONAME
	_ZN20CEikGlobalTextEditor17SetGraphicsDeviceEP15CGraphicsDevice @ 303 NONAME
	_ZN20CEikGlobalTextEditor17UpdateButtonGroupEv @ 304 NONAME
	_ZN20CEikGlobalTextEditor18ExtensionInterfaceE4TUid @ 305 NONAME
	_ZN20CEikGlobalTextEditor18RunPaginateDialogLEP11CPrintSetupP9CArrayFixIiE @ 306 NONAME
	_ZN20CEikGlobalTextEditor19HandlePointerEventLERK13TPointerEvent @ 307 NONAME
	_ZN20CEikGlobalTextEditor19RunFindAgainDialogLEv @ 308 NONAME
	_ZN20CEikGlobalTextEditor20SetLineCursorBitmapLEP10CFbsBitmap @ 309 NONAME
	_ZN20CEikGlobalTextEditor22ConstructFromResourceLER15TResourceReader @ 310 NONAME
	_ZN20CEikGlobalTextEditor25BoldItalicUnderlineEventLEi @ 311 NONAME
	_ZN20CEikGlobalTextEditor7DoFindLEv @ 312 NONAME
	_ZN20CEikGlobalTextEditor9ActivateLEv @ 313 NONAME
	_ZN20CEikGlobalTextEditor9InitFindLERP15SEdwinFindModelRP12CDesC16ArrayS5_ @ 314 NONAME
	_ZN20CEikGlobalTextEditorC1ERK10TGulBorder @ 315 NONAME
	_ZN20CEikGlobalTextEditorC1Ev @ 316 NONAME
	_ZN20CEikGlobalTextEditorC2ERK10TGulBorder @ 317 NONAME
	_ZN20CEikGlobalTextEditorC2Ev @ 318 NONAME
	_ZN20CEikGlobalTextEditorD0Ev @ 319 NONAME
	_ZN20CEikGlobalTextEditorD1Ev @ 320 NONAME
	_ZN20CEikGlobalTextEditorD2Ev @ 321 NONAME
	_ZN20CEikTimeOffsetEditor10ConstructLERK20TTimeIntervalSecondsS2_S2_m @ 322 NONAME
	_ZN20CEikTimeOffsetEditor13SetTimeOffsetERK20TTimeIntervalSeconds @ 323 NONAME
	_ZN20CEikTimeOffsetEditor17CEikMfne_ReservedEv @ 324 NONAME
	_ZN20CEikTimeOffsetEditor18ExtensionInterfaceE4TUid @ 325 NONAME
	_ZN20CEikTimeOffsetEditor19HandlePointerEventLERK13TPointerEvent @ 326 NONAME
	_ZN20CEikTimeOffsetEditor20PrepareForFocusLossLEv @ 327 NONAME
	_ZN20CEikTimeOffsetEditor20SetMinimumAndMaximumERK20TTimeIntervalSecondsS2_ @ 328 NONAME
	_ZN20CEikTimeOffsetEditor22ConstructFromResourceLER15TResourceReader @ 329 NONAME
	_ZN20CEikTimeOffsetEditorC1Ev @ 330 NONAME
	_ZN20CEikTimeOffsetEditorC2Ev @ 331 NONAME
	_ZN20CEikTimeOffsetEditorD0Ev @ 332 NONAME
	_ZN20CEikTimeOffsetEditorD1Ev @ 333 NONAME
	_ZN20CEikTimeOffsetEditorD2Ev @ 334 NONAME
	_ZN21CEikTimeAndDateEditor10ConstructLERK5TTimeS2_S2_mP7HBufC16 @ 335 NONAME
	_ZN21CEikTimeAndDateEditor14OfferKeyEventLERK9TKeyEvent10TEventCode @ 336 NONAME
	_ZN21CEikTimeAndDateEditor14SetTimeAndDateERK5TTime @ 337 NONAME
	_ZN21CEikTimeAndDateEditor16SetUninitialisedEi @ 338 NONAME
	_ZN21CEikTimeAndDateEditor17CEikMfne_ReservedEv @ 339 NONAME
	_ZN21CEikTimeAndDateEditor18ExtensionInterfaceE4TUid @ 340 NONAME
	_ZN21CEikTimeAndDateEditor19HandlePointerEventLERK13TPointerEvent @ 341 NONAME
	_ZN21CEikTimeAndDateEditor20PrepareForFocusLossLEv @ 342 NONAME
	_ZN21CEikTimeAndDateEditor20SetMinimumAndMaximumERK5TTimeS2_ @ 343 NONAME
	_ZN21CEikTimeAndDateEditor22ConstructFromResourceLER15TResourceReader @ 344 NONAME
	_ZN21CEikTimeAndDateEditorC1Ev @ 345 NONAME
	_ZN21CEikTimeAndDateEditorC2Ev @ 346 NONAME
	_ZN21CEikTimeAndDateEditorD0Ev @ 347 NONAME
	_ZN21CEikTimeAndDateEditorD1Ev @ 348 NONAME
	_ZN21CEikTimeAndDateEditorD2Ev @ 349 NONAME
	_ZN23CEikColumnListBoxEditor10ConstructLEi @ 350 NONAME
	_ZN23CEikColumnListBoxEditor12UpdateModelLEv @ 351 NONAME
	_ZN23CEikColumnListBoxEditor18ExtensionInterfaceE4TUid @ 352 NONAME
	_ZN23CEikColumnListBoxEditor19HandlePointerEventLERK13TPointerEvent @ 353 NONAME
	_ZN23CEikColumnListBoxEditor8ItemTextEv @ 354 NONAME
	_ZN23CEikColumnListBoxEditorC1EP13MListBoxModel @ 355 NONAME
	_ZN23CEikColumnListBoxEditorC2EP13MListBoxModel @ 356 NONAME
	_ZN23CEikColumnListBoxEditorD0Ev @ 357 NONAME
	_ZN23CEikColumnListBoxEditorD1Ev @ 358 NONAME
	_ZN23CEikColumnListBoxEditorD2Ev @ 359 NONAME
	_ZN23CEikFloatingPointEditor10ConstructLERKdS1_i @ 360 NONAME
	_ZN23CEikFloatingPointEditor10Reserved_3Ev @ 361 NONAME
	_ZN23CEikFloatingPointEditor14GetValueAsRealERd @ 362 NONAME
	_ZN23CEikFloatingPointEditor14OfferKeyEventLERK9TKeyEvent10TEventCode @ 363 NONAME
	_ZN23CEikFloatingPointEditor18ExtensionInterfaceE4TUid @ 364 NONAME
	_ZN23CEikFloatingPointEditor19HandlePointerEventLERK13TPointerEvent @ 365 NONAME
	_ZN23CEikFloatingPointEditor20HandleResourceChangeEi @ 366 NONAME
	_ZN23CEikFloatingPointEditor20PrepareForFocusLossLEv @ 367 NONAME
	_ZN23CEikFloatingPointEditor22ConstructFromResourceLER15TResourceReader @ 368 NONAME
	_ZN23CEikFloatingPointEditor9SetMinMaxEdd @ 369 NONAME
	_ZN23CEikFloatingPointEditor9SetValueLEPKd @ 370 NONAME
	_ZN23CEikFloatingPointEditorC1Ev @ 371 NONAME
	_ZN23CEikFloatingPointEditorC2Ev @ 372 NONAME
	_ZN24CColumnListBoxItemDrawer10Reserved_1Ev @ 373 NONAME
	_ZN24CColumnListBoxItemDrawer14SetPropertiesLEi19TListItemProperties @ 374 NONAME
	_ZN24CColumnListBoxItemDrawer15SetItemCellSizeERK5TSize @ 375 NONAME
	_ZN24CColumnListBoxItemDrawer19ClearAllPropertiesLEv @ 376 NONAME
	_ZN24CColumnListBoxItemDrawer33CColumnListBoxItemDrawer_ReservedEv @ 377 NONAME
	_ZN24CColumnListBoxItemDrawerC1EP17MTextListBoxModelPK5CFontP18CColumnListBoxData @ 378 NONAME
	_ZN24CColumnListBoxItemDrawerC2EP17MTextListBoxModelPK5CFontP18CColumnListBoxData @ 379 NONAME
	_ZN24CColumnListBoxItemDrawerD0Ev @ 380 NONAME
	_ZN24CColumnListBoxItemDrawerD1Ev @ 381 NONAME
	_ZN24CColumnListBoxItemDrawerD2Ev @ 382 NONAME
	_ZN8CEikMfne10Reserved_2Ev @ 383 NONAME
	_ZN8CEikMfne11MinimumSizeEv @ 384 NONAME
	_ZN8CEikMfne12FocusChangedE8TDrawNow @ 385 NONAME
	_ZN8CEikMfne12ReadDurationER15TResourceReader @ 386 NONAME
	_ZN8CEikMfne14OfferKeyEventLERK9TKeyEvent10TEventCode @ 387 NONAME
	_ZN8CEikMfne14ReadTimeOffsetER15TResourceReader @ 388 NONAME
	_ZN8CEikMfne15ReadTimeAndDateER15TResourceReader @ 389 NONAME
	_ZN8CEikMfne16SetMfneAlignmentEi @ 390 NONAME
	_ZN8CEikMfne17CEikMfne_ReservedEv @ 391 NONAME
	_ZN8CEikMfne17CreateFieldArrayLEi @ 392 NONAME
	_ZN8CEikMfne17HandleInteractionEiiiN13CEikMfneField14THighlightTypeERiS2_ @ 393 NONAME
	_ZN8CEikMfne18ExtensionInterfaceE4TUid @ 394 NONAME
	_ZN8CEikMfne18HandleMfneCommandLEi @ 395 NONAME
	_ZN8CEikMfne19HandlePointerEventLERK13TPointerEvent @ 396 NONAME
	_ZN8CEikMfne20HandleResourceChangeEi @ 397 NONAME
	_ZN8CEikMfne20PrepareForFocusLossLEv @ 398 NONAME
	_ZN8CEikMfne23CreatePopoutIfRequiredLEv @ 399 NONAME
	_ZN8CEikMfne24SetUpAndDownKeysConsumedEi @ 400 NONAME
	_ZN8CEikMfne29FieldIsAboutToBeDeHighlightedEP13CEikMfneFieldRi @ 401 NONAME
	_ZN8CEikMfne32SetSkinBackgroundControlContextLEP19MAknsControlContext @ 402 NONAME
	_ZN8CEikMfne7ConvertERK20TTimeIntervalSeconds @ 403 NONAME
	_ZN8CEikMfne7ConvertERK5TTime @ 404 NONAME
	_ZN8CEikMfne7SetFontEPK5CFont @ 405 NONAME
	_ZN8CEikMfne8AddFieldEP13CEikMfneField @ 406 NONAME
	_ZN8CEikMfne8MfneSizeEi @ 407 NONAME
	_ZN8CEikMfne8ReadDateER15TResourceReader @ 408 NONAME
	_ZN8CEikMfne8ReadTimeER15TResourceReader @ 409 NONAME
	_ZN8CEikMfneC1Ev @ 410 NONAME
	_ZN8CEikMfneC2Ev @ 411 NONAME
	_ZN8CEikMfneD0Ev @ 412 NONAME
	_ZN8CEikMfneD1Ev @ 413 NONAME
	_ZN8CEikMfneD2Ev @ 414 NONAME
	_ZNK13CEikMfneField10IsEditableEv @ 415 NONAME
	_ZNK13CEikMfneField13HighlightTypeEv @ 416 NONAME
	_ZNK13CEikMfneField7IsValidEv @ 417 NONAME
	_ZNK14CEikDateEditor15IsUninitialisedEv @ 418 NONAME
	_ZNK14CEikDateEditor20GetMinimumAndMaximumER5TTimeS1_ @ 419 NONAME
	_ZNK14CEikDateEditor4DateEv @ 420 NONAME
	_ZNK14CEikMfneNumber15IsUninitialisedEv @ 421 NONAME
	_ZNK14CEikMfneNumber20GetMinimumAndMaximumERiS0_ @ 422 NONAME
	_ZNK14CEikMfneNumber5ValueEv @ 423 NONAME
	_ZNK14CEikMfneNumber7IsValidEv @ 424 NONAME
	_ZNK14CEikMfneSymbol15IsUninitialisedEv @ 425 NONAME
	_ZNK14CEikMfneSymbol23IdOfCurrentSymbolicItemEv @ 426 NONAME
	_ZNK14CEikTimeEditor15IsUninitialisedEv @ 427 NONAME
	_ZNK14CEikTimeEditor20GetMinimumAndMaximumER5TTimeS1_ @ 428 NONAME
	_ZNK14CEikTimeEditor4TimeEv @ 429 NONAME
	_ZNK15CEikRangeEditor20GetMinimumAndMaximumERiS0_ @ 430 NONAME
	_ZNK15CEikRangeEditor5RangeEv @ 431 NONAME
	_ZNK16CAknNumericEdwin11MapKeyEventER9TKeyEventR10TEventCode10TDigitType @ 432 NONAME
	_ZNK16CEikNumberEditor20GetMinimumAndMaximumERiS0_ @ 433 NONAME
	_ZNK16CEikNumberEditor6NumberEv @ 434 NONAME
	_ZNK16CEikProgressInfo12EvaluateTextER6TDes16 @ 435 NONAME
	_ZNK16CEikProgressInfo16GetColorUseListLER9CArrayFixI12TCoeColorUseE @ 436 NONAME
	_ZNK16CEikProgressInfo19WriteInternalStateLER12RWriteStream @ 437 NONAME
	_ZNK16CEikProgressInfo4DrawERK5TRect @ 438 NONAME
	_ZNK16CEikSecretEditor15GetFormatForFepER11TCharFormati @ 439 NONAME
	_ZNK16CEikSecretEditor16GetColorUseListLER9CArrayFixI12TCoeColorUseE @ 440 NONAME
	_ZNK16CEikSecretEditor17InputCapabilitiesEv @ 441 NONAME
	_ZNK16CEikSecretEditor20DocumentLengthForFepEv @ 442 NONAME
	_ZNK16CEikSecretEditor22GetEditorContentForFepER6TDes16ii @ 443 NONAME
	_ZNK16CEikSecretEditor24GetCursorSelectionForFepER16TCursorSelection @ 444 NONAME
	_ZNK16CEikSecretEditor27DocumentMaximumLengthForFepEv @ 445 NONAME
	_ZNK16CEikSecretEditor27GetScreenCoordinatesForFepLER6TPointRiS2_i @ 446 NONAME
	_ZNK16CEikSecretEditor4DrawERK5TRect @ 447 NONAME
	_ZNK16CEikSecretEditor6BufferEv @ 448 NONAME
	_ZNK16CEikSecretEditor7GetTextER6TDes16 @ 449 NONAME
	_ZNK16CEikSecretEditor9MaxLengthEv @ 450 NONAME
	_ZNK17CAknIpFieldEditor20GetMinimumAndMaximumER9TInetAddrS1_ @ 451 NONAME
	_ZNK17CAknIpFieldEditor7AddressEv @ 452 NONAME
	_ZNK17CEikColumnListBox10ItemDrawerEv @ 453 NONAME
	_ZNK17CEikColumnListBox16GetColorUseListLER9CArrayFixI12TCoeColorUseE @ 454 NONAME
	_ZNK17CEikColumnListBox5ModelEv @ 455 NONAME
	_ZNK18CColumnListBoxData10ColumnEndXEi @ 456 NONAME
	_ZNK18CColumnListBoxData10ColumnFontEi @ 457 NONAME
	_ZNK18CColumnListBoxData10LastColumnEv @ 458 NONAME
	_ZNK18CColumnListBoxData10LayoutDataEv @ 459 NONAME
	_ZNK18CColumnListBoxData10LayoutInitEv @ 460 NONAME
	_ZNK18CColumnListBoxData11SetColumnXLEii @ 461 NONAME
	_ZNK18CColumnListBoxData13ColumnMarginsEi @ 462 NONAME
	_ZNK18CColumnListBoxData13SetLayoutInitEi @ 463 NONAME
	_ZNK18CColumnListBoxData14ColumnIsNumberEi @ 464 NONAME
	_ZNK18CColumnListBoxData14SetColumnEndXLEii @ 465 NONAME
	_ZNK18CColumnListBoxData15ColumnAlignmentEi @ 466 NONAME
	_ZNK18CColumnListBoxData16ColumnIsGraphicsEi @ 467 NONAME
	_ZNK18CColumnListBoxData16ColumnIsOptionalEi @ 468 NONAME
	_ZNK18CColumnListBoxData16ColumnWidthPixelEi @ 469 NONAME
	_ZNK18CColumnListBoxData16RowAndColumnFontEii @ 470 NONAME
	_ZNK18CColumnListBoxData17ColumnBaselinePosEi @ 471 NONAME
	_ZNK18CColumnListBoxData17ColumnTextClipGapEi @ 472 NONAME
	_ZNK18CColumnListBoxData19ColumnHorizontalGapEi @ 473 NONAME
	_ZNK18CColumnListBoxData20ColumnSeparatorStyleEi @ 474 NONAME
	_ZNK18CColumnListBoxData21SeparatorLinePositionEv @ 475 NONAME
	_ZNK18CColumnListBoxData21SkinBackgroundContextEv @ 476 NONAME
	_ZNK18CColumnListBoxData4DrawERK19TListItemPropertiesR9CWindowGcPK7TDesC16RK5TRectiRKNS_7TColorsE @ 477 NONAME
	_ZNK18CColumnListBoxData4FontERK19TListItemPropertiesi @ 478 NONAME
	_ZNK18CColumnListBoxData7ColumnXEi @ 479 NONAME
	_ZNK18CColumnListBoxData7ControlEv @ 480 NONAME
	_ZNK18CColumnListBoxData8DrawTextER9CWindowGcRK5TRectRK7TDesC16S7_iN16CGraphicsContext10TTextAlignERK5CFontii @ 481 NONAME
	_ZNK18CColumnListBoxData9IconArrayEv @ 482 NONAME
	_ZNK18CColumnListBoxView4DrawEPK5TRect @ 483 NONAME
	_ZNK18CEikDurationEditor20GetMinimumAndMaximumER20TTimeIntervalSecondsS1_ @ 484 NONAME
	_ZNK18CEikDurationEditor8DurationEv @ 485 NONAME
	_ZNK18CEikRichTextEditor11NewPictureLER14TPictureHeaderRK12CStreamStore @ 486 NONAME
	_ZNK18CEikRichTextEditor12StreamStoreLEi @ 487 NONAME
	_ZNK18CEikRichTextEditor15ObjectCursorPosEv @ 488 NONAME
	_ZNK18CEikRichTextEditor19WriteInternalStateLER12RWriteStream @ 489 NONAME
	_ZNK18CEikRichTextEditor21DefaultIconicDoorSizeEv @ 490 NONAME
	_ZNK18CEikRichTextEditor4DrawERK5TRect @ 491 NONAME
	_ZNK18CEikRichTextEditor8RichTextEv @ 492 NONAME
	_ZNK20CEikFixedPointEditor13DecimalPlacesEv @ 493 NONAME
	_ZNK20CEikFixedPointEditor17InputCapabilitiesEv @ 494 NONAME
	_ZNK20CEikFixedPointEditor5ValueEv @ 495 NONAME
	_ZNK20CEikFixedPointEditor9GetMinMaxERiS0_ @ 496 NONAME
	_ZNK20CEikGlobalTextEditor10GlobalTextEv @ 497 NONAME
	_ZNK20CEikGlobalTextEditor15LineCursorWidthEv @ 498 NONAME
	_ZNK20CEikGlobalTextEditor19WriteInternalStateLER12RWriteStream @ 499 NONAME
	_ZNK20CEikTimeOffsetEditor10TimeOffsetEv @ 500 NONAME
	_ZNK20CEikTimeOffsetEditor20GetMinimumAndMaximumER20TTimeIntervalSecondsS1_ @ 501 NONAME
	_ZNK21CEikTimeAndDateEditor11TimeAndDateEv @ 502 NONAME
	_ZNK21CEikTimeAndDateEditor15IsUninitialisedEv @ 503 NONAME
	_ZNK21CEikTimeAndDateEditor20GetMinimumAndMaximumER5TTimeS1_ @ 504 NONAME
	_ZNK23CEikColumnListBoxEditor6ColumnEv @ 505 NONAME
	_ZNK23CEikFloatingPointEditor17InputCapabilitiesEv @ 506 NONAME
	_ZNK23CEikFloatingPointEditor5ValueEv @ 507 NONAME
	_ZNK23CEikFloatingPointEditor9GetMinMaxERdS0_ @ 508 NONAME
	_ZNK24CColumnListBoxItemDrawer10ColumnDataEv @ 509 NONAME
	_ZNK24CColumnListBoxItemDrawer10PropertiesEi @ 510 NONAME
	_ZNK24CColumnListBoxItemDrawer12DrawItemMarkEiiRK6TPoint @ 511 NONAME
	_ZNK24CColumnListBoxItemDrawer12DrawItemTextEiRK5TRectiii @ 512 NONAME
	_ZNK24CColumnListBoxItemDrawer15MinimumCellSizeEv @ 513 NONAME
	_ZNK24CColumnListBoxItemDrawer17ItemWidthInPixelsEi @ 514 NONAME
	_ZNK8CEikMfne13BorderMarginsEv @ 515 NONAME
	_ZNK8CEikMfne16GetColorUseListLER9CArrayFixI12TCoeColorUseE @ 516 NONAME
	_ZNK8CEikMfne17InputCapabilitiesEv @ 517 NONAME
	_ZNK8CEikMfne19WriteInternalStateLER12RWriteStream @ 518 NONAME
	_ZNK8CEikMfne41DrawNowAndLeaveWithTimeDateFormatInfoMsgLEiRK5TTime @ 519 NONAME
	_ZNK8CEikMfne4DrawERK5TRect @ 520 NONAME
	_ZNK8CEikMfne4FontEv @ 521 NONAME
	_ZNK8CEikMfne5FieldEi @ 522 NONAME
	_ZNK8CEikMfne8MfneSizeEv @ 523 NONAME
	_ZTI10CEikSpacer @ 524 NONAME ; #<TI>#
	_ZTI13CEikMfneField @ 525 NONAME ; #<TI>#
	_ZTI14CEikDateEditor @ 526 NONAME ; #<TI>#
	_ZTI14CEikTimeEditor @ 527 NONAME ; #<TI>#
	_ZTI15CEikRangeEditor @ 528 NONAME ; #<TI>#
	_ZTI16CAknNumericEdwin @ 529 NONAME ; #<TI>#
	_ZTI16CEikNumberEditor @ 530 NONAME ; #<TI>#
	_ZTI16CEikProgressInfo @ 531 NONAME ; #<TI>#
	_ZTI16CEikSecretEditor @ 532 NONAME ; #<TI>#
	_ZTI17CAknIpFieldEditor @ 533 NONAME ; #<TI>#
	_ZTI17CEikColumnListBox @ 534 NONAME ; #<TI>#
	_ZTI18CColumnListBoxData @ 535 NONAME ; #<TI>#
	_ZTI18CColumnListBoxView @ 536 NONAME ; #<TI>#
	_ZTI18CEikDurationEditor @ 537 NONAME ; #<TI>#
	_ZTI18CEikRichTextEditor @ 538 NONAME ; #<TI>#
	_ZTI20CEikFixedPointEditor @ 539 NONAME ; #<TI>#
	_ZTI20CEikGlobalTextEditor @ 540 NONAME ; #<TI>#
	_ZTI20CEikTimeOffsetEditor @ 541 NONAME ; #<TI>#
	_ZTI21CEikTimeAndDateEditor @ 542 NONAME ; #<TI>#
	_ZTI23CEikColumnListBoxEditor @ 543 NONAME ; #<TI>#
	_ZTI23CEikFloatingPointEditor @ 544 NONAME ; #<TI>#
	_ZTI24CColumnListBoxItemDrawer @ 545 NONAME ; #<TI>#
	_ZTI25CEikProgressInfoExtension @ 546 NONAME ; #<TI>#
	_ZTI8CEikMfne @ 547 NONAME ; #<TI>#
	_ZTV10CEikSpacer @ 548 NONAME ; #<VT>#
	_ZTV13CEikMfneField @ 549 NONAME ; #<VT>#
	_ZTV14CEikDateEditor @ 550 NONAME ; #<VT>#
	_ZTV14CEikTimeEditor @ 551 NONAME ; #<VT>#
	_ZTV15CEikRangeEditor @ 552 NONAME ; #<VT>#
	_ZTV16CAknNumericEdwin @ 553 NONAME ; #<VT>#
	_ZTV16CEikNumberEditor @ 554 NONAME ; #<VT>#
	_ZTV16CEikProgressInfo @ 555 NONAME ; #<VT>#
	_ZTV16CEikSecretEditor @ 556 NONAME ; #<VT>#
	_ZTV17CAknIpFieldEditor @ 557 NONAME ; #<VT>#
	_ZTV17CEikColumnListBox @ 558 NONAME ; #<VT>#
	_ZTV18CColumnListBoxData @ 559 NONAME ; #<VT>#
	_ZTV18CColumnListBoxView @ 560 NONAME ; #<VT>#
	_ZTV18CEikDurationEditor @ 561 NONAME ; #<VT>#
	_ZTV18CEikRichTextEditor @ 562 NONAME ; #<VT>#
	_ZTV20CEikFixedPointEditor @ 563 NONAME ; #<VT>#
	_ZTV20CEikGlobalTextEditor @ 564 NONAME ; #<VT>#
	_ZTV20CEikTimeOffsetEditor @ 565 NONAME ; #<VT>#
	_ZTV21CEikTimeAndDateEditor @ 566 NONAME ; #<VT>#
	_ZTV23CEikColumnListBoxEditor @ 567 NONAME ; #<VT>#
	_ZTV23CEikFloatingPointEditor @ 568 NONAME ; #<VT>#
	_ZTV24CColumnListBoxItemDrawer @ 569 NONAME ; #<VT>#
	_ZTV25CEikProgressInfoExtension @ 570 NONAME ; #<VT>#
	_ZTV8CEikMfne @ 571 NONAME ; #<VT>#
	_ZThn288_N18CEikRichTextEditor10NotifyExitEN23MApaEmbeddedDocObserver9TExitModeE @ 572 NONAME ; #<thunk>#
	_ZThn296_NK18CEikRichTextEditor12StreamStoreLEi @ 573 NONAME ; #<thunk>#
	_ZThn300_NK18CEikRichTextEditor11NewPictureLER14TPictureHeaderRK12CStreamStore @ 574 NONAME ; #<thunk>#
	_ZThn4_N17CEikColumnListBox15MopSupplyObjectE8TTypeUid @ 575 NONAME ; #<thunk>#
	_ZThn76_N23CEikColumnListBoxEditor12UpdateModelLEv @ 576 NONAME ; #<thunk>#
	_ZThn76_N23CEikColumnListBoxEditor8ItemTextEv @ 577 NONAME ; #<thunk>#
	_ZThn88_N16CEikSecretEditor10Extension1ERi @ 578 NONAME ; #<thunk>#
	_ZThn88_N16CEikSecretEditor19CancelFepInlineEditEv @ 579 NONAME ; #<thunk>#
	_ZThn88_N16CEikSecretEditor19StartFepInlineEditLERK7TDesC16iiPK15MFormCustomDrawR29MFepInlineTextFormatRetrieverR39MFepPointerEventHandlerDuringInlineEdit @ 580 NONAME ; #<thunk>#
	_ZThn88_N16CEikSecretEditor20UpdateFepInlineTextLERK7TDesC16i @ 581 NONAME ; #<thunk>#
	_ZThn88_N16CEikSecretEditor22DoCommitFepInlineEditLEv @ 582 NONAME ; #<thunk>#
	_ZThn88_N16CEikSecretEditor25SetCursorSelectionForFepLERK16TCursorSelection @ 583 NONAME ; #<thunk>#
	_ZThn88_N16CEikSecretEditor33MCoeFepAwareTextEditor_Reserved_2Ev @ 584 NONAME ; #<thunk>#
	_ZThn88_N16CEikSecretEditor33SetInlineEditingCursorVisibilityLEi @ 585 NONAME ; #<thunk>#
	_ZThn88_N8CEikMfne18HandleMfneCommandLEi @ 586 NONAME ; #<thunk>#
	_ZThn88_NK16CEikSecretEditor15GetFormatForFepER11TCharFormati @ 587 NONAME ; #<thunk>#
	_ZThn88_NK16CEikSecretEditor20DocumentLengthForFepEv @ 588 NONAME ; #<thunk>#
	_ZThn88_NK16CEikSecretEditor22GetEditorContentForFepER6TDes16ii @ 589 NONAME ; #<thunk>#
	_ZThn88_NK16CEikSecretEditor24GetCursorSelectionForFepER16TCursorSelection @ 590 NONAME ; #<thunk>#
	_ZThn88_NK16CEikSecretEditor27DocumentMaximumLengthForFepEv @ 591 NONAME ; #<thunk>#
	_ZThn88_NK16CEikSecretEditor27GetScreenCoordinatesForFepLER6TPointRiS2_i @ 592 NONAME ; #<thunk>#
	_ZThn92_N16CEikSecretEditor29SetStateTransferingOwnershipLEPN33MCoeFepAwareTextEditor_Extension16CStateE4TUid @ 593 NONAME ; #<thunk>#
	_ZThn92_N16CEikSecretEditor44MCoeFepAwareTextEditor_Extension1_Reserved_4Ev @ 594 NONAME ; #<thunk>#
	_ZThn92_N16CEikSecretEditor5StateE4TUid @ 595 NONAME ; #<thunk>#
	_ZThn96_N18CEikRichTextEditor12EditObserverEii @ 596 NONAME ; #<thunk>#
	_ZN16CEikSecretEditor17SetSkinTextColorLEii @ 597 NONAME
	_ZN8CEikMfne17SetSkinTextColorLEii @ 598 NONAME
	_ZN18CColumnListBoxData11ConstructLDERK11TAknsItemID @ 599 NONAME
	_ZN18CColumnListBoxData32SetHighlightAnimBackgroundDrawerEP34MColumnListBoxAnimBackgroundDrawer @ 600 NONAME
	_ZNK18CColumnListBoxData13HighlightAnimEv @ 601 NONAME
	_ZNK18CColumnListBoxData24AboutToDrawHighlightAnimEv @ 602 NONAME
	_ZN18CColumnListBoxData19SetColumnUnderlinedE10TBitFlagsTImE @ 603 NONAME
	_ZN17CEikColumnListBox16EnableStretchingEi @ 604 NONAME
	_ZN18CColumnListBoxData19ResetSLSubCellArrayEv @ 605 NONAME
	_ZN18CColumnListBoxData26SetStretchableTextSubCellLEiRK23TAknTextComponentLayoutS2_ @ 606 NONAME
	_ZN18CColumnListBoxData29SetStretchableGraphicSubCellLEiRK25TAknWindowComponentLayoutS2_ @ 607 NONAME
	_ZN18CColumnListBoxData33SetStretchableConditionalSubCellLEiRK23TAknTextComponentLayoutS2_ii @ 608 NONAME
	_ZNK18CColumnListBoxData16HasHighlightAnimEv @ 609 NONAME
	_ZNK18CColumnListBoxData17DrawHighlightAnimER14CBitmapContextRK5TRect @ 610 NONAME
	_ZNK18CColumnListBoxData17StretchingEnabledEv @ 611 NONAME
	_ZN18CAknLocationEditor20DisplayableLocationLERK9TPositionNS_16TLocationContextE @ 612 NONAME
	_ZN18CAknLocationEditor22ConstructFromResourceLER15TResourceReader @ 613 NONAME
	_ZN18CAknLocationEditor3SetERK9TPosition @ 614 NONAME
	_ZN18CAknLocationEditor4NewLER9TPositionNS_16TLocationContextE @ 615 NONAME
	_ZN18CAknLocationEditorC1Ev @ 616 NONAME
	_ZN18CAknLocationEditorC2Ev @ 617 NONAME
	_ZN18CAknLocationEditorD0Ev @ 618 NONAME
	_ZN18CAknLocationEditorD1Ev @ 619 NONAME
	_ZN18CAknLocationEditorD2Ev @ 620 NONAME
	_ZNK18CAknLocationEditor3GetER9TPosition @ 621 NONAME
	_ZTI18CAknLocationEditor @ 622 NONAME ; #<TI>#
	_ZTV18CAknLocationEditor @ 623 NONAME ; #<VT>#
	_ZN18CColumnListBoxData15SetTextSubCellLEiRK18TAknTextLineLayout @ 624 NONAME
	_ZN18CColumnListBoxData18SetGraphicSubCellLEiRK20TAknWindowLineLayout @ 625 NONAME
	_ZN18CColumnListBoxData22SetConditionalSubCellLEiRK18TAknTextLineLayouti @ 626 NONAME
	_ZN18CColumnListBoxData22SubCellsMightIntersectEi @ 627 NONAME
	_ZN18CAknLocationEditor20PrepareForFocusLossLEv @ 628 NONAME
	_ZN8CEikMfne28SetSuppressBackgroundDrawingEi @ 629 NONAME
	_ZN29CAknExtendedInputCapabilities15SetCapabilitiesEj @ 630 NONAME
	_ZN29CAknExtendedInputCapabilities4NewLEv @ 631 NONAME
	_ZN29CAknExtendedInputCapabilities5NewLCEv @ 632 NONAME
	_ZN29CAknExtendedInputCapabilitiesD0Ev @ 633 NONAME
	_ZN29CAknExtendedInputCapabilitiesD1Ev @ 634 NONAME
	_ZN29CAknExtendedInputCapabilitiesD2Ev @ 635 NONAME
	_ZNK29CAknExtendedInputCapabilities12CapabilitiesEv @ 636 NONAME
	_ZNK29CAknExtendedInputCapabilities20SupportsCapabilitiesEj @ 637 NONAME
	_ZN8CEikMfne15MopSupplyObjectE8TTypeUid @ 638 NONAME
	_ZThn4_N8CEikMfne15MopSupplyObjectE8TTypeUid @ 639 NONAME ; #<thunk>#
	_ZN29CAknExtendedInputCapabilities18SetMIDPConstraintsEj @ 640 NONAME
	_ZNK29CAknExtendedInputCapabilities15MIDPConstrainstEv @ 641 NONAME
	_ZN14CEikMfneNumber12SetDigitTypeE10TDigitTypeRK5CFont @ 642 NONAME
	_ZN14CEikMfneNumber16RefreshDigitTypeERK5CFont @ 643 NONAME
	_ZNK14CEikMfneNumber9DigitTypeEv @ 644 NONAME
	_ZN29CAknExtendedInputCapabilities13SetEditorTypeEi @ 645 NONAME
	_ZNK29CAknExtendedInputCapabilities10EditorTypeEv @ 646 NONAME
	_ZN24CColumnListBoxItemDrawerC1Ev @ 647 NONAME
	_ZN24CColumnListBoxItemDrawerC2Ev @ 648 NONAME
	_ZN18CAknLocationEditor14OfferKeyEventLERK9TKeyEvent10TEventCode @ 649 NONAME
	_ZN8CEikMfne15ResetFieldArrayEv @ 650 NONAME
	_ZTI16CLocationStrings @ 651 NONAME ; #<TI>#
	_ZTV16CLocationStrings @ 652 NONAME ; #<VT>#
	_ZN29CAknExtendedInputCapabilities12ReportEventLEiPv @ 653 NONAME
	_ZN29CAknExtendedInputCapabilities16RegisterObserverEPNS_17MAknEventObserverE @ 654 NONAME
	_ZN29CAknExtendedInputCapabilities18UnregisterObserverEPNS_17MAknEventObserverE @ 655 NONAME
	_ZN18CAknLocationEditor37CAknLocationEditor_ExtensionInterfaceE4TUid @ 656 NONAME
	_ZN8CEikMfne20SetUseOverrideColorsEi @ 657 NONAME
	_ZN14CAknUnitEditor10ConstructLEdddiij @ 658 NONAME
	_ZN14CAknUnitEditor20PrepareForFocusLossLEv @ 659 NONAME
	_ZN14CAknUnitEditor20SetMinimumAndMaximumEdd @ 660 NONAME
	_ZN14CAknUnitEditor22ConstructFromResourceLER15TResourceReader @ 661 NONAME
	_ZN14CAknUnitEditor22SetMaxFractionalDigitsEi @ 662 NONAME
	_ZN14CAknUnitEditor4NewLEv @ 663 NONAME
	_ZN14CAknUnitEditor5NewLCEv @ 664 NONAME
	_ZN14CAknUnitEditor8SetFlagsEj @ 665 NONAME
	_ZN14CAknUnitEditor8SetUnitLERK7TDesC16 @ 666 NONAME
	_ZN14CAknUnitEditor8SetUnitLEi @ 667 NONAME
	_ZN14CAknUnitEditor8SetValueEd @ 668 NONAME
	_ZN14CAknUnitEditorD0Ev @ 669 NONAME
	_ZN14CAknUnitEditorD1Ev @ 670 NONAME
	_ZN14CAknUnitEditorD2Ev @ 671 NONAME
	_ZNK14CAknUnitEditor19MaxFractionalDigitsEv @ 672 NONAME
	_ZNK14CAknUnitEditor20GetMinimumAndMaximumERdS0_ @ 673 NONAME
	_ZNK14CAknUnitEditor4UnitEv @ 674 NONAME
	_ZNK14CAknUnitEditor5FlagsEv @ 675 NONAME
	_ZNK14CAknUnitEditor5ValueEv @ 676 NONAME
	_ZNK14CAknUnitEditor7GetUnitER6TDes16 @ 677 NONAME
	_ZTI17CAknMfneSeparator @ 678 NONAME ; #<TI>#
	_ZTV17CAknMfneSeparator @ 679 NONAME ; #<VT>#
	_ZN29CAknExtendedInputCapabilities37CAknExtendedInputCapabilitiesProvider12SetMopParentEP15MObjectProvider @ 680 NONAME
	_ZN29CAknExtendedInputCapabilities37CAknExtendedInputCapabilitiesProvider28SetExtendedInputCapabilitiesEPS_ @ 681 NONAME
	_ZN29CAknExtendedInputCapabilities37CAknExtendedInputCapabilitiesProviderC1Ev @ 682 NONAME
	_ZN29CAknExtendedInputCapabilities37CAknExtendedInputCapabilitiesProviderC2Ev @ 683 NONAME
	_ZN29CAknExtendedInputCapabilities37CAknExtendedInputCapabilitiesProviderD0Ev @ 684 NONAME
	_ZN29CAknExtendedInputCapabilities37CAknExtendedInputCapabilitiesProviderD1Ev @ 685 NONAME
	_ZN29CAknExtendedInputCapabilities37CAknExtendedInputCapabilitiesProviderD2Ev @ 686 NONAME
	_ZNK29CAknExtendedInputCapabilities37CAknExtendedInputCapabilitiesProvider25ExtendedInputCapabilitiesEv @ 687 NONAME
	_ZNK18CColumnListBoxData25CurrentItemTextWasClippedEv @ 688 NONAME
	_ZNK14CAknUnitEditor12SupportsUnitEi @ 689 NONAME
	_ZN8CEikMfne10SetFeatureEii @ 690 NONAME
	_ZNK8CEikMfne10GetFeatureEiRi @ 691 NONAME
	_ZNK8CEikMfne15SupportsFeatureEi @ 692 NONAME
	_ZN16CEikSecretEditor10SetFeatureEii @ 693 NONAME
	_ZNK16CEikSecretEditor10GetFeatureEiRi @ 694 NONAME
	_ZNK16CEikSecretEditor15SupportsFeatureEi @ 695 NONAME
	_ZN8CEikMfne11MakeVisibleEi @ 696 NONAME
	_ZN8CEikMfne11SizeChangedEv @ 697 NONAME
	_ZN16CEikSecretEditor9EnableSCTEi @ 698 NONAME
	_ZN16CEikSecretEditor12FocusChangedE8TDrawNow @ 699 NONAME
	_ZN16CEikSecretEditor12EnableCursorEi @ 700 NONAME

