EXPORTS
	??0CEikAppUi@@QAE@XZ @ 1 NONAME ; public: __thiscall CEikAppUi::CEikAppUi(void)
	??0CEikApplication@@IAE@XZ @ 2 NONAME ; protected: __thiscall CEikApplication::CEikApplication(void)
	??0CEikBusyMsgWin@@QAE@AAVCEikonEnv@@@Z @ 3 NONAME ; public: __thiscall CEikBusyMsgWin::CEikBusyMsgWin(class CEikonEnv &)
	??0CEikDocument@@IAE@AAVCEikApplication@@@Z @ 4 NONAME ; protected: __thiscall CEikDocument::CEikDocument(class CEikApplication &)
	??0CEikEmbeddableAppList@@QAE@XZ @ 5 NONAME ; public: __thiscall CEikEmbeddableAppList::CEikEmbeddableAppList(void)
	??0CEikInfoMsgWin@@QAE@AAVCEikonEnv@@@Z @ 6 NONAME ; public: __thiscall CEikInfoMsgWin::CEikInfoMsgWin(class CEikonEnv &)
	??0CEikonEnv@@QAE@XZ @ 7 NONAME ; public: __thiscall CEikonEnv::CEikonEnv(void)
	??1CEikAppUi@@UAE@XZ @ 8 NONAME ; public: virtual __thiscall CEikAppUi::~CEikAppUi(void)
	??1CEikApplication@@UAE@XZ @ 9 NONAME ; public: virtual __thiscall CEikApplication::~CEikApplication(void)
	??1CEikDebugPreferences@@UAE@XZ @ 10 NONAME ; public: virtual __thiscall CEikDebugPreferences::~CEikDebugPreferences(void)
	??1CEikDocument@@UAE@XZ @ 11 NONAME ; public: virtual __thiscall CEikDocument::~CEikDocument(void)
	??1CEikEmbeddableAppList@@UAE@XZ @ 12 NONAME ; public: virtual __thiscall CEikEmbeddableAppList::~CEikEmbeddableAppList(void)
	??1CEikMsgWin@@UAE@XZ @ 13 NONAME ; public: virtual __thiscall CEikMsgWin::~CEikMsgWin(void)
	??1CEikProcess@@UAE@XZ @ 14 NONAME ; public: virtual __thiscall CEikProcess::~CEikProcess(void)
	??1CEikonEnv@@UAE@XZ @ 15 NONAME ; public: virtual __thiscall CEikonEnv::~CEikonEnv(void)
	?AbbreviatePath@EikFileUtils@@SA?AV?$TBuf@$0BAA@@@AAVTDesC16@@ABVCFont@@H@Z @ 16 NONAME ; public: static class TBuf<256>  __cdecl EikFileUtils::AbbreviatePath(class TDesC16 &,class CFont const &,int)
	?AddAlertDialogLikeControlToStackL@CEikonEnv@@QAEXPAVCCoeControl@@@Z @ 17 NONAME ; public: void __thiscall CEikonEnv::AddAlertDialogLikeControlToStackL(class CCoeControl *)
	?AddAppUiFactoryL@CEikonEnv@@QAEXPAVMEikAppUiFactory@@@Z @ 18 NONAME ; public: void __thiscall CEikonEnv::AddAppUiFactoryL(class MEikAppUiFactory *)
	?AddDialogLikeControlToStackL@CEikonEnv@@QAEXPAVCCoeControl@@@Z @ 19 NONAME ; public: void __thiscall CEikonEnv::AddDialogLikeControlToStackL(class CCoeControl *)
	?AddLibraryL@CEikonEnv@@QAEHP6A?AUSEikControlInfo@@H@ZPAV?$TBuf@$0BAA@@@@Z @ 20 NONAME ; public: int __thiscall CEikonEnv::AddLibraryL(struct SEikControlInfo  (__cdecl*)(int),class TBuf<256> *)
	?AddSleepingAlertDialogToStackL@CEikonEnv@@QAEXPAVCCoeControl@@@Z @ 21 NONAME ; public: void __thiscall CEikonEnv::AddSleepingAlertDialogToStackL(class CCoeControl *)
	?AddSleepingDialogToStackL@CEikonEnv@@QAEXPAVCCoeControl@@@Z @ 22 NONAME ; public: void __thiscall CEikonEnv::AddSleepingDialogToStackL(class CCoeControl *)
	?AddWindowShadow@CEikonEnv@@SAXPAVCCoeControl@@@Z @ 23 NONAME ; public: static void __cdecl CEikonEnv::AddWindowShadow(class CCoeControl *)
	?AlertWin@CEikonEnv@@QAEXABVTDesC16@@0@Z @ 24 NONAME ; public: void __thiscall CEikonEnv::AlertWin(class TDesC16 const &,class TDesC16 const &)
	?AlertWin@CEikonEnv@@QAEXABVTDesC16@@@Z @ 25 NONAME ; public: void __thiscall CEikonEnv::AlertWin(class TDesC16 const &)
	?ConstructL@CEikonEnv@@QAEXH@Z @ 26 NONAME ; public: void __thiscall CEikonEnv::ConstructL(int)
	?AllocInfoMsg@CEikonEnv@@QAEXXZ @ 27 NONAME ; public: void __thiscall CEikonEnv::AllocInfoMsg(void)
	?AppCaption@CEikDocument@@QBEABV?$TBuf@$0BAA@@@XZ @ 28 NONAME ; public: class TBuf<256> const & __thiscall CEikDocument::AppCaption(void)const 
	?AppFileMode@CEikDocument@@QBEIXZ @ 29 NONAME ; public: unsigned int __thiscall CEikDocument::AppFileMode(void)const 
	?AppFromDocL@CEikProcess@@QBEXAAVTDes16@@ABVTDesC16@@@Z @ 30 NONAME ; public: void __thiscall CEikProcess::AppFromDocL(class TDes16 &,class TDesC16 const &)const 
	?AppUiFactory@CEikonEnv@@QBEPAVMEikAppUiFactory@@XZ @ 31 NONAME ; public: class MEikAppUiFactory * __thiscall CEikonEnv::AppUiFactory(void)const 
	?Application@CEikAppUi@@QBEPAVCEikApplication@@XZ @ 32 NONAME ; public: class CEikApplication * __thiscall CEikAppUi::Application(void)const 
	?BaseConstructL@CEikAppUi@@IAEXH@Z @ 33 NONAME ; protected: void __thiscall CEikAppUi::BaseConstructL(int)
	?Beep@CEikonEnv@@SAXXZ @ 34 NONAME ; public: static void __cdecl CEikonEnv::Beep(void)
	?BitmapStoreName@CEikApplication@@UBE?AV?$TBuf@$0BAA@@@XZ @ 35 NONAME ; public: virtual class TBuf<256>  __thiscall CEikApplication::BitmapStoreName(void)const 
	?BringForwards@CEikonEnv@@QAEXHH@Z @ 36 NONAME ; public: void __thiscall CEikonEnv::BringForwards(int,int)
	?BusyMsgCancel@CEikonEnv@@QAEXXZ @ 37 NONAME ; public: void __thiscall CEikonEnv::BusyMsgCancel(void)
	?BusyMsgL@CEikonEnv@@QAEXABVTDesC16@@@Z @ 38 NONAME ; public: void __thiscall CEikonEnv::BusyMsgL(class TDesC16 const &)
	?BusyMsgL@CEikonEnv@@QAEXABVTDesC16@@VTGulAlignment@@@Z @ 39 NONAME ; public: void __thiscall CEikonEnv::BusyMsgL(class TDesC16 const &,class TGulAlignment)
	?BusyMsgL@CEikonEnv@@QAEXABVTDesC16@@VTGulAlignment@@VTTimeIntervalMicroSeconds32@@@Z @ 40 NONAME ; public: void __thiscall CEikonEnv::BusyMsgL(class TDesC16 const &,class TGulAlignment,class TTimeIntervalMicroSeconds32)
	?BusyMsgL@CEikonEnv@@QAEXABVTDesC16@@VTTimeIntervalMicroSeconds32@@@Z @ 41 NONAME ; public: void __thiscall CEikonEnv::BusyMsgL(class TDesC16 const &,class TTimeIntervalMicroSeconds32)
	?BusyMsgL@CEikonEnv@@QAEXH@Z @ 42 NONAME ; public: void __thiscall CEikonEnv::BusyMsgL(int)
	?BusyMsgL@CEikonEnv@@QAEXHVTTimeIntervalMicroSeconds32@@@Z @ 43 NONAME ; public: void __thiscall CEikonEnv::BusyMsgL(int,class TTimeIntervalMicroSeconds32)
	?CancelDisplay@CEikMsgWin@@QAEXXZ @ 44 NONAME ; public: void __thiscall CEikMsgWin::CancelDisplay(void)
	?Capability@CEikApplication@@UBEXAAVTDes8@@@Z @ 45 NONAME ; public: virtual void __thiscall CEikApplication::Capability(class TDes8 &)const 
	?CheckHotKeyNotDimmedL@MEikMenuObserver@@UAEHH@Z @ 46 NONAME ; public: virtual int __thiscall MEikMenuObserver::CheckHotKeyNotDimmedL(int)
	?ClientRect@CEikAppUi@@QBE?AVTRect@@XZ @ 47 NONAME ; public: class TRect  __thiscall CEikAppUi::ClientRect(void)const 
	?ClockDllL@CEikonEnv@@QAEAAVRAnimDll@@XZ @ 48 NONAME ; public: class RAnimDll & __thiscall CEikonEnv::ClockDllL(void)
	?ClosePopup@CEikAppUi@@IAEXXZ @ 49 NONAME ; protected: void __thiscall CEikAppUi::ClosePopup(void)
	?CommandTailEnd@CEikProcess@@QBE?AVTPtrC16@@XZ @ 50 NONAME ; public: class TPtrC16  __thiscall CEikProcess::CommandTailEnd(void)const 
	?ConfirmLossOfAllChangesL@CEikonEnv@@QBEHXZ @ 51 NONAME ; public: int __thiscall CEikonEnv::ConfirmLossOfAllChangesL(void)const 
	?ConstructAppFromCommandLineL@CEikonEnv@@QAEXABVCApaCommandLine@@@Z @ 52 NONAME ABSENT ; public: void __thiscall CEikonEnv::ConstructAppFromCommandLineL(class CApaCommandLine const &)
	?ConstructL@CEikAppUi@@UAEXXZ @ 53 NONAME ; public: virtual void __thiscall CEikAppUi::ConstructL(void)
	?ConstructL@CEikEmbeddableAppList@@QAEXXZ @ 54 NONAME ; public: void __thiscall CEikEmbeddableAppList::ConstructL(void)
	?ConstructL@CEikMsgWin@@QAEXAAVRWindowGroup@@@Z @ 55 NONAME ; public: void __thiscall CEikMsgWin::ConstructL(class RWindowGroup &)
	?ConstructL@CEikonEnv@@QAEXXZ @ 56 NONAME ; public: void __thiscall CEikonEnv::ConstructL(void)
	?ControlColor@CEikonEnv@@QBE?AVTRgb@@W4TLogicalColor@@ABVCCoeControl@@@Z @ 57 NONAME ; public: class TRgb  __thiscall CEikonEnv::ControlColor(enum TLogicalColor,class CCoeControl const &)const 
	?ControlStackReadyL@CEikonEnv@@QAEXXZ @ 58 NONAME ; public: void __thiscall CEikonEnv::ControlStackReadyL(void)
	?CreateBitmapL@CEikonEnv@@QAEPAVCWsBitmap@@ABVTDesC16@@H@Z @ 59 NONAME ; public: class CWsBitmap * __thiscall CEikonEnv::CreateBitmapL(class TDesC16 const &,int)
	?CreateByTypeL@EikControlFactory@@SA?AUSEikControlInfo@@H@Z @ 60 NONAME ; public: static struct SEikControlInfo  __cdecl EikControlFactory::CreateByTypeL(int)
	?CreateColorArrayL@EikResourceUtils@@SAPAVCColorArray@@HPAVCEikonEnv@@@Z @ 61 NONAME ; public: static class CColorArray * __cdecl EikResourceUtils::CreateColorArrayL(int,class CEikonEnv *)
	?CreateColorArrayLC@EikResourceUtils@@SAPAVCColorArray@@HPAVCEikonEnv@@@Z @ 62 NONAME ; public: static class CColorArray * __cdecl EikResourceUtils::CreateColorArrayLC(int,class CEikonEnv *)
	?CreateCustomCommandControlL@MEikCommandObserver@@UAEPAVCCoeControl@@H@Z @ 63 NONAME ; public: virtual class CCoeControl * __thiscall MEikCommandObserver::CreateCustomCommandControlL(int)
	?CreateDocumentL@CEikApplication@@MAEPAVCApaDocument@@PAVCApaProcess@@@Z @ 64 NONAME ; protected: virtual class CApaDocument * __thiscall CEikApplication::CreateDocumentL(class CApaProcess *)
	?CreateEmbeddedDocumentL@CEikEmbeddableAppList@@QAEPAVCEikDocument@@HPAVCApaProcess@@@Z @ 65 NONAME ; public: class CEikDocument * __thiscall CEikEmbeddableAppList::CreateEmbeddedDocumentL(int,class CApaProcess *)
	?CreateFileL@CEikAppUi@@UAEXABVTDesC16@@@Z @ 66 NONAME ; public: virtual void __thiscall CEikAppUi::CreateFileL(class TDesC16 const &)
	?CreateFileStoreLC@CEikDocument@@UAEPAVCFileStore@@AAVRFs@@ABVTDesC16@@@Z @ 67 NONAME ; public: virtual class CFileStore * __thiscall CEikDocument::CreateFileStoreLC(class RFs &,class TDesC16 const &)
	?CreateHotKeyControlL@CEikAppUi@@IAEXH@Z @ 68 NONAME ; protected: void __thiscall CEikAppUi::CreateHotKeyControlL(int)
	?CreateIconFromMaskedBitmapL@CEikonEnv@@SAPAVCGulIcon@@ABVCApaMaskedBitmap@@@Z @ 69 NONAME ; public: static class CGulIcon * __cdecl CEikonEnv::CreateIconFromMaskedBitmapL(class CApaMaskedBitmap const &)
	?CreateIconL@CEikonEnv@@QAEPAVCGulIcon@@ABVTDesC16@@HH@Z @ 70 NONAME ; public: class CGulIcon * __thiscall CEikonEnv::CreateIconL(class TDesC16 const &,int,int)
	?CreateScreenFontL@EikResourceUtils@@SAPAVCFbsFont@@HPAVCEikonEnv@@@Z @ 71 NONAME ; public: static class CFbsFont * __cdecl EikResourceUtils::CreateScreenFontL(int,class CEikonEnv *)
	?DestroyEnvironment@CEikonEnv@@UAEXXZ @ 72 NONAME ; public: virtual void __thiscall CEikonEnv::DestroyEnvironment(void)
	?DestroyScreen@CEikonEnv@@EAEXXZ @ 73 NONAME ; private: virtual void __thiscall CEikonEnv::DestroyScreen(void)
	?DisplayTaskList@CEikonEnv@@QAEXXZ @ 74 NONAME ; public: void __thiscall CEikonEnv::DisplayTaskList(void)
	?DocNameIsAFile@CEikonEnv@@QBEHXZ @ 75 NONAME ; public: int __thiscall CEikonEnv::DocNameIsAFile(void)const 
	?Document@CEikAppUi@@QBEPAVCEikDocument@@XZ @ 76 NONAME ; public: class CEikDocument * __thiscall CEikAppUi::Document(void)const 
	?DrawCursor@CEikonEnv@@QAEXPBVCCoeControl@@ABVTPoint@@H@Z @ 77 NONAME ; public: void __thiscall CEikonEnv::DrawCursor(class CCoeControl const *,class TPoint const &,int)
	?DrawCursor@CEikonEnv@@QAEXPBVCCoeControl@@ABVTPoint@@HHH@Z @ 78 NONAME ; public: void __thiscall CEikonEnv::DrawCursor(class CCoeControl const *,class TPoint const &,int,int,int)
	?DynInitMenuBarL@MEikMenuObserver@@UAEXHPAVCEikMenuBar@@@Z @ 79 NONAME ; public: virtual void __thiscall MEikMenuObserver::DynInitMenuBarL(int,class CEikMenuBar *)
	?DynInitMenuPaneL@MEikMenuObserver@@UAEXHPAVCEikMenuPane@@@Z @ 80 NONAME ; public: virtual void __thiscall MEikMenuObserver::DynInitMenuPaneL(int,class CEikMenuPane *)
	?EditL@CEikDocument@@UAEXPAVMApaEmbeddedDocObserver@@H@Z @ 81 NONAME ; public: virtual void __thiscall CEikDocument::EditL(class MApaEmbeddedDocObserver *,int)
	?Exit@CEikAppUi@@MAEXXZ @ 82 NONAME ; void CEikAppUi::Exit(void)
	?ExternalizeL@CEikDocument@@UBEXAAVRWriteStream@@@Z @ 83 NONAME ; public: virtual void __thiscall CEikDocument::ExternalizeL(class RWriteStream &)const 
	?DefaultDisplayMode@CEikonEnv@@QBE?AW4TDisplayMode@@XZ @ 84 NONAME ; public: enum TDisplayMode  __thiscall CEikonEnv::DefaultDisplayMode(void)const 
	?FservAllocInfoMsg@CEikonEnv@@QAEXXZ @ 85 NONAME ; public: void __thiscall CEikonEnv::FservAllocInfoMsg(void)
	?GetDefaultDocumentFileName@CEikApplication@@UBEXAAV?$TBuf@$0BAA@@@@Z @ 86 NONAME ; public: virtual void __thiscall CEikApplication::GetDefaultDocumentFileName(class TBuf<256> &)const 
	?GetErrorText@CEikonEnv@@QBEXAAVTDes16@@H@Z @ 87 NONAME ; public: void __thiscall CEikonEnv::GetErrorText(class TDes16 &,int)const 
	?GetPrinterNamesL@CEikonEnv@@SAXPAVCPrinterModelList@@AAVCDesC16Array@@@Z @ 88 NONAME ; public: static void __cdecl CEikonEnv::GetPrinterNamesL(class CPrinterModelList *,class CDesC16Array &)
	?HandleApplicationSpecificEventL@CEikAppUi@@MAEXHABVTWsEvent@@@Z @ 89 NONAME ; protected: virtual void __thiscall CEikAppUi::HandleApplicationSpecificEventL(int,class TWsEvent const &)
	?HandleAttemptDimmedSelectionL@MEikMenuObserver@@UAEXH@Z @ 90 NONAME ; public: virtual void __thiscall MEikMenuObserver::HandleAttemptDimmedSelectionL(int)
	?HandleCommandL@CEikAppUi@@UAEXH@Z @ 91 NONAME ; public: virtual void __thiscall CEikAppUi::HandleCommandL(int)
	?HandleError@CEikAppUi@@UAE?AW4TErrorHandlerResponse@@HABUSExtendedError@@AAVTDes16@@1@Z @ 92 NONAME ; public: virtual enum TErrorHandlerResponse  __thiscall CEikAppUi::HandleError(int,struct SExtendedError const &,class TDes16 &,class TDes16 &)
	?HandleError@CEikonEnv@@UAEXH@Z @ 93 NONAME ; public: virtual void __thiscall CEikonEnv::HandleError(int)
	?HandleErrorWithContext@CEikonEnv@@QAEXHH@Z @ 94 NONAME ; public: void __thiscall CEikonEnv::HandleErrorWithContext(int,int)
	?HandleMessageL@CEikAppUi@@MAE?AW4TMessageResponse@MCoeMessageObserver@@KVTUid@@ABVTDesC8@@@Z @ 95 NONAME ; protected: virtual enum MCoeMessageObserver::TMessageResponse  __thiscall CEikAppUi::HandleMessageL(unsigned long,class TUid,class TDesC8 const &)
	?HandleModelChangeL@CEikAppUi@@UAEXXZ @ 96 NONAME ; public: virtual void __thiscall CEikAppUi::HandleModelChangeL(void)
	?HandleResourceChangeL@CEikAppUi@@UAEXH@Z @ 97 NONAME ; public: virtual void __thiscall CEikAppUi::HandleResourceChangeL(int)
	?HandleSideBarMenuL@CEikAppUi@@MAEXHABVTPoint@@HPBVCEikHotKeyTable@@@Z @ 98 NONAME ; protected: virtual void __thiscall CEikAppUi::HandleSideBarMenuL(int,class TPoint const &,int,class CEikHotKeyTable const *)
	?HandleSideBarMenuL@MEikMenuObserver@@UAEXHABVTPoint@@HPBVCEikHotKeyTable@@@Z @ 99 NONAME ; public: virtual void __thiscall MEikMenuObserver::HandleSideBarMenuL(int,class TPoint const &,int,class CEikHotKeyTable const *)
	?HandleSystemEventL@CEikAppUi@@MAEXABVTWsEvent@@@Z @ 100 NONAME ; protected: virtual void __thiscall CEikAppUi::HandleSystemEventL(class TWsEvent const &)
	?HasChanged@CEikDocument@@UBEHXZ @ 101 NONAME ; public: virtual int __thiscall CEikDocument::HasChanged(void)const 
	?HideCursor@CEikonEnv@@QAEXPBVCCoeControl@@@Z @ 102 NONAME ; public: void __thiscall CEikonEnv::HideCursor(class CCoeControl const *)
	?InfoMsg@CEikonEnv@@QAAXHZZ @ 103 NONAME ; public: void __cdecl CEikonEnv::InfoMsg(int,...)
	?InfoMsg@CEikonEnv@@QAEXABVTDesC16@@@Z @ 104 NONAME ; public: void __thiscall CEikonEnv::InfoMsg(class TDesC16 const &)
	?InfoMsg@CEikonEnv@@QAEXHQAPAC@Z @ 105 NONAME ; public: void __thiscall CEikonEnv::InfoMsg(int,signed char * * const)
	?InfoMsgCancel@CEikonEnv@@QAEXXZ @ 106 NONAME ; public: void __thiscall CEikonEnv::InfoMsgCancel(void)
	?InfoMsgWithAlignment@CEikonEnv@@QAAXVTGulAlignment@@HZZ @ 107 NONAME ; public: void __cdecl CEikonEnv::InfoMsgWithAlignment(class TGulAlignment,int,...)
	?InfoMsgWithAlignment@CEikonEnv@@QAEXVTGulAlignment@@ABVTDesC16@@@Z @ 108 NONAME ; public: void __thiscall CEikonEnv::InfoMsgWithAlignment(class TGulAlignment,class TDesC16 const &)
	?InfoMsgWithAlignment@CEikonEnv@@QAEXVTGulAlignment@@HQAPAC@Z @ 109 NONAME ; public: void __thiscall CEikonEnv::InfoMsgWithAlignment(class TGulAlignment,int,signed char * * const)
	?InfoWinL@CEikonEnv@@QBEXHH@Z @ 110 NONAME ; public: void __thiscall CEikonEnv::InfoWinL(int,int)const 
	?InfoWinL@CEikonEnv@@SAXABVTDesC16@@0@Z @ 111 NONAME ; public: static void __cdecl CEikonEnv::InfoWinL(class TDesC16 const &,class TDesC16 const &)
	?InitSystemFontsL@CEikonEnv@@EAEXXZ @ 112 NONAME ; private: virtual void __thiscall CEikonEnv::InitSystemFontsL(void)
	?InternalizeL@@YAXAAW4TEikPortFlag@@AAVRReadStream@@@Z @ 113 NONAME ; void __cdecl InternalizeL(enum TEikPortFlag &,class RReadStream &)
	?IsBusy@CEikonEnv@@QBEHXZ @ 114 NONAME ; public: int __thiscall CEikonEnv::IsBusy(void)const 
	?IsEmpty@CEikDocument@@UBEHXZ @ 115 NONAME ; public: virtual int __thiscall CEikDocument::IsEmpty(void)const 
	?IsSystem@CEikonEnv@@QBEHXZ @ 116 NONAME ; public: int __thiscall CEikonEnv::IsSystem(void)const 
	?KeyPressLabel@CEikonEnv@@QBE?AVTPtrC16@@H@Z @ 117 NONAME ; public: class TPtrC16  __thiscall CEikonEnv::KeyPressLabel(int)const 
	?LastUsedFileL@CEikProcess@@QBE?AV?$TBuf@$0BAA@@@W4TLastUsedFile@1@@Z @ 118 NONAME ; public: class TBuf<256>  __thiscall CEikProcess::LastUsedFileL(enum CEikProcess::TLastUsedFile)const 
	?LaunchPopupMenuL@CEikAppUi@@QAEXHABVTPoint@@W4TPopupTargetPosType@@PBVCEikHotKeyTable@@@Z @ 119 NONAME ; public: void __thiscall CEikAppUi::LaunchPopupMenuL(int,class TPoint const &,enum TPopupTargetPosType,class CEikHotKeyTable const *)
	?LaunchPopupMenuL@CEikonEnv@@QAEXHABVTPoint@@W4TPopupTargetPosType@@PBVCEikHotKeyTable@@@Z @ 120 NONAME ; public: void __thiscall CEikonEnv::LaunchPopupMenuL(int,class TPoint const &,enum TPopupTargetPosType,class CEikHotKeyTable const *)
	?LeaveWithErrorContext@CEikonEnv@@QAEXHABVTDesC16@@@Z @ 121 NONAME ; public: void __thiscall CEikonEnv::LeaveWithErrorContext(int,class TDesC16 const &)
	?LeaveWithInfoMsg@CEikonEnv@@QAAXHZZ @ 122 NONAME ; public: void __cdecl CEikonEnv::LeaveWithInfoMsg(int,...)
	?MainDocFolder@CEikProcess@@QBE?AV?$TBuf@$0BAA@@@XZ @ 123 NONAME ; public: class TBuf<256>  __thiscall CEikProcess::MainDocFolder(void)const 
	?MainStore@CEikProcess@@QBEPAVCFileStore@@XZ @ 124 NONAME ; public: class CFileStore * __thiscall CEikProcess::MainStore(void)const 
	?MdcaCount@CEikEmbeddableAppList@@EBEHXZ @ 125 NONAME ; private: virtual int __thiscall CEikEmbeddableAppList::MdcaCount(void)const 
	?MdcaPoint@CEikEmbeddableAppList@@EBE?AVTPtrC16@@H@Z @ 126 NONAME ; private: virtual class TPtrC16  __thiscall CEikEmbeddableAppList::MdcaPoint(int)const 
	?NewDefaultCharFormatLayerL@CEikonEnv@@SAPAVCCharFormatLayer@@XZ @ 127 NONAME ; public: static class CCharFormatLayer * __cdecl CEikonEnv::NewDefaultCharFormatLayerL(void)
	?NewDefaultParaFormatLayerL@CEikonEnv@@SAPAVCParaFormatLayer@@XZ @ 128 NONAME ; public: static class CParaFormatLayer * __cdecl CEikonEnv::NewDefaultParaFormatLayerL(void)
	?NewDefaultPrintSetupL@CEikonEnv@@QAEPAVCPrintSetup@@XZ @ 129 NONAME ; public: class CPrintSetup * __thiscall CEikonEnv::NewDefaultPrintSetupL(void)
	?NewDefaultSingleLineParaFormatLayerL@CEikonEnv@@SAPAVCParaFormatLayer@@XZ @ 130 NONAME ; public: static class CParaFormatLayer * __cdecl CEikonEnv::NewDefaultSingleLineParaFormatLayerL(void)
	?NewDocumentL@CEikDocument@@UAEXXZ @ 131 NONAME ; public: virtual void __thiscall CEikDocument::NewDocumentL(void)
	?NewLC@CEikDebugPreferences@@SAPAV1@XZ @ 132 NONAME ; public: static class CEikDebugPreferences * __cdecl CEikDebugPreferences::NewLC(void)
	?NewLC@CEikScreenClearerWin@@SAPAV1@XZ @ 133 NONAME ; public: static class CEikScreenClearerWin * __cdecl CEikScreenClearerWin::NewLC(void)
	?NotifyIdleError@CEikonEnv@@QAEXHH@Z @ 134 NONAME ; public: void __thiscall CEikonEnv::NotifyIdleError(int,int)
	?NotifyIdleErrorWhileRedrawing@CEikonEnv@@QAEXH@Z @ 135 NONAME ; public: void __thiscall CEikonEnv::NotifyIdleErrorWhileRedrawing(int)
	?OfferKeyToAppL@MEikMenuObserver@@UAEXABUTKeyEvent@@W4TEventCode@@@Z @ 136 NONAME ; public: virtual void __thiscall MEikMenuObserver::OfferKeyToAppL(struct TKeyEvent const &,enum TEventCode)
	?OpenAppInfoFileLC@CEikApplication@@UBEPAVCApaAppInfoFileReader@@XZ @ 137 NONAME ABSENT ; public: virtual class CApaAppInfoFileReader * __thiscall CEikApplication::OpenAppInfoFileLC(void)const 
	?OpenFileL@CEikAppUi@@UAEXABVTDesC16@@@Z @ 138 NONAME ; public: virtual void __thiscall CEikAppUi::OpenFileL(class TDesC16 const &)
	?OpenFileL@CEikDocument@@UAEPAVCFileStore@@HABVTDesC16@@AAVRFs@@@Z @ 139 NONAME ; public: virtual class CFileStore * __thiscall CEikDocument::OpenFileL(int,class TDesC16 const &,class RFs &)
	?OpenIniFileLC@CEikApplication@@UBEPAVCDictionaryStore@@AAVRFs@@@Z @ 140 NONAME ; public: virtual class CDictionaryStore * __thiscall CEikApplication::OpenIniFileLC(class RFs &)const 
	?PictureFactory@CEikonEnv@@QBEPAVMPictureFactory@@XZ @ 141 NONAME ; public: class MPictureFactory * __thiscall CEikonEnv::PictureFactory(void)const 
	?PreDocConstructL@CEikApplication@@MAEXXZ @ 142 NONAME ; protected: virtual void __thiscall CEikApplication::PreDocConstructL(void)
	?PrepareToEditL@CEikDocument@@QAEXPAVMApaEmbeddedDocObserver@@H@Z @ 143 NONAME ; public: void __thiscall CEikDocument::PrepareToEditL(class MApaEmbeddedDocObserver *,int)
	?PrepareToEditL@CEikDocument@@QAEXXZ @ 144 NONAME ; public: void __thiscall CEikDocument::PrepareToEditL(void)
	?PrintL@CEikDocument@@UAEXABVCStreamStore@@@Z @ 145 NONAME ; public: virtual void __thiscall CEikDocument::PrintL(class CStreamStore const &)
	?ProcessCommandL@CEikAppUi@@MAEXH@Z @ 146 NONAME ; protected: virtual void __thiscall CEikAppUi::ProcessCommandL(int)
	?ProcessCommandParametersL@CEikAppUi@@IAEHW4TApaCommand@@AAV?$TBuf@$0BAA@@@@Z @ 147 NONAME ; protected: int __thiscall CEikAppUi::ProcessCommandParametersL(enum TApaCommand,class TBuf<256> &)
	?ProcessCommandParametersL@CEikAppUi@@UAEHW4TApaCommand@@AAV?$TBuf@$0BAA@@@ABVTDesC8@@@Z @ 148 NONAME ; public: virtual int __thiscall CEikAppUi::ProcessCommandParametersL(enum TApaCommand,class TBuf<256> &,class TDesC8 const &)
	?ProcessMessageL@CEikAppUi@@UAEXVTUid@@ABVTDesC8@@@Z @ 149 NONAME ; public: virtual void __thiscall CEikAppUi::ProcessMessageL(class TUid,class TDesC8 const &)
	?QueryWinL@CEikonEnv@@QBEHHH@Z @ 150 NONAME ; public: int __thiscall CEikonEnv::QueryWinL(int,int)const 
	?QueryWinL@CEikonEnv@@SAHABVTDesC16@@0@Z @ 151 NONAME ; public: static int __cdecl CEikonEnv::QueryWinL(class TDesC16 const &,class TDesC16 const &)
	?ReadAppInfoResourceL@CEikAppUi@@IAEXH@Z @ 152 NONAME ; protected: void __thiscall CEikAppUi::ReadAppInfoResourceL(int)
	?ReadResourceIntL@EikResourceUtils@@CAJHPAVCEikonEnv@@W4TResourceTypeInt@1@@Z @ 153 NONAME ; private: static long __cdecl EikResourceUtils::ReadResourceIntL(int,class CEikonEnv *,enum EikResourceUtils::TResourceTypeInt)
	?RemoveAppUiFactory@CEikonEnv@@QAEXXZ @ 154 NONAME ; public: void __thiscall CEikonEnv::RemoveAppUiFactory(void)
	?RemoveFromStack@CEikonEnv@@QAEXPAVCCoeControl@@@Z @ 155 NONAME ; public: void __thiscall CEikonEnv::RemoveFromStack(class CCoeControl *)
	?RemoveLibrary@CEikonEnv@@QAEXP6A?AUSEikControlInfo@@H@ZH@Z @ 156 NONAME ; public: void __thiscall CEikonEnv::RemoveLibrary(struct SEikControlInfo  (__cdecl*)(int),int)
	?HandleScreenDeviceChangedL@CEikAppUi@@MAEXXZ @ 157 NONAME ; void CEikAppUi::HandleScreenDeviceChangedL(void)
	?NewAppServerL@CEikApplication@@MAEXAAPAVCApaAppServer@@@Z @ 158 NONAME ; void CEikApplication::NewAppServerL(class CApaAppServer * &)
	?OpenFileL@CEikDocument@@UAEXAAPAVCFileStore@@AAVRFile@@@Z @ 159 NONAME
	?Reserved_1@CEikonEnv@@EAEXXZ @ 160 NONAME ABSENT ; private: virtual void __thiscall CEikonEnv::Reserved_1(void)
	?ValidatePasswordL@CEikDocument@@UBEXXZ @ 161 NONAME ; void CEikDocument::ValidatePasswordL(void) const
	?Reserved_2@CEikDocument@@EAEXXZ @ 162 NONAME ; private: virtual void __thiscall CEikDocument::Reserved_2(void)
	?Reserved_2@CEikonEnv@@EAEXXZ @ 163 NONAME ABSENT ; private: virtual void __thiscall CEikonEnv::Reserved_2(void)
	?Reserved_3@CEikAppUi@@EAEXXZ @ 164 NONAME ; private: virtual void __thiscall CEikAppUi::Reserved_3(void)
	?Reserved_4@CEikAppUi@@EAEXXZ @ 165 NONAME ; private: virtual void __thiscall CEikAppUi::Reserved_4(void)
	?ResourceFileName@CEikApplication@@UBE?AV?$TBuf@$0BAA@@@XZ @ 166 NONAME ; public: virtual class TBuf<256>  __thiscall CEikApplication::ResourceFileName(void)const 
	?ResourceFileVersionNumber@CEikonEnv@@EBEHXZ @ 167 NONAME ; private: virtual int __thiscall CEikonEnv::ResourceFileVersionNumber(void)const 
	?RespondsToShutdownEvent@CEikonEnv@@QBEHXZ @ 168 NONAME ; public: int __thiscall CEikonEnv::RespondsToShutdownEvent(void)const 
	?RespondsToSwitchFilesEvent@CEikonEnv@@QBEHXZ @ 169 NONAME ; public: int __thiscall CEikonEnv::RespondsToSwitchFilesEvent(void)const 
	?RestoreL@CEikDebugPreferences@@QAEXAAVRFs@@@Z @ 170 NONAME ; public: void __thiscall CEikDebugPreferences::RestoreL(class RFs &)
	?RestoreL@CEikDocument@@UAEXABVCStreamStore@@ABVCStreamDictionary@@@Z @ 171 NONAME ; public: virtual void __thiscall CEikDocument::RestoreL(class CStreamStore const &,class CStreamDictionary const &)
	?RestoreMenuL@MEikMenuObserver@@UAEXPAVCCoeControl@@HW4TMenuType@1@@Z @ 172 NONAME ; public: virtual void __thiscall MEikMenuObserver::RestoreMenuL(class CCoeControl *,int,enum MEikMenuObserver::TMenuType)
	?RouseSleepingDialog@CEikonEnv@@QAEXPAVCCoeControl@@H@Z @ 173 NONAME ; public: void __thiscall CEikonEnv::RouseSleepingDialog(class CCoeControl *,int)
	?RunAppInsideThread@EikDll@@SAXPAVCApaCommandLine@@@Z @ 174 NONAME ABSENT ; public: static void __cdecl EikDll::RunAppInsideThread(class CApaCommandLine *)
	?SaveAnyChangesL@CEikAppUi@@IAEXXZ @ 175 NONAME ; protected: void __thiscall CEikAppUi::SaveAnyChangesL(void)
	?SaveL@CEikAppUi@@IAEXXZ @ 176 NONAME ; protected: void __thiscall CEikAppUi::SaveL(void)
	?SaveL@CEikDocument@@UAEXXZ @ 177 NONAME ; public: virtual void __thiscall CEikDocument::SaveL(void)
	?SaveToDirectFileStoreL@CEikProcess@@QAEXPAVCEikDocument@@PBV?$TBuf@$0BAA@@@@Z @ 178 NONAME ; public: void __thiscall CEikProcess::SaveToDirectFileStoreL(class CEikDocument *,class TBuf<256> const *)
	?SendEventToEikonServer@CEikonEnv@@QAEXHPBXH@Z @ 179 NONAME ; public: void __thiscall CEikonEnv::SendEventToEikonServer(int,void const *,int)
	?SetAlertWin@CEikonEnv@@QAEXPAVMEikAlertWin@@@Z @ 180 NONAME ; public: void __thiscall CEikonEnv::SetAlertWin(class MEikAlertWin *)
	?VirtualCursor@CEikonEnv@@QAEAAVTEikVirtualCursor@@XZ @ 181 NONAME ; public: class TEikVirtualCursor & __thiscall CEikonEnv::VirtualCursor(void)
	?SetAppFileMode@CEikDocument@@QAEXI@Z @ 182 NONAME ; public: void __thiscall CEikDocument::SetAppFileMode(unsigned int)
	?SetAppUiFactoryL@CEikonEnv@@QAEXPAVMEikAppUiFactory@@@Z @ 183 NONAME ; public: void __thiscall CEikonEnv::SetAppUiFactoryL(class MEikAppUiFactory *)
	?SetAutoForwarding@CEikonEnv@@QAEXH@Z @ 184 NONAME ; public: void __thiscall CEikonEnv::SetAutoForwarding(int)
	?SetBusy@CEikonEnv@@QAEXH@Z @ 185 NONAME ; public: void __thiscall CEikonEnv::SetBusy(int)
	?SetChanged@CEikDocument@@QAEXH@Z @ 186 NONAME ; public: void __thiscall CEikDocument::SetChanged(int)
	?OptionMaskBitmap@CEikonEnv@@QBEPBVCFbsBitmap@@XZ @ 187 NONAME ; public: class CFbsBitmap const * __thiscall CEikonEnv::OptionMaskBitmap(void)const 
	?SetDebugKeys@CEikonEnv@@QAEXPAVMEikDebugKeys@@@Z @ 188 NONAME ; public: void __thiscall CEikonEnv::SetDebugKeys(class MEikDebugKeys *)
	?SetDocChanged@CEikAppUi@@IAEXXZ @ 189 NONAME ; protected: void __thiscall CEikAppUi::SetDocChanged(void)
	?SetDocNameIsAFile@CEikonEnv@@QAEXH@Z @ 190 NONAME ; public: void __thiscall CEikonEnv::SetDocNameIsAFile(int)
	?SetDocument@CEikAppUi@@QAEXPAVCEikDocument@@@Z @ 191 NONAME ; public: void __thiscall CEikAppUi::SetDocument(class CEikDocument *)
	?SetEditStoreL@CEikDocument@@QAEXPAVCStreamStore@@@Z @ 192 NONAME ; public: void __thiscall CEikDocument::SetEditStoreL(class CStreamStore *)
	?SetEmbeddedDocInfo@CEikAppUi@@QAEXPAVMApaEmbeddedDocObserver@@H@Z @ 193 NONAME ; public: void __thiscall CEikAppUi::SetEmbeddedDocInfo(class MApaEmbeddedDocObserver *,int)
	?SetEmphasis@CEikAppUi@@EAEXPAVCCoeControl@@H@Z @ 194 NONAME ; private: virtual void __thiscall CEikAppUi::SetEmphasis(class CCoeControl *,int)
	?SetInfoDialog@CEikonEnv@@QAEXPAVMEikInfoDialog@@@Z @ 195 NONAME ; public: void __thiscall CEikonEnv::SetInfoDialog(class MEikInfoDialog *)
	?SetLastUsedFileL@CEikProcess@@QBEXW4TLastUsedFile@1@ABVTDesC16@@@Z @ 196 NONAME ; public: void __thiscall CEikProcess::SetLastUsedFileL(enum CEikProcess::TLastUsedFile,class TDesC16 const &)const 
	?SetMainStore@CEikProcess@@QAEXPAVCFileStore@@@Z @ 197 NONAME ; public: void __thiscall CEikProcess::SetMainStore(class CFileStore *)
	?SetQueryDialog@CEikonEnv@@QAEXPAVMEikInfoDialog@@@Z @ 198 NONAME ; public: void __thiscall CEikonEnv::SetQueryDialog(class MEikInfoDialog *)
	?SetRequestInfoDialogFunc@CEikonEnv@@QAEXP6AXXZ@Z @ 199 NONAME ; public: void __thiscall CEikonEnv::SetRequestInfoDialogFunc(void (__cdecl*)(void))
	?SetRequestQueryDialogFunc@CEikonEnv@@QAEXP6AXXZ@Z @ 200 NONAME ; public: void __thiscall CEikonEnv::SetRequestQueryDialogFunc(void (__cdecl*)(void))
	?SetRespondsToShutdownEvent@CEikonEnv@@QAEXH@Z @ 201 NONAME ; public: void __thiscall CEikonEnv::SetRespondsToShutdownEvent(int)
	?SetRespondsToSwitchFilesEvent@CEikonEnv@@QAEXH@Z @ 202 NONAME ; public: void __thiscall CEikonEnv::SetRespondsToSwitchFilesEvent(int)
	?SetSystem@CEikonEnv@@QAEXH@Z @ 203 NONAME ; public: void __thiscall CEikonEnv::SetSystem(int)
	?OptionBitmap@CEikonEnv@@QBEPBVCFbsBitmap@@XZ @ 204 NONAME ; public: class CFbsBitmap const * __thiscall CEikonEnv::OptionBitmap(void)const 
	?SetToIniFileNameL@CEikApplication@@QBEXAAVTParse@@@Z @ 205 NONAME ; public: void __thiscall CEikApplication::SetToIniFileNameL(class TParse &)const 
	?SetVerboseInfoReporting@CEikonEnv@@QAEXH@Z @ 206 NONAME ; public: void __thiscall CEikonEnv::SetVerboseInfoReporting(int)
	?StartAppL@CEikonEnv@@EAE?AVTThreadId@@ABVCApaCommandLine@@@Z @ 207 NONAME ABSENT ; private: virtual class TThreadId  __thiscall CEikonEnv::StartAppL(class CApaCommandLine const &)
	?StartAppL@EikDll@@SA?AVTThreadId@@ABVCApaCommandLine@@@Z @ 208 NONAME ABSENT ; public: static class TThreadId  __cdecl EikDll::StartAppL(class CApaCommandLine const &)
	?StartDisplay@CEikMsgWin@@QAEXABVTDesC16@@VTGulAlignment@@@Z @ 209 NONAME ; void CEikMsgWin::StartDisplay(class TDesC16 const &, class TGulAlignment, int)
	?StartDisplaySpecifyingInitialDelay@CEikBusyMsgWin@@UAEXABVTDesC16@@VTGulAlignment@@VTTimeIntervalMicroSeconds32@@@Z @ 210 NONAME ; void CEikBusyMsgWin::StartDisplaySpecifyingInitialDelay(class TDesC16 const &, class TGulAlignment, class TTimeIntervalMicroSeconds32)
	?StartDocL@EikDll@@SAXABVTDesC16@@@Z @ 211 NONAME ABSENT ; public: static void __cdecl EikDll::StartDocL(class TDesC16 const &)
	?StartExeL@EikDll@@SA?AVTThreadId@@ABVTDesC16@@@Z @ 212 NONAME ABSENT ; public: static class TThreadId  __cdecl EikDll::StartExeL(class TDesC16 const &)
	?StopDisplayingMenuBar@CEikAppUi@@UAEXXZ @ 213 NONAME ; void CEikAppUi::StopDisplayingMenuBar(void)
	?StoreL@CEikDebugPreferences@@QAEXAAVRFs@@@Z @ 214 NONAME ; public: void __thiscall CEikDebugPreferences::StoreL(class RFs &)
	?StoreL@CEikDocument@@UBEXAAVCStreamStore@@AAVCStreamDictionary@@@Z @ 215 NONAME ; public: virtual void __thiscall CEikDocument::StoreL(class CStreamStore &,class CStreamDictionary &)const 
	?SystemCharFormatLayerL@CEikonEnv@@QAEPAVCCharFormatLayer@@XZ @ 216 NONAME ; public: class CCharFormatLayer * __thiscall CEikonEnv::SystemCharFormatLayerL(void)
	?SystemParaFormatLayerL@CEikonEnv@@QAEPAVCParaFormatLayer@@XZ @ 217 NONAME ; public: class CParaFormatLayer * __thiscall CEikonEnv::SystemParaFormatLayerL(void)
	?SystemSingleLineParaFormatLayerL@CEikonEnv@@QAEPAVCParaFormatLayer@@XZ @ 218 NONAME ; public: class CParaFormatLayer * __thiscall CEikonEnv::SystemSingleLineParaFormatLayerL(void)
	?UpdateTaskNameL@CEikDocument@@UAEXPAVCApaWindowGroupName@@@Z @ 219 NONAME ; public: virtual void __thiscall CEikDocument::UpdateTaskNameL(class CApaWindowGroupName *)
	?UpdateTaskNameL@CEikonEnv@@QAEXXZ @ 220 NONAME ; public: void __thiscall CEikonEnv::UpdateTaskNameL(void)
	?ValidFileType@CEikAppUi@@EBEHVTUid@@@Z @ 221 NONAME ; private: virtual int __thiscall CEikAppUi::ValidFileType(class TUid)const 
	?ValidateFolderNameTypedByUserL@EikFileUtils@@SA?AV?$TBuf@$0BAA@@@ABVTDesC16@@0@Z @ 222 NONAME ; public: static class TBuf<256>  __cdecl EikFileUtils::ValidateFolderNameTypedByUserL(class TDesC16 const &,class TDesC16 const &)
	?VerboseInfoMsg@CEikonEnv@@QAEXABVTDesC16@@@Z @ 223 NONAME ; public: void __thiscall CEikonEnv::VerboseInfoMsg(class TDesC16 const &)
	?Version@CEikonEnv@@SA?AVTVersion@@XZ @ 224 NONAME ; public: static class TVersion  __cdecl CEikonEnv::Version(void)
	?WservAllocInfoMsg@CEikonEnv@@QAEXXZ @ 225 NONAME ; public: void __thiscall CEikonEnv::WservAllocInfoMsg(void)
	?Reserved_1_MenuObserver@MEikAutoMenuObserver@@EAEXXZ @ 226 NONAME ; private: virtual void __thiscall MEikAutoMenuObserver::Reserved_1_MenuObserver(void)
	?Reserved_1_MenuObserver@MEikMenuObserver@@EAEXXZ @ 227 NONAME ; private: virtual void __thiscall MEikMenuObserver::Reserved_1_MenuObserver(void)
	?FadeWhenInBackground@CEikAppUi@@QAEHXZ @ 228 NONAME ; public: int __thiscall CEikAppUi::FadeWhenInBackground(void)
	?HandleForegroundEventL@CEikAppUi@@MAEXH@Z @ 229 NONAME ; protected: virtual void __thiscall CEikAppUi::HandleForegroundEventL(int)
	?SetExtension@CEikonEnv@@QAEXPAVCBase@@@Z @ 230 NONAME ; public: void __thiscall CEikonEnv::SetExtension(class CBase *)
	??1CEikAutoMenuTitle@@UAE@XZ @ 231 NONAME ; public: virtual __thiscall CEikAutoMenuTitle::~CEikAutoMenuTitle(void)
	?AddAutoMenuTitleL@CEikonEnv@@QAEXPAVCEikAutoMenuTitle@@@Z @ 232 NONAME ; public: void __thiscall CEikonEnv::AddAutoMenuTitleL(class CEikAutoMenuTitle *)
	?ApplicationRect@CEikAppUi@@UBE?AVTRect@@XZ @ 233 NONAME ; class TRect CEikAppUi::ApplicationRect(void) const
	?SetEmphasis@MEikAutoMenuObserver@@UAEXPAVCCoeControl@@H@Z @ 234 NONAME ; public: virtual void __thiscall MEikAutoMenuObserver::SetEmphasis(class CCoeControl *,int)
	?NewLC@CEikAutoMenuTitle@@SAPAV1@W4TTitlePos@1@ABVTDesC16@@AAVMEikAutoMenuObserver@@HPAVCGulIcon@@@Z @ 235 NONAME ; public: static class CEikAutoMenuTitle * __cdecl CEikAutoMenuTitle::NewLC(enum CEikAutoMenuTitle::TTitlePos,class TDesC16 const &,class MEikAutoMenuObserver &,int,class CGulIcon *)
	?CursorState@TEikVirtualCursor@@QAE?AW4TState@1@AAVCCoeEnv@@@Z @ 236 NONAME ; public: enum TEikVirtualCursor::TState  __thiscall TEikVirtualCursor::CursorState(class CCoeEnv &)
	?ReportResourceChangedToAppL@CEikAppUi@@UAEXH@Z @ 237 NONAME ; void CEikAppUi::ReportResourceChangedToAppL(int)
	?SetCursorStateL@TEikVirtualCursor@@QAEXW4TState@1@AAVCCoeEnv@@@Z @ 238 NONAME ; public: void __thiscall TEikVirtualCursor::SetCursorStateL(enum TEikVirtualCursor::TState,class CCoeEnv &)
	?SaveToDirectFileStoreL@CEikProcess@@QAEXPAVCEikDocument@@PBV?$TBuf@$0BAA@@@HPAV3@@Z @ 239 NONAME ; public: void __thiscall CEikProcess::SaveToDirectFileStoreL(class CEikDocument *,class TBuf<256> const *,int,class TBuf<256> *)
	?AnnotationFont@CEikonEnv@@QBEPBVCFont@@XZ @ 240 NONAME ; public: class CFont const * __thiscall CEikonEnv::AnnotationFont(void)const 
	?DenseFont@CEikonEnv@@QBEPBVCFont@@XZ @ 241 NONAME ; public: class CFont const * __thiscall CEikonEnv::DenseFont(void)const 
	?Font@CEikonEnv@@QBEPBVCFont@@ABVTLogicalFont@@@Z @ 242 NONAME ; public: class CFont const * __thiscall CEikonEnv::Font(class TLogicalFont const &)const 
	?LegendFont@CEikonEnv@@QBEPBVCFont@@XZ @ 243 NONAME ; public: class CFont const * __thiscall CEikonEnv::LegendFont(void)const 
	?SymbolFont@CEikonEnv@@QBEPBVCFont@@XZ @ 244 NONAME ; public: class CFont const * __thiscall CEikonEnv::SymbolFont(void)const 
	?TitleFont@CEikonEnv@@QBEPBVCFont@@XZ @ 245 NONAME ; public: class CFont const * __thiscall CEikonEnv::TitleFont(void)const 
	?PostAppUiInitializeL@CEikLibrary@@UAEXXZ @ 246 NONAME ; public: virtual void __thiscall CEikLibrary::PostAppUiInitializeL(void)
	?Bitmap@CEikonEnv@@QBEPBVCFbsBitmap@@VTUid@@@Z @ 247 NONAME ; public: class CFbsBitmap const * __thiscall CEikonEnv::Bitmap(class TUid)const 
	?GrayBitmap@CEikonEnv@@QBEPBVCFbsBitmap@@XZ @ 248 NONAME ; public: class CFbsBitmap const * __thiscall CEikonEnv::GrayBitmap(void)const 
	?HighlightedOptionBitmap@CEikonEnv@@QBEPBVCFbsBitmap@@XZ @ 249 NONAME ; public: class CFbsBitmap const * __thiscall CEikonEnv::HighlightedOptionBitmap(void)const 
	?LafEnv@CEikonEnv@@QBEAAVMLafEnv@@XZ @ 250 NONAME ; public: class MLafEnv & __thiscall CEikonEnv::LafEnv(void)const 
	?HandleWsEventL@CEikAppUi@@MAEXABVTWsEvent@@PAVCCoeControl@@@Z @ 251 NONAME ; protected: virtual void __thiscall CEikAppUi::HandleWsEventL(class TWsEvent const &,class CCoeControl *)
	?TexturedBitmap@CEikonEnv@@QBEPBVCFbsBitmap@@XZ @ 252 NONAME ; public: class CFbsBitmap const * __thiscall CEikonEnv::TexturedBitmap(void)const 
	?SaveL@CEikDocument@@UAEXW4TSaveType@MSaveObserver@@@Z @ 253 NONAME ; public: virtual void __thiscall CEikDocument::SaveL(enum MSaveObserver::TSaveType)
	?PrepareToExit@CEikAppUi@@UAEXXZ @ 254 NONAME ; public: virtual void __thiscall CEikAppUi::PrepareToExit(void)
	?SetFadedL@CEikAppUi@@UAEXH@Z @ 255 NONAME ; void CEikAppUi::SetFadedL(int)
	?StartDisplaySpecifyingDuration@CEikInfoMsgWin@@UAEXABVTDesC16@@VTGulAlignment@@VTTimeIntervalMicroSeconds32@@@Z @ 256 NONAME ; void CEikInfoMsgWin::StartDisplaySpecifyingDuration(class TDesC16 const &, class TGulAlignment, class TTimeIntervalMicroSeconds32)
	?InfoMsgWithAlignmentAndDuration@CEikonEnv@@QAAXVTGulAlignment@@HVTTimeIntervalMicroSeconds32@@ZZ @ 257 NONAME ; public: void __cdecl CEikonEnv::InfoMsgWithAlignmentAndDuration(class TGulAlignment,int,class TTimeIntervalMicroSeconds32,...)
	?InfoMsgWithAlignmentAndDuration@CEikonEnv@@QAEXVTGulAlignment@@ABVTDesC16@@VTTimeIntervalMicroSeconds32@@@Z @ 258 NONAME ; public: void __thiscall CEikonEnv::InfoMsgWithAlignmentAndDuration(class TGulAlignment,class TDesC16 const &,class TTimeIntervalMicroSeconds32)
	?InfoMsgWithAlignmentAndDuration@CEikonEnv@@QAEXVTGulAlignment@@HVTTimeIntervalMicroSeconds32@@QAPAC@Z @ 259 NONAME ; public: void __thiscall CEikonEnv::InfoMsgWithAlignmentAndDuration(class TGulAlignment,int,class TTimeIntervalMicroSeconds32,signed char * * const)
	?InfoMsgWithDuration@CEikonEnv@@QAAXHVTTimeIntervalMicroSeconds32@@ZZ @ 260 NONAME ; public: void __cdecl CEikonEnv::InfoMsgWithDuration(int,class TTimeIntervalMicroSeconds32,...)
	?InfoMsgWithDuration@CEikonEnv@@QAEXABVTDesC16@@VTTimeIntervalMicroSeconds32@@@Z @ 261 NONAME ; public: void __thiscall CEikonEnv::InfoMsgWithDuration(class TDesC16 const &,class TTimeIntervalMicroSeconds32)
	?InfoMsgWithDuration@CEikonEnv@@QAEXHVTTimeIntervalMicroSeconds32@@QAPAC@Z @ 262 NONAME ; public: void __thiscall CEikonEnv::InfoMsgWithDuration(int,class TTimeIntervalMicroSeconds32,signed char * * const)
	?WriteInternalStateOfStackedControlsL@CEikonEnv@@QAEXXZ @ 263 NONAME ; public: void __thiscall CEikonEnv::WriteInternalStateOfStackedControlsL(void)
	??0CEikMsgWin@@IAE@AAVCEikonEnv@@@Z @ 264 NONAME ; protected: __thiscall CEikMsgWin::CEikMsgWin(class CEikonEnv &)
	?Cancel@EikBubbleHelp@@SAXXZ @ 265 NONAME ; public: static void __cdecl EikBubbleHelp::Cancel(void)
	?CancelTrigger@EikBubbleHelp@@SAXXZ @ 266 NONAME ; public: static void __cdecl EikBubbleHelp::CancelTrigger(void)
	?IsDisplaying@EikBubbleHelp@@SAHH@Z @ 267 NONAME ; public: static int __cdecl EikBubbleHelp::IsDisplaying(int)
	?MEikTriggeredHelp_Reserved_1@MEikTriggeredHelp@@MAEXXZ @ 268 NONAME ; protected: virtual void __thiscall MEikTriggeredHelp::MEikTriggeredHelp_Reserved_1(void)
	?MEikTriggeredHelp_Reserved_2@MEikTriggeredHelp@@MAEXXZ @ 269 NONAME ; protected: virtual void __thiscall MEikTriggeredHelp::MEikTriggeredHelp_Reserved_2(void)
	?SetTriggeredHelpL@CEikBubbleHelp@@SAXPAVMEikTriggeredHelp@@@Z @ 270 NONAME ; public: static void __cdecl CEikBubbleHelp::SetTriggeredHelpL(class MEikTriggeredHelp *)
	?Trigger@EikBubbleHelp@@SAXABVTDesC16@@ABVTRect@@H@Z @ 271 NONAME ; public: static void __cdecl EikBubbleHelp::Trigger(class TDesC16 const &,class TRect const &,int)
	?AddPictureFactoryL@CEikonEnv@@QAEXAAVMEikPictureFactory@@@Z @ 272 NONAME ; public: void __thiscall CEikonEnv::AddPictureFactoryL(class MEikPictureFactory &)
	?ExtendedPictureFactory@CEikonEnv@@QBEPAVMEikPictureFactory@@VTUid@@@Z @ 273 NONAME ; public: class MEikPictureFactory * __thiscall CEikonEnv::ExtendedPictureFactory(class TUid)const 
	?Id@MEikPictureFactory@@UBE?AVTUid@@XZ @ 274 NONAME ; public: virtual class TUid  __thiscall MEikPictureFactory::Id(void)const 
	?MEikPictureFactory_Reserved_1@MEikPictureFactory@@EAEXXZ @ 275 NONAME ; private: virtual void __thiscall MEikPictureFactory::MEikPictureFactory_Reserved_1(void)
	?RemovePictureFactory@CEikonEnv@@QAEXVTUid@@@Z @ 276 NONAME ; public: void __thiscall CEikonEnv::RemovePictureFactory(class TUid)
	?MEikPictureFactory_Reserved_2@MEikPictureFactory@@EAEXXZ @ 277 NONAME ; private: virtual void __thiscall MEikPictureFactory::MEikPictureFactory_Reserved_2(void)
	?AppUiFactory@CEikonEnv@@QBEPAVMEikAppUiFactory@@ABVCEikAppUi@@@Z @ 278 NONAME ; public: class MEikAppUiFactory * __thiscall CEikonEnv::AppUiFactory(class CEikAppUi const &)const 
	?GetErrorText@CEikonEnv@@QBE?AW4TErrorValidity@1@AAVTDes16@@HVTUid@@@Z @ 279 NONAME ; public: enum CEikonEnv::TErrorValidity  __thiscall CEikonEnv::GetErrorText(class TDes16 &,int,class TUid)const 
	?DoGetErrorText@CEikonEnv@@QBEXAAVTDes16@@H@Z @ 280 NONAME ; public: void __thiscall CEikonEnv::DoGetErrorText(class TDes16 &,int)const 
	?ResolveError@CEikonEnv@@QBEXHVTUid@@@Z @ 281 NONAME ; public: void __thiscall CEikonEnv::ResolveError(int,class TUid)const 
	?NewL@CEikDebugPreferences@@SAPAV1@XZ @ 282 NONAME ; public: static class CEikDebugPreferences * __cdecl CEikDebugPreferences::NewL(void)
	?New@CEikDebugPreferences@@SAPAV1@XZ @ 283 NONAME ; public: static class CEikDebugPreferences * __cdecl CEikDebugPreferences::New(void)
	?Restore@CEikDebugPreferences@@QAEHAAVRFs@@@Z @ 284 NONAME ; public: int __thiscall CEikDebugPreferences::Restore(class RFs &)
	?InfoDialog@CEikonEnv@@QBEPAVMEikInfoDialog@@XZ @ 285 NONAME ; public: class MEikInfoDialog * __thiscall CEikonEnv::InfoDialog(void)const 
	?QueryDialog@CEikonEnv@@QBEPAVMEikInfoDialog@@XZ @ 286 NONAME ; public: class MEikInfoDialog * __thiscall CEikonEnv::QueryDialog(void)const 
	??0CEikStatusPaneBase@@IAE@AAVCEikonEnv@@PAVRWindowGroup@@@Z @ 287 NONAME ABSENT ; protected: __thiscall CEikStatusPaneBase::CEikStatusPaneBase(class CEikonEnv &,class RWindowGroup *)
	??0CEikStatusPaneModelBase@@IAE@AAVCEikonEnv@@@Z @ 288 NONAME ABSENT ; protected: __thiscall CEikStatusPaneModelBase::CEikStatusPaneModelBase(class CEikonEnv &)
	??1CEikStatusPane@@UAE@XZ @ 289 NONAME ABSENT ; public: virtual __thiscall CEikStatusPane::~CEikStatusPane(void)
	??1CEikStatusPaneBase@@UAE@XZ @ 290 NONAME ABSENT ; public: virtual __thiscall CEikStatusPaneBase::~CEikStatusPaneBase(void)
	??1CEikStatusPaneModelBase@@UAE@XZ @ 291 NONAME ABSENT ; public: virtual __thiscall CEikStatusPaneModelBase::~CEikStatusPaneModelBase(void)
	?ApplyCurrentSettingsL@CEikStatusPane@@QAEXXZ @ 292 NONAME ABSENT ; public: void __thiscall CEikStatusPane::ApplyCurrentSettingsL(void)
	?BaseConstructL@CEikStatusPaneBase@@IAEXH@Z @ 293 NONAME ABSENT ; protected: void __thiscall CEikStatusPaneBase::BaseConstructL(int)
	?BaseConstructL@CEikStatusPaneModelBase@@IAEXH@Z @ 294 NONAME ABSENT ; protected: void __thiscall CEikStatusPaneModelBase::BaseConstructL(int)
	?ContainerControlL@CEikStatusPaneBase@@QBEPAVCCoeControl@@VTUid@@@Z @ 295 NONAME ABSENT ; public: class CCoeControl * __thiscall CEikStatusPaneBase::ContainerControlL(class TUid)const 
	?ControlL@CEikStatusPaneBase@@QBEPAVCCoeControl@@VTUid@@@Z @ 296 NONAME ABSENT ; public: class CCoeControl * __thiscall CEikStatusPaneBase::ControlL(class TUid)const 
	?Current@CEikStatusPaneBase@@SAPAV1@XZ @ 297 NONAME ABSENT ; public: static class CEikStatusPaneBase * __cdecl CEikStatusPaneBase::Current(void)
	?GetShapeL@CEikStatusPaneBase@@QBEXAAVTRegion@@HH@Z @ 298 NONAME ABSENT ; public: void __thiscall CEikStatusPaneBase::GetShapeL(class TRegion &,int,int)const 
	?HandleResourceChange@CEikStatusPane@@UAEXH@Z @ 299 NONAME ABSENT ; public: virtual void __thiscall CEikStatusPane::HandleResourceChange(int)
	?HandleResourceChange@CEikStatusPaneBase@@UAEXH@Z @ 300 NONAME ABSENT ; public: virtual void __thiscall CEikStatusPaneBase::HandleResourceChange(int)
	?IsDimmed@CEikStatusPaneBase@@QBEHXZ @ 301 NONAME ABSENT ; public: int __thiscall CEikStatusPaneBase::IsDimmed(void)const 
	?IsFaded@CEikStatusPaneBase@@QBEHXZ @ 302 NONAME ABSENT ; public: int __thiscall CEikStatusPaneBase::IsFaded(void)const 
	?IsVisible@CEikStatusPaneBase@@QBEHXZ @ 303 NONAME ABSENT ; public: int __thiscall CEikStatusPaneBase::IsVisible(void)const 
	?LoadLayoutL@CEikStatusPaneModelBase@@IAEPAVCEikStatusPaneLayout@@H@Z @ 304 NONAME ABSENT ; protected: class CEikStatusPaneLayout * __thiscall CEikStatusPaneModelBase::LoadLayoutL(int)
	?MakeVisible@CEikStatusPane@@UAEXH@Z @ 305 NONAME ABSENT ; public: virtual void __thiscall CEikStatusPane::MakeVisible(int)
	?MakeVisible@CEikStatusPaneBase@@UAEXH@Z @ 306 NONAME ABSENT ; public: virtual void __thiscall CEikStatusPaneBase::MakeVisible(int)
	?NewL@CEikStatusPane@@SAPAV1@AAVCEikonEnv@@PAVRWindowGroup@@HH@Z @ 307 NONAME ABSENT ; public: static class CEikStatusPane * __cdecl CEikStatusPane::NewL(class CEikonEnv &,class RWindowGroup *,int,int)
	?PaneCapabilities@CEikStatusPaneBase@@QBE?AVTPaneCapabilities@1@VTUid@@@Z @ 308 NONAME ABSENT ; public: class CEikStatusPaneBase::TPaneCapabilities  __thiscall CEikStatusPaneBase::PaneCapabilities(class TUid)const 
	?PaneRectL@CEikStatusPaneBase@@QBE?AVTRect@@VTUid@@@Z @ 309 NONAME ABSENT ; public: class TRect  __thiscall CEikStatusPaneBase::PaneRectL(class TUid)const 
	?ReduceRect@CEikStatusPaneBase@@QBEXAAVTRect@@@Z @ 310 NONAME ABSENT ; public: void __thiscall CEikStatusPaneBase::ReduceRect(class TRect &)const 
	?Reserved_1@CEikStatusPaneModelBase@@EAEXXZ @ 311 NONAME ABSENT ; private: virtual void __thiscall CEikStatusPaneModelBase::Reserved_1(void)
	?SetDimmed@CEikStatusPane@@UAEXH@Z @ 312 NONAME ABSENT ; public: virtual void __thiscall CEikStatusPane::SetDimmed(int)
	?SetDimmed@CEikStatusPaneBase@@UAEXH@Z @ 313 NONAME ABSENT ; public: virtual void __thiscall CEikStatusPaneBase::SetDimmed(int)
	?SetFaded@CEikStatusPane@@UAEXH@Z @ 314 NONAME ABSENT ; public: virtual void __thiscall CEikStatusPane::SetFaded(int)
	?SetFaded@CEikStatusPaneBase@@UAEXH@Z @ 315 NONAME ABSENT ; public: virtual void __thiscall CEikStatusPaneBase::SetFaded(int)
	?SetFlags@CEikStatusPaneBase@@QAEXH@Z @ 316 NONAME ABSENT ; public: void __thiscall CEikStatusPaneBase::SetFlags(int)
	?SetLayoutL@CEikStatusPaneModelBase@@UAEXHH@Z @ 317 NONAME ABSENT ; public: virtual void __thiscall CEikStatusPaneModelBase::SetLayoutL(int,int)
	?SwapControlL@CEikStatusPaneBase@@QAEPAVCCoeControl@@VTUid@@PAV2@@Z @ 318 NONAME ABSENT ; public: class CCoeControl * __thiscall CEikStatusPaneBase::SwapControlL(class TUid,class CCoeControl *)
	?SwitchLayoutL@CEikStatusPaneBase@@UAEXH@Z @ 319 NONAME ABSENT ; public: virtual void __thiscall CEikStatusPaneBase::SwitchLayoutL(int)
	?ConstructL@CEikEmbeddableAppList@@QAEXABVTApaEmbeddabilityFilter@@@Z @ 320 NONAME ; public: void __thiscall CEikEmbeddableAppList::ConstructL(class TApaEmbeddabilityFilter const &)
	?ConstructAppFromCommandLineL@CEikonEnv@@QAEXABVTApaApplicationFactory@@ABVCApaCommandLine@@@Z @ 321 NONAME ; void CEikonEnv::ConstructAppFromCommandLineL(class TApaApplicationFactory const &, class CApaCommandLine const &)
	?RunApplication@EikStart@@SAHVTApaApplicationFactory@@@Z @ 322 NONAME ; int EikStart::RunApplication(class TApaApplicationFactory)
	?RunApplication@EikStart@@SAHVTApaApplicationFactory@@PBVTDesC16@@@Z @ 323 NONAME ABSENT ; int EikStart::RunApplication(class TApaApplicationFactory, class TDesC16 const *)
	??1CEikLibrary2@@UAE@XZ @ 324 NONAME ; CEikLibrary2::~CEikLibrary2(void)
	?LoadLibraryL@CEikLibrary2@@SAPAV1@VTUid@@@Z @ 325 NONAME ; class CEikLibrary2 * CEikLibrary2::LoadLibraryL(class TUid)
	?CreateSystemColorListL@CEikonEnv@@QAEPAVCColorList@@ABV2@@Z @ 326 NONAME ; class CColorList * CEikonEnv::CreateSystemColorListL(class CColorList const &)
	?CreateSystemColorListL@CEikonEnv@@QAEPAVCColorList@@XZ @ 327 NONAME ; class CColorList * CEikonEnv::CreateSystemColorListL(void)
	?UpdateSystemColorListL@CEikonEnv@@QAEXABVCColorList@@@Z @ 328 NONAME ; void CEikonEnv::UpdateSystemColorListL(class CColorList const &)
	?CreateSystemColorListL@ColorUtils@@SAPAVCColorList@@AAVRFs@@@Z @ 329 NONAME ; class CColorList * ColorUtils::CreateSystemColorListL(class RFs &)
	?CreateSystemColorListL@ColorUtils@@SAPAVCColorList@@AAVRFs@@ABV2@@Z @ 330 NONAME ; class CColorList * ColorUtils::CreateSystemColorListL(class RFs &, class CColorList const &)
	?UpdateSystemColorListL@ColorUtils@@SAXAAVRFs@@AAVCColorList@@@Z @ 331 NONAME ; void ColorUtils::UpdateSystemColorListL(class RFs &, class CColorList &)
	?InstallL@CEikEnvDataStorage@@SAXXZ @ 332 NONAME ABSENT ; public: static void __cdecl CEikEnvDataStorage::InstallL(void)
	?ApplicationLanguageL@CEikAppUi@@QBE?AW4TLanguage@@XZ @ 333 NONAME ; enum TLanguage CEikAppUi::ApplicationLanguageL(void) const
	?AppServer@CEikonEnv@@QBEPAVCEikAppServer@@XZ @ 334 NONAME ; class CEikAppServer * CEikonEnv::AppServer(void) const
	?Close@REikAppServiceBase@@QAEXXZ @ 335 NONAME ; void REikAppServiceBase::Close(void)
	?ConnectNewAppL@REikAppServiceBase@@QAEXVTUid@@@Z @ 336 NONAME ; void REikAppServiceBase::ConnectNewAppL(class TUid)
	?ConstructL@CEikAppServer@@UAEXABVTDesC16@@@Z @ 337 NONAME ; void CEikAppServer::ConstructL(class TDesC16 const &)
	?CreateServiceL@CEikAppServer@@UBEPAVCApaAppServiceBase@@VTUid@@@Z @ 338 NONAME ; class CApaAppServiceBase * CEikAppServer::CreateServiceL(class TUid) const
	?ExtensionInterface@CEikAppServer@@EAEXVTUid@@AAPAX@Z @ 339 NONAME ; void CEikAppServer::ExtensionInterface(class TUid, void * &)
	?ExtensionInterface@REikAppServiceBase@@EAEXVTUid@@AAPAX@Z @ 340 NONAME ; void REikAppServiceBase::ExtensionInterface(class TUid, void * &)
	?StartedAsServerApp@CEikonEnv@@QBEHXZ @ 341 NONAME ; int CEikonEnv::StartedAsServerApp(void) const
	?DismissTaskList@CEikonEnv@@QAEXXZ @ 342 NONAME ; void CEikonEnv::DismissTaskList(void)
	?MopNext@CEikAppUi@@MAEPAVMObjectProvider@@XZ @ 343 NONAME ; class MObjectProvider * CEikAppUi::MopNext(void)
	?MopSupplyObject@CEikAppUi@@MAE?AVPtr@TTypeUid@@V3@@Z @ 344 NONAME ; class TTypeUid::Ptr CEikAppUi::MopSupplyObject(class TTypeUid)
	?CancelDisplay@CEikInfoMsgWin@@UAEXXZ @ 345 NONAME ; void CEikInfoMsgWin::CancelDisplay(void)
	?ConstructL@CEikBusyMsgWin@@QAEXAAVRWindowGroup@@@Z @ 346 NONAME ; void CEikBusyMsgWin::ConstructL(class RWindowGroup &)
	?ConstructL@CEikInfoMsgWin@@QAEXAAVRWindowGroup@@H@Z @ 347 NONAME ; void CEikInfoMsgWin::ConstructL(class RWindowGroup &, int)
	?Release@CEikBusyMsgWin@@UAEXXZ @ 348 NONAME ; void CEikBusyMsgWin::Release(void)
	?Release@CEikInfoMsgWin@@UAEXXZ @ 349 NONAME ; void CEikInfoMsgWin::Release(void)
	?StartDisplay@CEikBusyMsgWin@@UAEXABVTDesC16@@VTGulAlignment@@@Z @ 350 NONAME ; void CEikBusyMsgWin::StartDisplay(class TDesC16 const &, class TGulAlignment)
	?StartDisplay@CEikInfoMsgWin@@UAEXABVTDesC16@@VTGulAlignment@@@Z @ 351 NONAME ; void CEikInfoMsgWin::StartDisplay(class TDesC16 const &, class TGulAlignment)
	?CEikonEnv_Reserved_10@CEikonEnv@@EAEXXZ @ 352 NONAME ; void CEikonEnv::CEikonEnv_Reserved_10(void)
	?CEikonEnv_Reserved_1@CEikonEnv@@EAEXXZ @ 353 NONAME ; void CEikonEnv::CEikonEnv_Reserved_1(void)
	?CEikonEnv_Reserved_2@CEikonEnv@@EAEXXZ @ 354 NONAME ; void CEikonEnv::CEikonEnv_Reserved_2(void)
	?CEikonEnv_Reserved_3@CEikonEnv@@EAEXXZ @ 355 NONAME ; void CEikonEnv::CEikonEnv_Reserved_3(void)
	?CEikonEnv_Reserved_4@CEikonEnv@@EAEXXZ @ 356 NONAME ; void CEikonEnv::CEikonEnv_Reserved_4(void)
	?CEikonEnv_Reserved_5@CEikonEnv@@EAEXXZ @ 357 NONAME ; void CEikonEnv::CEikonEnv_Reserved_5(void)
	?CEikonEnv_Reserved_6@CEikonEnv@@EAEXXZ @ 358 NONAME ; void CEikonEnv::CEikonEnv_Reserved_6(void)
	?CEikonEnv_Reserved_7@CEikonEnv@@EAEXXZ @ 359 NONAME ; void CEikonEnv::CEikonEnv_Reserved_7(void)
	?CEikonEnv_Reserved_8@CEikonEnv@@EAEXXZ @ 360 NONAME ; void CEikonEnv::CEikonEnv_Reserved_8(void)
	?CEikonEnv_Reserved_9@CEikonEnv@@EAEXXZ @ 361 NONAME ; void CEikonEnv::CEikonEnv_Reserved_9(void)
	?ProcessCommandParametersL@CEikAppUi@@UAEHAAVCApaCommandLine@@@Z @ 362 NONAME ; int CEikAppUi::ProcessCommandParametersL(class CApaCommandLine &)
	??0CEikStatusPaneBackground@@IAE@XZ @ 363 NONAME ABSENT ; CEikStatusPaneBackground::CEikStatusPaneBackground(void)
	??1CEikStatusPaneBackground@@UAE@XZ @ 364 NONAME ABSENT ; CEikStatusPaneBackground::~CEikStatusPaneBackground(void)
	?ConstructL@CEikStatusPaneBackground@@IAEXXZ @ 365 NONAME ABSENT ; void CEikStatusPaneBackground::ConstructL(void)
	?KeysOn@CEikDebugPreferences@@QBEHXZ @ 366 NONAME ; int CEikDebugPreferences::KeysOn(void) const
	?PopulateColorArrayL@CEikonEnv@@QAEPAVCColorList@@XZ @ 367 NONAME ; class CColorList * CEikonEnv::PopulateColorArrayL(void)
	?SetKeysOn@CEikDebugPreferences@@QAEXABH@Z @ 368 NONAME ; void CEikDebugPreferences::SetKeysOn(int const &)
	?UpdateSystemFontsL@CEikonEnv@@QAEXXZ @ 369 NONAME ; void CEikonEnv::UpdateSystemFontsL(void)
	?ConnectNewChildAppL@REikAppServiceBase@@QAEXVTUid@@AAVRWindowGroup@@@Z @ 370 NONAME ; void REikAppServiceBase::ConnectNewChildAppL(class TUid, class RWindowGroup &)
	?ConstructL@CEikonEnv@@QAEXHH@Z @ 371 NONAME ; void CEikonEnv::ConstructL(int, int)
	??0CEikDocument@@IAE@XZ @ 372 NONAME ; CEikDocument::CEikDocument(void)
	??0MEikAutoMenuObserver@@IAE@XZ @ 373 NONAME ; MEikAutoMenuObserver::MEikAutoMenuObserver(void)
	??0MEikCDlgDialogFactory@@IAE@XZ @ 374 NONAME ; MEikCDlgDialogFactory::MEikCDlgDialogFactory(void)
	??0MEikCommandObserver@@IAE@XZ @ 375 NONAME ; MEikCommandObserver::MEikCommandObserver(void)
	??0MEikFileDialogFactory@@IAE@XZ @ 376 NONAME ; MEikFileDialogFactory::MEikFileDialogFactory(void)
	??0MEikMenuObserver@@IAE@XZ @ 377 NONAME ; MEikMenuObserver::MEikMenuObserver(void)
	??0MEikPrintDialogFactory@@IAE@XZ @ 378 NONAME ; MEikPrintDialogFactory::MEikPrintDialogFactory(void)
	?CEikApplication_Reserved1@CEikApplication@@EAEXXZ @ 379 NONAME ; void CEikApplication::CEikApplication_Reserved1(void)
	?CEikApplication_Reserved2@CEikApplication@@EAEXXZ @ 380 NONAME ; void CEikApplication::CEikApplication_Reserved2(void)
	?CEikBusyMsgWin_Reserved1@CEikBusyMsgWin@@EAEXXZ @ 381 NONAME ; void CEikBusyMsgWin::CEikBusyMsgWin_Reserved1(void)
	?CEikBusyMsgWin_Reserved2@CEikBusyMsgWin@@EAEXXZ @ 382 NONAME ; void CEikBusyMsgWin::CEikBusyMsgWin_Reserved2(void)
	?CEikEmbeddableAppList_Reserved1@CEikEmbeddableAppList@@EAEXXZ @ 383 NONAME ; void CEikEmbeddableAppList::CEikEmbeddableAppList_Reserved1(void)
	?CEikEmbeddableAppList_Reserved2@CEikEmbeddableAppList@@EAEXXZ @ 384 NONAME ; void CEikEmbeddableAppList::CEikEmbeddableAppList_Reserved2(void)
	?CEikInfoMsgWin_Reserved1@CEikInfoMsgWin@@EAEXXZ @ 385 NONAME ; void CEikInfoMsgWin::CEikInfoMsgWin_Reserved1(void)
	?CEikInfoMsgWin_Reserved2@CEikInfoMsgWin@@EAEXXZ @ 386 NONAME ; void CEikInfoMsgWin::CEikInfoMsgWin_Reserved2(void)
	?CEikMsgWin_Reserved1@CEikBusyMsgWin@@EAEXXZ @ 387 NONAME ; void CEikBusyMsgWin::CEikMsgWin_Reserved1(void)
	?CEikMsgWin_Reserved1@CEikInfoMsgWin@@EAEXXZ @ 388 NONAME ; void CEikInfoMsgWin::CEikMsgWin_Reserved1(void)
	?CEikMsgWin_Reserved1@CEikMsgWin@@EAEXXZ @ 389 NONAME ; void CEikMsgWin::CEikMsgWin_Reserved1(void)
	?CEikMsgWin_Reserved2@CEikBusyMsgWin@@EAEXXZ @ 390 NONAME ; void CEikBusyMsgWin::CEikMsgWin_Reserved2(void)
	?CEikMsgWin_Reserved2@CEikInfoMsgWin@@EAEXXZ @ 391 NONAME ; void CEikInfoMsgWin::CEikMsgWin_Reserved2(void)
	?CEikMsgWin_Reserved2@CEikMsgWin@@EAEXXZ @ 392 NONAME ; void CEikMsgWin::CEikMsgWin_Reserved2(void)
	?CheckHotKeyNotDimmedL@MEikAutoMenuObserver@@UAEHH@Z @ 393 NONAME ; int MEikAutoMenuObserver::CheckHotKeyNotDimmedL(int)
	?CreateCustomCommandControlL@MEikAutoMenuObserver@@UAEPAVCCoeControl@@H@Z @ 394 NONAME ; class CCoeControl * MEikAutoMenuObserver::CreateCustomCommandControlL(int)
	?CreateCustomCommandControlL@MEikMenuObserver@@UAEPAVCCoeControl@@H@Z @ 395 NONAME ; class CCoeControl * MEikMenuObserver::CreateCustomCommandControlL(int)
	?CreateServiceSecurityCheckL@CEikAppServer@@UAE?AW4TCustomResult@CPolicyServer@@VTUid@@ABVRMessage2@@AAHAAVTSecurityInfo@@@Z @ 396 NONAME ; enum CPolicyServer::TCustomResult CEikAppServer::CreateServiceSecurityCheckL(class TUid, class RMessage2 const &, int &, class TSecurityInfo &)
	?DynInitMenuBarL@MEikAutoMenuObserver@@UAEXHPAVCEikMenuBar@@@Z @ 397 NONAME ; void MEikAutoMenuObserver::DynInitMenuBarL(int, class CEikMenuBar *)
	?DynInitMenuPaneL@MEikAutoMenuObserver@@UAEXHPAVCEikMenuPane@@@Z @ 398 NONAME ; void MEikAutoMenuObserver::DynInitMenuPaneL(int, class CEikMenuPane *)
	?HandleAttemptDimmedSelectionL@MEikAutoMenuObserver@@UAEXH@Z @ 399 NONAME ; void MEikAutoMenuObserver::HandleAttemptDimmedSelectionL(int)
	?HandleSideBarMenuL@MEikAutoMenuObserver@@UAEXHABVTPoint@@HPBVCEikHotKeyTable@@@Z @ 400 NONAME ; void MEikAutoMenuObserver::HandleSideBarMenuL(int, class TPoint const &, int, class CEikHotKeyTable const *)
	?MEikCDlgDialogFactory_Reserved1@MEikCDlgDialogFactory@@EAEXXZ @ 401 NONAME ; void MEikCDlgDialogFactory::MEikCDlgDialogFactory_Reserved1(void)
	?MEikCDlgDialogFactory_Reserved2@MEikCDlgDialogFactory@@EAEXXZ @ 402 NONAME ; void MEikCDlgDialogFactory::MEikCDlgDialogFactory_Reserved2(void)
	?MEikCommandObserver_Reserved1@MEikAutoMenuObserver@@EAEXXZ @ 403 NONAME ; void MEikAutoMenuObserver::MEikCommandObserver_Reserved1(void)
	?MEikCommandObserver_Reserved1@MEikCommandObserver@@EAEXXZ @ 404 NONAME ; void MEikCommandObserver::MEikCommandObserver_Reserved1(void)
	?MEikCommandObserver_Reserved1@MEikMenuObserver@@EAEXXZ @ 405 NONAME ; void MEikMenuObserver::MEikCommandObserver_Reserved1(void)
	?MEikCommandObserver_Reserved2@MEikAutoMenuObserver@@EAEXXZ @ 406 NONAME ; void MEikAutoMenuObserver::MEikCommandObserver_Reserved2(void)
	?MEikCommandObserver_Reserved2@MEikCommandObserver@@EAEXXZ @ 407 NONAME ; void MEikCommandObserver::MEikCommandObserver_Reserved2(void)
	?MEikCommandObserver_Reserved2@MEikMenuObserver@@EAEXXZ @ 408 NONAME ; void MEikMenuObserver::MEikCommandObserver_Reserved2(void)
	?MEikFileDialogFactory_Reserved1@MEikFileDialogFactory@@EAEXXZ @ 409 NONAME ; void MEikFileDialogFactory::MEikFileDialogFactory_Reserved1(void)
	?MEikFileDialogFactory_Reserved2@MEikFileDialogFactory@@EAEXXZ @ 410 NONAME ; void MEikFileDialogFactory::MEikFileDialogFactory_Reserved2(void)
	?MEikPrintDialogFactory_Reserved1@MEikPrintDialogFactory@@EAEXXZ @ 411 NONAME ; void MEikPrintDialogFactory::MEikPrintDialogFactory_Reserved1(void)
	?MEikPrintDialogFactory_Reserved2@MEikPrintDialogFactory@@EAEXXZ @ 412 NONAME ; void MEikPrintDialogFactory::MEikPrintDialogFactory_Reserved2(void)
	?OfferKeyToAppL@MEikAutoMenuObserver@@UAEXABUTKeyEvent@@W4TEventCode@@@Z @ 413 NONAME ; void MEikAutoMenuObserver::OfferKeyToAppL(struct TKeyEvent const &, enum TEventCode)
	?Reserved_2_MenuObserver@MEikAutoMenuObserver@@EAEXXZ @ 414 NONAME ; void MEikAutoMenuObserver::Reserved_2_MenuObserver(void)
	?Reserved_2_MenuObserver@MEikMenuObserver@@EAEXXZ @ 415 NONAME ; void MEikMenuObserver::Reserved_2_MenuObserver(void)
	?RestoreMenuL@MEikAutoMenuObserver@@UAEXPAVCCoeControl@@HW4TMenuType@MEikMenuObserver@@@Z @ 416 NONAME ; void MEikAutoMenuObserver::RestoreMenuL(class CCoeControl *, int, enum MEikMenuObserver::TMenuType)
	?ReportResourceChangedToAppStackL@CEikAppUi@@QAEXPAV1@H@Z @ 417 NONAME ; void CEikAppUi::ReportResourceChangedToAppStackL(class CEikAppUi *, int)
	?MEikAlertWin_Reserved2@MEikAlertWin@@EAEXXZ @ 418 NONAME ; void MEikAlertWin::MEikAlertWin_Reserved2(void)
	?MEikAlertWin_Reserved3@MEikAlertWin@@EAEXXZ @ 419 NONAME ; void MEikAlertWin::MEikAlertWin_Reserved3(void)
	?MEikDebugKeys_Reserved1@MEikDebugKeys@@EAEXXZ @ 420 NONAME ; void MEikDebugKeys::MEikDebugKeys_Reserved1(void)
	?MEikDebugKeys_Reserved2@MEikDebugKeys@@EAEXXZ @ 421 NONAME ; void MEikDebugKeys::MEikDebugKeys_Reserved2(void)
	?MEikDebugKeys_Reserved3@MEikDebugKeys@@EAEXXZ @ 422 NONAME ; void MEikDebugKeys::MEikDebugKeys_Reserved3(void)
	?AsCoeControl@MEikAlertWin@@UAEPAVCCoeControl@@XZ @ 423 NONAME ; class CCoeControl * MEikAlertWin::AsCoeControl(void)
	?ConnectNewAppL@REikAppServiceBase@@QAEXVTUid@@ABVTSecurityPolicy@@@Z @ 424 NONAME ; void REikAppServiceBase::ConnectNewAppL(class TUid, class TSecurityPolicy const &)
	?ConnectNewChildAppL@REikAppServiceBase@@QAEXVTUid@@AAVRWindowGroup@@ABVTSecurityPolicy@@@Z @ 425 NONAME ; void REikAppServiceBase::ConnectNewChildAppL(class TUid, class RWindowGroup &, class TSecurityPolicy const &)
	?EnsureCaptionIsLocalisedL@CEikApplication@@IAEXABVTDesC16@@@Z @ 426 NONAME ; void CEikApplication::EnsureCaptionIsLocalisedL(class TDesC16 const &)
	?CreateBitmapL@CEikonEnv@@QAEPAVCWsBitmap@@ABVTDesC16@@HH@Z @ 427 NONAME ; class CWsBitmap * CEikonEnv::CreateBitmapL(class TDesC16 const &, int, int)
	?NewL@CEikErrorResolver@@SAPAV1@AAVCEikonEnv@@@Z @ 428 NONAME ; class CEikErrorResolver * CEikErrorResolver::NewL(class CEikonEnv &)
	?ResolveError@CEikErrorResolver@@QAE?AW4TErrorValidity@CEikonEnv@@AAVTDes16@@HVTUid@@@Z @ 429 NONAME ; enum CEikonEnv::TErrorValidity CEikErrorResolver::ResolveError(class TDes16 &, int, class TUid)
	?ExternalizeL@CEikDebugPreferences@@QBEXAAVRWriteStream@@@Z @ 430 NONAME ; void CEikDebugPreferences::ExternalizeL(class RWriteStream &) const
	?InternalizeL@CEikDebugPreferences@@QAEXAAVRReadStream@@@Z @ 431 NONAME ; void CEikDebugPreferences::InternalizeL(class RReadStream &)
	?DoGetErrorTextAndTitle@CEikonEnv@@QBE?AW4TErrorValidity@1@AAVTDes16@@HAAHAAI0H@Z @ 432 NONAME ; enum CEikonEnv::TErrorValidity CEikonEnv::DoGetErrorTextAndTitle(class TDes16 &, int, int &, unsigned int &, class TDes16 &, int) const
	?GetErrorTextAndTitle@CEikonEnv@@QBE?AW4TErrorValidity@1@AAVTDes16@@H0@Z @ 433 NONAME ; enum CEikonEnv::TErrorValidity CEikonEnv::GetErrorTextAndTitle(class TDes16 &, int, class TDes16 &) const
	?ResolveErrorWithTitle@CEikErrorResolver@@QAE?AW4TErrorValidity@CEikonEnv@@AAVTDes16@@0H@Z @ 434 NONAME ; enum CEikonEnv::TErrorValidity CEikErrorResolver::ResolveErrorWithTitle(class TDes16 &, class TDes16 &, int)
	?ResolveErrorWithTitle@CEikErrorResolver@@QAE?AW4TErrorValidity@CEikonEnv@@AAVTDes16@@0HAAHAAIH@Z @ 435 NONAME ; enum CEikonEnv::TErrorValidity CEikErrorResolver::ResolveErrorWithTitle(class TDes16 &, class TDes16 &, int, int &, unsigned int &, int)

