EXPORTS
	_ZN14CAknGlobalNote10SetGraphicEii @ 1 NONAME
	_ZN14CAknGlobalNote11CancelNoteLEi @ 2 NONAME
	_ZN14CAknGlobalNote11SetPriorityEi @ 3 NONAME
	_ZN14CAknGlobalNote11SetSoftkeysEi @ 4 NONAME
	_ZN14CAknGlobalNote12SetAnimationEi @ 5 NONAME
	_ZN14CAknGlobalNote17SetTextProcessingEi @ 6 NONAME
	_ZN14CAknGlobalNote23CAknNotifyBase_ReservedEv @ 7 NONAME
	_ZN14CAknGlobalNote4NewLEv @ 8 NONAME
	_ZN14CAknGlobalNote5NewLCEv @ 9 NONAME
	_ZN14CAknGlobalNote7SetToneEi @ 10 NONAME
	_ZN14CAknGlobalNote9ShowNoteLE18TAknGlobalNoteTypeRK7TDesC16 @ 11 NONAME
	_ZN14CAknGlobalNote9ShowNoteLER14TRequestStatus18TAknGlobalNoteTypeRK7TDesC16 @ 12 NONAME
	_ZN14CAknGlobalNoteD0Ev @ 13 NONAME
	_ZN14CAknGlobalNoteD1Ev @ 14 NONAME
	_ZN14CAknGlobalNoteD2Ev @ 15 NONAME
	_ZN14CAknNotifyBase23CAknNotifyBase_ReservedEv @ 16 NONAME
	_ZN14CAknNotifyBaseD0Ev @ 17 NONAME
	_ZN14CAknNotifyBaseD1Ev @ 18 NONAME
	_ZN14CAknNotifyBaseD2Ev @ 19 NONAME
	_ZN15CAknPopupNotify13PopupMessageLERK7TDesC16 @ 20 NONAME
	_ZN15CAknPopupNotify23CAknNotifyBase_ReservedEv @ 21 NONAME
	_ZN15CAknPopupNotify4NewLEv @ 22 NONAME
	_ZN15CAknPopupNotify5NewLCEv @ 23 NONAME
	_ZN15CAknPopupNotifyD0Ev @ 24 NONAME
	_ZN15CAknPopupNotifyD1Ev @ 25 NONAME
	_ZN15CAknPopupNotifyD2Ev @ 26 NONAME
	_ZN16CAknIncallBubble21SetIncallBubbleFlagsLEi @ 27 NONAME
	_ZN16CAknIncallBubble23CAknNotifyBase_ReservedEv @ 28 NONAME
	_ZN16CAknIncallBubble4NewLEv @ 29 NONAME
	_ZN16CAknIncallBubble5NewLCEv @ 30 NONAME
	_ZN16CAknIncallBubbleD0Ev @ 31 NONAME
	_ZN16CAknIncallBubbleD1Ev @ 32 NONAME
	_ZN16CAknIncallBubbleD2Ev @ 33 NONAME
	_ZN16CAknSignalNotify13SetCdmaStateLEi @ 34 NONAME
	_ZN16CAknSignalNotify13SetGprsStateLEi @ 35 NONAME
	_ZN16CAknSignalNotify14SetWcdmaStateLEi @ 36 NONAME
	_ZN16CAknSignalNotify15SetSignalLevelLEi @ 37 NONAME
	_ZN16CAknSignalNotify23CAknNotifyBase_ReservedEv @ 38 NONAME
	_ZN16CAknSignalNotify25SetCommonPacketDataStateLEi @ 39 NONAME
	_ZN16CAknSignalNotify4NewLEv @ 40 NONAME
	_ZN16CAknSignalNotify5NewLCEv @ 41 NONAME
	_ZN16CAknSignalNotifyD0Ev @ 42 NONAME
	_ZN16CAknSignalNotifyD1Ev @ 43 NONAME
	_ZN16CAknSignalNotifyD2Ev @ 44 NONAME
	_ZN16CAknSoftNotifier13SetIdleStateLEi @ 45 NONAME
	_ZN16CAknSoftNotifier16AddNotificationLE24TAknSoftNotificationTypeP7TPtrC16 @ 46 NONAME
	_ZN16CAknSoftNotifier16AddNotificationLE24TAknSoftNotificationTypei @ 47 NONAME
	_ZN16CAknSoftNotifier21SetNotificationCountLE24TAknSoftNotificationTypeiP7TPtrC16 @ 48 NONAME
	_ZN16CAknSoftNotifier22AddCustomNotificationLER30CAknSoftNotificationParametersi @ 49 NONAME
	_ZN16CAknSoftNotifier23CAknNotifyBase_ReservedEv @ 50 NONAME
	_ZN16CAknSoftNotifier23CancelSoftNotificationLE24TAknSoftNotificationType @ 51 NONAME
	_ZN16CAknSoftNotifier27SetCustomNotificationCountLER30CAknSoftNotificationParametersi @ 52 NONAME
	_ZN16CAknSoftNotifier29CancelCustomSoftNotificationLER30CAknSoftNotificationParameters @ 53 NONAME
	_ZN16CAknSoftNotifier4NewLEv @ 54 NONAME
	_ZN16CAknSoftNotifier5NewLCEv @ 55 NONAME
	_ZN16CAknSoftNotifierD0Ev @ 56 NONAME
	_ZN16CAknSoftNotifierD1Ev @ 57 NONAME
	_ZN16CAknSoftNotifierD2Ev @ 58 NONAME
	_ZN17CAknBatteryNotify12NotChargingLEv @ 59 NONAME
	_ZN17CAknBatteryNotify13StopChargingLEv @ 60 NONAME
	_ZN17CAknBatteryNotify14StartChargingLEv @ 61 NONAME
	_ZN17CAknBatteryNotify16SetBatteryLevelLEi @ 62 NONAME
	_ZN17CAknBatteryNotify16SetBatteryStateLEi @ 63 NONAME
	_ZN17CAknBatteryNotify4NewLEv @ 64 NONAME
	_ZN17CAknBatteryNotify5NewLCEv @ 65 NONAME
	_ZN17CAknBatteryNotifyD0Ev @ 66 NONAME
	_ZN17CAknBatteryNotifyD1Ev @ 67 NONAME
	_ZN17CAknBatteryNotifyD2Ev @ 68 NONAME
	_ZN18CAknGlobalMsgQuery12SetExitDelayEi @ 69 NONAME
	_ZN18CAknGlobalMsgQuery13ShowMsgQueryLER14TRequestStatusRK7TDesC16iS4_S4_iiN15CAknQueryDialog5TToneE @ 70 NONAME
	_ZN18CAknGlobalMsgQuery14CancelMsgQueryEv @ 71 NONAME
	_ZN18CAknGlobalMsgQuery14SetImageSkinIdER11TAknsItemID @ 72 NONAME
	_ZN18CAknGlobalMsgQuery14UpdateMsgQueryEi @ 73 NONAME
	_ZN18CAknGlobalMsgQuery4NewLEv @ 74 NONAME
	_ZN18CAknGlobalMsgQuery5NewLCEv @ 75 NONAME
	_ZN18CAknGlobalMsgQueryD0Ev @ 76 NONAME
	_ZN18CAknGlobalMsgQueryD1Ev @ 77 NONAME
	_ZN18CAknGlobalMsgQueryD2Ev @ 78 NONAME
	_ZN18CAknSmallIndicator18SetIndicatorStateLEi @ 79 NONAME
	_ZN18CAknSmallIndicator23CAknNotifyBase_ReservedEv @ 80 NONAME
	_ZN18CAknSmallIndicator4NewLE4TUid @ 81 NONAME
	_ZN18CAknSmallIndicator5NewLCE4TUid @ 82 NONAME
	_ZN18CAknSmallIndicatorD0Ev @ 83 NONAME
	_ZN18CAknSmallIndicatorD1Ev @ 84 NONAME
	_ZN18CAknSmallIndicatorD2Ev @ 85 NONAME
	_ZN19CAknGlobalListQuery10SelectItemEv @ 86 NONAME
	_ZN19CAknGlobalListQuery11SetHeadingLERK7TDesC16 @ 87 NONAME
	_ZN19CAknGlobalListQuery14ShowListQueryLEPK12MDesC16ArrayR14TRequestStatusi @ 88 NONAME
	_ZN19CAknGlobalListQuery15CancelListQueryEv @ 89 NONAME
	_ZN19CAknGlobalListQuery15MoveSelectionUpEv @ 90 NONAME
	_ZN19CAknGlobalListQuery17MoveSelectionDownEv @ 91 NONAME
	_ZN19CAknGlobalListQuery4NewLEv @ 92 NONAME
	_ZN19CAknGlobalListQuery5NewLCEv @ 93 NONAME
	_ZN19CAknGlobalListQueryD0Ev @ 94 NONAME
	_ZN19CAknGlobalListQueryD1Ev @ 95 NONAME
	_ZN19CAknGlobalListQueryD2Ev @ 96 NONAME
	_ZN24CAknGlobalProgressDialog15ProcessFinishedEv @ 97 NONAME
	_ZN24CAknGlobalProgressDialog15SetImageSkinIdsER11TAknsItemIDS1_ @ 98 NONAME
	_ZN24CAknGlobalProgressDialog19ShowProgressDialogLER14TRequestStatusRK7TDesC16iiN14CAknNoteDialog5TToneE @ 99 NONAME
	_ZN24CAknGlobalProgressDialog20CancelProgressDialogEv @ 100 NONAME
	_ZN24CAknGlobalProgressDialog20UpdateProgressDialogEii @ 101 NONAME
	_ZN24CAknGlobalProgressDialog4NewLEv @ 102 NONAME
	_ZN24CAknGlobalProgressDialog5NewLCEv @ 103 NONAME
	_ZN24CAknGlobalProgressDialog8SetIconLERK7TDesC16S2_ii @ 104 NONAME
	_ZN24CAknGlobalProgressDialog9SetImageLERK7TDesC16ii @ 105 NONAME
	_ZN24CAknGlobalProgressDialogD0Ev @ 106 NONAME
	_ZN24CAknGlobalProgressDialogD1Ev @ 107 NONAME
	_ZN24CAknGlobalProgressDialogD2Ev @ 108 NONAME
	_ZN24CAknSignalNotifyAddition26SetNaviPaneBackgroundTypeLEi @ 109 NONAME
	_ZN24CAknSignalNotifyAddition4NewLEv @ 110 NONAME
	_ZN24CAknSignalNotifyAddition5NewLCEv @ 111 NONAME
	_ZN24CAknSignalNotifyAdditionD0Ev @ 112 NONAME
	_ZN24CAknSignalNotifyAdditionD1Ev @ 113 NONAME
	_ZN24CAknSignalNotifyAdditionD2Ev @ 114 NONAME
	_ZN27CAknGlobalConfirmationQuery14SetImageSkinIdER11TAknsItemID @ 115 NONAME
	_ZN27CAknGlobalConfirmationQuery22ShowConfirmationQueryLER14TRequestStatusRK7TDesC16iiS4_iiN15CAknQueryDialog5TToneEi @ 116 NONAME
	_ZN27CAknGlobalConfirmationQuery23CancelConfirmationQueryEv @ 117 NONAME
	_ZN27CAknGlobalConfirmationQuery23UpdateConfirmationQueryEi @ 118 NONAME
	_ZN27CAknGlobalConfirmationQuery4NewLEv @ 119 NONAME
	_ZN27CAknGlobalConfirmationQuery5NewLCEv @ 120 NONAME
	_ZN27CAknGlobalConfirmationQueryD0Ev @ 121 NONAME
	_ZN27CAknGlobalConfirmationQueryD1Ev @ 122 NONAME
	_ZN27CAknGlobalConfirmationQueryD2Ev @ 123 NONAME
	_ZN16CAknIncallBubble29SetIncallBubbleAllowedInIdleLEi @ 124 NONAME
	_ZN14CAknGlobalNote18DoGlobaNoteBufferLEssissisiiRK7TDesC16P8CBufFlat @ 125 NONAME
	_ZN16CAknIncallBubble30SetIncallBubbleAllowedInUsualLEi @ 126 NONAME
	_ZN16CAknSignalNotify13SetEdgeStateLEi @ 127 NONAME
	_ZN14CAknNotifyBase23SetSecondaryDisplayDataEP10CAknSDData @ 128 NONAME
	_ZN18CAknGlobalMsgQuery23SetSecondaryDisplayDataEP10CAknSDData @ 129 NONAME
	_ZN19CAknGlobalListQuery23SetSecondaryDisplayDataEP10CAknSDData @ 130 NONAME
	_ZN24CAknGlobalProgressDialog23SetSecondaryDisplayDataEP10CAknSDData @ 131 NONAME
	_ZN27CAknGlobalConfirmationQuery23SetSecondaryDisplayDataEP10CAknSDData @ 132 NONAME
	_ZN10CAknSDData12InternalizeLER11RReadStream @ 133 NONAME
	_ZNK10CAknSDData12ExternalizeLER12RWriteStream @ 134 NONAME
	_ZN10CAknSDData29InsertGlobalListQueryItemIdsLER6RArrayIiE @ 135 NONAME
	_ZN16CAknSignalNotify14SetHsdpaStateLEi @ 136 NONAME
	_ZN18CAknSmallIndicator19HandleIndicatorTapLEv @ 137 NONAME
	_ZN22CAknGlobalListMsgQuery10SelectItemEv @ 138 NONAME
	_ZN22CAknGlobalListMsgQuery14SetImageSkinIdERK11TAknsItemID @ 139 NONAME
	_ZN22CAknGlobalListMsgQuery15MoveSelectionUpEv @ 140 NONAME
	_ZN22CAknGlobalListMsgQuery17MoveSelectionDownEv @ 141 NONAME
	_ZN22CAknGlobalListMsgQuery17ShowListMsgQueryLEPK12MDesC16ArrayR14TRequestStatusRK7TDesC16S7_iiiiS7_iiN15CAknQueryDialog5TToneE @ 142 NONAME
	_ZN22CAknGlobalListMsgQuery18CancelListMsgQueryEv @ 143 NONAME
	_ZN22CAknGlobalListMsgQuery23SetSecondaryDisplayDataEP10CAknSDData @ 144 NONAME
	_ZN22CAknGlobalListMsgQuery4NewLEv @ 145 NONAME
	_ZN22CAknGlobalListMsgQuery5NewLCEv @ 146 NONAME
	_ZN22CAknGlobalListMsgQueryD0Ev @ 147 NONAME
	_ZN22CAknGlobalListMsgQueryD1Ev @ 148 NONAME
	_ZN22CAknGlobalListMsgQueryD2Ev @ 149 NONAME
	_Z13AknTracePrint11TRefByValueIK7TDesC16Ez @ 150 NONAME
	_Z13AknTracePrintPKcz @ 151 NONAME
