EXPORTS
	_Z11ApacPlain12v @ 1 NONAME
	_Z11ApacPlain16v @ 2 NONAME
	_Z11ClockBold30v @ 3 NONAME
	_Z11LatinBold12v @ 4 NONAME
	_Z11LatinBold13v @ 5 NONAME
	_Z11LatinBold16v @ 6 NONAME
	_Z11LatinBold17v @ 7 NONAME
	_Z11LatinBold19v @ 8 NONAME
	_Z12LatinClock14v @ 9 NONAME
	_Z12LatinPlain12v @ 10 NONAME
	_Z12NumberPlain5v @ 11 NONAME
	_Z15BgListPaneTablev @ 12 NONAME ABSENT
	_Z16GetMaxTextLengthPK16CAknQueryControlRK6TDes16i @ 13 NONAME
	_Z19CompleteWithAppPathR6TDes16 @ 14 NONAME
	_ZN10CAknDialog10ConstructLEi @ 15 NONAME
	_ZN10CAknDialog11SetEmphasisEP11CCoeControli @ 16 NONAME
	_ZN10CAknDialog11SizeChangedEv @ 17 NONAME
	_ZN10CAknDialog12DisplayMenuLEv @ 18 NONAME
	_ZN10CAknDialog12FocusChangedE8TDrawNow @ 19 NONAME
	_ZN10CAknDialog14OfferKeyEventLERK9TKeyEvent10TEventCode @ 20 NONAME
	_ZN10CAknDialog15MopSupplyObjectE8TTypeUid @ 21 NONAME
	_ZN10CAknDialog15ProcessCommandLEi @ 22 NONAME
	_ZN10CAknDialog16DynInitMenuPaneLEiP12CEikMenuPane @ 23 NONAME
	_ZN10CAknDialog18ExtensionInterfaceE4TUid @ 24 NONAME
	_ZN10CAknDialog19CAknDialog_ReservedEv @ 25 NONAME
	_ZN10CAknDialog19HandlePointerEventLERK13TPointerEvent @ 26 NONAME
	_ZN10CAknDialog19Reserved_MtsmObjectEv @ 27 NONAME
	_ZN10CAknDialog21CEikDialog_Reserved_1Ev @ 28 NONAME
	_ZN10CAknDialog21CEikDialog_Reserved_2Ev @ 29 NONAME
	_ZN10CAknDialog21Reserved_MtsmPositionEv @ 30 NONAME
	_ZN10CAknDialog5RunLDEv @ 31 NONAME
	_ZN10CAknDialog8HideMenuEv @ 32 NONAME
	_ZN10CAknDialog9ExecuteLDEi @ 33 NONAME
	_ZN10CAknDialog9OkToExitLEi @ 34 NONAME
	_ZN10CAknDialog9PrepareLCEi @ 35 NONAME
	_ZN10CAknDialogC1Ev @ 36 NONAME
	_ZN10CAknDialogC2Ev @ 37 NONAME
	_ZN10CAknDialogD0Ev @ 38 NONAME
	_ZN10CAknDialogD1Ev @ 39 NONAME
	_ZN10CAknDialogD2Ev @ 40 NONAME
	_ZN10CAknSlider11SetStepSizeEi @ 41 NONAME
	_ZN10CAknSlider13CreateBitmapLEii @ 42 NONAME
	_ZN10CAknSlider13CreateBitmapLEiii @ 43 NONAME
	_ZN10CAknSlider13SetValueTextLEv @ 44 NONAME
	_ZN10CAknSlider15SetMaximumTextLERK7TDesC16 @ 45 NONAME
	_ZN10CAknSlider15SetMinimumTextLERK7TDesC16 @ 46 NONAME
	_ZN10CAknSlider16SetDecimalPlacesEi @ 47 NONAME
	_ZN10CAknSlider18ExtensionInterfaceE4TUid @ 48 NONAME
	_ZN10CAknSlider19HandlePointerEventLERK13TPointerEvent @ 49 NONAME
	_ZN10CAknSlider20HandleResourceChangeEi @ 50 NONAME
	_ZN10CAknSlider22ConstructFromResourceLEP11CCoeControliR15TResourceReader @ 51 NONAME
	_ZN10CAknSlider22ConstructFromResourceLER15TResourceReader @ 52 NONAME
	_ZN10CAknSlider23CreateValueTextInHBufCLEii @ 53 NONAME
	_ZN10CAknSlider26CreateSetStyleListBoxIconLEii @ 54 NONAME
	_ZN10CAknSlider26CreateSetStyleListBoxIconLEiii @ 55 NONAME
	_ZN10CAknSlider8SetRangeEii @ 56 NONAME
	_ZN10CAknSlider9SetValueLEi @ 57 NONAME
	_ZN10CAknSliderC1Ev @ 58 NONAME
	_ZN10CAknSliderC2Ev @ 59 NONAME
	_ZN10CAknSliderD0Ev @ 60 NONAME
	_ZN10CAknSliderD1Ev @ 61 NONAME
	_ZN10CAknSliderD2Ev @ 62 NONAME
	_ZN11AknLAFUtils13ReplaceColumnE6TPtr16P7TDesC16S2_5TChari @ 63 NONAME
	_ZN11CAknCharMap11MinimumSizeEv @ 64 NONAME
	_ZN11CAknCharMap11SetObserverEP19MCoeControlObserver @ 65 NONAME
	_ZN11CAknCharMap11SizeChangedEv @ 66 NONAME
	_ZN11CAknCharMap12HeightInRowsEv @ 67 NONAME
	_ZN11CAknCharMap14OfferKeyEventLERK9TKeyEvent10TEventCode @ 68 NONAME
	_ZN11CAknCharMap17SetCharacterCaseLEi @ 69 NONAME
	_ZN11CAknCharMap19HandlePointerEventLERK13TPointerEvent @ 70 NONAME
	_ZN11CAknCharMap20HandleResourceChangeEi @ 71 NONAME
	_ZN11CAknCharMap22ConstructFromResourceLER15TResourceReader @ 72 NONAME
	_ZN11CAknCharMap9ActivateLEv @ 73 NONAME
	_ZN11CAknCharMap9SetBufferER6TDes16 @ 74 NONAME
	_ZN11CAknCharMapC1Ev @ 75 NONAME
	_ZN11CAknCharMapC2Ev @ 76 NONAME
	_ZN11CAknCharMapD0Ev @ 77 NONAME
	_ZN11CAknCharMapD1Ev @ 78 NONAME
	_ZN11CAknCharMapD2Ev @ 79 NONAME
	_ZN11CAknControl18ExtensionInterfaceE4TUid @ 80 NONAME
	_ZN11CAknControlC1Ev @ 81 NONAME
	_ZN11CAknControlC2Ev @ 82 NONAME
	_ZN11CAknControlD0Ev @ 83 NONAME
	_ZN11CAknControlD1Ev @ 84 NONAME
	_ZN11CAknControlD2Ev @ 85 NONAME
	_ZN11CAknLibrary12ResourceFileEv @ 86 NONAME
	_ZN11CAknLibrary14ControlFactoryEv @ 87 NONAME
	_ZN11CAknLibrary19PrivateResourceFileEv @ 88 NONAME
	_ZN11RAknKeyLock12OfferKeyLockEv @ 89 NONAME
	_ZN11RAknKeyLock13EnableKeyLockEv @ 90 NONAME
	_ZN11RAknKeyLock14DisableKeyLockEv @ 91 NONAME
	_ZN11RAknKeyLock16IsKeyLockEnabledEv @ 92 NONAME
	_ZN11RAknKeyLock17EnableWithoutNoteEv @ 93 NONAME
	_ZN11RAknKeyLock18DisableWithoutNoteEv @ 94 NONAME
	_ZN11RAknKeyLock22CancelAllNotificationsEv @ 95 NONAME
	_ZN11RAknKeyLock23EnableAutoLockEmulationEv @ 96 NONAME
	_ZN11RAknKeyLock23EnableSoftNotificationsEi @ 97 NONAME
	_ZN12AknEditUtils17ConstructEditingLEP9CEikEdwinR15TResourceReader @ 98 NONAME
	_ZN12AknEditUtils17ConstructEditingLEP9CEikEdwinRKNS_20SAknEditorParametersE @ 99 NONAME
	_ZN12AknEditUtils17ConstructEditingLEP9CEikEdwini @ 100 NONAME
	_ZN12AknEditUtils17ConstructEditingLEP9CEikEdwiniiiiiii @ 101 NONAME
	_ZN12AknEditUtils17ConstructEditingLEP9CEikEdwiniiiiiiii @ 102 NONAME
	_ZN12AknTextUtils12WrapToArrayLERK7TDesC16RK9CArrayFixIiERK5CFontRS3_I7TPtrC16E @ 103 NONAME
	_ZN12AknTextUtils12WrapToArrayLERK7TDesC16iRK5CFontR9CArrayFixI7TPtrC16E @ 104 NONAME
	_ZN12AknTextUtils13WrapToStringLERK7TDesC16RK9CArrayFixIiERK5CFontR6TDes16 @ 105 NONAME
	_ZN12AknTextUtils14DigitModeQueryENS_19TDigitModeQueryTypeE @ 106 NONAME
	_ZN12AknTextUtils15ConvertDigitsToER6TDes1610TDigitType @ 107 NONAME
	_ZN12AknTextUtils15PackWhiteSpacesER6TDes16RK7TDesC16 @ 108 NONAME
	_ZN12AknTextUtils15StripCharactersER6TDes16RK7TDesC16 @ 109 NONAME
	_ZN12AknTextUtils16ConvertFileNameLERK7TDesC16 @ 110 NONAME
	_ZN12AknTextUtils16LoadScalableTextER7CCoeEnviR6TDes16 @ 111 NONAME
	_ZN12AknTextUtils17LoadScalableTextLER7CCoeEnvi @ 112 NONAME
	_ZN12AknTextUtils17ReplaceCharactersER6TDes16RK7TDesC165TChar @ 113 NONAME
	_ZN12AknTextUtils18ChooseScalableTextERK7TDesC16RK5CFonti @ 114 NONAME
	_ZN12AknTextUtils18LoadScalableTextLCER7CCoeEnvi @ 115 NONAME
	_ZN12AknTextUtils19ChopToArrayAndClipLER6TDes16RK9CArrayFixIiERK5CFontRS2_I7TPtrC16E @ 116 NONAME
	_ZN12AknTextUtils19ChopToArrayAndClipLER6TDes16iRK5CFontR9CArrayFixI7TPtrC16E @ 117 NONAME
	_ZN12AknTextUtils19TextEditorDigitTypeEv @ 118 NONAME
	_ZN12AknTextUtils19WrapToArrayAndClipLER6TDes16RK9CArrayFixIiERK5CFontRS2_I7TPtrC16E @ 119 NONAME
	_ZN12AknTextUtils20WrapToStringAndClipLERK7TDesC16RK9CArrayFixIiERK5CFontR6TDes16 @ 120 NONAME
	_ZN12AknTextUtils22NumericEditorDigitTypeEv @ 121 NONAME
	_ZN12AknTextUtils27CurrentScriptDirectionalityEv @ 122 NONAME
	_ZN12AknTextUtils32ClipAccordingScreenOrientationLCER7CCoeEnvP7HBufC16 @ 123 NONAME
	_ZN12AknTextUtils32LanguageSpecificNumberConversionER6TDes16 @ 124 NONAME
	_ZN12AknTextUtils43DisplayTextLanguageSpecificNumberConversionER6TDes16 @ 125 NONAME
	_ZN12AknTextUtils9ClipToFitER6TDes16NS_14TClipDirectionEP17CEikColumnListBoxii @ 126 NONAME
	_ZN12AknTextUtils9ClipToFitER6TDes16NS_14TClipDirectionEP24CEikFormattedCellListBoxii @ 127 NONAME
	_ZN12AknTextUtils9ClipToFitER6TDes16RK5CFontiNS_14TClipDirectionEiRK7TDesC16 @ 128 NONAME
	_ZN12CAknDocument9OpenFileLERP10CFileStoreR5RFile @ 129 NONAME
	_ZN12CAknDocument9OpenFileLEiRK7TDesC16R3RFs @ 130 NONAME
	_ZN12CAknDocumentC2ER15CEikApplication @ 131 NONAME
	_ZN12CAknGridView10Reserved_1Ev @ 132 NONAME
	_ZN12CAknGridView11MoveCursorLEN12CListBoxView15TCursorMovementENS0_14TSelectionModeE @ 133 NONAME
	_ZN12CAknGridView12FindNextItemEiiiii @ 134 NONAME
	_ZN12CAknGridView13CalcDataWidthEv @ 135 NONAME
	_ZN12CAknGridView13SearchByLinesEiiN12CListBoxView15TCursorMovementEi @ 136 NONAME
	_ZN12CAknGridView13SetItemHeightEi @ 137 NONAME
	_ZN12CAknGridView14SetColumnWidthEi @ 138 NONAME
	_ZN12CAknGridView14SetGridDetailsENS_5SGridE @ 139 NONAME
	_ZN12CAknGridView15SetTopItemIndexEi @ 140 NONAME
	_ZN12CAknGridView16MoveToItemIndexLEiN12CListBoxView14TSelectionModeE @ 141 NONAME
	_ZN12CAknGridView17DrawMatcherCursorEv @ 142 NONAME
	_ZN12CAknGridView19CalcBottomItemIndexEv @ 143 NONAME
	_ZN12CAknGridView19SetCurrentDataIndexEi @ 144 NONAME
	_ZN12CAknGridView21SetGridCellDimensionsE5TSize @ 145 NONAME
	_ZN12CAknGridView21SetSpacesBetweenItemsE5TSize @ 146 NONAME
	_ZN12CAknGridView23ScrollToMakeItemVisibleEi @ 147 NONAME
	_ZN12CAknGridView23SetPrimaryScrollingTypeENS_14TScrollingTypeE @ 148 NONAME
	_ZN12CAknGridView25SetSecondaryScrollingTypeENS_14TScrollingTypeE @ 149 NONAME
	_ZN12CAknGridView37CalculateHScrollOffsetSoItemIsVisibleEi @ 150 NONAME
	_ZN12CAknGridView38UpdateHScrollOffsetBasedOnTopItemIndexEv @ 151 NONAME
	_ZN12CAknGridView7DoMoveLEN12CListBoxView15TCursorMovementENS0_14TSelectionModeE @ 152 NONAME
	_ZN12CAknGridViewC1Ev @ 153 NONAME
	_ZN12CAknGridViewC2Ev @ 154 NONAME
	_ZN12CAknGridViewD0Ev @ 155 NONAME
	_ZN12CAknGridViewD1Ev @ 156 NONAME
	_ZN12CAknGridViewD2Ev @ 157 NONAME
	_ZN12CAknTabGroup10DeleteTabLEi @ 158 NONAME
	_ZN12CAknTabGroup11MinimumSizeEv @ 159 NONAME
	_ZN12CAknTabGroup11ReplaceTabLER15TResourceReader @ 160 NONAME
	_ZN12CAknTabGroup11ReplaceTabLEiPK10CFbsBitmapS2_ @ 161 NONAME
	_ZN12CAknTabGroup11ReplaceTabLEiRK7TDesC16 @ 162 NONAME
	_ZN12CAknTabGroup11ReplaceTabLEiRK7TDesC16PK10CFbsBitmapS5_ @ 163 NONAME
	_ZN12CAknTabGroup11SetObserverEP15MAknTabObserver @ 164 NONAME
	_ZN12CAknTabGroup11SizeChangedEv @ 165 NONAME
	_ZN12CAknTabGroup12FocusChangedE8TDrawNow @ 166 NONAME
	_ZN12CAknTabGroup14OfferKeyEventLERK9TKeyEvent10TEventCode @ 167 NONAME
	_ZN12CAknTabGroup15ReplaceTabTextLEiRK7TDesC16 @ 168 NONAME
	_ZN12CAknTabGroup16SetActiveTabByIdEi @ 169 NONAME
	_ZN12CAknTabGroup17SetTabFixedWidthLEi @ 170 NONAME
	_ZN12CAknTabGroup18ExtensionInterfaceE4TUid @ 171 NONAME
	_ZN12CAknTabGroup19HandleControlEventLEP11CCoeControlN19MCoeControlObserver9TCoeEventE @ 172 NONAME
	_ZN12CAknTabGroup19HandlePointerEventLERK13TPointerEvent @ 173 NONAME
	_ZN12CAknTabGroup19SetActiveTabByIndexEi @ 174 NONAME
	_ZN12CAknTabGroup25HandleNaviDecoratorEventLEi @ 175 NONAME
	_ZN12CAknTabGroup4NewLERK11CCoeControl @ 176 NONAME
	_ZN12CAknTabGroup5NewLCERK11CCoeControl @ 177 NONAME
	_ZN12CAknTabGroup6DimTabEii @ 178 NONAME
	_ZN12CAknTabGroup7AddTabLER15TResourceReader @ 179 NONAME
	_ZN12CAknTabGroup7AddTabLEiPK10CFbsBitmapS2_ @ 180 NONAME
	_ZN12CAknTabGroup7AddTabLEiRK7TDesC16 @ 181 NONAME
	_ZN12CAknTabGroup7AddTabLEiRK7TDesC16PK10CFbsBitmapS5_ @ 182 NONAME
	_ZN12CAknTabGroup9Reserved1Ev @ 183 NONAME
	_ZN12CAknTabGroup9Reserved2Ev @ 184 NONAME
	_ZN12CAknTabGroup9Reserved3Ev @ 185 NONAME
	_ZN12CAknTabGroupC1Ev @ 186 NONAME
	_ZN12CAknTabGroupC2Ev @ 187 NONAME
	_ZN12CAknTabGroupD0Ev @ 188 NONAME
	_ZN12CAknTabGroupD1Ev @ 189 NONAME
	_ZN12CAknTabGroupD2Ev @ 190 NONAME
	_ZN12RAknKeylock27ConnectEv @ 191 NONAME
	_ZN13AknLayoutTree10LayoutDrawEP14CBitmapContextRK5TRectRK9TLafTableiS4_P14CAknLayoutData @ 192 NONAME ABSENT
	_ZN13AknLayoutTree16LayoutConstructLERK9TLafTableP14CAknLayoutData @ 193 NONAME ABSENT
	_ZN13AknLayoutTree16LayoutConstructLERK9TLafTableiP14CAknLayoutData @ 194 NONAME ABSENT
	_ZN13AknLayoutTree16LayoutConstructLERK9TLafTableiiP14CAknLayoutData @ 195 NONAME ABSENT
	_ZN13AknLayoutTree17LayoutSizeChangedERK5TRectRK9TLafTableiP14CAknLayoutData @ 196 NONAME ABSENT
	_ZN13AknLayoutTree17LayoutSizeChangedERK5TRectRK9TLafTableiiP14CAknLayoutData @ 197 NONAME ABSENT
	_ZN13CAknAppServer10ConstructLERK7TDesC16 @ 198 NONAME
	_ZN13CAknAppServer22HandleAllClientsClosedEv @ 199 NONAME
	_ZN13CAknAppServerD0Ev @ 200 NONAME
	_ZN13CAknAppServerD1Ev @ 201 NONAME
	_ZN13CAknAppServerD2Ev @ 202 NONAME
	_ZN13CAknAppUiBase10ConstructLEv @ 203 NONAME
	_ZN13CAknAppUiBase13PrepareToExitEv @ 204 NONAME
	_ZN13CAknAppUiBase14BaseConstructLEi @ 205 NONAME
	_ZN13CAknAppUiBase15MopSupplyObjectE8TTypeUid @ 206 NONAME
	_ZN13CAknAppUiBase15SetOrientationLENS_17TAppUiOrientationE @ 207 NONAME
	_ZN13CAknAppUiBase16SetFullScreenAppEi @ 208 NONAME
	_ZN13CAknAppUiBase17ReplaceKeySoundsLEi @ 209 NONAME
	_ZN13CAknAppUiBase17SetLayoutAwareAppEi @ 210 NONAME
	_ZN13CAknAppUiBase21HandleResourceChangeLEi @ 211 NONAME
	_ZN13CAknAppUiBase22HandleForegroundEventLEi @ 212 NONAME
	_ZN13CAknAppUiBase26HandleScreenDeviceChangedLEv @ 213 NONAME
	_ZN13CAknAppUiBase31HandleApplicationSpecificEventLEiRK8TWsEvent @ 214 NONAME
	_ZN13CAknAppUiBase4ExitEv @ 215 NONAME
	_ZN13CAknAppUiBase9SetFadedLEi @ 216 NONAME
	_ZN13CAknAppUiBaseC1Ev @ 217 NONAME
	_ZN13CAknAppUiBaseC2Ev @ 218 NONAME
	_ZN13CAknAppUiBaseD0Ev @ 219 NONAME
	_ZN13CAknAppUiBaseD1Ev @ 220 NONAME
	_ZN13CAknAppUiBaseD2Ev @ 221 NONAME
	_ZN13CAknErrorNote18ExtensionInterfaceE4TUid @ 222 NONAME
	_ZN13CAknErrorNote19HandlePointerEventLERK13TPointerEvent @ 223 NONAME
	_ZN13CAknErrorNote21CEikDialog_Reserved_1Ev @ 224 NONAME
	_ZN13CAknErrorNote21CEikDialog_Reserved_2Ev @ 225 NONAME
	_ZN13CAknErrorNote23CAknNoteDialog_ReservedEv @ 226 NONAME
	_ZN13CAknErrorNote31CAknResourceNoteDialog_ReservedEv @ 227 NONAME
	_ZN13CAknErrorNoteC1EPPS_ @ 228 NONAME
	_ZN13CAknErrorNoteC1Ei @ 229 NONAME
	_ZN13CAknErrorNoteC1Ev @ 230 NONAME
	_ZN13CAknErrorNoteC2EPPS_ @ 231 NONAME
	_ZN13CAknErrorNoteC2Ei @ 232 NONAME
	_ZN13CAknErrorNoteC2Ev @ 233 NONAME
	_ZN13CAknIconArray19AppendFromResourceLER15TResourceReader @ 234 NONAME
	_ZN13CAknIconArray19AppendFromResourceLEi @ 235 NONAME
	_ZN13CAknIconArray22ConstructFromResourceLER15TResourceReader @ 236 NONAME
	_ZN13CAknIconArray22ConstructFromResourceLEi @ 237 NONAME
	_ZN13CAknIconArrayC1Ei @ 238 NONAME
	_ZN13CAknIconArrayC2Ei @ 239 NONAME
	_ZN13CAknIconArrayD0Ev @ 240 NONAME
	_ZN13CAknIconArrayD1Ev @ 241 NONAME
	_ZN13CAknIconArrayD2Ev @ 242 NONAME
	_ZN13CAknIndicator19HandlePointerEventLERK13TPointerEvent @ 243 NONAME
	_ZN13CAknIndicator20SetIndicatorObserverEP21MAknIndicatorObserver @ 244 NONAME
	_ZN13CAknNaviLabel11SizeChangedEv @ 245 NONAME
	_ZN13CAknNaviLabel13NaviLabelTypeEv @ 246 NONAME
	_ZN13CAknNaviLabel16SetNaviLabelTypeENS_14TNaviLabelTypeE @ 247 NONAME
	_ZN13CAknNaviLabel18ExtensionInterfaceE4TUid @ 248 NONAME
	_ZN13CAknNaviLabel19HandlePointerEventLERK13TPointerEvent @ 249 NONAME
	_ZN13CAknNaviLabel8SetTextLERK7TDesC16 @ 250 NONAME
	_ZN13CAknNaviLabelC1Ev @ 251 NONAME
	_ZN13CAknNaviLabelC2Ev @ 252 NONAME
	_ZN13CAknNaviLabelD0Ev @ 253 NONAME
	_ZN13CAknNaviLabelD1Ev @ 254 NONAME
	_ZN13CAknNaviLabelD2Ev @ 255 NONAME
	_ZN13CAknPopupForm10ConstructLEv @ 256 NONAME
	_ZN13CAknPopupForm10SetTimeoutEi @ 257 NONAME
	_ZN13CAknPopupForm11SetCallbackEP26MPopupFormProgressCallback @ 258 NONAME
	_ZN13CAknPopupForm11SizeChangedEv @ 259 NONAME
	_ZN13CAknPopupForm12ProgressInfoEv @ 260 NONAME
	_ZN13CAknPopupForm13DeleteControlE21TPopupFormControlType @ 261 NONAME
	_ZN13CAknPopupForm13DeleteControlEi @ 262 NONAME
	_ZN13CAknPopupForm13LayoutAndDrawEv @ 263 NONAME
	_ZN13CAknPopupForm13StaticDeleteLEPv @ 264 NONAME
	_ZN13CAknPopupForm14InsertControlLEii @ 265 NONAME
	_ZN13CAknPopupForm14InsertControlLEiii @ 266 NONAME
	_ZN13CAknPopupForm14OfferKeyEventLERK9TKeyEvent10TEventCode @ 267 NONAME
	_ZN13CAknPopupForm16ProcessFinishedLEv @ 268 NONAME
	_ZN13CAknPopupForm16SetPopupFormTypeE14TPopupFormType @ 269 NONAME
	_ZN13CAknPopupForm16TextIsScrollableEv @ 270 NONAME
	_ZN13CAknPopupForm18PostLayoutDynInitLEv @ 271 NONAME
	_ZN13CAknPopupForm18SetSizeAndPositionERK5TSize @ 272 NONAME
	_ZN13CAknPopupForm21SetProgressBarAndDrawEi @ 273 NONAME
	_ZN13CAknPopupForm27IncrementProgressBarAndDrawEi @ 274 NONAME
	_ZN13CAknPopupForm29SetWaitAnimationResourceIndexEi @ 275 NONAME
	_ZN13CAknPopupForm4NewLERK5TToneiRK14TPopupFormType @ 276 NONAME
	_ZN13CAknPopupForm4NewLEv @ 277 NONAME
	_ZN13CAknPopupForm5FlagsEv @ 278 NONAME
	_ZN13CAknPopupForm5NewLCERK5TToneiRK14TPopupFormType @ 279 NONAME
	_ZN13CAknPopupForm5NewLCEv @ 280 NONAME
	_ZN13CAknPopupForm5RunLDEv @ 281 NONAME
	_ZN13CAknPopupForm7SetToneE5TTone @ 282 NONAME
	_ZN13CAknPopupForm8PlayToneEv @ 283 NONAME
	_ZN13CAknPopupForm8SetTextLEPK7TDesC16 @ 284 NONAME
	_ZN13CAknPopupForm9ActivateLEv @ 285 NONAME
	_ZN13CAknPopupForm9OkToExitLEi @ 286 NONAME
	_ZN13CAknPopupForm9PrepareLCEi @ 287 NONAME
	_ZN13CAknPopupForm9SetImageLEPK9CEikImage @ 288 NONAME
	_ZN13CAknPopupForm9SetTitleLERK7TDesC16 @ 289 NONAME
	_ZN13CAknPopupFormC1ERK5TToneiRK14TPopupFormType @ 290 NONAME
	_ZN13CAknPopupFormC1Ev @ 291 NONAME
	_ZN13CAknPopupFormC2ERK5TToneiRK14TPopupFormType @ 292 NONAME
	_ZN13CAknPopupFormC2Ev @ 293 NONAME
	_ZN13CAknPopupFormD0Ev @ 294 NONAME
	_ZN13CAknPopupFormD1Ev @ 295 NONAME
	_ZN13CAknPopupFormD2Ev @ 296 NONAME
	_ZN13CAknPopupList10CloseStateEv @ 297 NONAME
	_ZN13CAknPopupList10ConstructLEP11CEikListBoxiN15AknPopupLayouts16TAknPopupLayoutsE @ 298 NONAME
	_ZN13CAknPopupList10EnableFindEi @ 299 NONAME
	_ZN13CAknPopupList11CancelPopupEv @ 300 NONAME
	_ZN13CAknPopupList11MinimumSizeEv @ 301 NONAME
	_ZN13CAknPopupList12AttemptExitLEi @ 302 NONAME
	_ZN13CAknPopupList12FocusChangedE8TDrawNow @ 303 NONAME
	_ZN13CAknPopupList14FadedComponentEi @ 304 NONAME
	_ZN13CAknPopupList14OfferKeyEventLERK9TKeyEvent10TEventCode @ 305 NONAME
	_ZN13CAknPopupList15MopSupplyObjectE8TTypeUid @ 306 NONAME
	_ZN13CAknPopupList15ProcessCommandLEi @ 307 NONAME
	_ZN13CAknPopupList16SetMaximumHeightEi @ 308 NONAME
	_ZN13CAknPopupList17SetupWindowLayoutEN15AknPopupLayouts16TAknPopupLayoutsE @ 309 NONAME
	_ZN13CAknPopupList18ExtensionInterfaceE4TUid @ 310 NONAME
	_ZN13CAknPopupList19HandleControlEventLEP11CCoeControlN19MCoeControlObserver9TCoeEventE @ 311 NONAME
	_ZN13CAknPopupList19HandleListBoxEventLEP11CEikListBoxN19MEikListBoxObserver13TListBoxEventE @ 312 NONAME
	_ZN13CAknPopupList19HandlePointerEventLERK13TPointerEvent @ 313 NONAME
	_ZN13CAknPopupList20ButtonGroupContainerEv @ 314 NONAME
	_ZN13CAknPopupList20CountFadedComponentsEv @ 315 NONAME
	_ZN13CAknPopupList20HandleResourceChangeEi @ 316 NONAME
	_ZN13CAknPopupList4NewLEP11CEikListBoxiN15AknPopupLayouts16TAknPopupLayoutsE @ 317 NONAME
	_ZN13CAknPopupList6LayoutEv @ 318 NONAME
	_ZN13CAknPopupList7HeadingEv @ 319 NONAME
	_ZN13CAknPopupList7ListBoxEv @ 320 NONAME
	_ZN13CAknPopupList9ExecuteLDEv @ 321 NONAME
	_ZN13CAknPopupList9SetTitleLERK7TDesC16 @ 322 NONAME
	_ZN13CAknPopupListC1Ev @ 323 NONAME
	_ZN13CAknPopupListC2Ev @ 324 NONAME
	_ZN13CAknPopupListD0Ev @ 325 NONAME
	_ZN13CAknPopupListD1Ev @ 326 NONAME
	_ZN13CAknPopupListD2Ev @ 327 NONAME
	_ZN13CAknSgcClient13HandleChangeLEv @ 328 NONAME
	_ZN13CAknSgcClient13IsSystemFadedEv @ 329 NONAME
	_ZN13CAknSgcClient14SetSystemFadedEi @ 330 NONAME
	_ZN13CAknSgcClient15SetKeyBlockModeE18TAknKeySoundOpcode @ 331 NONAME
	_ZN13CAknSgcClient16DrawSynchronizerEv @ 332 NONAME
	_ZN13CAknSgcClient17PixelsAndRotationEv @ 333 NONAME
	_ZN13CAknSgcClient17PrepareForAppExitEv @ 334 NONAME
	_ZN13CAknSgcClient21SetKeyboardRepeatRateE29TAknDefaultKeyboardRepeatRate @ 335 NONAME
	_ZN13CAknSgcClient22RedrawServerStatusPaneEv @ 336 NONAME
	_ZN13CAknSgcClient26CalculatePixelsAndRotationEiiii @ 337 NONAME
	_ZN13CAknSgcClient29BlockServerStatusPaneRedrawsLEv @ 338 NONAME
	_ZN13CAknSgcClient30SetStatusPaneRedrawCoordinatorEP34MAknSgcStatusPaneRedrawCoordinator @ 339 NONAME
	_ZN13CAknSgcClient6AknSrvEv @ 340 NONAME
	_ZN13CAknSgcClient7CreateLEv @ 341 NONAME
	_ZN13CAknSoundInfo12InternalizeLER11RReadStream @ 342 NONAME
	_ZN13CAknSoundInfo4NewLEv @ 343 NONAME
	_ZN13CAknSoundInfoD0Ev @ 344 NONAME
	_ZN13CAknSoundInfoD1Ev @ 345 NONAME
	_ZN13CAknSoundInfoD2Ev @ 346 NONAME
	_ZN13CAknTitlePane10ConstructLEv @ 347 NONAME
	_ZN13CAknTitlePane10SetPictureEPK10CFbsBitmapS2_ @ 348 NONAME
	_ZN13CAknTitlePane11SizeChangedEv @ 349 NONAME
	_ZN13CAknTitlePane15PositionChangedEv @ 350 NONAME
	_ZN13CAknTitlePane16SetFromResourceLER15TResourceReader @ 351 NONAME
	_ZN13CAknTitlePane17SetTextToDefaultLEv @ 352 NONAME
	_ZN13CAknTitlePane18ExtensionInterfaceE4TUid @ 353 NONAME
	_ZN13CAknTitlePane19HandlePointerEventLERK13TPointerEvent @ 354 NONAME
	_ZN13CAknTitlePane19SetPictureFromFileLERK7TDesC16ii @ 355 NONAME
	_ZN13CAknTitlePane20HandleResourceChangeEi @ 356 NONAME
	_ZN13CAknTitlePane20SetTitlePaneObserverEP21MAknTitlePaneObserver @ 357 NONAME
	_ZN13CAknTitlePane22ConstructFromResourceLER15TResourceReader @ 358 NONAME
	_ZN13CAknTitlePane7SetTextEP7HBufC16 @ 359 NONAME
	_ZN13CAknTitlePane8SetTextLERK7TDesC16 @ 360 NONAME
	_ZN13CAknTitlePaneC1Ev @ 361 NONAME
	_ZN13CAknTitlePaneC2Ev @ 362 NONAME
	_ZN13CAknTitlePaneD0Ev @ 363 NONAME
	_ZN13CAknTitlePaneD1Ev @ 364 NONAME
	_ZN13CAknTitlePaneD2Ev @ 365 NONAME
	_ZN13CAknViewAppUi10RemoveViewE4TUid @ 366 NONAME
	_ZN13CAknViewAppUi14BaseConstructLEi @ 367 NONAME
	_ZN13CAknViewAppUi14HandleWsEventLERK8TWsEventP11CCoeControl @ 368 NONAME
	_ZN13CAknViewAppUi15ProcessCommandLEi @ 369 NONAME
	_ZN13CAknViewAppUi18ActivateLocalViewLE4TUid @ 370 NONAME
	_ZN13CAknViewAppUi18ActivateLocalViewLE4TUidS0_RK6TDesC8 @ 371 NONAME
	_ZN13CAknViewAppUi21StopDisplayingMenuBarEv @ 372 NONAME
	_ZN13CAknViewAppUi22HandleForegroundEventLEi @ 373 NONAME
	_ZN13CAknViewAppUi26HandleStatusPaneSizeChangeEv @ 374 NONAME
	_ZN13CAknViewAppUi8AddViewLEP8CAknView @ 375 NONAME
	_ZN13CAknViewAppUiD0Ev @ 376 NONAME
	_ZN13CAknViewAppUiD1Ev @ 377 NONAME
	_ZN13CAknViewAppUiD2Ev @ 378 NONAME
	_ZN14AknLayoutUtils10FontFromIdEiPK5CFont @ 379 NONAME
	_ZN14AknLayoutUtils10LayoutMfneEP8CEikMfneRK5TRectR15TResourceReader @ 380 NONAME
	_ZN14AknLayoutUtils10LayoutMfneEP8CEikMfneRK5TRectRK18TAknTextLineLayout @ 381 NONAME
	_ZN14AknLayoutUtils10LayoutMfneEP8CEikMfneRK5TRectRKNS_14SAknLayoutTextE @ 382 NONAME
	_ZN14AknLayoutUtils10LayoutMfneEP8CEikMfneRK5TRecti @ 383 NONAME
	_ZN14AknLayoutUtils10LayoutMfneEP8CEikMfneRK5TRectiiiiiii @ 384 NONAME
	_ZN14AknLayoutUtils10SubVariantEv @ 385 NONAME
	_ZN14AknLayoutUtils11LayoutEdwinEP9CEikEdwinRK5TRectR15TResourceReaderiPK5CFonti @ 386 NONAME
	_ZN14AknLayoutUtils11LayoutEdwinEP9CEikEdwinRK5TRectRK18TAknTextLineLayout23TAknsQsnTextColorsIndexPK5CFonti @ 387 NONAME
	_ZN14AknLayoutUtils11LayoutEdwinEP9CEikEdwinRK5TRectRK18TAknTextLineLayoutPK5CFonti @ 388 NONAME
	_ZN14AknLayoutUtils11LayoutEdwinEP9CEikEdwinRK5TRectRK23TAknMultiLineTextLayout23TAknsQsnTextColorsIndexPK5CFonti @ 389 NONAME
	_ZN14AknLayoutUtils11LayoutEdwinEP9CEikEdwinRK5TRectRK23TAknMultiLineTextLayoutPK5CFonti @ 390 NONAME
	_ZN14AknLayoutUtils11LayoutEdwinEP9CEikEdwinRK5TRectRKNS_23SAknLayoutTextMultilineEPK5CFonti @ 391 NONAME
	_ZN14AknLayoutUtils11LayoutEdwinEP9CEikEdwinRK5TRectiiPK5CFonti @ 392 NONAME
	_ZN14AknLayoutUtils11LayoutEdwinEP9CEikEdwinRK5TRectiiiiiiiii23TAknsQsnTextColorsIndexPK5CFonti @ 393 NONAME
	_ZN14AknLayoutUtils11LayoutEdwinEP9CEikEdwinRK5TRectiiiiiiiiiPK5CFonti @ 394 NONAME
	_ZN14AknLayoutUtils11LayoutImageEP9CEikImageRK5TRectR15TResourceReader @ 395 NONAME
	_ZN14AknLayoutUtils11LayoutImageEP9CEikImageRK5TRectRK20TAknWindowLineLayout @ 396 NONAME
	_ZN14AknLayoutUtils11LayoutImageEP9CEikImageRK5TRectRKNS_14SAknLayoutRectE @ 397 NONAME
	_ZN14AknLayoutUtils11LayoutImageEP9CEikImageRK5TRecti @ 398 NONAME
	_ZN14AknLayoutUtils11LayoutImageEP9CEikImageRK5TRectiiiiiii @ 399 NONAME
	_ZN14AknLayoutUtils11LayoutLabelEP9CEikLabelRK5TRectR15TResourceReaderPK5CFont @ 400 NONAME
	_ZN14AknLayoutUtils11LayoutLabelEP9CEikLabelRK5TRectRK18TAknTextLineLayoutPK5CFont @ 401 NONAME
	_ZN14AknLayoutUtils11LayoutLabelEP9CEikLabelRK5TRectRK23TAknMultiLineTextLayoutPK5CFont @ 402 NONAME
	_ZN14AknLayoutUtils11LayoutLabelEP9CEikLabelRK5TRectRKNS_23SAknLayoutTextMultilineEPK5CFont @ 403 NONAME
	_ZN14AknLayoutUtils11LayoutLabelEP9CEikLabelRK5TRectiPK5CFont @ 404 NONAME
	_ZN14AknLayoutUtils11LayoutLabelEP9CEikLabelRK5TRectiiiiiiiiPK5CFont @ 405 NONAME
	_ZN14AknLayoutUtils12FontFromNameERK7TDesC16 @ 406 NONAME
	_ZN14AknLayoutUtils13LayoutControlEP11CCoeControlRK5TRectR15TResourceReader @ 407 NONAME
	_ZN14AknLayoutUtils13LayoutControlEP11CCoeControlRK5TRectRK20TAknWindowLineLayout @ 408 NONAME
	_ZN14AknLayoutUtils13LayoutControlEP11CCoeControlRK5TRectRKNS_14SAknLayoutRectE @ 409 NONAME
	_ZN14AknLayoutUtils13LayoutControlEP11CCoeControlRK5TRecti @ 410 NONAME
	_ZN14AknLayoutUtils13LayoutControlEP11CCoeControlRK5TRectiiiiiii @ 411 NONAME
	_ZN14AknLayoutUtils14GulAlignFromIdEi @ 412 NONAME
	_ZN14AknLayoutUtils14LayoutMirroredEv @ 413 NONAME
	_ZN14AknLayoutUtils14RectFromCoordsERK5TRectiiiiii @ 414 NONAME
	_ZN14AknLayoutUtils15TextAlignFromIdEi @ 415 NONAME
	_ZN14AknLayoutUtils16LayoutFontFromIdEiPK14CAknLayoutFont @ 416 NONAME
	_ZN14AknLayoutUtils17LayoutMetricsRectENS_17TAknLayoutMetricsER5TRect @ 417 NONAME
	_ZN14AknLayoutUtils17LayoutMetricsSizeENS_17TAknLayoutMetricsER5TSize @ 418 NONAME
	_ZN14AknLayoutUtils18LayoutSecretEditorEP16CEikSecretEditorRK5TRectRK18TAknTextLineLayout @ 419 NONAME
	_ZN14AknLayoutUtils18LayoutSecretEditorEP16CEikSecretEditorRK5TRectRKNS_14SAknLayoutTextE @ 420 NONAME
	_ZN14AknLayoutUtils18MinimizedEdwinRectEPK9CEikEdwin @ 421 NONAME
	_ZN14AknLayoutUtils18TextRectFromCoordsERK5TRectPK5CFontiiiii @ 422 NONAME
	_ZN14AknLayoutUtils19CursorWidthFromFontERK9TFontSpec @ 423 NONAME
	_ZN14AknLayoutUtils20CursorAscentFromFontERK9TFontSpec @ 424 NONAME
	_ZN14AknLayoutUtils20CursorHeightFromFontERK9TFontSpec @ 425 NONAME
	_ZN14AknLayoutUtils20DefaultScrollBarTypeEP13CAknAppUiBase @ 426 NONAME
	_ZN14AknLayoutUtils21LayoutMetricsPositionENS_17TAknLayoutMetricsER6TPoint @ 427 NONAME
	_ZN14AknLayoutUtils21OverrideControlColorLER11CCoeControl13TLogicalColor4TRgb @ 428 NONAME
	_ZN14AknLayoutUtils23LayoutVerticalScrollBarEP18CEikScrollBarFrameRK5TRectRK20TAknWindowLineLayout @ 429 NONAME
	_ZN14AknLayoutUtils24CursorExtensionsFromFontERK9TFontSpecRiS3_ @ 430 NONAME
	_ZN14AknLayoutUtils25LayoutHorizontalScrollBarEP18CEikScrollBarFrameRK5TRectRK20TAknWindowLineLayout @ 431 NONAME
	_ZN14AknLayoutUtils27HighlightLeftPixelsFromFontERK9TFontSpec @ 432 NONAME
	_ZN14AknLayoutUtils28HighlightRightPixelsFromFontERK9TFontSpec @ 433 NONAME
	_ZN14AknLayoutUtils32ScalableLayoutInterfaceAvailableEv @ 434 NONAME
	_ZN14AknLayoutUtils7VariantEv @ 435 NONAME
	_ZN14CAknAnimatedGc10DeactivateEv @ 436 NONAME
	_ZN14CAknAnimatedGc10DrawBitmapERK5TRectPK10CFbsBitmap @ 437 NONAME
	_ZN14CAknAnimatedGc10DrawBitmapERK5TRectPK10CFbsBitmapS2_ @ 438 NONAME
	_ZN14CAknAnimatedGc10DrawBitmapERK6TPointPK10CFbsBitmap @ 439 NONAME
	_ZN14CAknAnimatedGc10DrawLineByERK6TPoint @ 440 NONAME
	_ZN14CAknAnimatedGc10DrawLineToERK6TPoint @ 441 NONAME
	_ZN14CAknAnimatedGc10SetPenSizeERK5TSize @ 442 NONAME
	_ZN14CAknAnimatedGc11DiscardFontEv @ 443 NONAME
	_ZN14CAknAnimatedGc11DrawEllipseERK5TRect @ 444 NONAME
	_ZN14CAknAnimatedGc11DrawPolygonEPK6TPointiN16CGraphicsContext9TFillRuleE @ 445 NONAME
	_ZN14CAknAnimatedGc11DrawPolygonEPK9CArrayFixI6TPointEN16CGraphicsContext9TFillRuleE @ 446 NONAME
	_ZN14CAknAnimatedGc11SetDrawModeEN16CGraphicsContext9TDrawModeE @ 447 NONAME
	_ZN14CAknAnimatedGc11SetPenColorERK4TRgb @ 448 NONAME
	_ZN14CAknAnimatedGc11SetPenStyleEN16CGraphicsContext9TPenStyleE @ 449 NONAME
	_ZN14CAknAnimatedGc12BitBltMaskedERK6TPointPK10CFbsBitmapRK5TRectS5_i @ 450 NONAME
	_ZN14CAknAnimatedGc12BitBltMaskedERK6TPointPK9CWsBitmapRK5TRectS5_i @ 451 NONAME
	_ZN14CAknAnimatedGc12DrawPolyLineEPK6TPointi @ 452 NONAME
	_ZN14CAknAnimatedGc12DrawPolyLineEPK9CArrayFixI6TPointE @ 453 NONAME
	_ZN14CAknAnimatedGc13DrawRoundRectERK5TRectRK5TSize @ 454 NONAME
	_ZN14CAknAnimatedGc13SetBrushColorERK4TRgb @ 455 NONAME
	_ZN14CAknAnimatedGc13SetBrushStyleEN16CGraphicsContext11TBrushStyleE @ 456 NONAME
	_ZN14CAknAnimatedGc14SetBrushOriginERK6TPoint @ 457 NONAME
	_ZN14CAknAnimatedGc15SetClippingRectERK5TRect @ 458 NONAME
	_ZN14CAknAnimatedGc15SetDitherOriginERK6TPoint @ 459 NONAME
	_ZN14CAknAnimatedGc15UseBrushPatternEPK10CFbsBitmap @ 460 NONAME
	_ZN14CAknAnimatedGc16DrawTextVerticalERK7TDesC16RK5TRectiiN16CGraphicsContext10TTextAlignEi @ 461 NONAME
	_ZN14CAknAnimatedGc16DrawTextVerticalERK7TDesC16RK6TPointi @ 462 NONAME
	_ZN14CAknAnimatedGc17SetClippingRegionERK7TRegion @ 463 NONAME
	_ZN14CAknAnimatedGc17SetUnderlineStyleE14TFontUnderline @ 464 NONAME
	_ZN14CAknAnimatedGc18CancelClippingRectEv @ 465 NONAME
	_ZN14CAknAnimatedGc19DiscardBrushPatternEv @ 466 NONAME
	_ZN14CAknAnimatedGc19SetFadingParametersEhh @ 467 NONAME
	_ZN14CAknAnimatedGc20CancelClippingRegionEv @ 468 NONAME
	_ZN14CAknAnimatedGc20SetCharJustificationEii @ 469 NONAME
	_ZN14CAknAnimatedGc20SetWordJustificationEii @ 470 NONAME
	_ZN14CAknAnimatedGc21SetStrikethroughStyleE18TFontStrikethrough @ 471 NONAME
	_ZN14CAknAnimatedGc4PlotERK6TPoint @ 472 NONAME
	_ZN14CAknAnimatedGc5ClearERK5TRect @ 473 NONAME
	_ZN14CAknAnimatedGc5ClearEv @ 474 NONAME
	_ZN14CAknAnimatedGc5ResetEv @ 475 NONAME
	_ZN14CAknAnimatedGc6BitBltERK6TPointPK10CFbsBitmap @ 476 NONAME
	_ZN14CAknAnimatedGc6BitBltERK6TPointPK10CFbsBitmapRK5TRect @ 477 NONAME
	_ZN14CAknAnimatedGc6BitBltERK6TPointPK9CWsBitmap @ 478 NONAME
	_ZN14CAknAnimatedGc6BitBltERK6TPointPK9CWsBitmapRK5TRect @ 479 NONAME
	_ZN14CAknAnimatedGc6MoveByERK6TPoint @ 480 NONAME
	_ZN14CAknAnimatedGc6MoveToERK6TPoint @ 481 NONAME
	_ZN14CAknAnimatedGc7DrawArcERK5TRectRK6TPointS5_ @ 482 NONAME
	_ZN14CAknAnimatedGc7DrawPieERK5TRectRK6TPointS5_ @ 483 NONAME
	_ZN14CAknAnimatedGc7UseFontEPK5CFont @ 484 NONAME
	_ZN14CAknAnimatedGc8ActivateER15RDrawableWindow @ 485 NONAME
	_ZN14CAknAnimatedGc8CopyRectERK6TPointRK5TRect @ 486 NONAME
	_ZN14CAknAnimatedGc8DrawLineERK6TPointS2_ @ 487 NONAME
	_ZN14CAknAnimatedGc8DrawRectERK5TRect @ 488 NONAME
	_ZN14CAknAnimatedGc8DrawTextERK7TDesC16RK5TRectiN16CGraphicsContext10TTextAlignEi @ 489 NONAME
	_ZN14CAknAnimatedGc8DrawTextERK7TDesC16RK6TPoint @ 490 NONAME
	_ZN14CAknAnimatedGc8SetFadedEi @ 491 NONAME
	_ZN14CAknAnimatedGc9MapColorsERK5TRectPK4TRgbii @ 492 NONAME
	_ZN14CAknAnimatedGc9SetOriginERK6TPoint @ 493 NONAME
	_ZN14CAknInputFrame11MinimumSizeEv @ 494 NONAME
	_ZN14CAknInputFrame12SetInfoTextLERK7TDesC16 @ 495 NONAME
	_ZN14CAknInputFrame12SetLineStateEi @ 496 NONAME
	_ZN14CAknInputFrame14OfferKeyEventLERK9TKeyEvent10TEventCode @ 497 NONAME
	_ZN14CAknInputFrame15SetInputContextEP34CAknsFrameBackgroundControlContext @ 498 NONAME
	_ZN14CAknInputFrame19HandleControlEventLEP11CCoeControlN19MCoeControlObserver9TCoeEventE @ 499 NONAME
	_ZN14CAknInputFrame22ConstructFromResourceLER15TResourceReader @ 500 NONAME
	_ZN14CAknInputFrame4NewLEP11CCoeControliP8CGulIconm @ 501 NONAME
	_ZN14CAknInputFrame4NewLEP11CCoeControliRK7TDesC16iim @ 502 NONAME
	_ZN14CAknInputFrameD0Ev @ 503 NONAME
	_ZN14CAknInputFrameD1Ev @ 504 NONAME
	_ZN14CAknInputFrameD2Ev @ 505 NONAME
	_ZN14CAknItemFinder11AddObserverER22MAknItemFinderObserver @ 506 ABSENT
	_ZN14CAknItemFinder11CurrentItemEv @ 507 ABSENT
	_ZN14CAknItemFinder12SetFindModeLEi @ 508 ABSENT
	_ZN14CAknItemFinder13ParseThisTextERK9CRichTextiiiRiS3_ @ 509 ABSENT
	_ZN14CAknItemFinder14CreateDoItTextERK9CRichTextii @ 510 ABSENT
	_ZN14CAknItemFinder16ResetCurrentItemEv @ 511 ABSENT
	_ZN14CAknItemFinder17ActivateThisTextLERK9CRichTextii @ 512 ABSENT
	_ZN14CAknItemFinder17GetRolloverFormatER11TCharFormat @ 513 ABSENT
	_ZN14CAknItemFinder17NextItemOrScrollLENS_14TFindDirectionE @ 514 ABSENT
	_ZN14CAknItemFinder18GetRecogniseFormatER11TCharFormat @ 515 ABSENT
	_ZN14CAknItemFinder18MParser_Reserved_2Ev @ 516 ABSENT
	_ZN14CAknItemFinder18PositionOfNextItemENS_14TFindDirectionE @ 517 ABSENT
	_ZN14CAknItemFinder20ConfirmCursorOverTagERK9CRichTextiii @ 518 ABSENT
	_ZN14CAknItemFinder22ResolveAndSetItemTypeLEi @ 519 ABSENT
	_ZN14CAknItemFinder4NewLEi @ 520 ABSENT
	_ZN14CAknItemFinder7ReleaseEv @ 521 ABSENT
	_ZN14CAknItemFinder9SetEditorEPP18CEikRichTextEditor @ 522 ABSENT
	_ZN14CAknLayoutData4NewLEv @ 523 NONAME ABSENT
	_ZN14CAknLayoutDataD0Ev @ 524 NONAME ABSENT
	_ZN14CAknLayoutDataD1Ev @ 525 NONAME ABSENT
	_ZN14CAknLayoutDataD2Ev @ 526 NONAME ABSENT
	_ZN14CAknLayoutFont22AsCAknLayoutFontOrNullEPK5CFont @ 527 NONAME
	_ZN14CAknLayoutFont6UpdateEv @ 528 NONAME
	_ZN14CAknLegacyMode4NewLEv @ 529 NONAME
	_ZN14CAknLegacyModeD0Ev @ 530 NONAME
	_ZN14CAknLegacyModeD1Ev @ 531 NONAME
	_ZN14CAknLegacyModeD2Ev @ 532 NONAME
	_ZN14CAknNoteDialog10SetTimeoutERKNS_8TTimeoutE @ 533 NONAME
	_ZN14CAknNoteDialog11NoteControlEv @ 534 NONAME
	_ZN14CAknNoteDialog11SizeChangedEv @ 535 NONAME
	_ZN14CAknNoteDialog12ExecuteDlgLDENS_5TToneEi @ 536 NONAME
	_ZN14CAknNoteDialog12ExecuteDlgLDENS_8TTimeoutENS_5TToneEi @ 537 NONAME
	_ZN14CAknNoteDialog12ExecuteDlgLDEii @ 538 NONAME
	_ZN14CAknNoteDialog13LayoutAndDrawEv @ 539 NONAME
	_ZN14CAknNoteDialog13StaticDeleteLEPv @ 540 NONAME
	_ZN14CAknNoteDialog14OfferKeyEventLERK9TKeyEvent10TEventCode @ 541 NONAME
	_ZN14CAknNoteDialog14SetTextNumberLEi @ 542 NONAME
	_ZN14CAknNoteDialog15SetTextWrappingEi @ 543 NONAME
	_ZN14CAknNoteDialog16SetCurrentLabelLEiRK7TDesC16 @ 544 NONAME
	_ZN14CAknNoteDialog17ControlAttributesEv @ 545 NONAME
	_ZN14CAknNoteDialog17PreLayoutDynInitLEv @ 546 NONAME
	_ZN14CAknNoteDialog17SetTextPluralityLEi @ 547 NONAME
	_ZN14CAknNoteDialog17SetTextProcessingEi @ 548 NONAME
	_ZN14CAknNoteDialog18ExtensionInterfaceE4TUid @ 549 NONAME
	_ZN14CAknNoteDialog18PostLayoutDynInitLEv @ 550 NONAME
	_ZN14CAknNoteDialog18SetSizeAndPositionERK5TSize @ 551 NONAME
	_ZN14CAknNoteDialog19HandlePointerEventLERK13TPointerEvent @ 552 NONAME
	_ZN14CAknNoteDialog20HandleResourceChangeEi @ 553 NONAME
	_ZN14CAknNoteDialog21CEikDialog_Reserved_1Ev @ 554 NONAME
	_ZN14CAknNoteDialog21CEikDialog_Reserved_2Ev @ 555 NONAME
	_ZN14CAknNoteDialog21SetNoMemoryAllocationEv @ 556 NONAME
	_ZN14CAknNoteDialog23CAknNoteDialog_ReservedEv @ 557 NONAME
	_ZN14CAknNoteDialog25TransferControlAttributesEv @ 558 NONAME
	_ZN14CAknNoteDialog5RunLDEv @ 559 NONAME
	_ZN14CAknNoteDialog7SetToneERKNS_5TToneE @ 560 NONAME
	_ZN14CAknNoteDialog8PlayToneEv @ 561 NONAME
	_ZN14CAknNoteDialog8RunDlgLDENS_5TToneE @ 562 NONAME
	_ZN14CAknNoteDialog8RunDlgLDENS_8TTimeoutENS_5TToneE @ 563 NONAME
	_ZN14CAknNoteDialog8RunDlgLDEi @ 564 NONAME
	_ZN14CAknNoteDialog8RunDlgLDEv @ 565 NONAME
	_ZN14CAknNoteDialog8SetIconLEP9CEikImage @ 566 NONAME
	_ZN14CAknNoteDialog8SetTextLERK7TDesC16 @ 567 NONAME
	_ZN14CAknNoteDialog9SetImageLEP9CEikImage @ 568 NONAME
	_ZN14CAknNoteDialogC1EPP10CEikDialogRKNS_5TToneERKNS_8TTimeoutE @ 569 NONAME
	_ZN14CAknNoteDialogC1ERKNS_5TToneERKNS_8TTimeoutE @ 570 NONAME
	_ZN14CAknNoteDialogC1Ev @ 571 NONAME
	_ZN14CAknNoteDialogC2EPP10CEikDialogRKNS_5TToneERKNS_8TTimeoutE @ 572 NONAME
	_ZN14CAknNoteDialogC2ERKNS_5TToneERKNS_8TTimeoutE @ 573 NONAME
	_ZN14CAknNoteDialogC2Ev @ 574 NONAME
	_ZN14CAknNoteDialogD0Ev @ 575 NONAME
	_ZN14CAknNoteDialogD1Ev @ 576 NONAME
	_ZN14CAknNoteDialogD2Ev @ 577 NONAME
	_ZN14CAknPopupField10ConstructLEv @ 578 NONAME
	_ZN14CAknPopupField10Reserved_1Ev @ 579 NONAME
	_ZN14CAknPopupField10Reserved_2Ev @ 580 NONAME
	_ZN14CAknPopupField11MinimumSizeEv @ 581 NONAME
	_ZN14CAknPopupField11SizeChangedEv @ 582 NONAME
	_ZN14CAknPopupField13SetEmptyTextLERK7TDesC16 @ 583 NONAME
	_ZN14CAknPopupField13SetOtherTextLERK7TDesC16 @ 584 NONAME
	_ZN14CAknPopupField14OfferKeyEventLERK9TKeyEvent10TEventCode @ 585 NONAME
	_ZN14CAknPopupField14SetQueryValueLEP14MAknQueryValue @ 586 NONAME
	_ZN14CAknPopupField15MopSupplyObjectE8TTypeUid @ 587 NONAME
	_ZN14CAknPopupField15ProcessCommandLEi @ 588 NONAME
	_ZN14CAknPopupField15SetInvalidTextLERK7TDesC16 @ 589 NONAME
	_ZN14CAknPopupField16SetFormFieldRectE5TRect @ 590 NONAME
	_ZN14CAknPopupField17SetEmptyListNoteLEiN14CAknNoteDialog8TTimeoutENS0_5TToneE @ 591 NONAME
	_ZN14CAknPopupField18ExtensionInterfaceE4TUid @ 592 NONAME
	_ZN14CAknPopupField18SetShowIndicatorsLEi @ 593 NONAME
	_ZN14CAknPopupField19HandleControlEventLEP11CCoeControlN19MCoeControlObserver9TCoeEventE @ 594 NONAME
	_ZN14CAknPopupField19HandleListBoxEventLEP11CEikListBoxN19MEikListBoxObserver13TListBoxEventE @ 595 NONAME
	_ZN14CAknPopupField19HandlePointerEventLERK13TPointerEvent @ 596 NONAME
	_ZN14CAknPopupField20HandleResourceChangeEi @ 597 NONAME
	_ZN14CAknPopupField21SetPopupFieldObserverEP22MAknPopupFieldObserver @ 598 NONAME
	_ZN14CAknPopupField22ActivateSelectionListLEv @ 599 NONAME
	_ZN14CAknPopupField22ConstructFromResourceLER15TResourceReader @ 600 NONAME
	_ZN14CAknPopupField25SetAllowsUserDefinedEntryEi @ 601 NONAME
	_ZN14CAknPopupField28SetMaxNumberOfLinesPermittedEi @ 602 NONAME
	_ZN14CAknPopupField7SetFontEPK5CFont @ 603 NONAME
	_ZN14CAknPopupFieldC1Ev @ 604 NONAME
	_ZN14CAknPopupFieldC2Ev @ 605 NONAME
	_ZN14CAknPopupFieldD0Ev @ 606 NONAME
	_ZN14CAknPopupFieldD1Ev @ 607 NONAME
	_ZN14CAknPopupFieldD2Ev @ 608 NONAME
	_ZN14CAknQueryValue12SetQueryModeEN14MAknQueryValue5TModeE @ 609 NONAME
	_ZN14CAknQueryValue13SetAutoAppendEi @ 610 NONAME
	_ZN14CAknQueryValue17AppendValueIfNewLEv @ 611 NONAME
	_ZN14CAknQueryValue23Reserved_MAknQueryValueEv @ 612 NONAME
	_ZN14CAknQueryValue25SetSettingPageResourceIdsEii @ 613 NONAME
	_ZN14CAknSignalPane10ConstructLEv @ 614 NONAME
	_ZN14CAknSignalPane11SizeChangedEv @ 615 NONAME
	_ZN14CAknSignalPane12ShowCdmaIconEi @ 616 NONAME
	_ZN14CAknSignalPane12ShowGprsIconEi @ 617 NONAME
	_ZN14CAknSignalPane13ShowWcdmaIconEi @ 618 NONAME
	_ZN14CAknSignalPane14SetSignalLevelEi @ 619 NONAME
	_ZN14CAknSignalPane15PositionChangedEv @ 620 NONAME
	_ZN14CAknSignalPane18ExtensionInterfaceE4TUid @ 621 NONAME
	_ZN14CAknSignalPane20HandleResourceChangeEi @ 622 NONAME
	_ZN14CAknSignalPane22ConstructFromResourceLER15TResourceReader @ 623 NONAME
	_ZN14CAknSignalPane24ShowCommonPacketDataIconEi @ 624 NONAME
	_ZN14CAknSignalPane25SetNaviPaneBackgroundTypeEi @ 625 NONAME
	_ZN14CAknSignalPaneC1Ev @ 626 NONAME
	_ZN14CAknSignalPaneC2Ev @ 627 NONAME
	_ZN14CAknSignalPaneD0Ev @ 628 NONAME
	_ZN14CAknSignalPaneD1Ev @ 629 NONAME
	_ZN14CAknSignalPaneD2Ev @ 630 NONAME
	_ZN14CAknWaitDialog15GetProgressInfoEv @ 631 NONAME
	_ZN14CAknWaitDialog18ExtensionInterfaceE4TUid @ 632 NONAME
	_ZN14CAknWaitDialog19HandlePointerEventLERK13TPointerEvent @ 633 NONAME
	_ZN14CAknWaitDialog21CEikDialog_Reserved_1Ev @ 634 NONAME
	_ZN14CAknWaitDialog21CEikDialog_Reserved_2Ev @ 635 NONAME
	_ZN14CAknWaitDialog23CAknNoteDialog_ReservedEv @ 636 NONAME
	_ZN14CAknWaitDialogC1EPP10CEikDialog @ 637 NONAME
	_ZN14CAknWaitDialogC1EPP10CEikDialogi @ 638 NONAME
	_ZN14CAknWaitDialogC2EPP10CEikDialog @ 639 NONAME
	_ZN14CAknWaitDialogC2EPP10CEikDialogi @ 640 NONAME
	_ZN14MAknQueryValue23Reserved_MAknQueryValueEv @ 641 NONAME
	_ZN14MAknSyncDrawer25MAknSyncDrawer_Reserved_1Ev @ 642 NONAME
	_ZN14MAknSyncDrawer25MAknSyncDrawer_Reserved_2Ev @ 643 NONAME
	_ZN14TAknLayoutRect10LayoutRectERK5TRectR15TResourceReader @ 644 NONAME
	_ZN14TAknLayoutRect10LayoutRectERK5TRectRK20TAknWindowLineLayout @ 645 NONAME
	_ZN14TAknLayoutRect10LayoutRectERK5TRectRKN14AknLayoutUtils14SAknLayoutRectE @ 646 NONAME
	_ZN14TAknLayoutRect10LayoutRectERK5TRecti @ 647 NONAME
	_ZN14TAknLayoutRect10LayoutRectERK5TRectiiiiiii @ 648 NONAME
	_ZN14TAknLayoutRectC1Ev @ 649 NONAME
	_ZN14TAknLayoutRectC2Ev @ 650 NONAME
	_ZN14TAknLayoutText10LayoutTextERK5TRectR15TResourceReaderPK5CFont @ 651 NONAME
	_ZN14TAknLayoutText10LayoutTextERK5TRectRK18TAknTextLineLayoutPK5CFont @ 652 NONAME
	_ZN14TAknLayoutText10LayoutTextERK5TRectRKN14AknLayoutUtils14SAknLayoutTextEPK5CFont @ 653 NONAME
	_ZN14TAknLayoutText10LayoutTextERK5TRectiPK5CFont @ 654 NONAME
	_ZN14TAknLayoutText10LayoutTextERK5TRectiiiiiiiPK5CFont @ 655 NONAME
	_ZN14TAknLayoutTextC1Ev @ 656 NONAME
	_ZN14TAknLayoutTextC2Ev @ 657 NONAME
	_ZN14TAknPopupFader15FadeBehindPopupEP18MAknFadedComponentP11CCoeControli @ 658 NONAME
	_ZN15AknListBoxUtils17ListBoxLinesShownEP17MAknsSkinInstanceP19MAknsControlContext @ 659 NONAME
	_ZN15AknListBoxUtils38HandleItemRemovalAndPositionHighlightLEP11CEikListBoxiR9CArrayFixIiE @ 660 NONAME
	_ZN15AknListBoxUtils38HandleItemRemovalAndPositionHighlightLEP11CEikListBoxii @ 661 NONAME
	_ZN15AknPopupLayouts10CheckRangeERiii @ 662 NONAME
	_ZN15AknPopupLayouts10HandleDrawEP9CEikonEnvR9CWindowGcRK24TAknPopupWindowLayoutDefP11CEikListBoxP20CAknPopupHeadingPane @ 663 NONAME
	_ZN15AknPopupLayouts10WindowRectER24TAknPopupWindowLayoutDef @ 664 NONAME
	_ZN15AknPopupLayouts13SetupDefaultsER24TAknPopupWindowLayoutDef @ 665 NONAME
	_ZN15AknPopupLayouts17HandleSizeChangedER24TAknPopupWindowLayoutDefNS_16TAknPopupLayoutsEP20CAknPopupHeadingPaneP11CEikListBoxP11CCoeControl @ 666 NONAME
	_ZN15AknPopupLayouts17HandleSizeChangedER24TAknPopupWindowLayoutDefNS_16TAknPopupLayoutsEP20TAknPopupLayoutsNode @ 667 NONAME
	_ZN15AknPopupLayouts19CalcPopupMenuWindowER24TAknPopupWindowLayoutDef5TRecti @ 668 NONAME
	_ZN15AknPopupLayouts20SetupMenuPopupWindowER24TAknPopupWindowLayoutDefii @ 669 NONAME
	_ZN15AknPopupLayouts23MenuPopupWindowGraphicsER24TAknPopupWindowLayoutDef @ 670 NONAME
	_ZN15AknPopupLayouts25CalcPopupMenuDoubleWindowER24TAknPopupWindowLayoutDef5TRecti @ 671 NONAME
	_ZN15AknPopupLayouts25CalcPopupSNoteGroupWindowER24TAknPopupWindowLayoutDef5TRecti @ 672 NONAME
	_ZN15AknPopupLayouts26CalcPopupMenuGraphicWindowER24TAknPopupWindowLayoutDef5TRecti @ 673 NONAME
	_ZN15AknPopupLayouts26SetupPopupMenuDoubleWindowER24TAknPopupWindowLayoutDefii @ 674 NONAME
	_ZN15AknPopupLayouts26SetupPopupSNoteGroupWindowER24TAknPopupWindowLayoutDefii @ 675 NONAME
	_ZN15AknPopupLayouts27SetupPopupMenuGraphicWindowER24TAknPopupWindowLayoutDefii @ 676 NONAME
	_ZN15AknPopupLayouts29ModifyWindowGraphicForHeadingER24TAknPopupWindowLayoutDef @ 677 NONAME
	_ZN15AknPopupLayouts32ModifyWindowGraphicForMessageBoxER24TAknPopupWindowLayoutDefi @ 678 NONAME
	_ZN15AknPopupLayouts33CalcPopupMenuGraphicHeadingWindowER24TAknPopupWindowLayoutDef5TRecti @ 679 NONAME
	_ZN15AknPopupLayouts33HandleSizeAndPositionOfComponentsERK24TAknPopupWindowLayoutDefP11CCoeControlP20CAknPopupHeadingPane @ 680 NONAME
	_ZN15AknPopupLayouts34SetupImageSelectionMenuPopupWindowER24TAknPopupWindowLayoutDefii @ 681 NONAME
	_ZN15AknPopupLayouts34SetupPopupMenuGraphicHeadingWindowER24TAknPopupWindowLayoutDefii @ 682 NONAME
	_ZN15AknPopupLayouts37CalcPopupMenuDoubleLargeGraphicWindowER24TAknPopupWindowLayoutDef5TRecti @ 683 NONAME
	_ZN15AknPopupLayouts8MenuRectER24TAknPopupWindowLayoutDef @ 684 NONAME
	_ZN15CAknApplication13NewAppServerLERP13CApaAppServer @ 685 NONAME
	_ZN15CAknApplication16PreDocConstructLEv @ 686 NONAME
	_ZN15CAknBatteryPane10ConstructLEv @ 687 NONAME
	_ZN15CAknBatteryPane11SizeChangedEv @ 688 NONAME
	_ZN15CAknBatteryPane15PositionChangedEv @ 689 NONAME
	_ZN15CAknBatteryPane15SetBatteryLevelEi @ 690 NONAME
	_ZN15CAknBatteryPane18ExtensionInterfaceE4TUid @ 691 NONAME
	_ZN15CAknBatteryPane20HandleResourceChangeEi @ 692 NONAME
	_ZN15CAknBatteryPane22ConstructFromResourceLER15TResourceReader @ 693 NONAME
	_ZN15CAknBatteryPaneC1Ev @ 694 NONAME
	_ZN15CAknBatteryPaneC2Ev @ 695 NONAME
	_ZN15CAknBatteryPaneD0Ev @ 696 NONAME
	_ZN15CAknBatteryPaneD1Ev @ 697 NONAME
	_ZN15CAknBatteryPaneD2Ev @ 698 NONAME
	_ZN15CAknContextPane10ConstructLEv @ 699 NONAME
	_ZN15CAknContextPane10SetPictureEP9CEikImage @ 700 NONAME
	_ZN15CAknContextPane10SetPictureEPK10CFbsBitmapS2_ @ 701 NONAME
	_ZN15CAknContextPane11SizeChangedEv @ 702 NONAME
	_ZN15CAknContextPane11SwapPictureEP9CEikImage @ 703 NONAME
	_ZN15CAknContextPane16SetFromResourceLER15TResourceReader @ 704 NONAME
	_ZN15CAknContextPane18ExtensionInterfaceE4TUid @ 705 NONAME
	_ZN15CAknContextPane19HandlePointerEventLERK13TPointerEvent @ 706 NONAME
	_ZN15CAknContextPane19SetPictureFromFileLERK7TDesC16ii @ 707 NONAME
	_ZN15CAknContextPane20HandleResourceChangeEi @ 708 NONAME
	_ZN15CAknContextPane20SetPictureToDefaultLEv @ 709 NONAME
	_ZN15CAknContextPane22ConstructFromResourceLER15TResourceReader @ 710 NONAME
	_ZN15CAknContextPaneC1Ev @ 711 NONAME
	_ZN15CAknContextPaneC2Ev @ 712 NONAME
	_ZN15CAknContextPaneD0Ev @ 713 NONAME
	_ZN15CAknContextPaneD1Ev @ 714 NONAME
	_ZN15CAknContextPaneD2Ev @ 715 NONAME
	_ZN15CAknEcsDetector10ConstructLEv @ 716 NONAME
	_ZN15CAknEcsDetector11ReportEventENS_6TStateE @ 717 NONAME
	_ZN15CAknEcsDetector11SetObserverEP15MAknEcsObserver @ 718 NONAME
	_ZN15CAknEcsDetector14HandleWsEventLERK8TWsEventP11CCoeControl @ 719 NONAME
	_ZN15CAknEcsDetector16CloseEventSourceEv @ 720 NONAME
	_ZN15CAknEcsDetector18OfferEmergencyCallEv @ 721 NONAME
	_ZN15CAknEcsDetector20ConnectToEventSourceEv @ 722 NONAME
	_ZN15CAknEcsDetector4NewLEv @ 723 NONAME
	_ZN15CAknEcsDetector5ResetEv @ 724 NONAME
	_ZN15CAknEcsDetector5StateEv @ 725 NONAME
	_ZN15CAknEcsDetector7AddCharEt @ 726 NONAME
	_ZN15CAknEcsDetector8SetStateENS_6TStateE @ 727 NONAME
	_ZN15CAknEcsDetector9SetBufferERK7TDesC16 @ 728 NONAME
	_ZN15CAknEcsDetectorC1Ev @ 729 NONAME
	_ZN15CAknEcsDetectorC2Ev @ 730 NONAME
	_ZN15CAknEcsDetectorD0Ev @ 731 NONAME
	_ZN15CAknEcsDetectorD1Ev @ 732 NONAME
	_ZN15CAknEcsDetectorD2Ev @ 733 NONAME
	_ZN15CAknNoteControl12UpdateLabelsERK7TDesC16S2_S2_ @ 734 NONAME
	_ZN15CAknNoteControl13SetAnimationLEi @ 735 NONAME
	_ZN15CAknNoteControl13UpdateLabelsLERK7TDesC16S2_S2_ @ 736 NONAME
	_ZN15CAknNoteControl14SetTextNumberLEi @ 737 NONAME
	_ZN15CAknNoteControl15CancelAnimationEv @ 738 NONAME
	_ZN15CAknNoteControl15GetProgressInfoEv @ 739 NONAME
	_ZN15CAknNoteControl15MopSupplyObjectE8TTypeUid @ 740 NONAME
	_ZN15CAknNoteControl15SetDynamicTextLERK7TDesC16 @ 741 NONAME
	_ZN15CAknNoteControl15StartAnimationLEv @ 742 NONAME
	_ZN15CAknNoteControl17SetTextPluralityLEi @ 743 NONAME
	_ZN15CAknNoteControl18CreateProgressBarLEv @ 744 NONAME
	_ZN15CAknNoteControl18ExtensionInterfaceE4TUid @ 745 NONAME
	_ZN15CAknNoteControl19HandlePointerEventLERK13TPointerEvent @ 746 NONAME
	_ZN15CAknNoteControl20IncrementBarsAndDrawEi @ 747 NONAME
	_ZN15CAknNoteControl21SetFinalProgressValueEi @ 748 NONAME
	_ZN15CAknNoteControl22SetLabelReserveLengthLEiii @ 749 NONAME
	_ZN15CAknNoteControl22UpdateAndFormatLabelsLERK7TDesC16 @ 750 NONAME
	_ZN15CAknNoteControl6LayoutEv @ 751 NONAME
	_ZN15CAknNoteControl8SetIconLEP9CEikImage @ 752 NONAME
	_ZN15CAknNoteControl8SetTextLERK7TDesC16 @ 753 NONAME
	_ZN15CAknNoteControl8SetTextLERK7TDesC16i @ 754 NONAME
	_ZN15CAknNoteControl9ResetTextEv @ 755 NONAME
	_ZN15CAknNoteControl9SetBgRectERK5TRectRK6TPointi @ 756 NONAME
	_ZN15CAknNoteControl9SetImageLEP9CEikImage @ 757 NONAME
	_ZN15CAknNoteControlC1Ev @ 758 NONAME
	_ZN15CAknNoteControlC2Ev @ 759 NONAME
	_ZN15CAknNoteControlD0Ev @ 760 NONAME
	_ZN15CAknNoteControlD1Ev @ 761 NONAME
	_ZN15CAknNoteControlD2Ev @ 762 NONAME
	_ZN15CAknNoteWrapper18ExtensionInterfaceE4TUid @ 763 NONAME
	_ZN15CAknNoteWrapper19HandlePointerEventLERK13TPointerEvent @ 764 NONAME
	_ZN15CAknNoteWrapper21CEikDialog_Reserved_1Ev @ 765 NONAME
	_ZN15CAknNoteWrapper21CEikDialog_Reserved_2Ev @ 766 NONAME
	_ZN15CAknNoteWrapper22HandleDialogPageEventLEi @ 767 NONAME
	_ZN15CAknNoteWrapper23CAknNoteDialog_ReservedEv @ 768 NONAME
	_ZN15CAknNoteWrapper9ExecuteLDEi @ 769 NONAME
	_ZN15CAknNoteWrapper9ExecuteLDEiRK7TDesC16 @ 770 NONAME
	_ZN15CAknNoteWrapper9Reserved1Ev @ 771 NONAME
	_ZN15CAknNoteWrapperC1EPPS_ @ 772 NONAME
	_ZN15CAknNoteWrapperC1Ev @ 773 NONAME
	_ZN15CAknNoteWrapperC2EPPS_ @ 774 NONAME
	_ZN15CAknNoteWrapperC2Ev @ 775 NONAME
	_ZN15CAknNullService4NewLERK4TUidP25MAknServerAppExitObserver @ 776 NONAME
	_ZN15CAknQueryDialog10SetPromptLERK7TDesC16 @ 777 NONAME
	_ZN15CAknQueryDialog12DoSetPromptLEv @ 778 NONAME
	_ZN15CAknQueryDialog13DismissQueryLEv @ 779 NONAME
	_ZN15CAknQueryDialog13MaxTextLengthEPK16CAknQueryControlPK6TDes16i @ 780 NONAME
	_ZN15CAknQueryDialog13MaxTextLengthEPK16CAknQueryControlRK6TDes16i @ 781 NONAME
	_ZN15CAknQueryDialog14OfferKeyEventLERK9TKeyEvent10TEventCode @ 782 NONAME
	_ZN15CAknQueryDialog14SetHeaderTextLERK7TDesC16 @ 783 NONAME
	_ZN15CAknQueryDialog15SetHeaderImageLEP9CEikImage @ 784 NONAME
	_ZN15CAknQueryDialog17PreLayoutDynInitLEv @ 785 NONAME
	_ZN15CAknQueryDialog18ExtensionInterfaceE4TUid @ 786 NONAME
	_ZN15CAknQueryDialog18PostLayoutDynInitLEv @ 787 NONAME
	_ZN15CAknQueryDialog18SetSizeAndPositionERK5TSize @ 788 NONAME
	_ZN15CAknQueryDialog18UpdateLeftSoftKeyLEv @ 789 NONAME
	_ZN15CAknQueryDialog19CAknDialog_ReservedEv @ 790 NONAME
	_ZN15CAknQueryDialog19HandlePointerEventLERK13TPointerEvent @ 791 NONAME
	_ZN15CAknQueryDialog19NeedToDismissQueryLERK9TKeyEvent @ 792 NONAME
	_ZN15CAknQueryDialog21CEikDialog_Reserved_1Ev @ 793 NONAME
	_ZN15CAknQueryDialog21CEikDialog_Reserved_2Ev @ 794 NONAME
	_ZN15CAknQueryDialog21RemoveEditorIndicatorEv @ 795 NONAME
	_ZN15CAknQueryDialog22MakeLeftSoftkeyVisibleEi @ 796 NONAME
	_ZN15CAknQueryDialog23SetEmergencyCallSupportEi @ 797 NONAME
	_ZN15CAknQueryDialog24CAknQueryDialog_ReservedEv @ 798 NONAME
	_ZN15CAknQueryDialog27HandleQueryEditorSizeEventLEP16CAknQueryControlN24MAknQueryControlObserver18TQueryControlEventE @ 799 NONAME
	_ZN15CAknQueryDialog28HandleQueryEditorStateEventLEP16CAknQueryControlN24MAknQueryControlObserver18TQueryControlEventENS2_22TQueryValidationStatusE @ 800 NONAME
	_ZN15CAknQueryDialog31SetPredictiveTextInputPermittedEi @ 801 NONAME
	_ZN15CAknQueryDialog4NewLER20TTimeIntervalSecondsRKNS_5TToneE @ 802 NONAME
	_ZN15CAknQueryDialog4NewLER5TTimeRKNS_5TToneE @ 803 NONAME
	_ZN15CAknQueryDialog4NewLER6TDes16RKNS_5TToneE @ 804 NONAME
	_ZN15CAknQueryDialog4NewLER9TInetAddrRKNS_5TToneE @ 805 NONAME
	_ZN15CAknQueryDialog4NewLERKNS_5TToneE @ 806 NONAME
	_ZN15CAknQueryDialog4NewLERdRKNS_5TToneE @ 807 NONAME
	_ZN15CAknQueryDialog4NewLERiRKNS_5TToneE @ 808 NONAME
	_ZN15CAknQueryDialog5RunLDEv @ 809 NONAME
	_ZN15CAknQueryDialog8RunDlgLDEi @ 810 NONAME
	_ZN15CAknQueryDialog9ExecuteLDEi @ 811 NONAME
	_ZN15CAknQueryDialog9ExecuteLDEiRK7TDesC16 @ 812 NONAME
	_ZN15CAknQueryDialog9OkToExitLEi @ 813 NONAME
	_ZN15CAknQueryDialogC1ER7TDesC16RKNS_5TToneE @ 814 NONAME
	_ZN15CAknQueryDialogC1ERKNS_5TToneE @ 815 NONAME
	_ZN15CAknQueryDialogC1Ev @ 816 NONAME
	_ZN15CAknQueryDialogC2ER7TDesC16RKNS_5TToneE @ 817 NONAME
	_ZN15CAknQueryDialogC2ERKNS_5TToneE @ 818 NONAME
	_ZN15CAknQueryDialogC2Ev @ 819 NONAME
	_ZN15CAknQueryDialogD0Ev @ 820 NONAME
	_ZN15CAknQueryDialogD1Ev @ 821 NONAME
	_ZN15CAknQueryDialogD2Ev @ 822 NONAME
	_ZN15CAknSearchField10ClipboardLEN9CEikEdwin14TClipboardFuncE @ 823 NONAME
	_ZN15CAknSearchField10SetLinePosEi @ 824 NONAME
	_ZN15CAknSearchField11MinimumSizeEv @ 825 NONAME
	_ZN15CAknSearchField12SetInfoTextLERK7TDesC16 @ 826 NONAME
	_ZN15CAknSearchField14OfferKeyEventLERK9TKeyEvent10TEventCode @ 827 NONAME
	_ZN15CAknSearchField14SetSearchTextLERK7TDesC16 @ 828 NONAME
	_ZN15CAknSearchField15ProcessCommandLEi @ 829 NONAME
	_ZN15CAknSearchField15SetSkinEnabledLEi @ 830 NONAME
	_ZN15CAknSearchField17SelectSearchTextLEv @ 831 NONAME
	_ZN15CAknSearchField4NewLERK11CCoeControlNS_17TSearchFieldStyleEP8CGulIconi @ 832 NONAME
	_ZN15CAknSearchField6ResetLEv @ 833 NONAME
	_ZN15CAknSearchFieldD0Ev @ 834 NONAME
	_ZN15CAknSearchFieldD1Ev @ 835 NONAME
	_ZN15CAknSearchFieldD2Ev @ 836 NONAME
	_ZN15CAknSettingItem10ConstructLEiiRK7TDesC16P9CArrayPtrI8CGulIconEiiii @ 837 NONAME
	_ZN15CAknSettingItem11ListBoxTextEv @ 838 NONAME
	_ZN15CAknSettingItem11SetIconMaskEP10CFbsBitmap @ 839 NONAME
	_ZN15CAknSettingItem11SettingNameEv @ 840 NONAME
	_ZN15CAknSettingItem12SettingTextLEv @ 841 NONAME
	_ZN15CAknSettingItem12VisibleIndexEv @ 842 NONAME
	_ZN15CAknSettingItem13CreateBitmapLEv @ 843 NONAME
	_ZN15CAknSettingItem14SetSettingPageEP15CAknSettingPage @ 844 NONAME
	_ZN15CAknSettingItem17SetEmptyItemTextLERK7TDesC16 @ 845 NONAME
	_ZN15CAknSettingItem18UpdateListBoxTextLEv @ 846 NONAME
	_ZN15CAknSettingItem19SetSettingPageFlagsEi @ 847 NONAME
	_ZN15CAknSettingItem21CompleteConstructionLEv @ 848 NONAME
	_ZN15CAknSettingItem21SetCompulsoryIndTextLERK7TDesC16 @ 849 NONAME
	_ZN15CAknSettingItem23HandleSettingPageEventLEP15CAknSettingPageN23MAknSettingPageObserver20TAknSettingPageEventE @ 850 NONAME
	_ZN15CAknSettingItem24CAknSettingItem_ReservedEv @ 851 NONAME
	_ZN15CAknSettingItem25SetUpStandardSettingPageLEv @ 852 NONAME
	_ZN15CAknSettingItem5LoadLEv @ 853 NONAME
	_ZN15CAknSettingItem6StoreLEv @ 854 NONAME
	_ZN15CAknSettingItem9EditItemLEi @ 855 NONAME
	_ZN15CAknSettingItem9SetHiddenEi @ 856 NONAME
	_ZN15CAknSettingItemC1Ei @ 857 NONAME
	_ZN15CAknSettingItemC2Ei @ 858 NONAME
	_ZN15CAknSettingItemD0Ev @ 859 NONAME
	_ZN15CAknSettingItemD1Ev @ 860 NONAME
	_ZN15CAknSettingItemD2Ev @ 861 NONAME
	_ZN15CAknSettingPage10ConstructLEv @ 862 NONAME
	_ZN15CAknSettingPage10Reserved_2Ev @ 863 NONAME
	_ZN15CAknSettingPage10ResetFlagsEv @ 864 NONAME
	_ZN15CAknSettingPage10UpdateCbaLEv @ 865 NONAME
	_ZN15CAknSettingPage11SetEmphasisEP11CCoeControli @ 866 NONAME
	_ZN15CAknSettingPage11SetNumberedEi @ 867 NONAME
	_ZN15CAknSettingPage11SizeChangedEv @ 868 NONAME
	_ZN15CAknSettingPage12AttemptExitLEi @ 869 NONAME
	_ZN15CAknSettingPage12DisplayMenuLEv @ 870 NONAME
	_ZN15CAknSettingPage12DynamicInitLEv @ 871 NONAME
	_ZN15CAknSettingPage12FocusChangedE8TDrawNow @ 872 NONAME
	_ZN15CAknSettingPage12SetSettingIdEi @ 873 NONAME
	_ZN15CAknSettingPage14AcceptSettingLEv @ 874 NONAME
	_ZN15CAknSettingPage14BaseConstructLEv @ 875 NONAME
	_ZN15CAknSettingPage14OfferKeyEventLERK9TKeyEvent10TEventCode @ 876 NONAME
	_ZN15CAknSettingPage14UpdateSettingLEv @ 877 NONAME
	_ZN15CAknSettingPage15MopSupplyObjectE8TTypeUid @ 878 NONAME
	_ZN15CAknSettingPage15ProcessCommandLEi @ 879 NONAME
	_ZN15CAknSettingPage15SetDataValidityEi @ 880 NONAME
	_ZN15CAknSettingPage15SetSettingTextLERK7TDesC16 @ 881 NONAME
	_ZN15CAknSettingPage16DynInitMenuPaneLEiP12CEikMenuPane @ 882 NONAME
	_ZN15CAknSettingPage16SetFocusToEditorEv @ 883 NONAME
	_ZN15CAknSettingPage17IsBaseConstructedEv @ 884 NONAME
	_ZN15CAknSettingPage17PostDisplayCheckLEv @ 885 NONAME
	_ZN15CAknSettingPage17SetSettingNumberLEi @ 886 NONAME
	_ZN15CAknSettingPage18ExtensionInterfaceE4TUid @ 887 NONAME
	_ZN15CAknSettingPage18SelectCurrentItemLEv @ 888 NONAME
	_ZN15CAknSettingPage19HandleControlEventLEP11CCoeControlN19MCoeControlObserver9TCoeEventE @ 889 NONAME
	_ZN15CAknSettingPage19HandlePointerEventLERK13TPointerEvent @ 890 NONAME
	_ZN15CAknSettingPage19Reserved_MtsmObjectEv @ 891 NONAME
	_ZN15CAknSettingPage20HandleResourceChangeEi @ 892 NONAME
	_ZN15CAknSettingPage21Reserved_MtsmPositionEv @ 893 NONAME
	_ZN15CAknSettingPage21SettingPageResourceIdEv @ 894 NONAME
	_ZN15CAknSettingPage22ConstructFromResourceLER15TResourceReader @ 895 NONAME
	_ZN15CAknSettingPage22ConstructFromResourceLEi @ 896 NONAME
	_ZN15CAknSettingPage22GetEditorResourceInfoLEiRiS0_ @ 897 NONAME
	_ZN15CAknSettingPage22SetSettingPageObserverEP23MAknSettingPageObserver @ 898 NONAME
	_ZN15CAknSettingPage23CheckAndSetDataValidityEv @ 899 NONAME
	_ZN15CAknSettingPage23RestoreOriginalSettingLEv @ 900 NONAME
	_ZN15CAknSettingPage25StandardSettingPageLayoutEv @ 901 NONAME
	_ZN15CAknSettingPage26CAknSettingPage_Reserved_1Ev @ 902 NONAME
	_ZN15CAknSettingPage26CAknSettingPage_Reserved_2Ev @ 903 NONAME
	_ZN15CAknSettingPage7WaitingEv @ 904 NONAME
	_ZN15CAknSettingPage8DismissLEi @ 905 NONAME
	_ZN15CAknSettingPage8HideMenuEv @ 906 NONAME
	_ZN15CAknSettingPage9ExecuteLDENS_25TAknSettingPageUpdateModeE @ 907 NONAME
	_ZN15CAknSettingPage9OkToExitLEi @ 908 NONAME
	_ZN15CAknSettingPageC1EPK7TDesC16iiii @ 909 NONAME
	_ZN15CAknSettingPageC1Ei @ 910 NONAME
	_ZN15CAknSettingPageC2EPK7TDesC16iiii @ 911 NONAME
	_ZN15CAknSettingPageC2Ei @ 912 NONAME
	_ZN15CAknSettingPageD0Ev @ 913 NONAME
	_ZN15CAknSettingPageD1Ev @ 914 NONAME
	_ZN15CAknSettingPageD2Ev @ 915 NONAME
	_ZN15CAknVolumePopup13SetTitleTextLERK7TDesC16 @ 916 NONAME
	_ZN15CAknVolumePopup15ShowProfileNameEi @ 917 NONAME
	_ZN15CAknVolumePopup16CloseVolumePopupEv @ 918 NONAME
	_ZN15CAknVolumePopup16ShowVolumePopupLEv @ 919 NONAME
	_ZN15CAknVolumePopup21HandleVolumeKeyEventLERK9TKeyEvent10TEventCode @ 920 NONAME
	_ZN15CAknVolumePopup4NewLE4TUidRK7TDesC16i @ 921 NONAME
	_ZN15CAknVolumePopup4NewLEi @ 922 NONAME
	_ZN15CAknVolumePopup8SetValueEi @ 923 NONAME
	_ZN15CAknWarningNote18ExtensionInterfaceE4TUid @ 924 NONAME
	_ZN15CAknWarningNote19HandlePointerEventLERK13TPointerEvent @ 925 NONAME
	_ZN15CAknWarningNote21CEikDialog_Reserved_1Ev @ 926 NONAME
	_ZN15CAknWarningNote21CEikDialog_Reserved_2Ev @ 927 NONAME
	_ZN15CAknWarningNote23CAknNoteDialog_ReservedEv @ 928 NONAME
	_ZN15CAknWarningNote31CAknResourceNoteDialog_ReservedEv @ 929 NONAME
	_ZN15CAknWarningNoteC1EPPS_ @ 930 NONAME
	_ZN15CAknWarningNoteC1Ei @ 931 NONAME
	_ZN15CAknWarningNoteC1Ev @ 932 NONAME
	_ZN15CAknWarningNoteC2EPPS_ @ 933 NONAME
	_ZN15CAknWarningNoteC2Ei @ 934 NONAME
	_ZN15CAknWarningNoteC2Ev @ 935 NONAME
	_ZN15CListBoxNumbers10ConstructLEv @ 936 NONAME
	_ZN15CListBoxNumbers7UpdateLEv @ 937 NONAME
	_ZN15CListBoxNumbersC1EP15CEikTextListBox @ 938 NONAME
	_ZN15CListBoxNumbersC2EP15CEikTextListBox @ 939 NONAME
	_ZN15CSelectableItem10ConstructLEv @ 940 NONAME
	_ZN15CSelectableItem15SelectionStatusEv @ 941 NONAME
	_ZN15CSelectableItem18SetSelectionStatusEi @ 942 NONAME
	_ZN15CSelectableItem8ItemTextEv @ 943 NONAME
	_ZN15CSelectableItemC1ER7TDesC16i @ 944 NONAME
	_ZN15CSelectableItemC2ER7TDesC16i @ 945 NONAME
	_ZN15TAknLineBreaker20IsSpecialVariantCharEjRjS0_S0_ @ 946 NONAME
	_ZN16AknBidiTextUtils19PrepareRunInfoArrayERK7TDesC16 @ 947 NONAME
	_ZN16AknBidiTextUtils22ConvertToVisualAndClipERK7TDesC16R6TDes16RK5CFontiiNS_24TParagraphDirectionalityE5TChar @ 948 NONAME
	_ZN16AknBidiTextUtils23ConvertToVisualAndClipLER6TDes16RK5CFontiiNS_24TParagraphDirectionalityE5TChar @ 949 NONAME
	_ZN16AknBidiTextUtils30ConvertToVisualAndChopToArrayLER6TDes16RK9CArrayFixIiERK5CFontRS2_I7TPtrC16ENS_24TParagraphDirectionalityE @ 950 NONAME
	_ZN16AknBidiTextUtils30ConvertToVisualAndChopToArrayLERK7TDesC16iRK5CFontR9CArrayFixI7TPtrC16ENS_24TParagraphDirectionalityE @ 951 NONAME
	_ZN16AknBidiTextUtils30ConvertToVisualAndWrapToArrayLER6TDes16RK9CArrayFixIiERK5CFontRS2_I7TPtrC16EiNS_24TParagraphDirectionalityE @ 952 NONAME
	_ZN16AknBidiTextUtils30ConvertToVisualAndWrapToArrayLERK7TDesC16iRK5CFontR9CArrayFixI7TPtrC16ENS_24TParagraphDirectionalityE @ 953 NONAME
	_ZN16AknBidiTextUtils31ConvertToVisualAndWrapToStringLERK7TDesC16RK9CArrayFixIiERK5CFontR6TDes16iNS_24TParagraphDirectionalityE @ 954 NONAME
	_ZN16AknBidiTextUtils39ConvertToVisualAndWrapToArrayWholeTextLERK7TDesC16RK9CArrayFixIiERK5CFontRS3_I7TPtrC16ENS_24TParagraphDirectionalityE @ 955 NONAME
	_ZN16AknDialogShutter12ShutDialogsLER9CEikonEnv @ 956 NONAME
	_ZN16AknDrawWithSkins13DrawEmptyListERK5TRectR9CWindowGc7TPtrC16P11CCoeControl @ 957 NONAME
	_ZN16AknDrawWithSkins16DrawWindowShadowER9CWindowGcRK14TAknLayoutRectS4_S4_S4_S4_P11CCoeControl @ 958 NONAME
	_ZN16AknDrawWithSkins20DrawEmptyListHeadingERK5TRectR9CWindowGc7TPtrC16P11CCoeControl @ 959 NONAME
	_ZN16AknDrawWithSkins21DrawEmptyListWithFindERK5TRectR9CWindowGc7TPtrC16P11CCoeControl @ 960 NONAME
	_ZN16AknDrawWithSkins27DrawEmptyListForSettingPageERK5TRectR9CWindowGc7TPtrC16P11CCoeControl @ 961 NONAME
	_ZN16CAknAnimatedView13SwapListBoxGcEP11CEikListBoxP9CWindowGc @ 962 NONAME
	_ZN16CAknAnimatedView15PreAnimateSetupEv @ 963 NONAME
	_ZN16CAknAnimatedView16PostAnimateSetupEv @ 964 NONAME
	_ZN16CAknAnimatedView16SetAnimationDataEP17CAknAnimationData @ 965 NONAME
	_ZN16CAknAnimatedView17AknViewActivatedLERK10TVwsViewId4TUidRK6TDesC8 @ 966 NONAME
	_ZN16CAknAnimatedViewC2Ev @ 967 NONAME
	_ZN16CAknAnimatedViewD0Ev @ 968 NONAME
	_ZN16CAknAnimatedViewD1Ev @ 969 NONAME
	_ZN16CAknAnimatedViewD2Ev @ 970 NONAME
	_ZN16CAknAppStyleGrid10ConstructLEPK11CCoeControli @ 971 NONAME
	_ZN16CAknAppStyleGrid11MinimumSizeEv @ 972 NONAME
	_ZN16CAknAppStyleGrid11SizeChangedEv @ 973 NONAME
	_ZN16CAknAppStyleGrid19SetShortcutEnabledLEi @ 974 NONAME
	_ZN16CAknAppStyleGrid24DrawBackgroundAroundGridER9CWindowGcRK5TRectS4_ @ 975 NONAME
	_ZN16CAknGMSPopupGrid17SetupWindowLayoutEN15AknPopupLayouts16TAknPopupLayoutsE @ 976 NONAME
	_ZN16CAknGMSPopupGrid18ExtensionInterfaceE4TUid @ 977 NONAME
	_ZN16CAknGMSPopupGrid19HandlePointerEventLERK13TPointerEvent @ 978 NONAME
	_ZN16CAknGMSPopupGrid29PopupGridLargeGraphicGraphicsER24TAknPopupWindowLayoutDef @ 979 NONAME
	_ZN16CAknGMSPopupGrid31CalcPopupGridLargeGraphicWindowER24TAknPopupWindowLayoutDef5TRecti @ 980 NONAME
	_ZN16CAknGMSPopupGrid32SetupPopupGridLargeGraphicWindowER24TAknPopupWindowLayoutDefii @ 981 NONAME
	_ZN16CAknGMSPopupGrid4NewLEP11CEikListBoxiN15AknPopupLayouts16TAknPopupLayoutsE @ 982 NONAME
	_ZN16CAknGMSStyleGrid10ConstructLEPK11CCoeControlii @ 983 NONAME
	_ZN16CAknGMSStyleGrid11MinimumSizeEv @ 984 NONAME
	_ZN16CAknGMSStyleGrid11SetupLayoutEv @ 985 NONAME
	_ZN16CAknGMSStyleGrid11SizeChangedEv @ 986 NONAME
	_ZN16CAknGMSStyleGrid14OfferKeyEventLERK9TKeyEvent10TEventCode @ 987 NONAME
	_ZN16CAknGMSStyleGrid18ExtensionInterfaceE4TUid @ 988 NONAME
	_ZN16CAknGMSStyleGrid19HandlePointerEventLERK13TPointerEvent @ 989 NONAME
	_ZN16CAknGMSStyleGrid22MakeViewClassInstanceLEv @ 990 NONAME
	_ZN16CAknGMSStyleGrid4NewLEPK11CCoeControli @ 991 NONAME
	_ZN16CAknGMSStyleGridC1Ei @ 992 NONAME
	_ZN16CAknGMSStyleGridC1Ev @ 993 NONAME
	_ZN16CAknGMSStyleGridC2Ei @ 994 NONAME
	_ZN16CAknGMSStyleGridC2Ev @ 995 NONAME
	_ZN16CAknGMSStyleGridD0Ev @ 996 NONAME
	_ZN16CAknGMSStyleGridD1Ev @ 997 NONAME
	_ZN16CAknGMSStyleGridD2Ev @ 998 NONAME
	_ZN16CAknIntegerEdwin10ConstructLEiii @ 999 NONAME
	_ZN16CAknIntegerEdwin10Reserved_3Ev @ 1000 NONAME
	_ZN16CAknIntegerEdwin13SetUnsetValueEi @ 1001 NONAME
	_ZN16CAknIntegerEdwin14OfferKeyEventLERK9TKeyEvent10TEventCode @ 1002 NONAME
	_ZN16CAknIntegerEdwin16GetTextAsIntegerERi @ 1003 NONAME
	_ZN16CAknIntegerEdwin18ExtensionInterfaceE4TUid @ 1004 NONAME
	_ZN16CAknIntegerEdwin19HandlePointerEventLERK13TPointerEvent @ 1005 NONAME
	_ZN16CAknIntegerEdwin20HandleResourceChangeEi @ 1006 NONAME
	_ZN16CAknIntegerEdwin20PrepareForFocusLossLEv @ 1007 NONAME
	_ZN16CAknIntegerEdwin22ConstructFromResourceLER15TResourceReader @ 1008 NONAME
	_ZN16CAknIntegerEdwin22SetMaximumIntegerValueEi @ 1009 NONAME
	_ZN16CAknIntegerEdwin22SetMinimumIntegerValueEi @ 1010 NONAME
	_ZN16CAknIntegerEdwin4NewLEiii @ 1011 NONAME
	_ZN16CAknIntegerEdwin9SetValueLEi @ 1012 NONAME
	_ZN16CAknQueryControl10SetNumberLEi @ 1013 NONAME
	_ZN16CAknQueryControl10SetPromptLERK7TDesC16 @ 1014 NONAME
	_ZN16CAknQueryControl11MinimumSizeEv @ 1015 NONAME
	_ZN16CAknQueryControl11ReadPromptLER15TResourceReader @ 1016 NONAME
	_ZN16CAknQueryControl11SetDurationER20TTimeIntervalSeconds @ 1017 NONAME
	_ZN16CAknQueryControl13SetAnimationLEi @ 1018 NONAME
	_ZN16CAknQueryControl14OfferKeyEventLERK9TKeyEvent10TEventCode @ 1019 NONAME
	_ZN16CAknQueryControl15CancelAnimationEv @ 1020 NONAME
	_ZN16CAknQueryControl15StartAnimationLEv @ 1021 NONAME
	_ZN16CAknQueryControl17HandleEdwinEventLEP9CEikEdwinN17MEikEdwinObserver11TEdwinEventE @ 1022 NONAME
	_ZN16CAknQueryControl18ExtensionInterfaceE4TUid @ 1023 NONAME
	_ZN16CAknQueryControl18SetTextEntryLengthEi @ 1024 NONAME
	_ZN16CAknQueryControl19HandleControlEventLEP11CCoeControlN19MCoeControlObserver9TCoeEventE @ 1025 NONAME
	_ZN16CAknQueryControl19HandlePointerEventLERK13TPointerEvent @ 1026 NONAME
	_ZN16CAknQueryControl20SetMinimumAndMaximumERK20TTimeIntervalSecondsS2_ @ 1027 NONAME
	_ZN16CAknQueryControl20SetMinimumAndMaximumERK5TTimeS2_ @ 1028 NONAME
	_ZN16CAknQueryControl20SetMinimumAndMaximumERKdS1_ @ 1029 NONAME
	_ZN16CAknQueryControl20SetMinimumAndMaximumEii @ 1030 NONAME
	_ZN16CAknQueryControl21ControlByLayoutOrNullEi @ 1031 NONAME
	_ZN16CAknQueryControl21HandleEdwinSizeEventLEP9CEikEdwinN21MEikEdwinSizeObserver15TEdwinSizeEventE5TSize @ 1032 NONAME
	_ZN16CAknQueryControl22ConstructFromResourceLER15TResourceReader @ 1033 NONAME
	_ZN16CAknQueryControl22SetNumberOfEditorLinesEi @ 1034 NONAME
	_ZN16CAknQueryControl23SetFloatingPointNumberLEPKd @ 1035 NONAME
	_ZN16CAknQueryControl23SetQueryControlObserverEP24MAknQueryControlObserver @ 1036 NONAME
	_ZN16CAknQueryControl7SetTimeER5TTime @ 1037 NONAME
	_ZN16CAknQueryControl8SetTextLERK7TDesC16 @ 1038 NONAME
	_ZN16CAknQueryControl9SetImageLEP9CEikImage @ 1039 NONAME
	_ZN16CAknQueryControl9SetImageLERK7TDesC16ii @ 1040 NONAME
	_ZN16CAknQueryControlC1Ev @ 1041 NONAME
	_ZN16CAknQueryControlC2Ev @ 1042 NONAME
	_ZN16CAknQueryControlD0Ev @ 1043 NONAME
	_ZN16CAknQueryControlD1Ev @ 1044 NONAME
	_ZN16CAknQueryControlD2Ev @ 1045 NONAME
	_ZN16CAknSettingCache13InputLanguageEv @ 1046 NONAME
	_ZN16CAknSettingCache19HardwareLayoutStateEv @ 1047 NONAME
	_ZN16CAknSettingCache6UpdateEi @ 1048 NONAME
	_ZN16CAknSettingCache8LayoutIdEv @ 1049 NONAME
	_ZN17AknListBoxLayouts12SetupGridPosER8CAknGridiiiiii @ 1050 NONAME
	_ZN17AknListBoxLayouts15SetupListboxPosER11CEikListBoxRK20TAknWindowLineLayout @ 1051 NONAME
	_ZN17AknListBoxLayouts15SetupListboxPosER11CEikListBoxiiiiii @ 1052 NONAME
	_ZN17AknListBoxLayouts16SetupFormGfxCellER11CEikListBoxP31CFormattedCellListBoxItemDraweriRK20TAknWindowLineLayoutRK6TPointS9_ @ 1053 NONAME
	_ZN17AknListBoxLayouts16SetupFormGfxCellER11CEikListBoxP31CFormattedCellListBoxItemDraweriiiiiii6TPointS4_ @ 1054 NONAME
	_ZN17AknListBoxLayouts17SetupFormTextCellER11CEikListBoxP31CFormattedCellListBoxItemDraweriPK5CFontiiiiiN16CGraphicsContext10TTextAlignE6TPointS9_ @ 1055 NONAME
	_ZN17AknListBoxLayouts17SetupFormTextCellER11CEikListBoxP31CFormattedCellListBoxItemDraweriRK18TAknTextLineLayoutRK6TPointS9_ @ 1056 NONAME
	_ZN17AknListBoxLayouts17SetupStandardGridER8CAknGrid @ 1057 NONAME
	_ZN17AknListBoxLayouts18SetupColumnGfxCellER11CEikListBoxP24CColumnListBoxItemDraweriRK20TAknWindowLineLayoutii @ 1058 NONAME
	_ZN17AknListBoxLayouts18SetupColumnGfxCellER11CEikListBoxP24CColumnListBoxItemDraweriiiiiiiii @ 1059 NONAME
	_ZN17AknListBoxLayouts19SetupColumnTextCellER11CEikListBoxP24CColumnListBoxItemDraweriPK5CFontiiiiiN16CGraphicsContext10TTextAlignEii @ 1060 NONAME
	_ZN17AknListBoxLayouts19SetupColumnTextCellER11CEikListBoxP24CColumnListBoxItemDraweriRK18TAknTextLineLayoutii @ 1061 NONAME
	_ZN17AknListBoxLayouts20SetupGridFormGfxCellER8CAknGridP31CFormattedCellListBoxItemDraweriRK20TAknWindowLineLayoutR6TPointS8_ @ 1062 NONAME
	_ZN17AknListBoxLayouts20SetupGridFormGfxCellER8CAknGridP31CFormattedCellListBoxItemDraweriiiiiii6TPointS4_ @ 1063 NONAME
	_ZN17AknListBoxLayouts20SetupStandardListBoxER11CEikListBox @ 1064 NONAME
	_ZN17AknListBoxLayouts24SetupStandardFormListboxEP31CFormattedCellListBoxItemDrawer @ 1065 NONAME
	_ZN17AknListBoxLayouts26SetupStandardColumnListboxEP24CColumnListBoxItemDrawer @ 1066 NONAME
	_ZN17AknListBoxLayouts28SetupFormAntiFlickerTextCellER11CEikListBoxP31CFormattedCellListBoxItemDraweriPK5CFontiiiiiN16CGraphicsContext10TTextAlignE6TPointS9_ @ 1067 NONAME
	_ZN17AknListBoxLayouts28SetupFormAntiFlickerTextCellER11CEikListBoxP31CFormattedCellListBoxItemDraweriRK18TAknTextLineLayoutRK6TPointS9_ @ 1068 NONAME
	_ZN17CAknAnimationData10ConstructLEv @ 1069 NONAME
	_ZN17CAknAnimationData12ClearOldViewEv @ 1070 NONAME
	_ZN17CAknAnimationData12SetOldBitmapEP10CFbsBitmap @ 1071 NONAME
	_ZN17CAknAnimationData13SetScreenSizeE5TSize @ 1072 NONAME
	_ZN17CAknAnimationData13SetViewBitmapEP10CFbsBitmap @ 1073 NONAME
	_ZN17CAknAnimationData15SetClearOldViewEv @ 1074 NONAME
	_ZN17CAknAnimationData16WaitForeverAtEndEv @ 1075 NONAME
	_ZN17CAknAnimationData19SetWaitForeverAtEndEv @ 1076 NONAME
	_ZN17CAknAnimationData19WaitBetweenSectionsEv @ 1077 NONAME
	_ZN17CAknAnimationData21DrawNextAnimationStepER14CBitmapContext @ 1078 NONAME
	_ZN17CAknAnimationData21DrawUserAnimationStepER14CBitmapContextR14TAnimMultiStep @ 1079 NONAME
	_ZN17CAknAnimationData22ConstructFromResourceLEi @ 1080 NONAME
	_ZN17CAknAnimationData27ConstructUserAnimationStepLER9TAnimStepR15TResourceReader @ 1081 NONAME
	_ZN17CAknAnimationData8IntervalEv @ 1082 NONAME
	_ZN17CAknAnimationDataC1Ev @ 1083 NONAME
	_ZN17CAknAnimationDataC2Ev @ 1084 NONAME
	_ZN17CAknAnimationDataD0Ev @ 1085 NONAME
	_ZN17CAknAnimationDataD1Ev @ 1086 NONAME
	_ZN17CAknAnimationDataD2Ev @ 1087 NONAME
	_ZN17CAknCharMapDialog14OfferKeyEventLERK9TKeyEvent10TEventCode @ 1088 NONAME
	_ZN17CAknCharMapDialog16ShowAnotherTableEi @ 1089 NONAME
	_ZN17CAknCharMapDialog17PreLayoutDynInitLEv @ 1090 NONAME
	_ZN17CAknCharMapDialog17ShowNoPictographsEv @ 1091 NONAME
	_ZN17CAknCharMapDialog18SetSizeAndPositionERK5TSize @ 1092 NONAME
	_ZN17CAknCharMapDialog19HandleControlEventLEP11CCoeControlN19MCoeControlObserver9TCoeEventE @ 1093 NONAME
	_ZN17CAknCharMapDialog20HandleResourceChangeEi @ 1094 NONAME
	_ZN17CAknCharMapDialog20ShowPictographsFirstEv @ 1095 NONAME
	_ZN17CAknCharMapDialog21CEikDialog_Reserved_1Ev @ 1096 NONAME
	_ZN17CAknCharMapDialog21CEikDialog_Reserved_2Ev @ 1097 NONAME
	_ZN17CAknCharMapDialog22HandleDialogPageEventLEi @ 1098 NONAME
	_ZN17CAknCharMapDialog26CAknCharMapDialog_ReservedEv @ 1099 NONAME
	_ZN17CAknCharMapDialog9ExecuteLDEi @ 1100 NONAME
	_ZN17CAknCharMapDialog9OkToExitLEi @ 1101 NONAME
	_ZN17CAknCharMapDialogC1EiR6TDes16i @ 1102 NONAME
	_ZN17CAknCharMapDialogC2EiR6TDes16i @ 1103 NONAME
	_ZN17CAknColumnListBox12CreateModelLEv @ 1104 NONAME
	_ZN17CAknColumnListBox18ExtensionInterfaceE4TUid @ 1105 NONAME
	_ZN17CAknColumnListBox19HandlePointerEventLERK13TPointerEvent @ 1106 NONAME
	_ZN17CAknColumnListBox20CEikListBox_ReservedEv @ 1107 NONAME
	_ZN17CAknColumnListBox22MakeViewClassInstanceLEv @ 1108 NONAME
	_ZN17CAknGenericReader10ConstructLEi @ 1109 NONAME
	_ZN17CAknGenericReader22ConstructFromResourceLER15TResourceReader @ 1110 NONAME
	_ZN17CAknGenericReaderD0Ev @ 1111 NONAME
	_ZN17CAknGenericReaderD1Ev @ 1112 NONAME
	_ZN17CAknGenericReaderD2Ev @ 1113 NONAME
	_ZN17CAknPinbStyleGrid11MinimumSizeEv @ 1114 NONAME
	_ZN17CAknPinbStyleGrid11SizeChangedEv @ 1115 NONAME
	_ZN17CAknPinbStyleGrid19HandlePointerEventLERK13TPointerEvent @ 1116 NONAME
	_ZN17CAknVolumeControl13CreateBitmapLEi @ 1117 NONAME
	_ZN17CAknVolumeControl18ExtensionInterfaceE4TUid @ 1118 NONAME
	_ZN17CAknVolumeControl19HandlePointerEventLERK13TPointerEvent @ 1119 NONAME
	_ZN17CAknVolumeControl22ConstructFromResourceLER15TResourceReader @ 1120 NONAME
	_ZN17CAknVolumeControl25HandleNaviDecoratorEventLEi @ 1121 NONAME
	_ZN17CAknVolumeControl26CreateSetStyleListBoxIconLEi @ 1122 NONAME
	_ZN17CAknVolumeControl8SetValueEi @ 1123 NONAME
	_ZN17CAknVolumeControlC1Ev @ 1124 NONAME
	_ZN17CAknVolumeControlC2Ev @ 1125 NONAME
	_ZN17CAknVolumeControlD0Ev @ 1126 NONAME
	_ZN17CAknVolumeControlD1Ev @ 1127 NONAME
	_ZN17CAknVolumeControlD2Ev @ 1128 NONAME
	_ZN18AknDateFormatUtils38MapSymbianDateFormatToVisualDateFormatE11TDateFormatP9TLanguage @ 1129 NONAME
	_ZN18AknDateFormatUtils38MapVisualDateFormatToSymbianDateFormatE20TAknVisualDateFormatP9TLanguage @ 1130 NONAME
	_ZN18CAknAppServiceBase12ServiceErrorERK9RMessage2i @ 1131 NONAME
	_ZN18CAknAppServiceBase7CreateLEv @ 1132 NONAME
	_ZN18CAknAppServiceBase8ServiceLERK9RMessage2 @ 1133 NONAME
	_ZN18CAknAppServiceBaseC1Ev @ 1134 NONAME
	_ZN18CAknAppServiceBaseC2Ev @ 1135 NONAME
	_ZN18CAknAppServiceBaseD0Ev @ 1136 NONAME
	_ZN18CAknAppServiceBaseD1Ev @ 1137 NONAME
	_ZN18CAknAppServiceBaseD2Ev @ 1138 NONAME
	_ZN18CAknKeySoundSystem10PopContextEv @ 1139 NONAME
	_ZN18CAknKeySoundSystem11LockContextEv @ 1140 NONAME
	_ZN18CAknKeySoundSystem12PushContextLEi @ 1141 NONAME
	_ZN18CAknKeySoundSystem14ReleaseContextEv @ 1142 NONAME
	_ZN18CAknKeySoundSystem17BringToForegroundEv @ 1143 NONAME
	_ZN18CAknKeySoundSystem17RequestSoundInfoLEiR13CAknSoundInfo @ 1144 NONAME
	_ZN18CAknKeySoundSystem20AddAppSoundInfoListLEi @ 1145 NONAME
	_ZN18CAknKeySoundSystem4NewLEi @ 1146 NONAME
	_ZN18CAknKeySoundSystem9PlaySoundERK9TKeyEvent @ 1147 NONAME
	_ZN18CAknKeySoundSystem9PlaySoundEi @ 1148 NONAME
	_ZN18CAknKeySoundSystem9StopSoundEi @ 1149 NONAME
	_ZN18CAknKeySoundSystemD0Ev @ 1150 NONAME
	_ZN18CAknKeySoundSystemD1Ev @ 1151 NONAME
	_ZN18CAknKeySoundSystemD2Ev @ 1152 NONAME
	_ZN18CAknMarqueeControl11IsMarqueeOnEv @ 1153 NONAME
	_ZN18CAknMarqueeControl11SetIntervalEi @ 1154 NONAME
	_ZN18CAknMarqueeControl13EnableMarqueeEi @ 1155 NONAME
	_ZN18CAknMarqueeControl16SetSpeedInPixelsEi @ 1156 NONAME
	_ZN18CAknMarqueeControl17SetRedrawCallBackER9TCallBack @ 1157 NONAME
	_ZN18CAknMarqueeControl4NewLEiii @ 1158 NONAME
	_ZN18CAknMarqueeControl4StopEv @ 1159 NONAME
	_ZN18CAknMarqueeControl5NewLCEiii @ 1160 NONAME
	_ZN18CAknMarqueeControl5ResetEv @ 1161 NONAME
	_ZN18CAknMarqueeControl5StartEv @ 1162 NONAME
	_ZN18CAknMarqueeControl8DrawTextER9CWindowGcRK5TRectRK7TDesC16iN16CGraphicsContext10TTextAlignERK5CFont @ 1163 NONAME
	_ZN18CAknMarqueeControl8SetDelayEi @ 1164 NONAME
	_ZN18CAknMarqueeControl8SetLoopsEi @ 1165 NONAME
	_ZN18CAknNoteAttributes18GetSkinnedBitmapIDEi @ 1166 NONAME
	_ZN18CAknPopupFieldList10ConstructLEP11CEikListBoxi @ 1167 NONAME
	_ZN18CAknPopupFieldList12AttemptExitLEi @ 1168 NONAME
	_ZN18CAknPopupFieldList12SetDecoratorEP22TAknDesCArrayDecorator @ 1169 NONAME
	_ZN18CAknPopupFieldList13SetQueryValueEP14MAknQueryValue @ 1170 NONAME
	_ZN18CAknPopupFieldList15MopSupplyObjectE8TTypeUid @ 1171 NONAME
	_ZN18CAknPopupFieldList15ProcessCommandLEi @ 1172 NONAME
	_ZN18CAknPopupFieldList18ExtensionInterfaceE4TUid @ 1173 NONAME
	_ZN18CAknPopupFieldList19HandleControlEventLEP11CCoeControlN19MCoeControlObserver9TCoeEventE @ 1174 NONAME
	_ZN18CAknPopupFieldList19HandleListBoxEventLEP11CEikListBoxN19MEikListBoxObserver13TListBoxEventE @ 1175 NONAME
	_ZN18CAknPopupFieldList19HandlePointerEventLERK13TPointerEvent @ 1176 NONAME
	_ZN18CAknPopupFieldList4NewLEP11CEikListBoxi @ 1177 NONAME
	_ZN18CAknPopupFieldListC1Ev @ 1178 NONAME
	_ZN18CAknPopupFieldListC2Ev @ 1179 NONAME
	_ZN18CAknPopupFieldListD0Ev @ 1180 NONAME
	_ZN18CAknPopupFieldListD1Ev @ 1181 NONAME
	_ZN18CAknPopupFieldListD2Ev @ 1182 NONAME
	_ZN18CAknPopupFieldText10Reserved_1Ev @ 1183 NONAME
	_ZN18CAknPopupFieldText10Reserved_2Ev @ 1184 NONAME
	_ZN18CAknPopupFieldText13SetAutoAppendEi @ 1185 NONAME
	_ZN18CAknPopupFieldText18CurrentValueTextLCEv @ 1186 NONAME
	_ZN18CAknPopupFieldText18ExtensionInterfaceE4TUid @ 1187 NONAME
	_ZN18CAknPopupFieldText19HandlePointerEventLERK13TPointerEvent @ 1188 NONAME
	_ZN18CAknPopupFieldText20SetCurrentValueIndexEi @ 1189 NONAME
	_ZN18CAknPopupFieldText22ConstructFromResourceLER15TResourceReader @ 1190 NONAME
	_ZN18CAknPopupFieldTextC1Ev @ 1191 NONAME
	_ZN18CAknPopupFieldTextC2Ev @ 1192 NONAME
	_ZN18CAknPopupFieldTextD0Ev @ 1193 NONAME
	_ZN18CAknPopupFieldTextD1Ev @ 1194 NONAME
	_ZN18CAknPopupFieldTextD2Ev @ 1195 NONAME
	_ZN18CAknProgressDialog11SetCallbackEP23MProgressDialogCallback @ 1196 NONAME
	_ZN18CAknProgressDialog14OfferKeyEventLERK9TKeyEvent10TEventCode @ 1197 NONAME
	_ZN18CAknProgressDialog16GetProgressInfoLEv @ 1198 NONAME
	_ZN18CAknProgressDialog16ProcessFinishedLEv @ 1199 NONAME
	_ZN18CAknProgressDialog17PreLayoutDynInitLEv @ 1200 NONAME
	_ZN18CAknProgressDialog18ExtensionInterfaceE4TUid @ 1201 NONAME
	_ZN18CAknProgressDialog19HandlePointerEventLERK13TPointerEvent @ 1202 NONAME
	_ZN18CAknProgressDialog21CEikDialog_Reserved_1Ev @ 1203 NONAME
	_ZN18CAknProgressDialog21CEikDialog_Reserved_2Ev @ 1204 NONAME
	_ZN18CAknProgressDialog23CAknNoteDialog_ReservedEv @ 1205 NONAME
	_ZN18CAknProgressDialog5RunLDEv @ 1206 NONAME
	_ZN18CAknProgressDialog9OkToExitLEi @ 1207 NONAME
	_ZN18CAknProgressDialogC1EPP10CEikDialog @ 1208 NONAME
	_ZN18CAknProgressDialogC1EPP10CEikDialogi @ 1209 NONAME
	_ZN18CAknProgressDialogC1EiiiPP10CEikDialog @ 1210 NONAME
	_ZN18CAknProgressDialogC2EPP10CEikDialog @ 1211 NONAME
	_ZN18CAknProgressDialogC2EPP10CEikDialogi @ 1212 NONAME
	_ZN18CAknProgressDialogC2EiiiPP10CEikDialog @ 1213 NONAME
	_ZN18CAknProgressDialogD0Ev @ 1214 NONAME
	_ZN18CAknProgressDialogD1Ev @ 1215 NONAME
	_ZN18CAknProgressDialogD2Ev @ 1216 NONAME
	_ZN18CAknQdialStyleGrid11MinimumSizeEv @ 1217 NONAME
	_ZN18CAknQdialStyleGrid11SizeChangedEv @ 1218 NONAME
	_ZN18CAknQdialStyleGrid19HandlePointerEventLERK13TPointerEvent @ 1219 NONAME
	_ZN18CAknQueryValueDate13CreateEditorLEv @ 1220 NONAME
	_ZN18CAknQueryValueDate15SetQueryCaptionEi @ 1221 NONAME
	_ZN18CAknQueryValueDate18CurrentValueTextLCEv @ 1222 NONAME
	_ZN18CAknQueryValueDate20SetCurrentValueIndexEi @ 1223 NONAME
	_ZN18CAknQueryValueDate23Reserved_MAknQueryValueEv @ 1224 NONAME
	_ZN18CAknQueryValueDate4NewLEv @ 1225 NONAME
	_ZN18CAknQueryValueDate5NewLCEv @ 1226 NONAME
	_ZN18CAknQueryValueDate9SetArrayLEPK23CAknQueryValueDateArray @ 1227 NONAME
	_ZN18CAknQueryValueDateD0Ev @ 1228 NONAME
	_ZN18CAknQueryValueDateD1Ev @ 1229 NONAME
	_ZN18CAknQueryValueDateD2Ev @ 1230 NONAME
	_ZN18CAknQueryValueText13CreateEditorLEv @ 1231 NONAME
	_ZN18CAknQueryValueText15SetQueryCaptionEi @ 1232 NONAME
	_ZN18CAknQueryValueText18CurrentValueTextLCEv @ 1233 NONAME
	_ZN18CAknQueryValueText20SetCurrentValueIndexEi @ 1234 NONAME
	_ZN18CAknQueryValueText23Reserved_MAknQueryValueEv @ 1235 NONAME
	_ZN18CAknQueryValueText4NewLEv @ 1236 NONAME
	_ZN18CAknQueryValueText5NewLCEv @ 1237 NONAME
	_ZN18CAknQueryValueText9SetArrayLEPK23CAknQueryValueTextArray @ 1238 NONAME
	_ZN18CAknQueryValueTextD0Ev @ 1239 NONAME
	_ZN18CAknQueryValueTextD1Ev @ 1240 NONAME
	_ZN18CAknQueryValueTextD2Ev @ 1241 NONAME
	_ZN18CAknQueryValueTime13CreateEditorLEv @ 1242 NONAME
	_ZN18CAknQueryValueTime15SetQueryCaptionEi @ 1243 NONAME
	_ZN18CAknQueryValueTime18CurrentValueTextLCEv @ 1244 NONAME
	_ZN18CAknQueryValueTime20SetCurrentValueIndexEi @ 1245 NONAME
	_ZN18CAknQueryValueTime23Reserved_MAknQueryValueEv @ 1246 NONAME
	_ZN18CAknQueryValueTime4NewLEv @ 1247 NONAME
	_ZN18CAknQueryValueTime5NewLCEv @ 1248 NONAME
	_ZN18CAknQueryValueTime9SetArrayLEPK23CAknQueryValueTimeArray @ 1249 NONAME
	_ZN18CAknQueryValueTimeD0Ev @ 1250 NONAME
	_ZN18CAknQueryValueTimeD1Ev @ 1251 NONAME
	_ZN18CAknQueryValueTimeD2Ev @ 1252 NONAME
	_ZN18CAknSkinnableClock10SetFormatLE12TClockFormat @ 1253 NONAME
	_ZN18CAknSkinnableClock13UpdateDisplayEv @ 1254 NONAME
	_ZN18CAknSkinnableClock19HandlePointerEventLERK13TPointerEvent @ 1255 NONAME
	_ZN18CAknSkinnableClock4NewLEP11CCoeControlii @ 1256 NONAME
	_ZN18CAknSkinnableClockD0Ev @ 1257 NONAME
	_ZN18CAknSkinnableClockD1Ev @ 1258 NONAME
	_ZN18CAknSkinnableClockD2Ev @ 1259 NONAME
	_ZN18CAknWsEventMonitor10Reserved_1Ev @ 1260 NONAME
	_ZN18CAknWsEventMonitor12AddObserverLEP19MAknWsEventObserver @ 1261 NONAME
	_ZN18CAknWsEventMonitor14HandleWsEventLERK8TWsEventP11CCoeControl @ 1262 NONAME
	_ZN18CAknWsEventMonitor14RemoveObserverEPK19MAknWsEventObserver @ 1263 NONAME
	_ZN18CSelectionItemListC1Ei @ 1264 NONAME
	_ZN18CSelectionItemListC2Ei @ 1265 NONAME
	_ZN18MAknFadedComponent14FadedComponentEi @ 1266 NONAME
	_ZN18MAknFadedComponent20CountFadedComponentsEv @ 1267 NONAME
	_ZN18RAknAppServiceBase18ConnectChainedAppLE4TUid @ 1268 NONAME
	_ZN18RAknAppServiceBase5CloseEv @ 1269 NONAME
	_ZN19AknListBoxShortCuts10ConstructLEv @ 1270 NONAME
	_ZN19AknListBoxShortCuts11StartTimerLENS_18TShortcutTimerTypeE @ 1271 NONAME
	_ZN19AknListBoxShortCuts12ChangeStateLENS_14TShortcutEventE @ 1272 NONAME
	_ZN19AknListBoxShortCuts12DoProcedureLEv @ 1273 NONAME
	_ZN19AknListBoxShortCuts13RecursionLockEv @ 1274 NONAME
	_ZN19AknListBoxShortCuts14OfferKeyEventLERK9TKeyEvent10TEventCode @ 1275 NONAME
	_ZN19AknListBoxShortCuts15RecursionUnlockEv @ 1276 NONAME
	_ZN19AknListBoxShortCuts4RunLEv @ 1277 NONAME
	_ZN19AknListBoxShortCuts8EndTimerEv @ 1278 NONAME
	_ZN19AknListBoxShortCutsC2Ev @ 1279 NONAME
	_ZN19AknListBoxShortCutsD0Ev @ 1280 NONAME
	_ZN19AknListBoxShortCutsD1Ev @ 1281 NONAME
	_ZN19AknListBoxShortCutsD2Ev @ 1282 NONAME
	_ZN19AknSelectionService28HandleMenuListOfferKeyEventLERK9TKeyEvent10TEventCodeP11CEikListBox @ 1283 NONAME
	_ZN19AknSelectionService33HandleMarkableListDynInitMenuItemEP12CEikMenuPaneP11CEikListBoxii @ 1284 NONAME
	_ZN19AknSelectionService33HandleMarkableListDynInitMenuPaneEiP12CEikMenuPaneP11CEikListBox @ 1285 NONAME
	_ZN19AknSelectionService33HandleMarkableListProcessCommandLEiP11CEikListBox @ 1286 NONAME
	_ZN19AknSelectionService34HandleSelectionListProcessCommandLEiP11CEikListBox @ 1287 NONAME
	_ZN19AknSelectionService38HandleItemRemovalAndPositionHighlightLEP11CEikListBoxiR9CArrayFixIiE @ 1288 NONAME
	_ZN19AknSelectionService38HandleItemRemovalAndPositionHighlightLEP11CEikListBoxii @ 1289 NONAME
	_ZN19AknSelectionService39HandleMultiselectionListProcessCommandLEiP11CEikListBox @ 1290 NONAME
	_ZN19AknSelectionService45HandleMarkableListUpdateAfterCommandExecutionEP11CEikListBox @ 1291 NONAME
	_ZN19CAknBitmapAnimation11MinimumSizeEv @ 1292 NONAME
	_ZN19CAknBitmapAnimation14SetFrameIndexLEi @ 1293 NONAME
	_ZN19CAknBitmapAnimation15CancelAnimationEv @ 1294 NONAME
	_ZN19CAknBitmapAnimation15StartAnimationLEv @ 1295 NONAME
	_ZN19CAknBitmapAnimation17SetFrameIntervalLEi @ 1296 NONAME
	_ZN19CAknBitmapAnimation18ConstructFromSkinLERK11TAknsItemID @ 1297 NONAME
	_ZN19CAknBitmapAnimation22ConstructFromResourceLER15TResourceReader @ 1298 NONAME
	_ZN19CAknBitmapAnimation4NewLEv @ 1299 NONAME
	_ZN19CAknBitmapAnimation9AnimationEv @ 1300 NONAME
	_ZN19CAknBitmapAnimationD0Ev @ 1301 NONAME
	_ZN19CAknBitmapAnimationD1Ev @ 1302 NONAME
	_ZN19CAknBitmapAnimationD2Ev @ 1303 NONAME
	_ZN19CAknDateSettingPage10ConstructLEv @ 1304 NONAME
	_ZN19CAknDateSettingPage10DateEditorEv @ 1305 NONAME
	_ZN19CAknDateSettingPage10Reserved_2Ev @ 1306 NONAME
	_ZN19CAknDateSettingPage14AcceptSettingLEv @ 1307 NONAME
	_ZN19CAknDateSettingPage14UpdateSettingLEv @ 1308 NONAME
	_ZN19CAknDateSettingPage18ExtensionInterfaceE4TUid @ 1309 NONAME
	_ZN19CAknDateSettingPage19HandlePointerEventLERK13TPointerEvent @ 1310 NONAME
	_ZN19CAknDateSettingPage23RestoreOriginalSettingLEv @ 1311 NONAME
	_ZN19CAknDateSettingPage26CAknSettingPage_Reserved_1Ev @ 1312 NONAME
	_ZN19CAknDateSettingPage26CAknSettingPage_Reserved_2Ev @ 1313 NONAME
	_ZN19CAknDateSettingPageC1EPK7TDesC16iiiiR5TTime @ 1314 NONAME
	_ZN19CAknDateSettingPageC1EiR5TTime @ 1315 NONAME
	_ZN19CAknDateSettingPageC2EPK7TDesC16iiiiR5TTime @ 1316 NONAME
	_ZN19CAknDateSettingPageC2EiR5TTime @ 1317 NONAME
	_ZN19CAknDateSettingPageD0Ev @ 1318 NONAME
	_ZN19CAknDateSettingPageD1Ev @ 1319 NONAME
	_ZN19CAknDateSettingPageD2Ev @ 1320 NONAME
	_ZN19CAknExtQueryControl14SetInetAddressER9TInetAddr @ 1321 NONAME
	_ZN19CAknExtQueryControl18ExtensionInterfaceE4TUid @ 1322 NONAME
	_ZN19CAknExtQueryControl19HandleControlEventLEP11CCoeControlN19MCoeControlObserver9TCoeEventE @ 1323 NONAME
	_ZN19CAknExtQueryControl19HandlePointerEventLERK13TPointerEvent @ 1324 NONAME
	_ZN19CAknExtQueryControl20SetFixedPointNumberLEPKi @ 1325 NONAME
	_ZN19CAknExtQueryControl20SetMinimumAndMaximumERK9TInetAddrS2_ @ 1326 NONAME
	_ZN19CAknExtQueryControl20SetMinimumAndMaximumEii @ 1327 NONAME
	_ZN19CAknExtQueryControl21ControlByLayoutOrNullEi @ 1328 NONAME
	_ZN19CAknExtQueryControlC1Ev @ 1329 NONAME
	_ZN19CAknExtQueryControlC2Ev @ 1330 NONAME
	_ZN19CAknExtQueryControlD0Ev @ 1331 NONAME
	_ZN19CAknExtQueryControlD1Ev @ 1332 NONAME
	_ZN19CAknExtQueryControlD2Ev @ 1333 NONAME
	_ZN19CAknInformationNote18ExtensionInterfaceE4TUid @ 1334 NONAME
	_ZN19CAknInformationNote19HandlePointerEventLERK13TPointerEvent @ 1335 NONAME
	_ZN19CAknInformationNote21CEikDialog_Reserved_1Ev @ 1336 NONAME
	_ZN19CAknInformationNote21CEikDialog_Reserved_2Ev @ 1337 NONAME
	_ZN19CAknInformationNote23CAknNoteDialog_ReservedEv @ 1338 NONAME
	_ZN19CAknInformationNote31CAknResourceNoteDialog_ReservedEv @ 1339 NONAME
	_ZN19CAknInformationNoteC1EPPS_ @ 1340 NONAME
	_ZN19CAknInformationNoteC1Ei @ 1341 NONAME
	_ZN19CAknInformationNoteC1Ev @ 1342 NONAME
	_ZN19CAknInformationNoteC2EPPS_ @ 1343 NONAME
	_ZN19CAknInformationNoteC2Ei @ 1344 NONAME
	_ZN19CAknInformationNoteC2Ev @ 1345 NONAME
	_ZN19CAknListQueryDialog10CloseStateEv @ 1346 NONAME
	_ZN19CAknListQueryDialog11BorderStyleEv @ 1347 NONAME
	_ZN19CAknListQueryDialog13SetIconArrayLEP9CArrayPtrI8CGulIconE @ 1348 NONAME
	_ZN19CAknListQueryDialog14OfferKeyEventLERK9TKeyEvent10TEventCode @ 1349 NONAME
	_ZN19CAknListQueryDialog16SetItemTextArrayEP12MDesC16Array @ 1350 NONAME
	_ZN19CAknListQueryDialog16SetOwnershipTypeE31TListBoxModelItemArrayOwnership @ 1351 NONAME
	_ZN19CAknListQueryDialog17PreLayoutDynInitLEv @ 1352 NONAME
	_ZN19CAknListQueryDialog18ExtensionInterfaceE4TUid @ 1353 NONAME
	_ZN19CAknListQueryDialog18PostLayoutDynInitLEv @ 1354 NONAME
	_ZN19CAknListQueryDialog18SetSizeAndPositionERK5TSize @ 1355 NONAME
	_ZN19CAknListQueryDialog19CAknDialog_ReservedEv @ 1356 NONAME
	_ZN19CAknListQueryDialog19HandleListBoxEventLEP11CEikListBoxN19MEikListBoxObserver13TListBoxEventE @ 1357 NONAME
	_ZN19CAknListQueryDialog19HandlePointerEventLERK13TPointerEvent @ 1358 NONAME
	_ZN19CAknListQueryDialog21CEikDialog_Reserved_1Ev @ 1359 NONAME
	_ZN19CAknListQueryDialog21CEikDialog_Reserved_2Ev @ 1360 NONAME
	_ZN19CAknListQueryDialog24CAknQueryDialog_ReservedEv @ 1361 NONAME
	_ZN19CAknListQueryDialog7SetToneEi @ 1362 NONAME
	_ZN19CAknListQueryDialog9ActivateLEv @ 1363 NONAME
	_ZN19CAknListQueryDialog9OkToExitLEi @ 1364 NONAME
	_ZN19CAknListQueryDialogC1EP9CArrayFixIiE @ 1365 NONAME
	_ZN19CAknListQueryDialogC1EPi @ 1366 NONAME
	_ZN19CAknListQueryDialogC2EP9CArrayFixIiE @ 1367 NONAME
	_ZN19CAknListQueryDialogC2EPi @ 1368 NONAME
	_ZN19CAknListQueryDialogD0Ev @ 1369 NONAME
	_ZN19CAknListQueryDialogD1Ev @ 1370 NONAME
	_ZN19CAknListQueryDialogD2Ev @ 1371 NONAME
	_ZN19CAknMfneSettingPage10ConstructLEv @ 1372 NONAME
	_ZN19CAknMfneSettingPage11SizeChangedEv @ 1373 NONAME
	_ZN19CAknMfneSettingPage18ExtensionInterfaceE4TUid @ 1374 NONAME
	_ZN19CAknMfneSettingPage19HandleControlEventLEP11CCoeControlN19MCoeControlObserver9TCoeEventE @ 1375 NONAME
	_ZN19CAknMfneSettingPage19HandlePointerEventLERK13TPointerEvent @ 1376 NONAME
	_ZN19CAknMfneSettingPage23CheckAndSetDataValidityEv @ 1377 NONAME
	_ZN19CAknMfneSettingPageC1EPK7TDesC16iiii @ 1378 NONAME
	_ZN19CAknMfneSettingPageC1Ei @ 1379 NONAME
	_ZN19CAknMfneSettingPageC2EPK7TDesC16iiii @ 1380 NONAME
	_ZN19CAknMfneSettingPageC2Ei @ 1381 NONAME
	_ZN19CAknMfneSettingPageD0Ev @ 1382 NONAME
	_ZN19CAknMfneSettingPageD1Ev @ 1383 NONAME
	_ZN19CAknMfneSettingPageD2Ev @ 1384 NONAME
	_ZN19CAknOpenFileService4NewLERK4TUidRK5RFileP25MAknServerAppExitObserverP20CAiwGenericParamList @ 1385 NONAME
	_ZN19CAknOpenFileService4NewLERK7TDesC16P25MAknServerAppExitObserverP20CAiwGenericParamList @ 1386 NONAME
	_ZN19CAknQueryValuePhone13CreateEditorLEv @ 1387 NONAME
	_ZN19CAknQueryValuePhone15SetQueryCaptionEi @ 1388 NONAME
	_ZN19CAknQueryValuePhone18CurrentValueTextLCEv @ 1389 NONAME
	_ZN19CAknQueryValuePhone20SetCurrentValueIndexEi @ 1390 NONAME
	_ZN19CAknQueryValuePhone23Reserved_MAknQueryValueEv @ 1391 NONAME
	_ZN19CAknQueryValuePhone4NewLEv @ 1392 NONAME
	_ZN19CAknQueryValuePhone5NewLCEv @ 1393 NONAME
	_ZN19CAknQueryValuePhone9SetArrayLEPK24CAknQueryValuePhoneArray @ 1394 NONAME
	_ZN19CAknQueryValuePhoneD0Ev @ 1395 NONAME
	_ZN19CAknQueryValuePhoneD1Ev @ 1396 NONAME
	_ZN19CAknQueryValuePhoneD2Ev @ 1397 NONAME
	_ZN19CAknSetStyleListBox11MinimumSizeEv @ 1398 NONAME
	_ZN19CAknSetStyleListBox11SizeChangedEv @ 1399 NONAME
	_ZN19CAknSetStyleListBox15MopSupplyObjectE8TTypeUid @ 1400 NONAME
	_ZN19CAknSetStyleListBox17CreateItemDrawerLEv @ 1401 NONAME
	_ZN19CAknSetStyleListBox19HandlePointerEventLERK13TPointerEvent @ 1402 NONAME
	_ZN19CAknSetStyleListBox20ConstructWithWindowLEPK11CCoeControli @ 1403 NONAME
	_ZN19CAknSetStyleListBox22MakeViewClassInstanceLEv @ 1404 NONAME
	_ZN19CAknSettingItemList12FocusChangedE8TDrawNow @ 1405 NONAME
	_ZN19CAknSettingItemList13LoadSettingsLEv @ 1406 NONAME
	_ZN19CAknSettingItemList14OfferKeyEventLERK9TKeyEvent10TEventCode @ 1407 NONAME
	_ZN19CAknSettingItemList14StoreSettingsLEv @ 1408 NONAME
	_ZN19CAknSettingItemList15IsNumberedStyleEv @ 1409 NONAME
	_ZN19CAknSettingItemList18CreateSettingItemLEi @ 1410 NONAME
	_ZN19CAknSettingItemList18ExtensionInterfaceE4TUid @ 1411 NONAME
	_ZN19CAknSettingItemList19HandleListBoxEventLEP11CEikListBoxN19MEikListBoxObserver13TListBoxEventE @ 1412 NONAME
	_ZN19CAknSettingItemList19HandlePointerEventLERK13TPointerEvent @ 1413 NONAME
	_ZN19CAknSettingItemList20HandleResourceChangeEi @ 1414 NONAME
	_ZN19CAknSettingItemList22ConstructFromResourceLER15TResourceReader @ 1415 NONAME
	_ZN19CAknSettingItemList22ConstructFromResourceLEi @ 1416 NONAME
	_ZN19CAknSettingItemList25SetIncludeHiddenInOrdinalEi @ 1417 NONAME
	_ZN19CAknSettingItemList36HandleChangeInItemArrayOrVisibilityLEv @ 1418 NONAME
	_ZN19CAknSettingItemList7ListBoxEv @ 1419 NONAME
	_ZN19CAknSettingItemList9EditItemLEii @ 1420 NONAME
	_ZN19CAknSettingItemListC1Ev @ 1421 NONAME
	_ZN19CAknSettingItemListC2Ev @ 1422 NONAME
	_ZN19CAknSettingItemListD0Ev @ 1423 NONAME
	_ZN19CAknSettingItemListD1Ev @ 1424 NONAME
	_ZN19CAknSettingItemListD2Ev @ 1425 NONAME
	_ZN19CAknTextQueryDialog12SetMaxLengthEi @ 1426 NONAME
	_ZN19CAknTextQueryDialog17PreLayoutDynInitLEv @ 1427 NONAME
	_ZN19CAknTextQueryDialog18ExtensionInterfaceE4TUid @ 1428 NONAME
	_ZN19CAknTextQueryDialog19CAknDialog_ReservedEv @ 1429 NONAME
	_ZN19CAknTextQueryDialog19HandlePointerEventLERK13TPointerEvent @ 1430 NONAME
	_ZN19CAknTextQueryDialog19SetDefaultInputModeEi @ 1431 NONAME
	_ZN19CAknTextQueryDialog21CEikDialog_Reserved_1Ev @ 1432 NONAME
	_ZN19CAknTextQueryDialog21CEikDialog_Reserved_2Ev @ 1433 NONAME
	_ZN19CAknTextQueryDialog24CAknQueryDialog_ReservedEv @ 1434 NONAME
	_ZN19CAknTextQueryDialog27HandleQueryEditorSizeEventLEP16CAknQueryControlN24MAknQueryControlObserver18TQueryControlEventE @ 1435 NONAME
	_ZN19CAknTextQueryDialog4NewLER6TDes16RKN15CAknQueryDialog5TToneE @ 1436 NONAME
	_ZN19CAknTextQueryDialog9OkToExitLEi @ 1437 NONAME
	_ZN19CAknTextQueryDialogC1ER6TDes16R7TDesC16RKN15CAknQueryDialog5TToneE @ 1438 NONAME
	_ZN19CAknTextQueryDialogC1ER6TDes16RKN15CAknQueryDialog5TToneE @ 1439 NONAME
	_ZN19CAknTextQueryDialogC2ER6TDes16R7TDesC16RKN15CAknQueryDialog5TToneE @ 1440 NONAME
	_ZN19CAknTextQueryDialogC2ER6TDes16RKN15CAknQueryDialog5TToneE @ 1441 NONAME
	_ZN19CAknTextQueryDialogD0Ev @ 1442 NONAME
	_ZN19CAknTextQueryDialogD1Ev @ 1443 NONAME
	_ZN19CAknTextQueryDialogD2Ev @ 1444 NONAME
	_ZN19CAknTextSettingItem12ExternalTextEv @ 1445 NONAME
	_ZN19CAknTextSettingItem12SettingTextLEv @ 1446 NONAME
	_ZN19CAknTextSettingItem15InternalTextPtrEv @ 1447 NONAME
	_ZN19CAknTextSettingItem15SetExternalTextER7TDesC16 @ 1448 NONAME
	_ZN19CAknTextSettingItem24CAknSettingItem_ReservedEv @ 1449 NONAME
	_ZN19CAknTextSettingItem5LoadLEv @ 1450 NONAME
	_ZN19CAknTextSettingItem6StoreLEv @ 1451 NONAME
	_ZN19CAknTextSettingItem9EditItemLEi @ 1452 NONAME
	_ZN19CAknTextSettingItemC1EiR6TDes16 @ 1453 NONAME
	_ZN19CAknTextSettingItemC2EiR6TDes16 @ 1454 NONAME
	_ZN19CAknTextSettingItemD0Ev @ 1455 NONAME
	_ZN19CAknTextSettingItemD1Ev @ 1456 NONAME
	_ZN19CAknTextSettingItemD2Ev @ 1457 NONAME
	_ZN19CAknTextSettingPage10ConstructLEv @ 1458 NONAME
	_ZN19CAknTextSettingPage10Reserved_2Ev @ 1459 NONAME
	_ZN19CAknTextSettingPage10UpdateCbaLEv @ 1460 NONAME
	_ZN19CAknTextSettingPage11SizeChangedEv @ 1461 NONAME
	_ZN19CAknTextSettingPage11UpdateTextLEv @ 1462 NONAME
	_ZN19CAknTextSettingPage12DynamicInitLEv @ 1463 NONAME
	_ZN19CAknTextSettingPage14AcceptSettingLEv @ 1464 NONAME
	_ZN19CAknTextSettingPage14UpdateSettingLEv @ 1465 NONAME
	_ZN19CAknTextSettingPage18ExtensionInterfaceE4TUid @ 1466 NONAME
	_ZN19CAknTextSettingPage19HandleControlEventLEP11CCoeControlN19MCoeControlObserver9TCoeEventE @ 1467 NONAME
	_ZN19CAknTextSettingPage19HandlePointerEventLERK13TPointerEvent @ 1468 NONAME
	_ZN19CAknTextSettingPage23CheckAndSetDataValidityEv @ 1469 NONAME
	_ZN19CAknTextSettingPage23RestoreOriginalSettingLEv @ 1470 NONAME
	_ZN19CAknTextSettingPage26CAknSettingPage_Reserved_1Ev @ 1471 NONAME
	_ZN19CAknTextSettingPage26CAknSettingPage_Reserved_2Ev @ 1472 NONAME
	_ZN19CAknTextSettingPage31CAknEdwinSettingPage_Reserved_1Ev @ 1473 NONAME
	_ZN19CAknTextSettingPageC1EPK7TDesC16iiiiR6TDes16i @ 1474 NONAME
	_ZN19CAknTextSettingPageC1EiR6TDes16i @ 1475 NONAME
	_ZN19CAknTextSettingPageC2EPK7TDesC16iiiiR6TDes16i @ 1476 NONAME
	_ZN19CAknTextSettingPageC2EiR6TDes16i @ 1477 NONAME
	_ZN19CAknTextSettingPageD0Ev @ 1478 NONAME
	_ZN19CAknTextSettingPageD1Ev @ 1479 NONAME
	_ZN19CAknTextSettingPageD2Ev @ 1480 NONAME
	_ZN19CAknTimeQueryDialog17PreLayoutDynInitLEv @ 1481 NONAME
	_ZN19CAknTimeQueryDialog18ExtensionInterfaceE4TUid @ 1482 NONAME
	_ZN19CAknTimeQueryDialog19CAknDialog_ReservedEv @ 1483 NONAME
	_ZN19CAknTimeQueryDialog19HandlePointerEventLERK13TPointerEvent @ 1484 NONAME
	_ZN19CAknTimeQueryDialog20SetMinimumAndMaximumERK5TTimeS2_ @ 1485 NONAME
	_ZN19CAknTimeQueryDialog21CEikDialog_Reserved_1Ev @ 1486 NONAME
	_ZN19CAknTimeQueryDialog21CEikDialog_Reserved_2Ev @ 1487 NONAME
	_ZN19CAknTimeQueryDialog24CAknQueryDialog_ReservedEv @ 1488 NONAME
	_ZN19CAknTimeQueryDialog4NewLER5TTimeRKN15CAknQueryDialog5TToneE @ 1489 NONAME
	_ZN19CAknTimeQueryDialog9OkToExitLEi @ 1490 NONAME
	_ZN19CAknTimeQueryDialogC1ER5TTimeR7TDesC16RKN15CAknQueryDialog5TToneE @ 1491 NONAME
	_ZN19CAknTimeQueryDialogC1ER5TTimeRKN15CAknQueryDialog5TToneE @ 1492 NONAME
	_ZN19CAknTimeQueryDialogC2ER5TTimeR7TDesC16RKN15CAknQueryDialog5TToneE @ 1493 NONAME
	_ZN19CAknTimeQueryDialogC2ER5TTimeRKN15CAknQueryDialog5TToneE @ 1494 NONAME
	_ZN19CAknTimeQueryDialogD0Ev @ 1495 NONAME
	_ZN19CAknTimeQueryDialogD1Ev @ 1496 NONAME
	_ZN19CAknTimeQueryDialogD2Ev @ 1497 NONAME
	_ZN19CAknTimeSettingPage10ConstructLEv @ 1498 NONAME
	_ZN19CAknTimeSettingPage10Reserved_2Ev @ 1499 NONAME
	_ZN19CAknTimeSettingPage10TimeEditorEv @ 1500 NONAME
	_ZN19CAknTimeSettingPage14AcceptSettingLEv @ 1501 NONAME
	_ZN19CAknTimeSettingPage14UpdateSettingLEv @ 1502 NONAME
	_ZN19CAknTimeSettingPage18ExtensionInterfaceE4TUid @ 1503 NONAME
	_ZN19CAknTimeSettingPage19HandlePointerEventLERK13TPointerEvent @ 1504 NONAME
	_ZN19CAknTimeSettingPage23RestoreOriginalSettingLEv @ 1505 NONAME
	_ZN19CAknTimeSettingPage26CAknSettingPage_Reserved_1Ev @ 1506 NONAME
	_ZN19CAknTimeSettingPage26CAknSettingPage_Reserved_2Ev @ 1507 NONAME
	_ZN19CAknTimeSettingPageC1EPK7TDesC16iiiiR5TTime @ 1508 NONAME
	_ZN19CAknTimeSettingPageC1EiR5TTime @ 1509 NONAME
	_ZN19CAknTimeSettingPageC2EPK7TDesC16iiiiR5TTime @ 1510 NONAME
	_ZN19CAknTimeSettingPageC2EiR5TTime @ 1511 NONAME
	_ZN19CAknTimeSettingPageD0Ev @ 1512 NONAME
	_ZN19CAknTimeSettingPageD1Ev @ 1513 NONAME
	_ZN19CAknTimeSettingPageD2Ev @ 1514 NONAME
	_ZN19CAknWaitNoteWrapper4NewLEv @ 1515 NONAME
	_ZN19CAknWaitNoteWrapper8ExecuteLEiR21MAknBackgroundProcessRK7TDesC16iRKN14CAknNoteDialog5TToneE @ 1516 NONAME
	_ZN19CAknWaitNoteWrapper8ExecuteLEiR21MAknBackgroundProcessiRKN14CAknNoteDialog5TToneE @ 1517 NONAME
	_ZN19CAknWaitNoteWrapperD0Ev @ 1518 NONAME
	_ZN19CAknWaitNoteWrapperD1Ev @ 1519 NONAME
	_ZN19CAknWaitNoteWrapperD2Ev @ 1520 NONAME
	_ZN19CEikSettingsListBox17CreateItemDrawerLEv @ 1521 NONAME
	_ZN19CEikSettingsListBox18ExtensionInterfaceE4TUid @ 1522 NONAME
	_ZN19CEikSettingsListBox19HandlePointerEventLERK13TPointerEvent @ 1523 NONAME
	_ZN19CEikSettingsListBox20CEikListBox_ReservedEv @ 1524 NONAME
	_ZN19CEikSettingsListBox22MakeViewClassInstanceLEv @ 1525 NONAME
	_ZN19CEikSettingsListBoxC1Ev @ 1526 NONAME
	_ZN19CEikSettingsListBoxC2Ev @ 1527 NONAME
	_ZN19RAknEikAppUiSession12SetSgcParamsEi10TBitFlagsTImEii @ 1528 NONAME
	_ZN19RAknEikAppUiSession14SetSystemFadedEi @ 1529 NONAME
	_ZN19RAknEikAppUiSession17PrepareForAppExitEi @ 1530 NONAME
	_ZN19RAknEikAppUiSession22RedrawServerStatusPaneEv @ 1531 NONAME
	_ZN19RAknEikAppUiSession26DoSynchWaitForAknCapServerEv @ 1532 NONAME
	_ZN19RAknEikAppUiSession28BlockServerStatusPaneRedrawsEv @ 1533 NONAME
	_ZN19RAknEikAppUiSession29AllowNotifierAppServersToLoadEv @ 1534 NONAME
	_ZN19RAknEikAppUiSessionC1Ev @ 1535 NONAME
	_ZN19RAknEikAppUiSessionC2Ev @ 1536 NONAME
	_ZN20CAknConfirmationNote18ExtensionInterfaceE4TUid @ 1537 NONAME
	_ZN20CAknConfirmationNote19HandlePointerEventLERK13TPointerEvent @ 1538 NONAME
	_ZN20CAknConfirmationNote21CEikDialog_Reserved_1Ev @ 1539 NONAME
	_ZN20CAknConfirmationNote21CEikDialog_Reserved_2Ev @ 1540 NONAME
	_ZN20CAknConfirmationNote23CAknNoteDialog_ReservedEv @ 1541 NONAME
	_ZN20CAknConfirmationNote31CAknResourceNoteDialog_ReservedEv @ 1542 NONAME
	_ZN20CAknConfirmationNoteC1EPPS_ @ 1543 NONAME
	_ZN20CAknConfirmationNoteC1Ei @ 1544 NONAME
	_ZN20CAknConfirmationNoteC1Ev @ 1545 NONAME
	_ZN20CAknConfirmationNoteC2EPPS_ @ 1546 NONAME
	_ZN20CAknConfirmationNoteC2Ei @ 1547 NONAME
	_ZN20CAknConfirmationNoteC2Ev @ 1548 NONAME
	_ZN20CAknDrawSynchronizer4AddLEP14MAknSyncDrawer @ 1549 NONAME
	_ZN20CAknDrawSynchronizer4NewLEv @ 1550 NONAME
	_ZN20CAknDrawSynchronizer6RemoveEP14MAknSyncDrawer @ 1551 NONAME
	_ZN20CAknDrawSynchronizer6SignalEPK14MAknSyncDrawer @ 1552 NONAME
	_ZN20CAknDrawSynchronizerD0Ev @ 1553 NONAME
	_ZN20CAknDrawSynchronizerD1Ev @ 1554 NONAME
	_ZN20CAknDrawSynchronizerD2Ev @ 1555 NONAME
	_ZN20CAknDummyListBoxView10Reserved_1Ev @ 1556 NONAME
	_ZN20CAknEdwinSettingPage11TextControlEv @ 1557 NONAME
	_ZN20CAknEdwinSettingPage18ExtensionInterfaceE4TUid @ 1558 NONAME
	_ZN20CAknEdwinSettingPage19HandlePointerEventLERK13TPointerEvent @ 1559 NONAME
	_ZN20CAknEdwinSettingPage31CAknEdwinSettingPage_Reserved_1Ev @ 1560 NONAME
	_ZN20CAknEdwinSettingPageC2EPK7TDesC16iiii @ 1561 NONAME
	_ZN20CAknEdwinSettingPageC2Ei @ 1562 NONAME
	_ZN20CAknFontIdLayoutFont4NewLER15CWsScreenDevicei @ 1563 NONAME
	_ZN20CAknFontIdLayoutFont8UpdateIdEi @ 1564 NONAME
	_ZN20CAknGMSStyleGridView10Reserved_1Ev @ 1565 NONAME
	_ZN20CAknGMSStyleGridView11SetupLayoutERK5TRectii @ 1566 NONAME
	_ZN20CAknGMSStyleGridViewC1Ev @ 1567 NONAME
	_ZN20CAknGMSStyleGridViewC2Ev @ 1568 NONAME
	_ZN20CAknLaunchAppService4NewLERK4TUidP25MAknServerAppExitObserverP20CAiwGenericParamList @ 1569 NONAME
	_ZN20CAknListQueryControl11MinimumSizeEv @ 1570 NONAME
	_ZN20CAknListQueryControl12FocusChangedE8TDrawNow @ 1571 NONAME
	_ZN20CAknListQueryControl14OfferKeyEventLERK9TKeyEvent10TEventCode @ 1572 NONAME
	_ZN20CAknListQueryControl18ExtensionInterfaceE4TUid @ 1573 NONAME
	_ZN20CAknListQueryControl19HandlePointerEventLERK13TPointerEvent @ 1574 NONAME
	_ZN20CAknListQueryControl22ConstructFromResourceLER15TResourceReader @ 1575 NONAME
	_ZN20CAknListQueryControl9SetLayoutEP24TAknPopupWindowLayoutDef @ 1576 NONAME
	_ZN20CAknListQueryControlC1Ev @ 1577 NONAME
	_ZN20CAknListQueryControlC2Ev @ 1578 NONAME
	_ZN20CAknListQueryControlD0Ev @ 1579 NONAME
	_ZN20CAknListQueryControlD1Ev @ 1580 NONAME
	_ZN20CAknListQueryControlD2Ev @ 1581 NONAME
	_ZN20CAknPopupHeadingPane10ConstructLE7TPtrC16 @ 1582 NONAME
	_ZN20CAknPopupHeadingPane11MinimumSizeEv @ 1583 NONAME
	_ZN20CAknPopupHeadingPane11SizeChangedEv @ 1584 NONAME
	_ZN20CAknPopupHeadingPane15CancelAnimationEv @ 1585 NONAME
	_ZN20CAknPopupHeadingPane15SetHeaderImageLEP9CEikImage @ 1586 NONAME
	_ZN20CAknPopupHeadingPane15StartAnimationLEv @ 1587 NONAME
	_ZN20CAknPopupHeadingPane18ExtensionInterfaceE4TUid @ 1588 NONAME
	_ZN20CAknPopupHeadingPane19HandlePointerEventLERK13TPointerEvent @ 1589 NONAME
	_ZN20CAknPopupHeadingPane19SetHeaderAnimationLEi @ 1590 NONAME
	_ZN20CAknPopupHeadingPane22ConstructFromResourceLER15TResourceReader @ 1591 NONAME
	_ZN20CAknPopupHeadingPane8SetTextLE7TPtrC16 @ 1592 NONAME
	_ZN20CAknPopupHeadingPane9SetLayoutENS_18THeadingPaneLayoutE @ 1593 NONAME
	_ZN20CAknPopupHeadingPaneC1Ev @ 1594 NONAME
	_ZN20CAknPopupHeadingPaneC2Ev @ 1595 NONAME
	_ZN20CAknPopupHeadingPaneD0Ev @ 1596 NONAME
	_ZN20CAknPopupHeadingPaneD1Ev @ 1597 NONAME
	_ZN20CAknPopupHeadingPaneD2Ev @ 1598 NONAME
	_ZN20CAknPopupSettingList10ConstructLEv @ 1599 NONAME
	_ZN20CAknPopupSettingList10Reserved_1Ev @ 1600 NONAME
	_ZN20CAknPopupSettingList10Reserved_2Ev @ 1601 NONAME
	_ZN20CAknPopupSettingList14SetQueryValueLEP14MAknQueryValue @ 1602 NONAME
	_ZN20CAknPopupSettingList15CreateMenuListLEv @ 1603 NONAME
	_ZN20CAknPopupSettingList15DestroyMenuListEv @ 1604 NONAME
	_ZN20CAknPopupSettingList17ActivateMenuListLEv @ 1605 NONAME
	_ZN20CAknPopupSettingList17SetShowIndicatorsEi @ 1606 NONAME
	_ZN20CAknPopupSettingList18ConfigureMenuListLEv @ 1607 NONAME
	_ZN20CAknPopupSettingList18ExtensionInterfaceE4TUid @ 1608 NONAME
	_ZN20CAknPopupSettingList19HandleListBoxEventLEP11CEikListBoxN19MEikListBoxObserver13TListBoxEventE @ 1609 NONAME
	_ZN20CAknPopupSettingList19HandlePointerEventLERK13TPointerEvent @ 1610 NONAME
	_ZN20CAknPopupSettingList22ConstructFromResourceLER15TResourceReader @ 1611 NONAME
	_ZN20CAknPopupSettingList25SetAllowsUserDefinedEntryEi @ 1612 NONAME
	_ZN20CAknPopupSettingList27SetPopupSettingListObserverEP28MAknPopupSettingListObserver @ 1613 NONAME
	_ZN20CAknPopupSettingListC1Ev @ 1614 NONAME
	_ZN20CAknPopupSettingListC2Ev @ 1615 NONAME
	_ZN20CAknPopupSettingListD0Ev @ 1616 NONAME
	_ZN20CAknPopupSettingListD1Ev @ 1617 NONAME
	_ZN20CAknPopupSettingListD2Ev @ 1618 NONAME
	_ZN20CAknPopupSettingPage10ConstructLEv @ 1619 NONAME
	_ZN20CAknPopupSettingPage10Reserved_2Ev @ 1620 NONAME
	_ZN20CAknPopupSettingPage17UpdateQueryValueLEP14MAknQueryValue @ 1621 NONAME
	_ZN20CAknPopupSettingPage18ExtensionInterfaceE4TUid @ 1622 NONAME
	_ZN20CAknPopupSettingPage18SelectCurrentItemLEv @ 1623 NONAME
	_ZN20CAknPopupSettingPage19HandlePointerEventLERK13TPointerEvent @ 1624 NONAME
	_ZN20CAknPopupSettingPage26CAknSettingPage_Reserved_1Ev @ 1625 NONAME
	_ZN20CAknPopupSettingPage26CAknSettingPage_Reserved_2Ev @ 1626 NONAME
	_ZN20CAknPopupSettingPage28HandlePopupSettingListEventLEP20CAknPopupSettingListN28MAknPopupSettingListObserver25TAknPopupSettingListEventEi @ 1627 NONAME
	_ZN20CAknPopupSettingPage33CAknListBoxSettingPage_Reserved_1Ev @ 1628 NONAME
	_ZN20CAknPopupSettingPageC1EPK7TDesC16iiiiR14MAknQueryValue @ 1629 NONAME
	_ZN20CAknPopupSettingPageC1EiR14MAknQueryValue @ 1630 NONAME
	_ZN20CAknPopupSettingPageC2EPK7TDesC16iiiiR14MAknQueryValue @ 1631 NONAME
	_ZN20CAknPopupSettingPageC2EiR14MAknQueryValue @ 1632 NONAME
	_ZN20CAknPopupSettingPageD0Ev @ 1633 NONAME
	_ZN20CAknPopupSettingPageD1Ev @ 1634 NONAME
	_ZN20CAknPopupSettingPageD2Ev @ 1635 NONAME
	_ZN20CAknQueryValueNumber13CreateEditorLEv @ 1636 NONAME
	_ZN20CAknQueryValueNumber15SetQueryCaptionEi @ 1637 NONAME
	_ZN20CAknQueryValueNumber18CurrentValueTextLCEv @ 1638 NONAME
	_ZN20CAknQueryValueNumber20SetCurrentValueIndexEi @ 1639 NONAME
	_ZN20CAknQueryValueNumber23Reserved_MAknQueryValueEv @ 1640 NONAME
	_ZN20CAknQueryValueNumber4NewLEv @ 1641 NONAME
	_ZN20CAknQueryValueNumber5NewLCEv @ 1642 NONAME
	_ZN20CAknQueryValueNumber9SetArrayLEPK25CAknQueryValueNumberArray @ 1643 NONAME
	_ZN20CAknQueryValueNumberD0Ev @ 1644 NONAME
	_ZN20CAknQueryValueNumberD1Ev @ 1645 NONAME
	_ZN20CAknQueryValueNumberD2Ev @ 1646 NONAME
	_ZN20CAknSettingItemArray15SetVisibleCountEi @ 1647 NONAME
	_ZN20CAknSettingItemArray17SetInitialOrdinalEi @ 1648 NONAME
	_ZN20CAknSettingItemArray26RecalculateVisibleIndicesLEv @ 1649 NONAME
	_ZN20CAknSettingItemArray8SetFlagsEi @ 1650 NONAME
	_ZN20CAknSettingItemArrayC1Eiii @ 1651 NONAME
	_ZN20CAknSettingItemArrayC2Eiii @ 1652 NONAME
	_ZN20CAknSettingItemArrayD0Ev @ 1653 NONAME
	_ZN20CAknSettingItemArrayD1Ev @ 1654 NONAME
	_ZN20CAknSettingItemArrayD2Ev @ 1655 NONAME
	_ZN20CAknStaticNoteDialog14OfferKeyEventLERK9TKeyEvent10TEventCode @ 1656 NONAME
	_ZN20CAknStaticNoteDialog18ExtensionInterfaceE4TUid @ 1657 NONAME
	_ZN20CAknStaticNoteDialog18PostLayoutDynInitLEv @ 1658 NONAME
	_ZN20CAknStaticNoteDialog18SetNumberOfBordersEi @ 1659 NONAME
	_ZN20CAknStaticNoteDialog19HandlePointerEventLERK13TPointerEvent @ 1660 NONAME
	_ZN20CAknStaticNoteDialog21CEikDialog_Reserved_1Ev @ 1661 NONAME
	_ZN20CAknStaticNoteDialog21CEikDialog_Reserved_2Ev @ 1662 NONAME
	_ZN20CAknStaticNoteDialog23CAknNoteDialog_ReservedEv @ 1663 NONAME
	_ZN20CAknStaticNoteDialog29CAknStaticNoteDialog_ReservedEv @ 1664 NONAME
	_ZN20CAknStaticNoteDialogC1EPP10CEikDialog @ 1665 NONAME
	_ZN20CAknStaticNoteDialogC1Ev @ 1666 NONAME
	_ZN20CAknStaticNoteDialogC2EPP10CEikDialog @ 1667 NONAME
	_ZN20CAknStaticNoteDialogC2Ev @ 1668 NONAME
	_ZN20CAknStaticNoteDialogD0Ev @ 1669 NONAME
	_ZN20CAknStaticNoteDialogD1Ev @ 1670 NONAME
	_ZN20CAknStaticNoteDialogD2Ev @ 1671 NONAME
	_ZN20CSettingsListBoxData4NewLEv @ 1672 NONAME
	_ZN20CSettingsListBoxView10Reserved_1Ev @ 1673 NONAME
	_ZN20TAknQueryEcsObserver14HandleEcsEventEP15CAknEcsDetectorNS0_6TStateE @ 1674 NONAME
	_ZN21AknNotifierController20HideAllNotificationsEi @ 1675 NONAME
	_ZN21AknNotifierController22CancelAllNotificationsEv @ 1676 NONAME
	_ZN21CAknColumnListBoxView10Reserved_1Ev @ 1677 NONAME
	_ZN21CAknColumnListBoxView19CalcBottomItemIndexEv @ 1678 NONAME
	_ZN21CAknColumnListBoxView19EnableFindEmptyListEv @ 1679 NONAME
	_ZN21CAknColumnListBoxView21SetFindEmptyListStateEi @ 1680 NONAME
	_ZN21CAknNumberQueryDialog17PreLayoutDynInitLEv @ 1681 NONAME
	_ZN21CAknNumberQueryDialog18ExtensionInterfaceE4TUid @ 1682 NONAME
	_ZN21CAknNumberQueryDialog19CAknDialog_ReservedEv @ 1683 NONAME
	_ZN21CAknNumberQueryDialog19HandlePointerEventLERK13TPointerEvent @ 1684 NONAME
	_ZN21CAknNumberQueryDialog20SetMinimumAndMaximumEii @ 1685 NONAME
	_ZN21CAknNumberQueryDialog21CEikDialog_Reserved_1Ev @ 1686 NONAME
	_ZN21CAknNumberQueryDialog21CEikDialog_Reserved_2Ev @ 1687 NONAME
	_ZN21CAknNumberQueryDialog24CAknQueryDialog_ReservedEv @ 1688 NONAME
	_ZN21CAknNumberQueryDialog4NewLERiRKN15CAknQueryDialog5TToneE @ 1689 NONAME
	_ZN21CAknNumberQueryDialog9OkToExitLEi @ 1690 NONAME
	_ZN21CAknNumberQueryDialogC1ERiRKN15CAknQueryDialog5TToneE @ 1691 NONAME
	_ZN21CAknNumberQueryDialogC2ERiRKN15CAknQueryDialog5TToneE @ 1692 NONAME
	_ZN21CAknNumberQueryDialogD0Ev @ 1693 NONAME
	_ZN21CAknNumberQueryDialogD1Ev @ 1694 NONAME
	_ZN21CAknNumberQueryDialogD2Ev @ 1695 NONAME
	_ZN21CAknPhoneNumberEditor10ConstructLEiiiRK7TDesC16 @ 1696 NONAME
	_ZN21CAknPhoneNumberEditor10SelectAllLEv @ 1697 NONAME
	_ZN21CAknPhoneNumberEditor11MinimumSizeEv @ 1698 NONAME
	_ZN21CAknPhoneNumberEditor11SizeChangedEv @ 1699 NONAME
	_ZN21CAknPhoneNumberEditor12FocusChangedE8TDrawNow @ 1700 NONAME
	_ZN21CAknPhoneNumberEditor13SetCursorPosLEii @ 1701 NONAME
	_ZN21CAknPhoneNumberEditor13SetSelectionLEii @ 1702 NONAME
	_ZN21CAknPhoneNumberEditor14OfferKeyEventLERK9TKeyEvent10TEventCode @ 1703 NONAME
	_ZN21CAknPhoneNumberEditor15ClearSelectionLEv @ 1704 NONAME
	_ZN21CAknPhoneNumberEditor16ChangeEditorModeEi @ 1705 NONAME
	_ZN21CAknPhoneNumberEditor17UpdateScrollBarsLEv @ 1706 NONAME
	_ZN21CAknPhoneNumberEditor20CancelFepTransactionEv @ 1707 NONAME
	_ZN21CAknPhoneNumberEditor21CreateScrollBarFrameLEv @ 1708 NONAME
	_ZN21CAknPhoneNumberEditor22ConstructFromResourceLER15TResourceReader @ 1709 NONAME
	_ZN21CAknPhoneNumberEditor26ResetEditorToDefaultValuesEv @ 1710 NONAME
	_ZN21CAknPhoneNumberEditor33MCoeFepAwareTextEditor_Reserved_2Ev @ 1711 NONAME
	_ZN21CAknPhoneNumberEditor44MCoeFepAwareTextEditor_Extension1_Reserved_2Ev @ 1712 NONAME
	_ZN21CAknPhoneNumberEditor44MCoeFepAwareTextEditor_Extension1_Reserved_3Ev @ 1713 NONAME
	_ZN21CAknPhoneNumberEditor44MCoeFepAwareTextEditor_Extension1_Reserved_4Ev @ 1714 NONAME
	_ZN21CAknPhoneNumberEditor7SetTextERK7TDesC16 @ 1715 NONAME
	_ZN21CAknPhoneNumberEditor7TFormatC1ER15TResourceReader @ 1716 NONAME
	_ZN21CAknPhoneNumberEditor7TFormatC1ERK5TRectiiiiPK5CFont @ 1717 NONAME
	_ZN21CAknPhoneNumberEditor7TFormatC1Ev @ 1718 NONAME
	_ZN21CAknPhoneNumberEditor7TFormatC2ER15TResourceReader @ 1719 NONAME
	_ZN21CAknPhoneNumberEditor7TFormatC2ERK5TRectiiiiPK5CFont @ 1720 NONAME
	_ZN21CAknPhoneNumberEditor7TFormatC2Ev @ 1721 NONAME
	_ZN21CAknPhoneNumberEditor8SetTextLEPK7TDesC16 @ 1722 NONAME
	_ZN21CAknPhoneNumberEditor9AddFormatERKNS_7TFormatE @ 1723 NONAME
	_ZN21CAknPhoneNumberEditor9SetFormatEi @ 1724 NONAME
	_ZN21CAknPhoneNumberEditorC1Ev @ 1725 NONAME
	_ZN21CAknPhoneNumberEditorC2Ev @ 1726 NONAME
	_ZN21CAknPhoneNumberEditorD0Ev @ 1727 NONAME
	_ZN21CAknPhoneNumberEditorD1Ev @ 1728 NONAME
	_ZN21CAknPhoneNumberEditorD2Ev @ 1729 NONAME
	_ZN21CAknSliderSettingItem12SettingTextLEv @ 1730 NONAME
	_ZN21CAknSliderSettingItem13CreateBitmapLEv @ 1731 NONAME
	_ZN21CAknSliderSettingItem18CreateSettingPageLEv @ 1732 NONAME
	_ZN21CAknSliderSettingItem19InternalSliderValueEv @ 1733 NONAME
	_ZN21CAknSliderSettingItem24CAknSettingItem_ReservedEv @ 1734 NONAME
	_ZN21CAknSliderSettingItem28CreateAndExecuteSettingPageLEv @ 1735 NONAME
	_ZN21CAknSliderSettingItem5LoadLEv @ 1736 NONAME
	_ZN21CAknSliderSettingItem6StoreLEv @ 1737 NONAME
	_ZN21CAknSliderSettingItem9EditItemLEi @ 1738 NONAME
	_ZN21CAknSliderSettingItemC1EiRi @ 1739 NONAME
	_ZN21CAknSliderSettingItemC2EiRi @ 1740 NONAME
	_ZN21CAknSliderSettingPage10ConstructLEv @ 1741 NONAME
	_ZN21CAknSliderSettingPage10Reserved_2Ev @ 1742 NONAME
	_ZN21CAknSliderSettingPage11SizeChangedEv @ 1743 NONAME
	_ZN21CAknSliderSettingPage13SliderControlEv @ 1744 NONAME
	_ZN21CAknSliderSettingPage14AcceptSettingLEv @ 1745 NONAME
	_ZN21CAknSliderSettingPage14UpdateSettingLEv @ 1746 NONAME
	_ZN21CAknSliderSettingPage18ExtensionInterfaceE4TUid @ 1747 NONAME
	_ZN21CAknSliderSettingPage19HandlePointerEventLERK13TPointerEvent @ 1748 NONAME
	_ZN21CAknSliderSettingPage23RestoreOriginalSettingLEv @ 1749 NONAME
	_ZN21CAknSliderSettingPage26CAknSettingPage_Reserved_1Ev @ 1750 NONAME
	_ZN21CAknSliderSettingPage26CAknSettingPage_Reserved_2Ev @ 1751 NONAME
	_ZN21CAknSliderSettingPageC1EPK7TDesC16iiiiRi @ 1752 NONAME
	_ZN21CAknSliderSettingPageC1EiRi @ 1753 NONAME
	_ZN21CAknSliderSettingPageC2EPK7TDesC16iiiiRi @ 1754 NONAME
	_ZN21CAknSliderSettingPageC2EiRi @ 1755 NONAME
	_ZN21CAknSliderSettingPageD0Ev @ 1756 NONAME
	_ZN21CAknSliderSettingPageD1Ev @ 1757 NONAME
	_ZN21CAknSliderSettingPageD2Ev @ 1758 NONAME
	_ZN21CAknVolumeSettingItem12SettingTextLEv @ 1759 NONAME
	_ZN21CAknVolumeSettingItem13CreateBitmapLEv @ 1760 NONAME
	_ZN21CAknVolumeSettingItem19InternalVolumeValueEv @ 1761 NONAME
	_ZN21CAknVolumeSettingItem24CAknSettingItem_ReservedEv @ 1762 NONAME
	_ZN21CAknVolumeSettingItem5LoadLEv @ 1763 NONAME
	_ZN21CAknVolumeSettingItem6StoreLEv @ 1764 NONAME
	_ZN21CAknVolumeSettingItem9EditItemLEi @ 1765 NONAME
	_ZN21CAknVolumeSettingItemC1EiRi @ 1766 NONAME
	_ZN21CAknVolumeSettingItemC2EiRi @ 1767 NONAME
	_ZN21CAknVolumeSettingPage10ConstructLEv @ 1768 NONAME
	_ZN21CAknVolumeSettingPage10Reserved_2Ev @ 1769 NONAME
	_ZN21CAknVolumeSettingPage11SizeChangedEv @ 1770 NONAME
	_ZN21CAknVolumeSettingPage13VolumeControlEv @ 1771 NONAME
	_ZN21CAknVolumeSettingPage14AcceptSettingLEv @ 1772 NONAME
	_ZN21CAknVolumeSettingPage14UpdateSettingLEv @ 1773 NONAME
	_ZN21CAknVolumeSettingPage18ExtensionInterfaceE4TUid @ 1774 NONAME
	_ZN21CAknVolumeSettingPage19HandlePointerEventLERK13TPointerEvent @ 1775 NONAME
	_ZN21CAknVolumeSettingPage23RestoreOriginalSettingLEv @ 1776 NONAME
	_ZN21CAknVolumeSettingPage26CAknSettingPage_Reserved_1Ev @ 1777 NONAME
	_ZN21CAknVolumeSettingPage26CAknSettingPage_Reserved_2Ev @ 1778 NONAME
	_ZN21CAknVolumeSettingPageC1EPK7TDesC16iiiiRi @ 1779 NONAME
	_ZN21CAknVolumeSettingPageC1EiRi @ 1780 NONAME
	_ZN21CAknVolumeSettingPageC2EPK7TDesC16iiiiRi @ 1781 NONAME
	_ZN21CAknVolumeSettingPageC2EiRi @ 1782 NONAME
	_ZN21CAknVolumeSettingPageD0Ev @ 1783 NONAME
	_ZN21CAknVolumeSettingPageD1Ev @ 1784 NONAME
	_ZN21CAknVolumeSettingPageD2Ev @ 1785 NONAME
	_ZN21TAknSyncControlDrawer10SetControlEP11CCoeControl @ 1786 NONAME
	_ZN21TAknSyncControlDrawer18MasrPrepareForDrawEv @ 1787 NONAME
	_ZN21TAknSyncControlDrawer8MasrDrawEv @ 1788 NONAME
	_ZN21TAknSyncControlDrawerC1Ev @ 1789 NONAME
	_ZN21TAknSyncControlDrawerC2Ev @ 1790 NONAME
	_ZN22CAknBigSettingItemBase12SettingTextLEv @ 1791 NONAME
	_ZN22CAknBigSettingItemBase24CAknSettingItem_ReservedEv @ 1792 NONAME
	_ZN22CAknBigSettingItemBaseC1Ei @ 1793 NONAME
	_ZN22CAknBigSettingItemBaseC2Ei @ 1794 NONAME
	_ZN22CAknCaleMonthStyleGrid11MinimumSizeEv @ 1795 NONAME
	_ZN22CAknCaleMonthStyleGrid11SizeChangedEv @ 1796 NONAME
	_ZN22CAknCaleMonthStyleGrid19HandlePointerEventLERK13TPointerEvent @ 1797 NONAME
	_ZN22CAknDoubleStyleListBox11MinimumSizeEv @ 1798 NONAME
	_ZN22CAknDoubleStyleListBox11SizeChangedEv @ 1799 NONAME
	_ZN22CAknDoubleStyleListBox19HandlePointerEventLERK13TPointerEvent @ 1800 NONAME
	_ZN22CAknDoubleStyleListBoxC1Ev @ 1801 NONAME
	_ZN22CAknDoubleStyleListBoxC2Ev @ 1802 NONAME
	_ZN22CAknEnumeratedItemBase19SetEnumerationValueEi @ 1803 NONAME
	_ZN22CAknEnumeratedItemBase8SetValueEPv @ 1804 NONAME
	_ZN22CAknEnumeratedItemBaseC1EiPv @ 1805 NONAME
	_ZN22CAknEnumeratedItemBaseC2EiPv @ 1806 NONAME
	_ZN22CAknEnumeratedItemBaseD0Ev @ 1807 NONAME
	_ZN22CAknEnumeratedItemBaseD1Ev @ 1808 NONAME
	_ZN22CAknEnumeratedItemBaseD2Ev @ 1809 NONAME
	_ZN22CAknIndicatorContainer10ConstructLEv @ 1810 NONAME
	_ZN22CAknIndicatorContainer11SizeChangedEv @ 1811 NONAME
	_ZN22CAknIndicatorContainer14IndicatorStateE4TUid @ 1812 NONAME
	_ZN22CAknIndicatorContainer15PositionChangedEv @ 1813 NONAME
	_ZN22CAknIndicatorContainer17SetIndicatorStateE4TUidii @ 1814 NONAME
	_ZN22CAknIndicatorContainer17SetIndicatorValueE4TUidii @ 1815 NONAME
	_ZN22CAknIndicatorContainer18ExtensionInterfaceE4TUid @ 1816 NONAME
	_ZN22CAknIndicatorContainer18SetIndicatorValueLE4TUidRK7TDesC16 @ 1817 NONAME
	_ZN22CAknIndicatorContainer19HandlePointerEventLERK13TPointerEvent @ 1818 NONAME
	_ZN22CAknIndicatorContainer20HandleResourceChangeEi @ 1819 NONAME
	_ZN22CAknIndicatorContainer20SetIncallBubbleFlagsERKi @ 1820 NONAME
	_ZN22CAknIndicatorContainer20SetIndicatorObserverEP21MAknIndicatorObserver4TUid @ 1821 NONAME
	_ZN22CAknIndicatorContainer22ConstructFromResourceLER15TResourceReader @ 1822 NONAME
	_ZN22CAknIndicatorContainer26HandleStatusPaneSizeChangeEv @ 1823 NONAME
	_ZN22CAknIndicatorContainer28SetIncallBubbleAllowedInIdleEi @ 1824 NONAME
	_ZN22CAknIndicatorContainerC1Ei @ 1825 NONAME
	_ZN22CAknIndicatorContainerC1Ev @ 1826 NONAME
	_ZN22CAknIndicatorContainerC2Ei @ 1827 NONAME
	_ZN22CAknIndicatorContainerC2Ev @ 1828 NONAME
	_ZN22CAknIndicatorContainerD0Ev @ 1829 NONAME
	_ZN22CAknIndicatorContainerD1Ev @ 1830 NONAME
	_ZN22CAknIndicatorContainerD2Ev @ 1831 NONAME
	_ZN22CAknIntegerSettingItem12SettingTextLEv @ 1832 NONAME
	_ZN22CAknIntegerSettingItem16ExternalValueRefEv @ 1833 NONAME
	_ZN22CAknIntegerSettingItem16InternalValueRefEv @ 1834 NONAME
	_ZN22CAknIntegerSettingItem16SetExternalValueERi @ 1835 NONAME
	_ZN22CAknIntegerSettingItem21CompleteConstructionLEv @ 1836 NONAME
	_ZN22CAknIntegerSettingItem24CAknSettingItem_ReservedEv @ 1837 NONAME
	_ZN22CAknIntegerSettingItem5LoadLEv @ 1838 NONAME
	_ZN22CAknIntegerSettingItem6StoreLEv @ 1839 NONAME
	_ZN22CAknIntegerSettingItemC2EiRi @ 1840 NONAME
	_ZN22CAknIntegerSettingItemD0Ev @ 1841 NONAME
	_ZN22CAknIntegerSettingItemD1Ev @ 1842 NONAME
	_ZN22CAknIntegerSettingItemD2Ev @ 1843 NONAME
	_ZN22CAknIntegerSettingPage10ConstructLEv @ 1844 NONAME
	_ZN22CAknIntegerSettingPage10Reserved_2Ev @ 1845 NONAME
	_ZN22CAknIntegerSettingPage10UpdateCbaLEv @ 1846 NONAME
	_ZN22CAknIntegerSettingPage11SizeChangedEv @ 1847 NONAME
	_ZN22CAknIntegerSettingPage12DynamicInitLEv @ 1848 NONAME
	_ZN22CAknIntegerSettingPage14UpdateSettingLEv @ 1849 NONAME
	_ZN22CAknIntegerSettingPage18ExtensionInterfaceE4TUid @ 1850 NONAME
	_ZN22CAknIntegerSettingPage19HandleControlEventLEP11CCoeControlN19MCoeControlObserver9TCoeEventE @ 1851 NONAME
	_ZN22CAknIntegerSettingPage19HandlePointerEventLERK13TPointerEvent @ 1852 NONAME
	_ZN22CAknIntegerSettingPage20IntegerEditorControlEv @ 1853 NONAME
	_ZN22CAknIntegerSettingPage23CheckAndSetDataValidityEv @ 1854 NONAME
	_ZN22CAknIntegerSettingPage23RestoreOriginalSettingLEv @ 1855 NONAME
	_ZN22CAknIntegerSettingPage26CAknSettingPage_Reserved_1Ev @ 1856 NONAME
	_ZN22CAknIntegerSettingPage26CAknSettingPage_Reserved_2Ev @ 1857 NONAME
	_ZN22CAknIntegerSettingPage31CAknEdwinSettingPage_Reserved_1Ev @ 1858 NONAME
	_ZN22CAknIntegerSettingPageC1EPK7TDesC16iiiiRii @ 1859 NONAME
	_ZN22CAknIntegerSettingPageC1EiRii @ 1860 NONAME
	_ZN22CAknIntegerSettingPageC2EPK7TDesC16iiiiRii @ 1861 NONAME
	_ZN22CAknIntegerSettingPageC2EiRii @ 1862 NONAME
	_ZN22CAknIpFieldSettingItem12SettingTextLEv @ 1863 NONAME
	_ZN22CAknIpFieldSettingItem21CompleteConstructionLEv @ 1864 NONAME
	_ZN22CAknIpFieldSettingItem24CAknSettingItem_ReservedEv @ 1865 NONAME
	_ZN22CAknIpFieldSettingItem5LoadLEv @ 1866 NONAME
	_ZN22CAknIpFieldSettingItem6StoreLEv @ 1867 NONAME
	_ZN22CAknIpFieldSettingItem9EditItemLEi @ 1868 NONAME
	_ZN22CAknIpFieldSettingItemC1EiR9TInetAddr @ 1869 NONAME
	_ZN22CAknIpFieldSettingItemC2EiR9TInetAddr @ 1870 NONAME
	_ZN22CAknIpFieldSettingItemD0Ev @ 1871 NONAME
	_ZN22CAknIpFieldSettingItemD1Ev @ 1872 NONAME
	_ZN22CAknIpFieldSettingItemD2Ev @ 1873 NONAME
	_ZN22CAknIpFieldSettingPage10ConstructLEv @ 1874 NONAME
	_ZN22CAknIpFieldSettingPage10Reserved_2Ev @ 1875 NONAME
	_ZN22CAknIpFieldSettingPage13IpFieldEditorEv @ 1876 NONAME
	_ZN22CAknIpFieldSettingPage14AcceptSettingLEv @ 1877 NONAME
	_ZN22CAknIpFieldSettingPage14UpdateSettingLEv @ 1878 NONAME
	_ZN22CAknIpFieldSettingPage18ExtensionInterfaceE4TUid @ 1879 NONAME
	_ZN22CAknIpFieldSettingPage19HandlePointerEventLERK13TPointerEvent @ 1880 NONAME
	_ZN22CAknIpFieldSettingPage23RestoreOriginalSettingLEv @ 1881 NONAME
	_ZN22CAknIpFieldSettingPage26CAknSettingPage_Reserved_1Ev @ 1882 NONAME
	_ZN22CAknIpFieldSettingPage26CAknSettingPage_Reserved_2Ev @ 1883 NONAME
	_ZN22CAknIpFieldSettingPageC1EPK7TDesC16iiiiR9TInetAddr @ 1884 NONAME
	_ZN22CAknIpFieldSettingPageC1EiR9TInetAddr @ 1885 NONAME
	_ZN22CAknIpFieldSettingPageC2EPK7TDesC16iiiiR9TInetAddr @ 1886 NONAME
	_ZN22CAknIpFieldSettingPageC2EiR9TInetAddr @ 1887 NONAME
	_ZN22CAknIpFieldSettingPageD0Ev @ 1888 NONAME
	_ZN22CAknIpFieldSettingPageD1Ev @ 1889 NONAME
	_ZN22CAknIpFieldSettingPageD2Ev @ 1890 NONAME
	_ZN22CAknListBoxFilterItems10ConstructLEv @ 1891 NONAME
	_ZN22CAknListBoxFilterItems10SetListBoxEP11CEikListBox @ 1892 NONAME
	_ZN22CAknListBoxFilterItems11SetObserverEP19MCoeControlObserver @ 1893 NONAME
	_ZN22CAknListBoxFilterItems14SetSearchFieldEP15CAknSearchField @ 1894 NONAME
	_ZN22CAknListBoxFilterItems15ResetFilteringLEv @ 1895 NONAME
	_ZN22CAknListBoxFilterItems16SelectionIndexesEv @ 1896 NONAME
	_ZN22CAknListBoxFilterItems16SetParentControlEP11CCoeControl @ 1897 NONAME
	_ZN22CAknListBoxFilterItems17UpdateCachedDataLEv @ 1898 NONAME
	_ZN22CAknListBoxFilterItems19HandleControlEventLEP11CCoeControlN19MCoeControlObserver9TCoeEventE @ 1899 NONAME
	_ZN22CAknListBoxFilterItems20HandleOfferkeyEventLEv @ 1900 NONAME
	_ZN22CAknListBoxFilterItems21UpdateSelectionIndexLEi @ 1901 NONAME
	_ZN22CAknListBoxFilterItems22HandleItemArrayChangeLEv @ 1902 NONAME
	_ZN22CAknListBoxFilterItems23UpdateSelectionIndexesLEv @ 1903 NONAME
	_ZN22CAknListBoxFilterItems26DeferredSendKeyEventToFepLEj @ 1904 NONAME
	_ZN22CAknListBoxFilterItems28DefaultMatchableItemFromItemE7TPtrC16 @ 1905 NONAME
	_ZN22CAknListBoxFilterItems7SetViewEP12CListBoxView @ 1906 NONAME
	_ZN22CAknListBoxFilterItems8SetModelEP13MListBoxModel @ 1907 NONAME
	_ZN22CAknListBoxFilterItems8SetPopupEv @ 1908 NONAME
	_ZN22CAknListBoxFilterItemsC1EP11CEikListBoxP15CAknSearchFieldP13MListBoxModelP12CListBoxView @ 1909 NONAME
	_ZN22CAknListBoxFilterItemsC2EP11CEikListBoxP15CAknSearchFieldP13MListBoxModelP12CListBoxView @ 1910 NONAME
	_ZN22CAknListBoxFilterItemsD0Ev @ 1911 NONAME
	_ZN22CAknListBoxFilterItemsD1Ev @ 1912 NONAME
	_ZN22CAknListBoxFilterItemsD2Ev @ 1913 NONAME
	_ZN22CAknListBoxSettingPage10UpdateCbaLEv @ 1914 NONAME
	_ZN22CAknListBoxSettingPage11SizeChangedEv @ 1915 NONAME
	_ZN22CAknListBoxSettingPage19HandleListBoxEventLEP11CEikListBoxN19MEikListBoxObserver13TListBoxEventE @ 1916 NONAME
	_ZN22CAknListBoxSettingPage23CheckAndSetDataValidityEv @ 1917 NONAME
	_ZN22CAknListBoxSettingPage33CAknListBoxSettingPage_Reserved_1Ev @ 1918 NONAME
	_ZN22CAknMarkableListDialog10ConstructLEi @ 1919 NONAME
	_ZN22CAknMarkableListDialog14OfferKeyEventLERK9TKeyEvent10TEventCode @ 1920 NONAME
	_ZN22CAknMarkableListDialog15ProcessCommandLEi @ 1921 NONAME
	_ZN22CAknMarkableListDialog16DynInitMenuPaneLEiP12CEikMenuPane @ 1922 NONAME
	_ZN22CAknMarkableListDialog17PreLayoutDynInitLEv @ 1923 NONAME
	_ZN22CAknMarkableListDialog18ExtensionInterfaceE4TUid @ 1924 NONAME
	_ZN22CAknMarkableListDialog18PostLayoutDynInitLEv @ 1925 NONAME
	_ZN22CAknMarkableListDialog19CAknDialog_ReservedEv @ 1926 NONAME
	_ZN22CAknMarkableListDialog19HandleListBoxEventLEP11CEikListBoxN19MEikListBoxObserver13TListBoxEventE @ 1927 NONAME
	_ZN22CAknMarkableListDialog19HandlePointerEventLERK13TPointerEvent @ 1928 NONAME
	_ZN22CAknMarkableListDialog21CEikDialog_Reserved_1Ev @ 1929 NONAME
	_ZN22CAknMarkableListDialog21CEikDialog_Reserved_2Ev @ 1930 NONAME
	_ZN22CAknMarkableListDialog28SelectionListProcessCommandLEi @ 1931 NONAME
	_ZN22CAknMarkableListDialog32CAknSelectionListDialog_ReservedEv @ 1932 NONAME
	_ZN22CAknMarkableListDialog4NewLERiP9CArrayFixIiEP12MDesC16ArrayiP19MEikCommandObserver @ 1933 NONAME
	_ZN22CAknMarkableListDialog4NewLERiP9CArrayFixIiEP12MDesC16ArrayiiP19MEikCommandObserver @ 1934 NONAME
	_ZN22CAknMarkableListDialog5NewLCERiP9CArrayFixIiEP12MDesC16ArrayiP19MEikCommandObserver @ 1935 NONAME
	_ZN22CAknMarkableListDialog5NewLCERiP9CArrayFixIiEP12MDesC16ArrayiiP19MEikCommandObserver @ 1936 NONAME
	_ZN22CAknMarkableListDialog9OkToExitLEi @ 1937 NONAME
	_ZN22CAknMarkableListDialogC1ERiP9CArrayFixIiEP12MDesC16ArrayP19MEikCommandObserver @ 1938 NONAME
	_ZN22CAknMarkableListDialogC1ERiP9CArrayFixIiEP12MDesC16ArrayiiP19MEikCommandObserver @ 1939 NONAME
	_ZN22CAknMarkableListDialogC2ERiP9CArrayFixIiEP12MDesC16ArrayP19MEikCommandObserver @ 1940 NONAME
	_ZN22CAknMarkableListDialogC2ERiP9CArrayFixIiEP12MDesC16ArrayiiP19MEikCommandObserver @ 1941 NONAME
	_ZN22CAknMarkableListDialogD0Ev @ 1942 NONAME
	_ZN22CAknMarkableListDialogD1Ev @ 1943 NONAME
	_ZN22CAknMarkableListDialogD2Ev @ 1944 NONAME
	_ZN22CAknMessageQueryDialog12SetLinkTextLERK7TDesC16 @ 1945 NONAME
	_ZN22CAknMessageQueryDialog13SetHeaderTextEP7TDesC16 @ 1946 NONAME
	_ZN22CAknMessageQueryDialog13SetHeaderTextERK7TDesC16 @ 1947 NONAME
	_ZN22CAknMessageQueryDialog14OfferKeyEventLERK9TKeyEvent10TEventCode @ 1948 NONAME
	_ZN22CAknMessageQueryDialog14SetHeaderTextLERK7TDesC16 @ 1949 NONAME
	_ZN22CAknMessageQueryDialog14SetMessageTextEP7TDesC16 @ 1950 NONAME
	_ZN22CAknMessageQueryDialog14SetMessageTextERK7TDesC16 @ 1951 NONAME
	_ZN22CAknMessageQueryDialog15SetMessageTextLERK7TDesC16 @ 1952 NONAME
	_ZN22CAknMessageQueryDialog17PreLayoutDynInitLEv @ 1953 NONAME
	_ZN22CAknMessageQueryDialog18ExtensionInterfaceE4TUid @ 1954 NONAME
	_ZN22CAknMessageQueryDialog18PostLayoutDynInitLEv @ 1955 NONAME
	_ZN22CAknMessageQueryDialog18SetSizeAndPositionERK5TSize @ 1956 NONAME
	_ZN22CAknMessageQueryDialog19CAknDialog_ReservedEv @ 1957 NONAME
	_ZN22CAknMessageQueryDialog19HandlePointerEventLERK13TPointerEvent @ 1958 NONAME
	_ZN22CAknMessageQueryDialog21CEikDialog_Reserved_1Ev @ 1959 NONAME
	_ZN22CAknMessageQueryDialog21CEikDialog_Reserved_2Ev @ 1960 NONAME
	_ZN22CAknMessageQueryDialog24CAknQueryDialog_ReservedEv @ 1961 NONAME
	_ZN22CAknMessageQueryDialog4NewLER7TDesC16RKN15CAknQueryDialog5TToneE @ 1962 NONAME
	_ZN22CAknMessageQueryDialog7SetLinkER9TCallBack @ 1963 NONAME
	_ZN22CAknMessageQueryDialogC1EN15CAknQueryDialog5TToneE @ 1964 NONAME
	_ZN22CAknMessageQueryDialogC1EP7TDesC16S1_ @ 1965 NONAME
	_ZN22CAknMessageQueryDialogC1EP7TDesC16S1_N15CAknQueryDialog5TToneE @ 1966 NONAME
	_ZN22CAknMessageQueryDialogC1EP7TDesC16S1_P9CEikImage @ 1967 NONAME
	_ZN22CAknMessageQueryDialogC1EP7TDesC16S1_P9CEikImageN15CAknQueryDialog5TToneE @ 1968 NONAME
	_ZN22CAknMessageQueryDialogC1Ev @ 1969 NONAME
	_ZN22CAknMessageQueryDialogC2EN15CAknQueryDialog5TToneE @ 1970 NONAME
	_ZN22CAknMessageQueryDialogC2EP7TDesC16S1_ @ 1971 NONAME
	_ZN22CAknMessageQueryDialogC2EP7TDesC16S1_N15CAknQueryDialog5TToneE @ 1972 NONAME
	_ZN22CAknMessageQueryDialogC2EP7TDesC16S1_P9CEikImage @ 1973 NONAME
	_ZN22CAknMessageQueryDialogC2EP7TDesC16S1_P9CEikImageN15CAknQueryDialog5TToneE @ 1974 NONAME
	_ZN22CAknMessageQueryDialogC2Ev @ 1975 NONAME
	_ZN22CAknMessageQueryDialogD0Ev @ 1976 NONAME
	_ZN22CAknMessageQueryDialogD1Ev @ 1977 NONAME
	_ZN22CAknMessageQueryDialogD2Ev @ 1978 NONAME
	_ZN22CAknQueryValueDuration13CreateEditorLEv @ 1979 NONAME
	_ZN22CAknQueryValueDuration15SetQueryCaptionEi @ 1980 NONAME
	_ZN22CAknQueryValueDuration18CurrentValueTextLCEv @ 1981 NONAME
	_ZN22CAknQueryValueDuration20SetCurrentValueIndexEi @ 1982 NONAME
	_ZN22CAknQueryValueDuration23Reserved_MAknQueryValueEv @ 1983 NONAME
	_ZN22CAknQueryValueDuration4NewLEv @ 1984 NONAME
	_ZN22CAknQueryValueDuration5NewLCEv @ 1985 NONAME
	_ZN22CAknQueryValueDuration9SetArrayLEPK27CAknQueryValueDurationArray @ 1986 NONAME
	_ZN22CAknQueryValueDurationD0Ev @ 1987 NONAME
	_ZN22CAknQueryValueDurationD1Ev @ 1988 NONAME
	_ZN22CAknQueryValueDurationD2Ev @ 1989 NONAME
	_ZN22CAknResourceNoteDialog18ExtensionInterfaceE4TUid @ 1990 NONAME
	_ZN22CAknResourceNoteDialog19HandlePointerEventLERK13TPointerEvent @ 1991 NONAME
	_ZN22CAknResourceNoteDialog21CEikDialog_Reserved_1Ev @ 1992 NONAME
	_ZN22CAknResourceNoteDialog21CEikDialog_Reserved_2Ev @ 1993 NONAME
	_ZN22CAknResourceNoteDialog23CAknNoteDialog_ReservedEv @ 1994 NONAME
	_ZN22CAknResourceNoteDialog31CAknResourceNoteDialog_ReservedEv @ 1995 NONAME
	_ZN22CAknResourceNoteDialog9ExecuteLDERK7TDesC16 @ 1996 NONAME
	_ZN22CAknResourceNoteDialog9ExecuteLDEv @ 1997 NONAME
	_ZN22CAknSingleStyleListBox11MinimumSizeEv @ 1998 NONAME
	_ZN22CAknSingleStyleListBox11SizeChangedEv @ 1999 NONAME
	_ZN22CAknSingleStyleListBox19HandlePointerEventLERK13TPointerEvent @ 2000 NONAME
	_ZN22CAknSingleStyleListBoxC1Ev @ 2001 NONAME
	_ZN22CAknSingleStyleListBoxC2Ev @ 2002 NONAME
	_ZN22CFormattedCellGridData4NewLEv @ 2003 NONAME
	_ZN22TAknDesCArrayDecorator17SetDecorationTextERK7TDesC16 @ 2004 NONAME
	_ZN22TAknDesCArrayDecorator8SetArrayEPK12MDesC16Array @ 2005 NONAME
	_ZN22TAknDesCArrayDecorator9SetActiveEi @ 2006 NONAME
	_ZN22TAknDesCArrayDecoratorC1Ev @ 2007 NONAME
	_ZN22TAknDesCArrayDecoratorC2Ev @ 2008 NONAME
	_ZN23AknListBoxLinesTemplateI17CAknColumnListBoxE11SizeChangedEv @ 2009 NONAME
	_ZN23AknListBoxLinesTemplateI17CAknColumnListBoxEC1Ei @ 2010 NONAME
	_ZN23AknListBoxLinesTemplateI17CAknColumnListBoxEC2Ei @ 2011 NONAME
	_ZN23AknListBoxLinesTemplateI19CEikSettingsListBoxE11SizeChangedEv @ 2012 NONAME
	_ZN23AknListBoxLinesTemplateI19CEikSettingsListBoxEC1Ei @ 2013 NONAME
	_ZN23AknListBoxLinesTemplateI19CEikSettingsListBoxEC2Ei @ 2014 NONAME
	_ZN23AknListBoxLinesTemplateI24CEikFormattedCellListBoxE11SizeChangedEv @ 2015 NONAME
	_ZN23AknListBoxLinesTemplateI24CEikFormattedCellListBoxEC1Ei @ 2016 NONAME
	_ZN23AknListBoxLinesTemplateI24CEikFormattedCellListBoxEC2Ei @ 2017 NONAME
	_ZN23AknPhoneNumberTextUtils14ClipLineOnLeftER7TPtrC16R6TDes16iRK5CFont @ 2018 NONAME
	_ZN23AknPhoneNumberTextUtils19CharsThatFitOnRightERK7TDesC16iRK5CFont @ 2019 NONAME
	_ZN23AknPhoneNumberTextUtils23WrapPhoneNumberToArrayLERK7TDesC16iiRK5CFontR9CArrayFixI7TPtrC16E @ 2020 NONAME
	_ZN23CAknCheckBoxSettingPage10ConstructLEv @ 2021 NONAME
	_ZN23CAknCheckBoxSettingPage10Reserved_2Ev @ 2022 NONAME
	_ZN23CAknCheckBoxSettingPage12DynamicInitLEv @ 2023 NONAME
	_ZN23CAknCheckBoxSettingPage14UpdateSettingLEv @ 2024 NONAME
	_ZN23CAknCheckBoxSettingPage15ProcessCommandLEi @ 2025 NONAME
	_ZN23CAknCheckBoxSettingPage18ExtensionInterfaceE4TUid @ 2026 NONAME
	_ZN23CAknCheckBoxSettingPage18SelectCurrentItemLEv @ 2027 NONAME
	_ZN23CAknCheckBoxSettingPage19HandleListBoxEventLEP11CEikListBoxN19MEikListBoxObserver13TListBoxEventE @ 2028 NONAME
	_ZN23CAknCheckBoxSettingPage19HandlePointerEventLERK13TPointerEvent @ 2029 NONAME
	_ZN23CAknCheckBoxSettingPage22SetSelectionItemArrayLEP18CSelectionItemList @ 2030 NONAME
	_ZN23CAknCheckBoxSettingPage26CAknSettingPage_Reserved_1Ev @ 2031 NONAME
	_ZN23CAknCheckBoxSettingPage26CAknSettingPage_Reserved_2Ev @ 2032 NONAME
	_ZN23CAknCheckBoxSettingPage33CAknListBoxSettingPage_Reserved_1Ev @ 2033 NONAME
	_ZN23CAknCheckBoxSettingPageC1EPK7TDesC16iiiiP18CSelectionItemList @ 2034 NONAME
	_ZN23CAknCheckBoxSettingPageC1EiP18CSelectionItemList @ 2035 NONAME
	_ZN23CAknCheckBoxSettingPageC2EPK7TDesC16iiiiP18CSelectionItemList @ 2036 NONAME
	_ZN23CAknCheckBoxSettingPageC2EiP18CSelectionItemList @ 2037 NONAME
	_ZN23CAknCheckBoxSettingPageD0Ev @ 2038 NONAME
	_ZN23CAknCheckBoxSettingPageD1Ev @ 2039 NONAME
	_ZN23CAknCheckBoxSettingPageD2Ev @ 2040 NONAME
	_ZN23CAknColourSelectionGrid4NewLEP13CArrayFixFlatI4TRgbEiRiRS1_ @ 2041 NONAME
	_ZN23CAknColourSelectionGrid9ExecuteLDEv @ 2042 NONAME
	_ZN23CAknColourSelectionGridD0Ev @ 2043 NONAME
	_ZN23CAknColourSelectionGridD1Ev @ 2044 NONAME
	_ZN23CAknColourSelectionGridD2Ev @ 2045 NONAME
	_ZN23CAknDoubleStyle2ListBox11SizeChangedEv @ 2046 NONAME
	_ZN23CAknDoubleStyle2ListBox17CreateItemDrawerLEv @ 2047 NONAME
	_ZN23CAknDoubleStyle2ListBox19HandlePointerEventLERK13TPointerEvent @ 2048 NONAME
	_ZN23CAknDurationQueryDialog17PreLayoutDynInitLEv @ 2049 NONAME
	_ZN23CAknDurationQueryDialog18ExtensionInterfaceE4TUid @ 2050 NONAME
	_ZN23CAknDurationQueryDialog19CAknDialog_ReservedEv @ 2051 NONAME
	_ZN23CAknDurationQueryDialog19HandlePointerEventLERK13TPointerEvent @ 2052 NONAME
	_ZN23CAknDurationQueryDialog20SetMinimumAndMaximumERK20TTimeIntervalSecondsS2_ @ 2053 NONAME
	_ZN23CAknDurationQueryDialog21CEikDialog_Reserved_1Ev @ 2054 NONAME
	_ZN23CAknDurationQueryDialog21CEikDialog_Reserved_2Ev @ 2055 NONAME
	_ZN23CAknDurationQueryDialog24CAknQueryDialog_ReservedEv @ 2056 NONAME
	_ZN23CAknDurationQueryDialog4NewLER20TTimeIntervalSecondsRKN15CAknQueryDialog5TToneE @ 2057 NONAME
	_ZN23CAknDurationQueryDialog9OkToExitLEi @ 2058 NONAME
	_ZN23CAknDurationQueryDialogC1ER20TTimeIntervalSecondsRKN15CAknQueryDialog5TToneE @ 2059 NONAME
	_ZN23CAknDurationQueryDialogC2ER20TTimeIntervalSecondsRKN15CAknQueryDialog5TToneE @ 2060 NONAME
	_ZN23CAknDurationQueryDialogD0Ev @ 2061 NONAME
	_ZN23CAknDurationQueryDialogD1Ev @ 2062 NONAME
	_ZN23CAknDurationQueryDialogD2Ev @ 2063 NONAME
	_ZN23CAknDurationSettingPage10ConstructLEv @ 2064 NONAME
	_ZN23CAknDurationSettingPage10Reserved_2Ev @ 2065 NONAME
	_ZN23CAknDurationSettingPage14AcceptSettingLEv @ 2066 NONAME
	_ZN23CAknDurationSettingPage14DurationEditorEv @ 2067 NONAME
	_ZN23CAknDurationSettingPage14UpdateSettingLEv @ 2068 NONAME
	_ZN23CAknDurationSettingPage18ExtensionInterfaceE4TUid @ 2069 NONAME
	_ZN23CAknDurationSettingPage19HandlePointerEventLERK13TPointerEvent @ 2070 NONAME
	_ZN23CAknDurationSettingPage23RestoreOriginalSettingLEv @ 2071 NONAME
	_ZN23CAknDurationSettingPage26CAknSettingPage_Reserved_1Ev @ 2072 NONAME
	_ZN23CAknDurationSettingPage26CAknSettingPage_Reserved_2Ev @ 2073 NONAME
	_ZN23CAknDurationSettingPageC1EPK7TDesC16iiiiR20TTimeIntervalSeconds @ 2074 NONAME
	_ZN23CAknDurationSettingPageC1EiR20TTimeIntervalSeconds @ 2075 NONAME
	_ZN23CAknDurationSettingPageC2EPK7TDesC16iiiiR20TTimeIntervalSeconds @ 2076 NONAME
	_ZN23CAknDurationSettingPageC2EiR20TTimeIntervalSeconds @ 2077 NONAME
	_ZN23CAknDurationSettingPageD0Ev @ 2078 NONAME
	_ZN23CAknDurationSettingPageD1Ev @ 2079 NONAME
	_ZN23CAknDurationSettingPageD2Ev @ 2080 NONAME
	_ZN23CAknMessageQueryControl15SetMessageTextLEP7TDesC16 @ 2081 NONAME
	_ZN23CAknMessageQueryControl22ConstructFromResourceLER15TResourceReader @ 2082 NONAME
	_ZN23CAknNavigationDecorator10ConstructLEv @ 2083 NONAME
	_ZN23CAknNavigationDecorator11SizeChangedEv @ 2084 NONAME
	_ZN23CAknNavigationDecorator14SetControlTypeENS_12TControlTypeE @ 2085 NONAME
	_ZN23CAknNavigationDecorator16DecoratedControlEv @ 2086 NONAME
	_ZN23CAknNavigationDecorator18ExtensionInterfaceE4TUid @ 2087 NONAME
	_ZN23CAknNavigationDecorator19HandleControlEventLEP11CCoeControlN19MCoeControlObserver9TCoeEventE @ 2088 NONAME
	_ZN23CAknNavigationDecorator19HandlePointerEventLERK13TPointerEvent @ 2089 NONAME
	_ZN23CAknNavigationDecorator21SetScrollButtonDimmedENS_13TScrollButtonEi @ 2090 NONAME
	_ZN23CAknNavigationDecorator23MakeScrollButtonVisibleEi @ 2091 NONAME
	_ZN23CAknNavigationDecorator24SetNaviDecoratorObserverEP25MAknNaviDecoratorObserver @ 2092 NONAME
	_ZN23CAknNavigationDecorator4NewLEP30CAknNavigationControlContainerP11CCoeControlNS_12TControlTypeE @ 2093 NONAME
	_ZN23CAknNavigationDecoratorD0Ev @ 2094 NONAME
	_ZN23CAknNavigationDecoratorD1Ev @ 2095 NONAME
	_ZN23CAknNavigationDecoratorD2Ev @ 2096 NONAME
	_ZN23CAknNumericSecretEditor10Reserved_1Ev @ 2097 NONAME
	_ZN23CAknNumericSecretEditor10Reserved_2Ev @ 2098 NONAME
	_ZN23CAknNumericSecretEditor15CreateFepStateLEv @ 2099 NONAME
	_ZN23CAknNumericSecretEditor16AppendCharacterLEi @ 2100 NONAME
	_ZN23CAknNumericSecretEditor18ExtensionInterfaceE4TUid @ 2101 NONAME
	_ZN23CAknNumericSecretEditor19HandlePointerEventLERK13TPointerEvent @ 2102 NONAME
	_ZN23CAknNumericSecretEditor33MCoeFepAwareTextEditor_Reserved_2Ev @ 2103 NONAME
	_ZN23CAknNumericSecretEditor44MCoeFepAwareTextEditor_Extension1_Reserved_2Ev @ 2104 NONAME
	_ZN23CAknNumericSecretEditor44MCoeFepAwareTextEditor_Extension1_Reserved_3Ev @ 2105 NONAME
	_ZN23CAknNumericSecretEditor44MCoeFepAwareTextEditor_Extension1_Reserved_4Ev @ 2106 NONAME
	_ZN23CAknNumericSecretEditorC1Ev @ 2107 NONAME
	_ZN23CAknNumericSecretEditorC2Ev @ 2108 NONAME
	_ZN23CAknPasswordSettingItem12SettingTextLEv @ 2109 NONAME
	_ZN23CAknPasswordSettingItem21CompleteConstructionLEv @ 2110 NONAME
	_ZN23CAknPasswordSettingItem24CAknSettingItem_ReservedEv @ 2111 NONAME
	_ZN23CAknPasswordSettingItem9EditItemLEi @ 2112 NONAME
	_ZN23CAknPasswordSettingItemC1EiNS_27TAknPasswordSettingItemModeER6TDes16 @ 2113 NONAME
	_ZN23CAknPasswordSettingItemC2EiNS_27TAknPasswordSettingItemModeER6TDes16 @ 2114 NONAME
	_ZN23CAknPasswordSettingPage10Reserved_2Ev @ 2115 NONAME
	_ZN23CAknPasswordSettingPage11SizeChangedEv @ 2116 NONAME
	_ZN23CAknPasswordSettingPage12MatchingModeEv @ 2117 NONAME
	_ZN23CAknPasswordSettingPage14AcceptSettingLEv @ 2118 NONAME
	_ZN23CAknPasswordSettingPage14UpdateSettingLEv @ 2119 NONAME
	_ZN23CAknPasswordSettingPage15SetMatchingModeENS_24TAknPasswordMatchingModeE @ 2120 NONAME
	_ZN23CAknPasswordSettingPage16PostDisplayInitLEv @ 2121 NONAME
	_ZN23CAknPasswordSettingPage17PostDisplayCheckLEv @ 2122 NONAME
	_ZN23CAknPasswordSettingPage18ExtensionInterfaceE4TUid @ 2123 NONAME
	_ZN23CAknPasswordSettingPage19HandleControlEventLEP11CCoeControlN19MCoeControlObserver9TCoeEventE @ 2124 NONAME
	_ZN23CAknPasswordSettingPage19HandlePointerEventLERK13TPointerEvent @ 2125 NONAME
	_ZN23CAknPasswordSettingPage20SetMaxPasswordLengthEi @ 2126 NONAME
	_ZN23CAknPasswordSettingPage23DoPasswordConfirmationLERK7TDesC16iNS_24TAknPasswordMatchingModeERi @ 2127 NONAME
	_ZN23CAknPasswordSettingPage25ReadConfirmationResourceLEiR24SAknConfirmationResource @ 2128 NONAME
	_ZN23CAknPasswordSettingPage26CAknSettingPage_Reserved_1Ev @ 2129 NONAME
	_ZN23CAknPasswordSettingPage26CAknSettingPage_Reserved_2Ev @ 2130 NONAME
	_ZN23CAknPasswordSettingPage31ExecuteNewPasswordConfirmationLERK7TDesC16i @ 2131 NONAME
	_ZN23CAknPasswordSettingPage31ExecuteOldPasswordConfirmationLERK7TDesC16i @ 2132 NONAME
	_ZN23CAknPasswordSettingPage36SetNewPasswordConfirmationResourceIdEi @ 2133 NONAME
	_ZN23CAknPasswordSettingPage36SetOldPasswordConfirmationResourceIdEi @ 2134 NONAME
	_ZN23CAknPasswordSettingPage9OkToExitLEi @ 2135 NONAME
	_ZN23CAknPasswordSettingPageC2EPK7TDesC16iiiiR6TDes16RS1_ @ 2136 NONAME
	_ZN23CAknPasswordSettingPageC2EiR6TDes16RK7TDesC16 @ 2137 NONAME
	_ZN23CAknPhoneNumberGrouping16GroupPhoneNumberER6TDes16 @ 2138 NONAME
	_ZN23CAknPhoneNumberGrouping16GroupPhoneNumberERK7TDesC16R6TDes16 @ 2139 NONAME
	_ZN23CAknPhoneNumberGrouping25CreateGroupedPhoneNumberLERK7TDesC16 @ 2140 NONAME
	_ZN23CAknPhoneNumberGrouping3SetERK7TDesC16 @ 2141 NONAME
	_ZN23CAknPhoneNumberGrouping4NewLEi @ 2142 NONAME
	_ZN23CAknPhoneNumberGrouping5NewLCEi @ 2143 NONAME
	_ZN23CAknQueryValueDateArray4NewLEi @ 2144 NONAME
	_ZN23CAknQueryValueDateArray5NewLCEi @ 2145 NONAME
	_ZN23CAknQueryValueDateArray8SetArrayER9CArrayFixI5TTimeE @ 2146 NONAME
	_ZN23CAknQueryValueDateArrayD0Ev @ 2147 NONAME
	_ZN23CAknQueryValueDateArrayD1Ev @ 2148 NONAME
	_ZN23CAknQueryValueDateArrayD2Ev @ 2149 NONAME
	_ZN23CAknQueryValueTextArray4NewLEv @ 2150 NONAME
	_ZN23CAknQueryValueTextArray5NewLCEv @ 2151 NONAME
	_ZN23CAknQueryValueTextArray8SetArrayER12CDesC16Array @ 2152 NONAME
	_ZN23CAknQueryValueTextArrayD0Ev @ 2153 NONAME
	_ZN23CAknQueryValueTextArrayD1Ev @ 2154 NONAME
	_ZN23CAknQueryValueTextArrayD2Ev @ 2155 NONAME
	_ZN23CAknQueryValueTimeArray4NewLEi @ 2156 NONAME
	_ZN23CAknQueryValueTimeArray5NewLCEi @ 2157 NONAME
	_ZN23CAknQueryValueTimeArray8SetArrayER9CArrayFixI5TTimeE @ 2158 NONAME
	_ZN23CAknQueryValueTimeArrayD0Ev @ 2159 NONAME
	_ZN23CAknQueryValueTimeArrayD1Ev @ 2160 NONAME
	_ZN23CAknQueryValueTimeArrayD2Ev @ 2161 NONAME
	_ZN23CAknSelectionListDialog10ConstructLEi @ 2162 NONAME
	_ZN23CAknSelectionListDialog13SetIconArrayLEP9CArrayPtrI8CGulIconE @ 2163 NONAME
	_ZN23CAknSelectionListDialog14OfferKeyEventLERK9TKeyEvent10TEventCode @ 2164 NONAME
	_ZN23CAknSelectionListDialog15ProcessCommandLEi @ 2165 NONAME
	_ZN23CAknSelectionListDialog17PreLayoutDynInitLEv @ 2166 NONAME
	_ZN23CAknSelectionListDialog18ExtensionInterfaceE4TUid @ 2167 NONAME
	_ZN23CAknSelectionListDialog18PostLayoutDynInitLEv @ 2168 NONAME
	_ZN23CAknSelectionListDialog18SetSizeAndPositionERK5TSize @ 2169 NONAME
	_ZN23CAknSelectionListDialog19CAknDialog_ReservedEv @ 2170 NONAME
	_ZN23CAknSelectionListDialog19HandleListBoxEventLEP11CEikListBoxN19MEikListBoxObserver13TListBoxEventE @ 2171 NONAME
	_ZN23CAknSelectionListDialog19HandlePointerEventLERK13TPointerEvent @ 2172 NONAME
	_ZN23CAknSelectionListDialog20CreateCustomControlLEi @ 2173 NONAME
	_ZN23CAknSelectionListDialog21CEikDialog_Reserved_1Ev @ 2174 NONAME
	_ZN23CAknSelectionListDialog21CEikDialog_Reserved_2Ev @ 2175 NONAME
	_ZN23CAknSelectionListDialog28SelectionListProcessCommandLEi @ 2176 NONAME
	_ZN23CAknSelectionListDialog32CAknSelectionListDialog_ReservedEv @ 2177 NONAME
	_ZN23CAknSelectionListDialog4NewLERiP12MDesC16ArrayiP19MEikCommandObserver @ 2178 NONAME
	_ZN23CAknSelectionListDialog5NewLCERiP12MDesC16ArrayiP19MEikCommandObserver @ 2179 NONAME
	_ZN23CAknSelectionListDialog9OkToExitLEi @ 2180 NONAME
	_ZN23CAknSelectionListDialog9SetupFindENS_9TFindTypeE @ 2181 NONAME
	_ZN23CAknSelectionListDialogC1ERiP12MDesC16ArrayP19MEikCommandObserver @ 2182 NONAME
	_ZN23CAknSelectionListDialogC2ERiP12MDesC16ArrayP19MEikCommandObserver @ 2183 NONAME
	_ZN23CAknSelectionListDialogD0Ev @ 2184 NONAME
	_ZN23CAknSelectionListDialogD1Ev @ 2185 NONAME
	_ZN23CAknSelectionListDialogD2Ev @ 2186 NONAME
	_ZN23CAknSetStyleListBoxView10Reserved_1Ev @ 2187 NONAME
	_ZN23CAknSettingStyleListBox11MinimumSizeEv @ 2188 NONAME
	_ZN23CAknSettingStyleListBox11SizeChangedEv @ 2189 NONAME
	_ZN23CAknSettingStyleListBox19HandlePointerEventLERK13TPointerEvent @ 2190 NONAME
	_ZN23CAknSettingStyleListBoxC1Ev @ 2191 NONAME
	_ZN23CAknSettingStyleListBoxC2Ev @ 2192 NONAME
	_ZN23CFormGraphicListBoxData4NewLEv @ 2193 NONAME
	_ZN23CSingleHeadingStyleView10Reserved_1Ev @ 2194 NONAME
	_ZN24CAknIpAddressQueryDialog12DoSetPromptLEv @ 2195 NONAME
	_ZN24CAknIpAddressQueryDialog17PreLayoutDynInitLEv @ 2196 NONAME
	_ZN24CAknIpAddressQueryDialog18PostLayoutDynInitLEv @ 2197 NONAME
	_ZN24CAknIpAddressQueryDialog18SetSizeAndPositionERK5TSize @ 2198 NONAME
	_ZN24CAknIpAddressQueryDialog18UpdateLeftSoftKeyLEv @ 2199 NONAME
	_ZN24CAknIpAddressQueryDialog19CAknDialog_ReservedEv @ 2200 NONAME
	_ZN24CAknIpAddressQueryDialog19NeedToDismissQueryLERK9TKeyEvent @ 2201 NONAME
	_ZN24CAknIpAddressQueryDialog20SetMinimumAndMaximumERK9TInetAddrS2_ @ 2202 NONAME
	_ZN24CAknIpAddressQueryDialog21CEikDialog_Reserved_1Ev @ 2203 NONAME
	_ZN24CAknIpAddressQueryDialog21CEikDialog_Reserved_2Ev @ 2204 NONAME
	_ZN24CAknIpAddressQueryDialog24CAknQueryDialog_ReservedEv @ 2205 NONAME
	_ZN24CAknIpAddressQueryDialog4NewLER9TInetAddrRKN15CAknQueryDialog5TToneE @ 2206 NONAME
	_ZN24CAknIpAddressQueryDialog9OkToExitLEi @ 2207 NONAME
	_ZN24CAknIpAddressQueryDialogD0Ev @ 2208 NONAME
	_ZN24CAknIpAddressQueryDialogD1Ev @ 2209 NONAME
	_ZN24CAknIpAddressQueryDialogD2Ev @ 2210 NONAME
	_ZN24CAknQueryValuePhoneArray4NewLEv @ 2211 NONAME
	_ZN24CAknQueryValuePhoneArray5NewLCEv @ 2212 NONAME
	_ZN24CAknQueryValuePhoneArray8SetArrayER12CDesC16Array @ 2213 NONAME
	_ZN24CAknQueryValuePhoneArrayD0Ev @ 2214 NONAME
	_ZN24CAknQueryValuePhoneArrayD1Ev @ 2215 NONAME
	_ZN24CAknQueryValuePhoneArrayD2Ev @ 2216 NONAME
	_ZN24CEikFormattedCellListBox10ConstructLEPK11CCoeControli @ 2217 NONAME
	_ZN24CEikFormattedCellListBox12FocusChangedE8TDrawNow @ 2218 NONAME
	_ZN24CEikFormattedCellListBox15MopSupplyObjectE8TTypeUid @ 2219 NONAME
	_ZN24CEikFormattedCellListBox17CreateItemDrawerLEv @ 2220 NONAME
	_ZN24CEikFormattedCellListBox18ExtensionInterfaceE4TUid @ 2221 NONAME
	_ZN24CEikFormattedCellListBox19HandlePointerEventLERK13TPointerEvent @ 2222 NONAME
	_ZN24CEikFormattedCellListBox20CEikListBox_ReservedEv @ 2223 NONAME
	_ZN24CEikFormattedCellListBox20HandleResourceChangeEi @ 2224 NONAME
	_ZN24CEikFormattedCellListBox22ConstructFromResourceLER15TResourceReader @ 2225 NONAME
	_ZN24CEikFormattedCellListBox22EnableExtendedDrawingLEv @ 2226 NONAME
	_ZN24CEikFormattedCellListBox22MakeViewClassInstanceLEv @ 2227 NONAME
	_ZN24CEikFormattedCellListBox28UseLogicalToVisualConversionEi @ 2228 NONAME
	_ZN24CEikFormattedCellListBoxC1Ev @ 2229 NONAME
	_ZN24CEikFormattedCellListBoxC2Ev @ 2230 NONAME
	_ZN24TAknPopupWindowLayoutDefC1Ev @ 2231 NONAME
	_ZN24TAknPopupWindowLayoutDefC2Ev @ 2232 NONAME
	_ZN25CAknFixedPointQueryDialog12DoSetPromptLEv @ 2233 NONAME
	_ZN25CAknFixedPointQueryDialog17PreLayoutDynInitLEv @ 2234 NONAME
	_ZN25CAknFixedPointQueryDialog18PostLayoutDynInitLEv @ 2235 NONAME
	_ZN25CAknFixedPointQueryDialog18SetSizeAndPositionERK5TSize @ 2236 NONAME
	_ZN25CAknFixedPointQueryDialog18UpdateLeftSoftKeyLEv @ 2237 NONAME
	_ZN25CAknFixedPointQueryDialog19CAknDialog_ReservedEv @ 2238 NONAME
	_ZN25CAknFixedPointQueryDialog19NeedToDismissQueryLERK9TKeyEvent @ 2239 NONAME
	_ZN25CAknFixedPointQueryDialog20SetMinimumAndMaximumEii @ 2240 NONAME
	_ZN25CAknFixedPointQueryDialog21CEikDialog_Reserved_1Ev @ 2241 NONAME
	_ZN25CAknFixedPointQueryDialog21CEikDialog_Reserved_2Ev @ 2242 NONAME
	_ZN25CAknFixedPointQueryDialog24CAknQueryDialog_ReservedEv @ 2243 NONAME
	_ZN25CAknFixedPointQueryDialog4NewLERiRKN15CAknQueryDialog5TToneE @ 2244 NONAME
	_ZN25CAknFixedPointQueryDialog9OkToExitLEi @ 2245 NONAME
	_ZN25CAknFixedPointQueryDialogD0Ev @ 2246 NONAME
	_ZN25CAknFixedPointQueryDialogD1Ev @ 2247 NONAME
	_ZN25CAknFixedPointQueryDialogD2Ev @ 2248 NONAME
	_ZN25CAknMultilineQueryControl11MinimumSizeEv @ 2249 NONAME
	_ZN25CAknMultilineQueryControl18ExtensionInterfaceE4TUid @ 2250 NONAME
	_ZN25CAknMultilineQueryControl19HandlePointerEventLERK13TPointerEvent @ 2251 NONAME
	_ZN25CAknMultilineQueryControl19SetNbrOfPromptLinesEii @ 2252 NONAME
	_ZN25CAknMultilineQueryControl21ControlByLayoutOrNullEi @ 2253 NONAME
	_ZN25CAknMultilineQueryControlC1Ev @ 2254 NONAME
	_ZN25CAknMultilineQueryControlC2Ev @ 2255 NONAME
	_ZN25CAknMultilineQueryControlD0Ev @ 2256 NONAME
	_ZN25CAknMultilineQueryControlD1Ev @ 2257 NONAME
	_ZN25CAknMultilineQueryControlD2Ev @ 2258 NONAME
	_ZN25CAknQueryValueNumberArray4NewLEi @ 2259 NONAME
	_ZN25CAknQueryValueNumberArray5NewLCEi @ 2260 NONAME
	_ZN25CAknQueryValueNumberArray8SetArrayER9CArrayFixIiE @ 2261 NONAME
	_ZN25CAknQueryValueNumberArrayD0Ev @ 2262 NONAME
	_ZN25CAknQueryValueNumberArrayD1Ev @ 2263 NONAME
	_ZN25CAknQueryValueNumberArrayD2Ev @ 2264 NONAME
	_ZN25CAknTimeOffsetSettingItem12SettingTextLEv @ 2265 NONAME
	_ZN25CAknTimeOffsetSettingItem16TimeFormatStringEv @ 2266 NONAME
	_ZN25CAknTimeOffsetSettingItem20SetTimeFormatStringLERK7TDesC16 @ 2267 NONAME
	_ZN25CAknTimeOffsetSettingItem21CompleteConstructionLEv @ 2268 NONAME
	_ZN25CAknTimeOffsetSettingItem24CAknSettingItem_ReservedEv @ 2269 NONAME
	_ZN25CAknTimeOffsetSettingItem5LoadLEv @ 2270 NONAME
	_ZN25CAknTimeOffsetSettingItem6StoreLEv @ 2271 NONAME
	_ZN25CAknTimeOffsetSettingItem9EditItemLEi @ 2272 NONAME
	_ZN25CAknTimeOffsetSettingItemC1EiR20TTimeIntervalSeconds @ 2273 NONAME
	_ZN25CAknTimeOffsetSettingItemC2EiR20TTimeIntervalSeconds @ 2274 NONAME
	_ZN25CAknTimeOffsetSettingItemD0Ev @ 2275 NONAME
	_ZN25CAknTimeOffsetSettingItemD1Ev @ 2276 NONAME
	_ZN25CAknTimeOffsetSettingItemD2Ev @ 2277 NONAME
	_ZN25CAknTimeOffsetSettingPage10ConstructLEv @ 2278 NONAME
	_ZN25CAknTimeOffsetSettingPage10Reserved_2Ev @ 2279 NONAME
	_ZN25CAknTimeOffsetSettingPage14AcceptSettingLEv @ 2280 NONAME
	_ZN25CAknTimeOffsetSettingPage14UpdateSettingLEv @ 2281 NONAME
	_ZN25CAknTimeOffsetSettingPage16TimeOffsetEditorEv @ 2282 NONAME
	_ZN25CAknTimeOffsetSettingPage18ExtensionInterfaceE4TUid @ 2283 NONAME
	_ZN25CAknTimeOffsetSettingPage19HandlePointerEventLERK13TPointerEvent @ 2284 NONAME
	_ZN25CAknTimeOffsetSettingPage23RestoreOriginalSettingLEv @ 2285 NONAME
	_ZN25CAknTimeOffsetSettingPage26CAknSettingPage_Reserved_1Ev @ 2286 NONAME
	_ZN25CAknTimeOffsetSettingPage26CAknSettingPage_Reserved_2Ev @ 2287 NONAME
	_ZN25CAknTimeOffsetSettingPageC1EPK7TDesC16iiiiR20TTimeIntervalSeconds @ 2288 NONAME
	_ZN25CAknTimeOffsetSettingPageC1EiR20TTimeIntervalSeconds @ 2289 NONAME
	_ZN25CAknTimeOffsetSettingPageC2EPK7TDesC16iiiiR20TTimeIntervalSeconds @ 2290 NONAME
	_ZN25CAknTimeOffsetSettingPageC2EiR20TTimeIntervalSeconds @ 2291 NONAME
	_ZN25CAknTimeOffsetSettingPageD0Ev @ 2292 NONAME
	_ZN25CAknTimeOffsetSettingPageD1Ev @ 2293 NONAME
	_ZN25CAknTimeOffsetSettingPageD2Ev @ 2294 NONAME
	_ZN25CAknTimeOrDateSettingItem12SettingTextLEv @ 2295 NONAME
	_ZN25CAknTimeOrDateSettingItem16TimeFormatStringEv @ 2296 NONAME
	_ZN25CAknTimeOrDateSettingItem20SetTimeFormatStringLERK7TDesC16 @ 2297 NONAME
	_ZN25CAknTimeOrDateSettingItem21CompleteConstructionLEv @ 2298 NONAME
	_ZN25CAknTimeOrDateSettingItem24CAknSettingItem_ReservedEv @ 2299 NONAME
	_ZN25CAknTimeOrDateSettingItem5LoadLEv @ 2300 NONAME
	_ZN25CAknTimeOrDateSettingItem6StoreLEv @ 2301 NONAME
	_ZN25CAknTimeOrDateSettingItem9EditItemLEi @ 2302 NONAME
	_ZN25CAknTimeOrDateSettingItemC1EiNS_29TAknTimeOrDateSettingItemModeER5TTime @ 2303 NONAME
	_ZN25CAknTimeOrDateSettingItemC2EiNS_29TAknTimeOrDateSettingItemModeER5TTime @ 2304 NONAME
	_ZN25CAknTimeOrDateSettingItemD0Ev @ 2305 NONAME
	_ZN25CAknTimeOrDateSettingItemD1Ev @ 2306 NONAME
	_ZN25CAknTimeOrDateSettingItemD2Ev @ 2307 NONAME
	_ZN25CFormattedCellListBoxData10SetControlEP11CCoeControl @ 2308 NONAME
	_ZN25CFormattedCellListBoxData11ConstructLDEv @ 2309 NONAME
	_ZN25CFormattedCellListBoxData11IsMarqueeOnEv @ 2310 NONAME
	_ZN25CFormattedCellListBoxData12SetIconArrayEP9CArrayPtrI8CGulIconE @ 2311 NONAME
	_ZN25CFormattedCellListBoxData12SetSkinStyleEPK11TAknsItemIDRK5TRect @ 2312 NONAME
	_ZN25CFormattedCellListBoxData13SetIconArrayLEP9CArrayPtrI8CGulIconE @ 2313 NONAME
	_ZN25CFormattedCellListBoxData13SetLayoutInitEi @ 2314 NONAME
	_ZN25CFormattedCellListBoxData14EnableMarqueeLEi @ 2315 NONAME
	_ZN25CFormattedCellListBoxData14SetNumberCellLEii @ 2316 NONAME
	_ZN25CFormattedCellListBoxData15SetItemCellSizeERK5TSize @ 2317 NONAME
	_ZN25CFormattedCellListBoxData15SetRespectFocusEi @ 2318 NONAME
	_ZN25CFormattedCellListBoxData15SetSkinEnabledLEi @ 2319 NONAME
	_ZN25CFormattedCellListBoxData15SetSubCellFontLEiPK5CFont @ 2320 NONAME
	_ZN25CFormattedCellListBoxData15SetSubCellSizeLEi5TSize @ 2321 NONAME
	_ZN25CFormattedCellListBoxData16SetMarqueeParamsEiiii @ 2322 NONAME
	_ZN25CFormattedCellListBoxData16SetSkinParentPosERK6TPoint @ 2323 NONAME
	_ZN25CFormattedCellListBoxData17SetSkinPopupFrameEPK11TAknsItemIDS2_ @ 2324 NONAME
	_ZN25CFormattedCellListBoxData17SetSubCellColorsLEiRKNS_7TColorsE @ 2325 NONAME
	_ZN25CFormattedCellListBoxData18SetSubCellIconSizeEi5TSize @ 2326 NONAME
	_ZN25CFormattedCellListBoxData18SetSubCellMarginsLEi8TMargins @ 2327 NONAME
	_ZN25CFormattedCellListBoxData19SetGraphicsSubCellLEii @ 2328 NONAME
	_ZN25CFormattedCellListBoxData19SetListEndSkinStyleEPK11TAknsItemIDRK5TRect @ 2329 NONAME
	_ZN25CFormattedCellListBoxData19SetSubCellPositionLEi6TPoint @ 2330 NONAME
	_ZN25CFormattedCellListBoxData20SetSubCellAlignmentLEiN16CGraphicsContext10TTextAlignE @ 2331 NONAME
	_ZN25CFormattedCellListBoxData21SetSkinHighlightFrameEPK11TAknsItemIDS2_ @ 2332 NONAME
	_ZN25CFormattedCellListBoxData21SetSubCellFontForRowLEiiPK5CFont @ 2333 NONAME
	_ZN25CFormattedCellListBoxData22SetBackgroundSkinStyleEPK11TAknsItemIDRK5TRect @ 2334 NONAME
	_ZN25CFormattedCellListBoxData22SetSubCellBaselinePosLEii @ 2335 NONAME
	_ZN25CFormattedCellListBoxData22SetSubCellTextClipGapLEii @ 2336 NONAME
	_ZN25CFormattedCellListBoxData22SetTransparentSubCellLEii @ 2337 NONAME
	_ZN25CFormattedCellListBoxData24SetSeparatorLinePositionE25TAknSeparatorLinePosition @ 2338 NONAME
	_ZN25CFormattedCellListBoxData25SetNotAlwaysDrawnSubCellLEii @ 2339 NONAME
	_ZN25CFormattedCellListBoxData25SetSkinPopupFramePositionERK5TRectS2_ @ 2340 NONAME
	_ZN25CFormattedCellListBoxData28UseLogicalToVisualConversionEi @ 2341 NONAME
	_ZN25CFormattedCellListBoxData30SetSubCellRightSeparatorStyleLEiN16CGraphicsContext9TPenStyleE @ 2342 NONAME
	_ZN25CFormattedCellListBoxData4NewLEv @ 2343 NONAME
	_ZN25CFormattedCellListBoxData7TColorsC1Ev @ 2344 NONAME
	_ZN25CFormattedCellListBoxData7TColorsC2Ev @ 2345 NONAME
	_ZN25CFormattedCellListBoxDataC1Ev @ 2346 NONAME
	_ZN25CFormattedCellListBoxDataC2Ev @ 2347 NONAME
	_ZN25CFormattedCellListBoxDataD0Ev @ 2348 NONAME
	_ZN25CFormattedCellListBoxDataD1Ev @ 2349 NONAME
	_ZN25CFormattedCellListBoxDataD2Ev @ 2350 NONAME
	_ZN25CFormattedCellListBoxView10Reserved_1Ev @ 2351 NONAME
	_ZN25CFormattedCellListBoxView19CalcBottomItemIndexEv @ 2352 NONAME
	_ZN25MAknServerAppExitObserver19HandleServerAppExitEi @ 2353 NONAME
	_ZN25TAknTextDecorationMetricsC1EPK5CFont @ 2354 NONAME
	_ZN25TAknTextDecorationMetricsC1ERK21TAknFontSpecification @ 2355 NONAME
	_ZN25TAknTextDecorationMetricsC1Ei @ 2356 NONAME
	_ZN25TAknTextDecorationMetricsC2EPK5CFont @ 2357 NONAME
	_ZN25TAknTextDecorationMetricsC2ERK21TAknFontSpecification @ 2358 NONAME
	_ZN25TAknTextDecorationMetricsC2Ei @ 2359 NONAME
	_ZN26CAknBinaryPopupSettingItem21CompleteConstructionLEv @ 2360 NONAME
	_ZN26CAknBinaryPopupSettingItem24CAknSettingItem_ReservedEv @ 2361 NONAME
	_ZN26CAknBinaryPopupSettingItem5LoadLEv @ 2362 NONAME
	_ZN26CAknBinaryPopupSettingItem6StoreLEv @ 2363 NONAME
	_ZN26CAknBinaryPopupSettingItem9EditItemLEi @ 2364 NONAME
	_ZN26CAknBinaryPopupSettingItemC1EiRi @ 2365 NONAME
	_ZN26CAknBinaryPopupSettingItemC2EiRi @ 2366 NONAME
	_ZN26CAknDoubleTimeStyleListBox11MinimumSizeEv @ 2367 NONAME
	_ZN26CAknDoubleTimeStyleListBox11SizeChangedEv @ 2368 NONAME
	_ZN26CAknDoubleTimeStyleListBox19HandlePointerEventLERK13TPointerEvent @ 2369 NONAME
	_ZN26CAknDoubleTimeStyleListBoxC1Ev @ 2370 NONAME
	_ZN26CAknDoubleTimeStyleListBoxC2Ev @ 2371 NONAME
	_ZN26CAknFormDoubleStyleListBox11SizeChangedEv @ 2372 NONAME
	_ZN26CAknFormDoubleStyleListBox19HandlePointerEventLERK13TPointerEvent @ 2373 NONAME
	_ZN26CAknListBoxLayoutDecorator25SetLeadingDecorationTextLERK7TDesC16 @ 2374 NONAME
	_ZN26CAknListBoxLayoutDecorator26SetTrailingDecorationTextLERK7TDesC16 @ 2375 NONAME
	_ZN26CAknListBoxLayoutDecorator36CAknListBoxLayoutDecorator_Reserved1Ev @ 2376 NONAME
	_ZN26CAknListBoxLayoutDecorator4NewLEv @ 2377 NONAME
	_ZN26CAknListBoxLayoutDecorator5NewLCEv @ 2378 NONAME
	_ZN26CAknListBoxLayoutDecorator8SetArrayEPK12MDesC16Array @ 2379 NONAME
	_ZN26CAknListBoxLayoutDecorator9SetActiveEi @ 2380 NONAME
	_ZN26CAknListBoxLayoutDecoratorD0Ev @ 2381 NONAME
	_ZN26CAknListBoxLayoutDecoratorD1Ev @ 2382 NONAME
	_ZN26CAknListBoxLayoutDecoratorD2Ev @ 2383 NONAME
	_ZN26CAknMultiLineIpQueryDialog10SetPromptLERK7TDesC16S2_ @ 2384 NONAME
	_ZN26CAknMultiLineIpQueryDialog12DoSetPromptLEv @ 2385 NONAME
	_ZN26CAknMultiLineIpQueryDialog17PreLayoutDynInitLEv @ 2386 NONAME
	_ZN26CAknMultiLineIpQueryDialog18UpdateLeftSoftKeyLEv @ 2387 NONAME
	_ZN26CAknMultiLineIpQueryDialog19NeedToDismissQueryLERK9TKeyEvent @ 2388 NONAME
	_ZN26CAknMultiLineIpQueryDialog25SetMaxLengthOfFirstEditorEi @ 2389 NONAME
	_ZN26CAknMultiLineIpQueryDialog26SetMaxLengthOfSecondEditorEi @ 2390 NONAME
	_ZN26CAknMultiLineIpQueryDialog4NewLER9TInetAddrS1_N15CAknQueryDialog5TToneE @ 2391 NONAME
	_ZN26CAknMultiLineIpQueryDialog9OkToExitLEi @ 2392 NONAME
	_ZN26CAknMultiLineIpQueryDialogD0Ev @ 2393 NONAME
	_ZN26CAknMultiLineIpQueryDialogD1Ev @ 2394 NONAME
	_ZN26CAknMultiLineIpQueryDialogD2Ev @ 2395 NONAME
	_ZN26CAknRadioButtonSettingPage10ConstructLEv @ 2396 NONAME
	_ZN26CAknRadioButtonSettingPage10Reserved_2Ev @ 2397 NONAME
	_ZN26CAknRadioButtonSettingPage12DynamicInitLEv @ 2398 NONAME
	_ZN26CAknRadioButtonSettingPage14UpdateSettingLEv @ 2399 NONAME
	_ZN26CAknRadioButtonSettingPage18ExtensionInterfaceE4TUid @ 2400 NONAME
	_ZN26CAknRadioButtonSettingPage18SelectCurrentItemLEv @ 2401 NONAME
	_ZN26CAknRadioButtonSettingPage19HandleListBoxEventLEP11CEikListBoxN19MEikListBoxObserver13TListBoxEventE @ 2402 NONAME
	_ZN26CAknRadioButtonSettingPage19HandlePointerEventLERK13TPointerEvent @ 2403 NONAME
	_ZN26CAknRadioButtonSettingPage25SetItemArrayAndSelectionLEPK12MDesC16Arrayi @ 2404 NONAME
	_ZN26CAknRadioButtonSettingPage26CAknSettingPage_Reserved_1Ev @ 2405 NONAME
	_ZN26CAknRadioButtonSettingPage26CAknSettingPage_Reserved_2Ev @ 2406 NONAME
	_ZN26CAknRadioButtonSettingPage33CAknListBoxSettingPage_Reserved_1Ev @ 2407 NONAME
	_ZN26CAknRadioButtonSettingPageC1EPK7TDesC16iiiiRiPK12MDesC16Array @ 2408 NONAME
	_ZN26CAknRadioButtonSettingPageC1EiRiPK12MDesC16Array @ 2409 NONAME
	_ZN26CAknRadioButtonSettingPageC2EPK7TDesC16iiiiRiPK12MDesC16Array @ 2410 NONAME
	_ZN26CAknRadioButtonSettingPageC2EiRiPK12MDesC16Array @ 2411 NONAME
	_ZN26CAknRadioButtonSettingPageD0Ev @ 2412 NONAME
	_ZN26CAknRadioButtonSettingPageD1Ev @ 2413 NONAME
	_ZN26CAknRadioButtonSettingPageD2Ev @ 2414 NONAME
	_ZN26CPopupFormattedListBoxData4NewLEv @ 2415 NONAME
	_ZN26CSettingsListBoxItemDrawer40CFormattedCellListBoxItemDrawer_ReservedEv @ 2416 NONAME
	_ZN26CSettingsListBoxItemDrawerC1EP17MTextListBoxModelPK5CFontP20CSettingsListBoxData @ 2417 NONAME
	_ZN26CSettingsListBoxItemDrawerC2EP17MTextListBoxModelPK5CFontP20CSettingsListBoxData @ 2418 NONAME
	_ZN26CSettingsListBoxItemDrawerD0Ev @ 2419 NONAME
	_ZN26CSettingsListBoxItemDrawerD1Ev @ 2420 NONAME
	_ZN26CSettingsListBoxItemDrawerD2Ev @ 2421 NONAME
	_ZN27CAknDoubleLargeStyleListBox11MinimumSizeEv @ 2422 NONAME
	_ZN27CAknDoubleLargeStyleListBox11SizeChangedEv @ 2423 NONAME
	_ZN27CAknDoubleLargeStyleListBox17CreateItemDrawerLEv @ 2424 NONAME
	_ZN27CAknDoubleLargeStyleListBox19HandlePointerEventLERK13TPointerEvent @ 2425 NONAME
	_ZN27CAknDoubleLargeStyleListBoxC1Ev @ 2426 NONAME
	_ZN27CAknDoubleLargeStyleListBoxC2Ev @ 2427 NONAME
	_ZN27CAknFormGraphicStyleListBox11MinimumSizeEv @ 2428 NONAME
	_ZN27CAknFormGraphicStyleListBox11SizeChangedEv @ 2429 NONAME
	_ZN27CAknFormGraphicStyleListBox17CreateItemDrawerLEv @ 2430 NONAME
	_ZN27CAknFormGraphicStyleListBox19HandlePointerEventLERK13TPointerEvent @ 2431 NONAME
	_ZN27CAknFormGraphicStyleListBox20ConstructWithWindowLEPK11CCoeControli @ 2432 NONAME
	_ZN27CAknInfoPopupNoteController17HideInfoPopupNoteEv @ 2433 NONAME
	_ZN27CAknInfoPopupNoteController17ShowInfoPopupNoteEv @ 2434 NONAME
	_ZN27CAknInfoPopupNoteController18SetTimePopupInViewEi @ 2435 NONAME
	_ZN27CAknInfoPopupNoteController22SetTimeDelayBeforeShowEi @ 2436 NONAME
	_ZN27CAknInfoPopupNoteController4NewLEv @ 2437 NONAME
	_ZN27CAknInfoPopupNoteController8SetTextLERK7TDesC16 @ 2438 NONAME
	_ZN27CAknIntegerEdwinSettingItem24CAknSettingItem_ReservedEv @ 2439 NONAME
	_ZN27CAknIntegerEdwinSettingItem9EditItemLEi @ 2440 NONAME
	_ZN27CAknIntegerEdwinSettingItemC1EiRi @ 2441 NONAME
	_ZN27CAknIntegerEdwinSettingItemC2EiRi @ 2442 NONAME
	_ZN27CAknQueryValueDurationArray4NewLEi @ 2443 NONAME
	_ZN27CAknQueryValueDurationArray5NewLCEi @ 2444 NONAME
	_ZN27CAknQueryValueDurationArray8SetArrayER9CArrayFixI20TTimeIntervalSecondsE @ 2445 NONAME
	_ZN27CAknQueryValueDurationArrayD0Ev @ 2446 NONAME
	_ZN27CAknQueryValueDurationArrayD1Ev @ 2447 NONAME
	_ZN27CAknQueryValueDurationArrayD2Ev @ 2448 NONAME
	_ZN27CAknSingleLargeStyleListBox11MinimumSizeEv @ 2449 NONAME
	_ZN27CAknSingleLargeStyleListBox11SizeChangedEv @ 2450 NONAME
	_ZN27CAknSingleLargeStyleListBox19HandlePointerEventLERK13TPointerEvent @ 2451 NONAME
	_ZN27CAknSingleLargeStyleListBoxC1Ev @ 2452 NONAME
	_ZN27CAknSingleLargeStyleListBoxC2Ev @ 2453 NONAME
	_ZN27CDoubleLargeStyleItemDrawer40CFormattedCellListBoxItemDrawer_ReservedEv @ 2454 NONAME
	_ZN27CDoubleLargeStyleItemDrawerC1EP17MTextListBoxModelPK5CFontP25CFormattedCellListBoxDataP11CEikListBox @ 2455 NONAME
	_ZN27CDoubleLargeStyleItemDrawerC2EP17MTextListBoxModelPK5CFontP25CFormattedCellListBoxDataP11CEikListBox @ 2456 NONAME
	_ZN28CAknAlphaPasswordSettingPage10ConstructLEv @ 2457 NONAME
	_ZN28CAknAlphaPasswordSettingPage10Reserved_2Ev @ 2458 NONAME
	_ZN28CAknAlphaPasswordSettingPage11UpdateTextLEv @ 2459 NONAME
	_ZN28CAknAlphaPasswordSettingPage18ExtensionInterfaceE4TUid @ 2460 NONAME
	_ZN28CAknAlphaPasswordSettingPage19AlphaPasswordEditorEv @ 2461 NONAME
	_ZN28CAknAlphaPasswordSettingPage19HandlePointerEventLERK13TPointerEvent @ 2462 NONAME
	_ZN28CAknAlphaPasswordSettingPage26CAknSettingPage_Reserved_1Ev @ 2463 NONAME
	_ZN28CAknAlphaPasswordSettingPage26CAknSettingPage_Reserved_2Ev @ 2464 NONAME
	_ZN28CAknAlphaPasswordSettingPageC1EPK7TDesC16iiiiR6TDes16RS1_ @ 2465 NONAME
	_ZN28CAknAlphaPasswordSettingPageC1EiR6TDes16RK7TDesC16 @ 2466 NONAME
	_ZN28CAknAlphaPasswordSettingPageC2EPK7TDesC16iiiiR6TDes16RS1_ @ 2467 NONAME
	_ZN28CAknAlphaPasswordSettingPageC2EiR6TDes16RK7TDesC16 @ 2468 NONAME
	_ZN28CAknAlphaPasswordSettingPageD0Ev @ 2469 NONAME
	_ZN28CAknAlphaPasswordSettingPageD1Ev @ 2470 NONAME
	_ZN28CAknAlphaPasswordSettingPageD2Ev @ 2471 NONAME
	_ZN28CAknDouble2LargeStyleListBox11MinimumSizeEv @ 2472 NONAME
	_ZN28CAknDouble2LargeStyleListBox11SizeChangedEv @ 2473 NONAME
	_ZN28CAknDouble2LargeStyleListBox17CreateItemDrawerLEv @ 2474 NONAME
	_ZN28CAknDouble2LargeStyleListBox19HandlePointerEventLERK13TPointerEvent @ 2475 NONAME
	_ZN28CAknDouble2LargeStyleListBoxC1Ev @ 2476 NONAME
	_ZN28CAknDouble2LargeStyleListBoxC2Ev @ 2477 NONAME
	_ZN28CAknDoubleNumberStyleListBox11MinimumSizeEv @ 2478 NONAME
	_ZN28CAknDoubleNumberStyleListBox11SizeChangedEv @ 2479 NONAME
	_ZN28CAknDoubleNumberStyleListBox19HandlePointerEventLERK13TPointerEvent @ 2480 NONAME
	_ZN28CAknDoubleNumberStyleListBoxC1Ev @ 2481 NONAME
	_ZN28CAknDoubleNumberStyleListBoxC2Ev @ 2482 NONAME
	_ZN28CAknExtMultilineQueryControl11MinimumSizeEv @ 2483 NONAME
	_ZN28CAknExtMultilineQueryControl18ExtensionInterfaceE4TUid @ 2484 NONAME
	_ZN28CAknExtMultilineQueryControl19HandlePointerEventLERK13TPointerEvent @ 2485 NONAME
	_ZN28CAknExtMultilineQueryControl19SetNbrOfPromptLinesEii @ 2486 NONAME
	_ZN28CAknExtMultilineQueryControl21ControlByLayoutOrNullEi @ 2487 NONAME
	_ZN28CAknExtMultilineQueryControlC1Ev @ 2488 NONAME
	_ZN28CAknExtMultilineQueryControlC2Ev @ 2489 NONAME
	_ZN28CAknExtMultilineQueryControlD0Ev @ 2490 NONAME
	_ZN28CAknExtMultilineQueryControlD1Ev @ 2491 NONAME
	_ZN28CAknExtMultilineQueryControlD2Ev @ 2492 NONAME
	_ZN28CAknFilteredTextListBoxModel13CreateFilterLEP11CEikListBoxP15CAknSearchField @ 2493 NONAME
	_ZN28CAknFilteredTextListBoxModel22MListBoxModel_ReservedEv @ 2494 NONAME
	_ZN28CAknFilteredTextListBoxModelD0Ev @ 2495 NONAME
	_ZN28CAknFilteredTextListBoxModelD1Ev @ 2496 NONAME
	_ZN28CAknFilteredTextListBoxModelD2Ev @ 2497 NONAME
	_ZN28CAknFloatingPointQueryDialog17PreLayoutDynInitLEv @ 2498 NONAME
	_ZN28CAknFloatingPointQueryDialog18ExtensionInterfaceE4TUid @ 2499 NONAME
	_ZN28CAknFloatingPointQueryDialog19CAknDialog_ReservedEv @ 2500 NONAME
	_ZN28CAknFloatingPointQueryDialog19HandlePointerEventLERK13TPointerEvent @ 2501 NONAME
	_ZN28CAknFloatingPointQueryDialog20SetMinimumAndMaximumERKdS1_ @ 2502 NONAME
	_ZN28CAknFloatingPointQueryDialog21CEikDialog_Reserved_1Ev @ 2503 NONAME
	_ZN28CAknFloatingPointQueryDialog21CEikDialog_Reserved_2Ev @ 2504 NONAME
	_ZN28CAknFloatingPointQueryDialog24CAknQueryDialog_ReservedEv @ 2505 NONAME
	_ZN28CAknFloatingPointQueryDialog4NewLERdRKN15CAknQueryDialog5TToneE @ 2506 NONAME
	_ZN28CAknFloatingPointQueryDialog9OkToExitLEi @ 2507 NONAME
	_ZN28CAknFloatingPointQueryDialogC1ERdRKN15CAknQueryDialog5TToneE @ 2508 NONAME
	_ZN28CAknFloatingPointQueryDialogC2ERdRKN15CAknQueryDialog5TToneE @ 2509 NONAME
	_ZN28CAknFloatingPointQueryDialogD0Ev @ 2510 NONAME
	_ZN28CAknFloatingPointQueryDialogD1Ev @ 2511 NONAME
	_ZN28CAknFloatingPointQueryDialogD2Ev @ 2512 NONAME
	_ZN28CAknMultiLineDataQueryDialog10SetPromptLERK7TDesC16S2_ @ 2513 NONAME
	_ZN28CAknMultiLineDataQueryDialog12DoSetPromptLEv @ 2514 NONAME
	_ZN28CAknMultiLineDataQueryDialog17PreLayoutDynInitLEv @ 2515 NONAME
	_ZN28CAknMultiLineDataQueryDialog18ExtensionInterfaceE4TUid @ 2516 NONAME
	_ZN28CAknMultiLineDataQueryDialog18UpdateLeftSoftKeyLEv @ 2517 NONAME
	_ZN28CAknMultiLineDataQueryDialog19CAknDialog_ReservedEv @ 2518 NONAME
	_ZN28CAknMultiLineDataQueryDialog19HandlePointerEventLERK13TPointerEvent @ 2519 NONAME
	_ZN28CAknMultiLineDataQueryDialog19NeedToDismissQueryLERK9TKeyEvent @ 2520 NONAME
	_ZN28CAknMultiLineDataQueryDialog21CEikDialog_Reserved_1Ev @ 2521 NONAME
	_ZN28CAknMultiLineDataQueryDialog21CEikDialog_Reserved_2Ev @ 2522 NONAME
	_ZN28CAknMultiLineDataQueryDialog24CAknQueryDialog_ReservedEv @ 2523 NONAME
	_ZN28CAknMultiLineDataQueryDialog25SetMaxLengthOfFirstEditorEi @ 2524 NONAME
	_ZN28CAknMultiLineDataQueryDialog26SetMaxLengthOfSecondEditorEi @ 2525 NONAME
	_ZN28CAknMultiLineDataQueryDialog4NewLER5TTimeR20TTimeIntervalSecondsN15CAknQueryDialog5TToneE @ 2526 NONAME
	_ZN28CAknMultiLineDataQueryDialog4NewLER5TTimeS1_N15CAknQueryDialog5TToneE @ 2527 NONAME
	_ZN28CAknMultiLineDataQueryDialog4NewLER6TDes16R20TTimeIntervalSecondsN15CAknQueryDialog5TToneE @ 2528 NONAME
	_ZN28CAknMultiLineDataQueryDialog4NewLER6TDes16R5TTimeN15CAknQueryDialog5TToneE @ 2529 NONAME
	_ZN28CAknMultiLineDataQueryDialog4NewLER6TDes16RiN15CAknQueryDialog5TToneE @ 2530 NONAME
	_ZN28CAknMultiLineDataQueryDialog4NewLER6TDes16S1_N15CAknQueryDialog5TToneE @ 2531 NONAME
	_ZN28CAknMultiLineDataQueryDialog4NewLERiS0_N15CAknQueryDialog5TToneE @ 2532 NONAME
	_ZN28CAknMultiLineDataQueryDialog9OkToExitLEi @ 2533 NONAME
	_ZN28CAknMultiLineDataQueryDialogC1EP5TTimeP20TTimeIntervalSecondsP7TDesC16S5_RKN15CAknQueryDialog5TToneE @ 2534 NONAME
	_ZN28CAknMultiLineDataQueryDialogC1EP5TTimeS1_P7TDesC16S3_RKN15CAknQueryDialog5TToneE @ 2535 NONAME
	_ZN28CAknMultiLineDataQueryDialogC1EP6TDes16P20TTimeIntervalSecondsP7TDesC16S5_RKN15CAknQueryDialog5TToneE @ 2536 NONAME
	_ZN28CAknMultiLineDataQueryDialogC1EP6TDes16P5TTimeP7TDesC16S5_RKN15CAknQueryDialog5TToneE @ 2537 NONAME
	_ZN28CAknMultiLineDataQueryDialogC1EP6TDes16PiP7TDesC16S4_RKN15CAknQueryDialog5TToneE @ 2538 NONAME
	_ZN28CAknMultiLineDataQueryDialogC1EP6TDes16S1_P7TDesC16S3_RKN15CAknQueryDialog5TToneE @ 2539 NONAME
	_ZN28CAknMultiLineDataQueryDialogC1EPiS0_P7TDesC16S2_RKN15CAknQueryDialog5TToneE @ 2540 NONAME
	_ZN28CAknMultiLineDataQueryDialogC1ERKN15CAknQueryDialog5TToneE @ 2541 NONAME
	_ZN28CAknMultiLineDataQueryDialogC2EP5TTimeP20TTimeIntervalSecondsP7TDesC16S5_RKN15CAknQueryDialog5TToneE @ 2542 NONAME
	_ZN28CAknMultiLineDataQueryDialogC2EP5TTimeS1_P7TDesC16S3_RKN15CAknQueryDialog5TToneE @ 2543 NONAME
	_ZN28CAknMultiLineDataQueryDialogC2EP6TDes16P20TTimeIntervalSecondsP7TDesC16S5_RKN15CAknQueryDialog5TToneE @ 2544 NONAME
	_ZN28CAknMultiLineDataQueryDialogC2EP6TDes16P5TTimeP7TDesC16S5_RKN15CAknQueryDialog5TToneE @ 2545 NONAME
	_ZN28CAknMultiLineDataQueryDialogC2EP6TDes16PiP7TDesC16S4_RKN15CAknQueryDialog5TToneE @ 2546 NONAME
	_ZN28CAknMultiLineDataQueryDialogC2EP6TDes16S1_P7TDesC16S3_RKN15CAknQueryDialog5TToneE @ 2547 NONAME
	_ZN28CAknMultiLineDataQueryDialogC2EPiS0_P7TDesC16S2_RKN15CAknQueryDialog5TToneE @ 2548 NONAME
	_ZN28CAknMultiLineDataQueryDialogC2ERKN15CAknQueryDialog5TToneE @ 2549 NONAME
	_ZN28CAknMultiLineDataQueryDialogD0Ev @ 2550 NONAME
	_ZN28CAknMultiLineDataQueryDialogD1Ev @ 2551 NONAME
	_ZN28CAknMultiLineDataQueryDialogD2Ev @ 2552 NONAME
	_ZN28CAknSingleNumberStyleListBox11MinimumSizeEv @ 2553 NONAME
	_ZN28CAknSingleNumberStyleListBox11SizeChangedEv @ 2554 NONAME
	_ZN28CAknSingleNumberStyleListBox19HandlePointerEventLERK13TPointerEvent @ 2555 NONAME
	_ZN28CAknSingleNumberStyleListBoxC1Ev @ 2556 NONAME
	_ZN28CAknSingleNumberStyleListBoxC2Ev @ 2557 NONAME
	_ZN28CAknStaticNoteStackIndicator18ExtensionInterfaceE4TUid @ 2558 NONAME
	_ZN28CAknStaticNoteStackIndicator19HandlePointerEventLERK13TPointerEvent @ 2559 NONAME
	_ZN28CAknStaticNoteStackIndicator20HandleResourceChangeEi @ 2560 NONAME
	_ZN29CAknDoubleGraphicStyleListBox11MinimumSizeEv @ 2561 NONAME
	_ZN29CAknDoubleGraphicStyleListBox11SizeChangedEv @ 2562 NONAME
	_ZN29CAknDoubleGraphicStyleListBox19HandlePointerEventLERK13TPointerEvent @ 2563 NONAME
	_ZN29CAknDoubleGraphicStyleListBoxC1Ev @ 2564 NONAME
	_ZN29CAknDoubleGraphicStyleListBoxC2Ev @ 2565 NONAME
	_ZN29CAknEnumeratedTextSettingItem19SetSettingPageTextLEv @ 2566 NONAME
	_ZN29CAknEnumeratedTextSettingItem21CompleteConstructionLEv @ 2567 NONAME
	_ZN29CAknEnumeratedTextSettingItem22HandleTextArrayUpdateLEv @ 2568 NONAME
	_ZN29CAknEnumeratedTextSettingItem23SetEnumeratedTextArraysEP9CArrayPtrI18CAknEnumeratedItemI7HBufC16EEPS0_IS2_E @ 2569 NONAME
	_ZN29CAknEnumeratedTextSettingItem24CAknSettingItem_ReservedEv @ 2570 NONAME
	_ZN29CAknEnumeratedTextSettingItemC1Ei @ 2571 NONAME
	_ZN29CAknEnumeratedTextSettingItemC2Ei @ 2572 NONAME
	_ZN29CAknEnumeratedTextSettingItemD0Ev @ 2573 NONAME
	_ZN29CAknEnumeratedTextSettingItemD1Ev @ 2574 NONAME
	_ZN29CAknEnumeratedTextSettingItemD2Ev @ 2575 NONAME
	_ZN29CAknSettingNumberStyleListBox11MinimumSizeEv @ 2576 NONAME
	_ZN29CAknSettingNumberStyleListBox11SizeChangedEv @ 2577 NONAME
	_ZN29CAknSettingNumberStyleListBox19HandlePointerEventLERK13TPointerEvent @ 2578 NONAME
	_ZN29CAknSettingNumberStyleListBoxC1Ev @ 2579 NONAME
	_ZN29CAknSettingNumberStyleListBoxC2Ev @ 2580 NONAME
	_ZN29CAknSingleGraphicStyleListBox11MinimumSizeEv @ 2581 NONAME
	_ZN29CAknSingleGraphicStyleListBox11SizeChangedEv @ 2582 NONAME
	_ZN29CAknSingleGraphicStyleListBox19HandlePointerEventLERK13TPointerEvent @ 2583 NONAME
	_ZN29CAknSingleGraphicStyleListBoxC1Ev @ 2584 NONAME
	_ZN29CAknSingleGraphicStyleListBoxC2Ev @ 2585 NONAME
	_ZN29CAknSingleHeadingStyleListBox11MinimumSizeEv @ 2586 NONAME
	_ZN29CAknSingleHeadingStyleListBox11SizeChangedEv @ 2587 NONAME
	_ZN29CAknSingleHeadingStyleListBox17CreateItemDrawerLEv @ 2588 NONAME
	_ZN29CAknSingleHeadingStyleListBox19HandlePointerEventLERK13TPointerEvent @ 2589 NONAME
	_ZN29CAknSingleHeadingStyleListBox22MakeViewClassInstanceLEv @ 2590 NONAME
	_ZN29CAknSingleHeadingStyleListBoxC1Ev @ 2591 NONAME
	_ZN29CAknSingleHeadingStyleListBoxC2Ev @ 2592 NONAME
	_ZN29CSingleHeadingStyleItemDrawer15SetTopItemIndexEi @ 2593 NONAME
	_ZN29CSingleHeadingStyleItemDrawerC1EP17MTextListBoxModelPK5CFontP18CColumnListBoxData @ 2594 NONAME
	_ZN29CSingleHeadingStyleItemDrawerC2EP17MTextListBoxModelPK5CFontP18CColumnListBoxData @ 2595 NONAME
	_ZN29CSingleHeadingStyleItemDrawerD0Ev @ 2596 NONAME
	_ZN29CSingleHeadingStyleItemDrawerD1Ev @ 2597 NONAME
	_ZN29CSingleHeadingStyleItemDrawerD2Ev @ 2598 NONAME
	_ZN30CAknDouble2GraphicStyleListBox11MinimumSizeEv @ 2599 NONAME
	_ZN30CAknDouble2GraphicStyleListBox11SizeChangedEv @ 2600 NONAME
	_ZN30CAknDouble2GraphicStyleListBox17CreateItemDrawerLEv @ 2601 NONAME
	_ZN30CAknDouble2GraphicStyleListBox19HandlePointerEventLERK13TPointerEvent @ 2602 NONAME
	_ZN30CAknDouble2GraphicStyleListBoxC1Ev @ 2603 NONAME
	_ZN30CAknDouble2GraphicStyleListBoxC2Ev @ 2604 NONAME
	_ZN30CAknNavigationControlContainer10ConstructLEv @ 2605 NONAME
	_ZN30CAknNavigationControlContainer11ColorSchemeEv @ 2606 NONAME
	_ZN30CAknNavigationControlContainer11SizeChangedEv @ 2607 NONAME
	_ZN30CAknNavigationControlContainer12PushDefaultLEi @ 2608 NONAME
	_ZN30CAknNavigationControlContainer15CreateTabGroupLEP15MAknTabObserver @ 2609 NONAME
	_ZN30CAknNavigationControlContainer15CreateTabGroupLER15TResourceReader @ 2610 NONAME
	_ZN30CAknNavigationControlContainer15CreateTabGroupLER15TResourceReaderP15MAknTabObserver @ 2611 NONAME
	_ZN30CAknNavigationControlContainer15CreateTabGroupLEv @ 2612 NONAME
	_ZN30CAknNavigationControlContainer17ResourceDecoratorEv @ 2613 NONAME
	_ZN30CAknNavigationControlContainer18ExtensionInterfaceE4TUid @ 2614 NONAME
	_ZN30CAknNavigationControlContainer19CreateMessageLabelLER15TResourceReader @ 2615 NONAME
	_ZN30CAknNavigationControlContainer19CreateMessageLabelLERK7TDesC16 @ 2616 NONAME
	_ZN30CAknNavigationControlContainer19HandleControlEventLEP11CCoeControlN19MCoeControlObserver9TCoeEventE @ 2617 NONAME
	_ZN30CAknNavigationControlContainer19HandlePointerEventLERK13TPointerEvent @ 2618 NONAME
	_ZN30CAknNavigationControlContainer20HandleResourceChangeEi @ 2619 NONAME
	_ZN30CAknNavigationControlContainer22ConstructFromResourceLER15TResourceReader @ 2620 NONAME
	_ZN30CAknNavigationControlContainer22CreateNavigationImageLEPK10CFbsBitmapS2_ @ 2621 NONAME
	_ZN30CAknNavigationControlContainer22CreateNavigationImageLER15TResourceReader @ 2622 NONAME
	_ZN30CAknNavigationControlContainer22CreateNavigationLabelLER15TResourceReader @ 2623 NONAME
	_ZN30CAknNavigationControlContainer22CreateNavigationLabelLERK7TDesC16 @ 2624 NONAME
	_ZN30CAknNavigationControlContainer22CreateVolumeIndicatorLEi @ 2625 NONAME
	_ZN30CAknNavigationControlContainer31CreateEditorIndicatorContainerLEv @ 2626 NONAME
	_ZN30CAknNavigationControlContainer3PopEP23CAknNavigationDecorator @ 2627 NONAME
	_ZN30CAknNavigationControlContainer3PopEv @ 2628 NONAME
	_ZN30CAknNavigationControlContainer3TopEv @ 2629 NONAME
	_ZN30CAknNavigationControlContainer41ConstructNavigationDecoratorFromResourceLER15TResourceReader @ 2630 NONAME
	_ZN30CAknNavigationControlContainer5PushLER23CAknNavigationDecorator @ 2631 NONAME
	_ZN30CAknNavigationControlContainer8ReplaceLER23CAknNavigationDecoratorS1_ @ 2632 NONAME
	_ZN30CAknNavigationControlContainerC1Ev @ 2633 NONAME
	_ZN30CAknNavigationControlContainerC2Ev @ 2634 NONAME
	_ZN30CAknNavigationControlContainerD0Ev @ 2635 NONAME
	_ZN30CAknNavigationControlContainerD1Ev @ 2636 NONAME
	_ZN30CAknNavigationControlContainerD2Ev @ 2637 NONAME
	_ZN30CAknNumericPasswordSettingPage10ConstructLEv @ 2638 NONAME
	_ZN30CAknNumericPasswordSettingPage10Reserved_2Ev @ 2639 NONAME
	_ZN30CAknNumericPasswordSettingPage11UpdateTextLEv @ 2640 NONAME
	_ZN30CAknNumericPasswordSettingPage18ExtensionInterfaceE4TUid @ 2641 NONAME
	_ZN30CAknNumericPasswordSettingPage19HandlePointerEventLERK13TPointerEvent @ 2642 NONAME
	_ZN30CAknNumericPasswordSettingPage21NumericPasswordEditorEv @ 2643 NONAME
	_ZN30CAknNumericPasswordSettingPage26CAknSettingPage_Reserved_1Ev @ 2644 NONAME
	_ZN30CAknNumericPasswordSettingPage26CAknSettingPage_Reserved_2Ev @ 2645 NONAME
	_ZN30CAknNumericPasswordSettingPageC1EPK7TDesC16iiiiR6TDes16RS1_ @ 2646 NONAME
	_ZN30CAknNumericPasswordSettingPageC1EiR6TDes16RK7TDesC16 @ 2647 NONAME
	_ZN30CAknNumericPasswordSettingPageC2EPK7TDesC16iiiiR6TDes16RS1_ @ 2648 NONAME
	_ZN30CAknNumericPasswordSettingPageC2EiR6TDes16RK7TDesC16 @ 2649 NONAME
	_ZN30CAknNumericPasswordSettingPageD0Ev @ 2650 NONAME
	_ZN30CAknNumericPasswordSettingPageD1Ev @ 2651 NONAME
	_ZN30CAknNumericPasswordSettingPageD2Ev @ 2652 NONAME
	_ZN30CAknSingle2GraphicStyleListBox11MinimumSizeEv @ 2653 NONAME
	_ZN30CAknSingle2GraphicStyleListBox11SizeChangedEv @ 2654 NONAME
	_ZN30CAknSingle2GraphicStyleListBoxC1Ev @ 2655 NONAME
	_ZN30CAknSingle2GraphicStyleListBoxC2Ev @ 2656 NONAME
	_ZN30CSettingItemEditingListBoxData4NewLEv @ 2657 NONAME
	_ZN31CAknDoublePopupMenuStyleListBox11MinimumSizeEv @ 2658 NONAME
	_ZN31CAknDoublePopupMenuStyleListBox11SizeChangedEv @ 2659 NONAME
	_ZN31CAknDoublePopupMenuStyleListBox17CreateItemDrawerLEv @ 2660 NONAME
	_ZN31CAknDoublePopupMenuStyleListBox19HandlePointerEventLERK13TPointerEvent @ 2661 NONAME
	_ZN31CAknFormGraphicWideStyleListBox11MinimumSizeEv @ 2662 NONAME
	_ZN31CAknFormGraphicWideStyleListBox11SizeChangedEv @ 2663 NONAME
	_ZN31CAknFormGraphicWideStyleListBox19HandlePointerEventLERK13TPointerEvent @ 2664 NONAME
	_ZN31CAknSinglePopupMenuStyleListBox11MinimumSizeEv @ 2665 NONAME
	_ZN31CAknSinglePopupMenuStyleListBox11SizeChangedEv @ 2666 NONAME
	_ZN31CAknSinglePopupMenuStyleListBox17CreateItemDrawerLEv @ 2667 NONAME
	_ZN31CAknSinglePopupMenuStyleListBox19HandlePointerEventLERK13TPointerEvent @ 2668 NONAME
	_ZN31CFormattedCellListBoxItemDrawer14SetPropertiesLEi19TListItemProperties @ 2669 NONAME
	_ZN31CFormattedCellListBoxItemDrawer15SetItemCellSizeERK5TSize @ 2670 NONAME
	_ZN31CFormattedCellListBoxItemDrawer15SetTopItemIndexEi @ 2671 NONAME
	_ZN31CFormattedCellListBoxItemDrawer19ClearAllPropertiesLEv @ 2672 NONAME
	_ZN31CFormattedCellListBoxItemDrawer40CFormattedCellListBoxItemDrawer_ReservedEv @ 2673 NONAME
	_ZN31CFormattedCellListBoxItemDrawerC1EP17MTextListBoxModelPK5CFontP25CFormattedCellListBoxData @ 2674 NONAME
	_ZN31CFormattedCellListBoxItemDrawerC2EP17MTextListBoxModelPK5CFontP25CFormattedCellListBoxData @ 2675 NONAME
	_ZN31CFormattedCellListBoxItemDrawerD0Ev @ 2676 NONAME
	_ZN31CFormattedCellListBoxItemDrawerD1Ev @ 2677 NONAME
	_ZN31CFormattedCellListBoxItemDrawerD2Ev @ 2678 NONAME
	_ZN32CAknDouble2PopupMenuStyleListBox11MinimumSizeEv @ 2679 NONAME
	_ZN32CAknDouble2PopupMenuStyleListBox11SizeChangedEv @ 2680 NONAME
	_ZN32CAknDouble2PopupMenuStyleListBox17CreateItemDrawerLEv @ 2681 NONAME
	_ZN32CAknDouble2PopupMenuStyleListBox19HandlePointerEventLERK13TPointerEvent @ 2682 NONAME
	_ZN32CAknTransparentCameraSettingPage10ConstructLEv @ 2683 NONAME
	_ZN32CAknTransparentCameraSettingPage10Reserved_2Ev @ 2684 NONAME
	_ZN32CAknTransparentCameraSettingPage11SizeChangedEv @ 2685 NONAME
	_ZN32CAknTransparentCameraSettingPage12DynamicInitLEv @ 2686 NONAME
	_ZN32CAknTransparentCameraSettingPage14UpdateSettingLEv @ 2687 NONAME
	_ZN32CAknTransparentCameraSettingPage16ChangeBackgroundEP10CFbsBitmap @ 2688 NONAME
	_ZN32CAknTransparentCameraSettingPage18SelectCurrentItemLEv @ 2689 NONAME
	_ZN32CAknTransparentCameraSettingPage19HandleListBoxEventLEP11CEikListBoxN19MEikListBoxObserver13TListBoxEventE @ 2690 NONAME
	_ZN32CAknTransparentCameraSettingPage25SetItemArrayAndSelectionLEPK12MDesC16Arrayi @ 2691 NONAME
	_ZN32CAknTransparentCameraSettingPage26CAknSettingPage_Reserved_1Ev @ 2692 NONAME
	_ZN32CAknTransparentCameraSettingPage26CAknSettingPage_Reserved_2Ev @ 2693 NONAME
	_ZN32CAknTransparentCameraSettingPage28SetBitmapPositionAndClipRectE6TPoint5TRect @ 2694 NONAME
	_ZN32CAknTransparentCameraSettingPage33CAknListBoxSettingPage_Reserved_1Ev @ 2695 NONAME
	_ZN32CAknTransparentCameraSettingPageC1EPK7TDesC16iiiiRiPK12MDesC16Array @ 2696 NONAME
	_ZN32CAknTransparentCameraSettingPageC1EiRiPK12MDesC16Array @ 2697 NONAME
	_ZN32CAknTransparentCameraSettingPageC2EPK7TDesC16iiiiRiPK12MDesC16Array @ 2698 NONAME
	_ZN32CAknTransparentCameraSettingPageC2EiRiPK12MDesC16Array @ 2699 NONAME
	_ZN32CAknTransparentCameraSettingPageD0Ev @ 2700 NONAME
	_ZN32CAknTransparentCameraSettingPageD1Ev @ 2701 NONAME
	_ZN32CAknTransparentCameraSettingPageD2Ev @ 2702 NONAME
	_ZN33AknListBoxShortCutsImplementation10ConstructLEv @ 2703 NONAME
	_ZN33AknListBoxShortCutsImplementation14OfferKeyEventLERK9TKeyEvent10TEventCode @ 2704 NONAME
	_ZN33AknListBoxShortCutsImplementation15ProcessCommandLEi @ 2705 NONAME
	_ZN33AknListBoxShortCutsImplementation24ShortcutValueForNextListEv @ 2706 NONAME
	_ZN33AknListBoxShortCutsImplementation28SetShortcutValueFromPrevListEi @ 2707 NONAME
	_ZN33AknListBoxShortCutsImplementation6DoTestEN19AknListBoxShortCuts14TConcreteQueryE @ 2708 NONAME
	_ZN33AknListBoxShortCutsImplementation9DoActionLEN19AknListBoxShortCuts24TConcreteShortcutActionsE @ 2709 NONAME
	_ZN33AknListBoxShortCutsImplementationC1EP11CEikListBox @ 2710 NONAME
	_ZN33AknListBoxShortCutsImplementationC2EP11CEikListBox @ 2711 NONAME
	_ZN33AknListBoxShortCutsImplementationD0Ev @ 2712 NONAME
	_ZN33AknListBoxShortCutsImplementationD1Ev @ 2713 NONAME
	_ZN33AknListBoxShortCutsImplementationD2Ev @ 2714 NONAME
	_ZN33CAknFormDoubleGraphicStyleListBox11SizeChangedEv @ 2715 NONAME
	_ZN33CAknFormDoubleGraphicStyleListBox19HandlePointerEventLERK13TPointerEvent @ 2716 NONAME
	_ZN34CAknEnumeratedTextPopupSettingItem12SettingTextLEv @ 2717 NONAME
	_ZN34CAknEnumeratedTextPopupSettingItem16SetExternalValueEi @ 2718 NONAME
	_ZN34CAknEnumeratedTextPopupSettingItem16SetInternalValueEi @ 2719 NONAME
	_ZN34CAknEnumeratedTextPopupSettingItem16SetSelectedIndexEi @ 2720 NONAME
	_ZN34CAknEnumeratedTextPopupSettingItem18CreateSettingPageLEv @ 2721 NONAME
	_ZN34CAknEnumeratedTextPopupSettingItem21CompleteConstructionLEv @ 2722 NONAME
	_ZN34CAknEnumeratedTextPopupSettingItem24CAknSettingItem_ReservedEv @ 2723 NONAME
	_ZN34CAknEnumeratedTextPopupSettingItem28CreateAndExecuteSettingPageLEv @ 2724 NONAME
	_ZN34CAknEnumeratedTextPopupSettingItem5LoadLEv @ 2725 NONAME
	_ZN34CAknEnumeratedTextPopupSettingItem6StoreLEv @ 2726 NONAME
	_ZN34CAknEnumeratedTextPopupSettingItem9EditItemLEi @ 2727 NONAME
	_ZN34CAknEnumeratedTextPopupSettingItemC1EiRi @ 2728 NONAME
	_ZN34CAknEnumeratedTextPopupSettingItemC2EiRi @ 2729 NONAME
	_ZN34CAknEnumeratedTextPopupSettingItemD0Ev @ 2730 NONAME
	_ZN34CAknEnumeratedTextPopupSettingItemD1Ev @ 2731 NONAME
	_ZN34CAknEnumeratedTextPopupSettingItemD2Ev @ 2732 NONAME
	_ZN34CAknSinglePopupSubmenuStyleListBox11MinimumSizeEv @ 2733 NONAME
	_ZN34CAknSinglePopupSubmenuStyleListBox11SizeChangedEv @ 2734 NONAME
	_ZN34CAknSinglePopupSubmenuStyleListBox19HandlePointerEventLERK13TPointerEvent @ 2735 NONAME
	_ZN34MAknSgcStatusPaneRedrawCoordinator45MAknSgcStatusPaneRedrawCoordinator_Reserved_1Ev @ 2736 NONAME
	_ZN34MAknSgcStatusPaneRedrawCoordinator45MAknSgcStatusPaneRedrawCoordinator_Reserved_2Ev @ 2737 NONAME
	_ZN35CAknDouble2GraphicLargeStyleListBox11MinimumSizeEv @ 2738 NONAME
	_ZN35CAknDouble2GraphicLargeStyleListBox11SizeChangedEv @ 2739 NONAME
	_ZN35CAknDouble2GraphicLargeStyleListBox17CreateItemDrawerLEv @ 2740 NONAME
	_ZN35CAknDouble2GraphicLargeStyleListBoxC1Ev @ 2741 NONAME
	_ZN35CAknDouble2GraphicLargeStyleListBoxC2Ev @ 2742 NONAME
	_ZN35CAknSingleNumberHeadingStyleListBox11MinimumSizeEv @ 2743 NONAME
	_ZN35CAknSingleNumberHeadingStyleListBox11SizeChangedEv @ 2744 NONAME
	_ZN35CAknSingleNumberHeadingStyleListBox17CreateItemDrawerLEv @ 2745 NONAME
	_ZN35CAknSingleNumberHeadingStyleListBox19HandlePointerEventLERK13TPointerEvent @ 2746 NONAME
	_ZN35CAknSingleNumberHeadingStyleListBox22MakeViewClassInstanceLEv @ 2747 NONAME
	_ZN35CAknSingleNumberHeadingStyleListBoxC1Ev @ 2748 NONAME
	_ZN35CAknSingleNumberHeadingStyleListBoxC2Ev @ 2749 NONAME
	_ZN35CWordWrappedFormattedCellItemDrawer40CFormattedCellListBoxItemDrawer_ReservedEv @ 2750 NONAME
	_ZN35CWordWrappedFormattedCellItemDrawerC1EP17MTextListBoxModelPK5CFontP25CFormattedCellListBoxDataP11CEikListBoxii @ 2751 NONAME
	_ZN35CWordWrappedFormattedCellItemDrawerC2EP17MTextListBoxModelPK5CFontP25CFormattedCellListBoxDataP11CEikListBoxii @ 2752 NONAME
	_ZN36CAknSingleGraphicHeadingStyleListBox11MinimumSizeEv @ 2753 NONAME
	_ZN36CAknSingleGraphicHeadingStyleListBox11SizeChangedEv @ 2754 NONAME
	_ZN36CAknSingleGraphicHeadingStyleListBox17CreateItemDrawerLEv @ 2755 NONAME
	_ZN36CAknSingleGraphicHeadingStyleListBox19HandlePointerEventLERK13TPointerEvent @ 2756 NONAME
	_ZN36CAknSingleGraphicHeadingStyleListBox22MakeViewClassInstanceLEv @ 2757 NONAME
	_ZN36CAknSingleGraphicHeadingStyleListBoxC1Ev @ 2758 NONAME
	_ZN36CAknSingleGraphicHeadingStyleListBoxC2Ev @ 2759 NONAME
	_ZN38CAknSingleGraphicPopupMenuStyleListBox11MinimumSizeEv @ 2760 NONAME
	_ZN38CAknSingleGraphicPopupMenuStyleListBox11SizeChangedEv @ 2761 NONAME
	_ZN38CAknSingleGraphicPopupMenuStyleListBox17CreateItemDrawerLEv @ 2762 NONAME
	_ZN38CAknSingleGraphicPopupMenuStyleListBox19HandlePointerEventLERK13TPointerEvent @ 2763 NONAME
	_ZN38CAknSingleHeadingPopupMenuStyleListBox11MinimumSizeEv @ 2764 NONAME
	_ZN38CAknSingleHeadingPopupMenuStyleListBox11SizeChangedEv @ 2765 NONAME
	_ZN38CAknSingleHeadingPopupMenuStyleListBox17CreateItemDrawerLEv @ 2766 NONAME
	_ZN38CAknSingleHeadingPopupMenuStyleListBox19HandlePointerEventLERK13TPointerEvent @ 2767 NONAME
	_ZN38CAknSingleHeadingPopupMenuStyleListBoxC1Ev @ 2768 NONAME
	_ZN38CAknSingleHeadingPopupMenuStyleListBoxC2Ev @ 2769 NONAME
	_ZN40CAknSingleGraphicBtPopupMenuStyleListBox11SizeChangedEv @ 2770 NONAME
	_ZN40CAknSingleGraphicBtPopupMenuStyleListBox19HandlePointerEventLERK13TPointerEvent @ 2771 NONAME
	_ZN42CAknDouble2GraphicLargeGraphicStyleListBox11MinimumSizeEv @ 2772 NONAME
	_ZN42CAknDouble2GraphicLargeGraphicStyleListBox11SizeChangedEv @ 2773 NONAME
	_ZN42CAknDouble2GraphicLargeGraphicStyleListBox17CreateItemDrawerLEv @ 2774 NONAME
	_ZN42CAknDouble2GraphicLargeGraphicStyleListBox19HandlePointerEventLERK13TPointerEvent @ 2775 NONAME
	_ZN42CAknDouble2GraphicLargeGraphicStyleListBoxC1Ev @ 2776 NONAME
	_ZN42CAknDouble2GraphicLargeGraphicStyleListBoxC2Ev @ 2777 NONAME
	_ZN43CAknDoubleLargeGraphicPopupMenuStyleListBox11MinimumSizeEv @ 2778 NONAME
	_ZN43CAknDoubleLargeGraphicPopupMenuStyleListBox11SizeChangedEv @ 2779 NONAME
	_ZN43CAknDoubleLargeGraphicPopupMenuStyleListBox17CreateItemDrawerLEv @ 2780 NONAME
	_ZN43CAknDoubleLargeGraphicPopupMenuStyleListBox19HandlePointerEventLERK13TPointerEvent @ 2781 NONAME
	_ZN45CAknSingleGraphicHeadingPopupMenuStyleListBox11MinimumSizeEv @ 2782 NONAME
	_ZN45CAknSingleGraphicHeadingPopupMenuStyleListBox11SizeChangedEv @ 2783 NONAME
	_ZN45CAknSingleGraphicHeadingPopupMenuStyleListBox17CreateItemDrawerLEv @ 2784 NONAME
	_ZN45CAknSingleGraphicHeadingPopupMenuStyleListBox19HandlePointerEventLERK13TPointerEvent @ 2785 NONAME
	_ZN45CAknSingleGraphicHeadingPopupMenuStyleListBoxC1Ev @ 2786 NONAME
	_ZN45CAknSingleGraphicHeadingPopupMenuStyleListBoxC2Ev @ 2787 NONAME
	_ZN6AknDef18GetPhoneIdleViewIdER10TVwsViewId @ 2788 NONAME
	_ZN7AknDraw13DrawEmptyListERK5TRectR9CWindowGc7TPtrC16 @ 2789 NONAME
	_ZN7AknDraw16DrawWindowShadowER9CWindowGcRK14TAknLayoutRectS4_S4_S4_S4_ @ 2790 NONAME
	_ZN7AknDraw17DrawEmptyListImplERK5TRectR9CWindowGc7TPtrC16ii @ 2791 NONAME
	_ZN7AknDraw20DrawEmptyListHeadingERK5TRectR9CWindowGc7TPtrC16 @ 2792 NONAME
	_ZN7AknDraw21DrawEmptyListWithFindERK5TRectR9CWindowGc7TPtrC16 @ 2793 NONAME
	_ZN7AknDraw27DrawEmptyListForSettingPageERK5TRectR9CWindowGc7TPtrC16 @ 2794 NONAME
	_ZN7AknFind11IsFindMatchERK7TDesC16S2_ @ 2795 NONAME
	_ZN7AknFind19IsFindWordSeparatorE5TChar @ 2796 NONAME
	_ZN7AknFind21HandleFindSizeChangedEP11CCoeControlP11CEikListBoxP15CAknSearchFieldiiiii @ 2797 NONAME
	_ZN7AknFind24HandleFindOfferKeyEventLERK9TKeyEvent10TEventCodeP11CCoeControlP11CEikListBoxP15CAknSearchFieldiRi @ 2798 NONAME
	_ZN7AknFind26HandleFixedFindSizeChangedEP11CCoeControlP17CAknColumnListBoxP15CAknSearchField @ 2799 NONAME
	_ZN7AknFind26HandlePopupFindSizeChangedEP11CCoeControlP11CEikListBoxP15CAknSearchField @ 2800 NONAME
	_ZN7AknFind28HandleFindSizeChangedLayoutsEP11CCoeControlP11CEikListBoxP15CAknSearchFieldRK20TAknWindowLineLayoutS8_iS8_ @ 2801 NONAME
	_ZN7AknFind30HandleFindPopupProcessCommandLEiP11CEikListBoxP15CAknSearchFieldP11CCoeControl @ 2802 NONAME
	_ZN7CAknEnv10AvkonColorEi @ 2803 NONAME
	_ZN7CAknEnv10ConstructLEv @ 2804 NONAME
	_ZN7CAknEnv13RunAppShutterEv @ 2805 NONAME
	_ZN7CAknEnv14LoadAknLayoutLEv @ 2806 NONAME
	_ZN7CAknEnv15FepMenuObserverEv @ 2807 NONAME
	_ZN7CAknEnv15RequestWsBufferEi @ 2808 NONAME
	_ZN7CAknEnv17InformCbaDeletionEP24CEikButtonGroupContainer @ 2809 NONAME
	_ZN7CAknEnv17RemoveCbaObserverEv @ 2810 NONAME
	_ZN7CAknEnv18CreateCbaObserverLEP24CEikButtonGroupContainerP11CEikListBox @ 2811 NONAME
	_ZN7CAknEnv18ExitForegroundAppLEv @ 2812 NONAME
	_ZN7CAknEnv18SetFepMenuObserverEP16MEikMenuObserver @ 2813 NONAME
	_ZN7CAknEnv21AppWithShutterRunningEv @ 2814 NONAME
	_ZN7CAknEnv21CancelWsBufferRequestEi @ 2815 NONAME
	_ZN7CAknEnv21EditingStateIndicatorEv @ 2816 NONAME
	_ZN7CAknEnv22ExecuteEmptyPopupListLEPK7TDesC16 @ 2817 NONAME
	_ZN7CAknEnv22ExecuteEmptyPopupListLEPK7TDesC16S2_i @ 2818 NONAME
	_ZN7CAknEnv25InstallAknEnvAsExtensionLEP9CEikonEnv @ 2819 NONAME
	_ZN7CAknEnv25SwapEditingStateIndicatorEP25MAknEditingStateIndicator @ 2820 NONAME
	_ZN7CAknEnv26CloseAllIntermediateStatesEv @ 2821 NONAME
	_ZN7CAknEnv26RegisterIntermediateStateLEP21MAknIntermediateState @ 2822 NONAME
	_ZN7CAknEnv27UnRegisterIntermediateStateEP21MAknIntermediateState @ 2823 NONAME
	_ZN7CAknEnv32StopSchedulerWaitWithBusyMessageER20CActiveSchedulerWait @ 2824 NONAME
	_ZN7CAknEnv6StaticEv @ 2825 NONAME
	_ZN7CAknEnvC1Ev @ 2826 NONAME
	_ZN7CAknEnvC2Ev @ 2827 NONAME
	_ZN7CAknEnvD0Ev @ 2828 NONAME
	_ZN7CAknEnvD1Ev @ 2829 NONAME
	_ZN7CAknEnvD2Ev @ 2830 NONAME
	_ZN7CAknTab18ExtensionInterfaceE4TUid @ 2831 NONAME
	_ZN8CAknForm10ConstructLEi @ 2832 NONAME
	_ZN8CAknForm11SetFormFlagENS_6TFlagsEi @ 2833 NONAME
	_ZN8CAknForm13SaveFormDataLEv @ 2834 NONAME
	_ZN8CAknForm15ProcessCommandLEi @ 2835 NONAME
	_ZN8CAknForm16DynInitMenuPaneLEiP12CEikMenuPane @ 2836 NONAME
	_ZN8CAknForm17CAknForm_ReservedEv @ 2837 NONAME
	_ZN8CAknForm17EditCurrentLabelLEv @ 2838 NONAME
	_ZN8CAknForm17QuerySaveChangesLEv @ 2839 NONAME
	_ZN8CAknForm17SetChangesPendingEi @ 2840 NONAME
	_ZN8CAknForm18DeleteCurrentItemLEv @ 2841 NONAME
	_ZN8CAknForm18DoNotSaveFormDataLEv @ 2842 NONAME
	_ZN8CAknForm18ExtensionInterfaceE4TUid @ 2843 NONAME
	_ZN8CAknForm18PostLayoutDynInitLEv @ 2844 NONAME
	_ZN8CAknForm19CAknDialog_ReservedEv @ 2845 NONAME
	_ZN8CAknForm19HandlePointerEventLERK13TPointerEvent @ 2846 NONAME
	_ZN8CAknForm20HandleResourceChangeEi @ 2847 NONAME
	_ZN8CAknForm21CEikDialog_Reserved_1Ev @ 2848 NONAME
	_ZN8CAknForm21CEikDialog_Reserved_2Ev @ 2849 NONAME
	_ZN8CAknForm21SetInitialCurrentLineEv @ 2850 NONAME
	_ZN8CAknForm25HandleControlStateChangeLEi @ 2851 NONAME
	_ZN8CAknForm26PrepareForFocusTransitionLEv @ 2852 NONAME
	_ZN8CAknForm8AddItemLEv @ 2853 NONAME
	_ZN8CAknForm9OkToExitLEi @ 2854 NONAME
	_ZN8CAknFormC1Ev @ 2855 NONAME
	_ZN8CAknFormC2Ev @ 2856 NONAME
	_ZN8CAknFormD0Ev @ 2857 NONAME
	_ZN8CAknFormD1Ev @ 2858 NONAME
	_ZN8CAknFormD2Ev @ 2859 NONAME
	_ZN8CAknGrid10ConstructLEPK11CCoeControli @ 2860 NONAME
	_ZN8CAknGrid10SetLayoutLEiiiii5TSizeii @ 2861 NONAME
	_ZN8CAknGrid11SizeChangedEv @ 2862 NONAME
	_ZN8CAknGrid12FocusChangedE8TDrawNow @ 2863 NONAME
	_ZN8CAknGrid13CalcGridSizeLEv @ 2864 NONAME
	_ZN8CAknGrid14OfferKeyEventLERK9TKeyEvent10TEventCode @ 2865 NONAME
	_ZN8CAknGrid14SetColumnWidthEi @ 2866 NONAME
	_ZN8CAknGrid14SetItemHeightLEi @ 2867 NONAME
	_ZN8CAknGrid16HandleDragEventLE6TPoint @ 2868 NONAME
	_ZN8CAknGrid17CreateItemDrawerLEv @ 2869 NONAME
	_ZN8CAknGrid17SetEmptyGridTextLERK7TDesC16 @ 2870 NONAME
	_ZN8CAknGrid17SetStartPositionLE6TPoint @ 2871 NONAME
	_ZN8CAknGrid17UpdateScrollBarsLEv @ 2872 NONAME
	_ZN8CAknGrid18ExtensionInterfaceE4TUid @ 2873 NONAME
	_ZN8CAknGrid18HandleItemRemovalLEv @ 2874 NONAME
	_ZN8CAknGrid19HandleItemAdditionLEv @ 2875 NONAME
	_ZN8CAknGrid19HandlePointerEventLERK13TPointerEvent @ 2876 NONAME
	_ZN8CAknGrid19SetCurrentDataIndexEi @ 2877 NONAME
	_ZThn88_N8CAknGrid18HandleScrollEventLEP13CEikScrollBar15TEikScrollEvent @ 2878 NONAME ; #<thunk>#
	_ZN8CAknGrid20HandleResourceChangeEi @ 2879 NONAME
	_ZN8CAknGrid22ConstructFromResourceLER15TResourceReader @ 2880 NONAME
	_ZN8CAknGrid22MListBoxModel_ReservedEv @ 2881 NONAME
	_ZN8CAknGrid22MakeViewClassInstanceLEv @ 2882 NONAME
	_ZN8CAknGrid22SetLayoutFromResourceLER15TResourceReader @ 2883 NONAME
	_ZN8CAknGrid23SetPrimaryScrollingTypeEN12CAknGridView14TScrollingTypeE @ 2884 NONAME
	_ZN8CAknGrid25HandleViewRectSizeChangeLEv @ 2885 NONAME
	_ZN8CAknGrid25MoveToNextOrPreviousItemLE6TPoint @ 2886 NONAME
	_ZN8CAknGrid25SetSecondaryScrollingTypeEN12CAknGridView14TScrollingTypeE @ 2887 NONAME
	_ZN8CAknGrid7SetRectERK5TRect @ 2888 NONAME
	_ZN8CAknGrid8SetModelEP9CAknGridM @ 2889 NONAME
	_ZN8CAknGridC1Ev @ 2890 NONAME
	_ZN8CAknGridC2Ev @ 2891 NONAME
	_ZN8CAknGridD0Ev @ 2892 NONAME
	_ZN8CAknGridD1Ev @ 2893 NONAME
	_ZN8CAknGridD2Ev @ 2894 NONAME
	_ZN8CAknView11SetEmphasisEP11CCoeControli @ 2895 NONAME
	_ZN8CAknView13ActivateViewLERK10TVwsViewId @ 2896 NONAME
	_ZN8CAknView13ActivateViewLERK10TVwsViewId4TUidRK6TDesC8 @ 2897 NONAME
	_ZN8CAknView14BaseConstructLEi @ 2898 NONAME
	_ZN8CAknView14HandleCommandLEi @ 2899 NONAME
	_ZN8CAknView14ViewActivatedLERK10TVwsViewId4TUidRK6TDesC8 @ 2900 NONAME
	_ZN8CAknView15MopSupplyObjectE8TTypeUid @ 2901 NONAME
	_ZN8CAknView15ProcessCommandLEi @ 2902 NONAME
	_ZN8CAknView15ViewDeactivatedEv @ 2903 NONAME
	_ZN8CAknView17AknViewActivatedLERK10TVwsViewId4TUidRK6TDesC8 @ 2904 NONAME
	_ZN8CAknView19Reserved_MtsmObjectEv @ 2905 NONAME
	_ZN8CAknView20HandleViewRectChangeEv @ 2906 NONAME
	_ZN8CAknView21Reserved_MtsmPositionEv @ 2907 NONAME
	_ZN8CAknView21StopDisplayingMenuBarEv @ 2908 NONAME
	_ZN8CAknView22HandleForegroundEventLEi @ 2909 NONAME
	_ZN8CAknView24ViewScreenDeviceChangedLEv @ 2910 NONAME
	_ZN8CAknView25ConstructMenuAndCbaEarlyLEv @ 2911 NONAME
	_ZN8CAknView26HandleStatusPaneSizeChangeEv @ 2912 NONAME
	_ZN8CAknView7MopNextEv @ 2913 NONAME
	_ZN8CAknViewC2Ev @ 2914 NONAME
	_ZN8CAknViewD0Ev @ 2915 NONAME
	_ZN8CAknViewD1Ev @ 2916 NONAME
	_ZN8CAknViewD2Ev @ 2917 NONAME
	_ZN9CAknAppUi10ConstructLEv @ 2918 NONAME
	_ZN9CAknAppUi10StatusPaneEv @ 2919 NONAME
	_ZN9CAknAppUi11HandleErrorEiRK14SExtendedErrorR6TDes16S4_ @ 2920 NONAME
	_ZN9CAknAppUi12HandleErrorLEiPP7HBufC16i @ 2921 NONAME
	_ZN9CAknAppUi13PrepareToExitEv @ 2922 NONAME
	_ZN9CAknAppUi13RunAppShutterEv @ 2923 NONAME
	_ZN9CAknAppUi14BaseConstructLEi @ 2924 NONAME
	_ZN9CAknAppUi14HandleWsEventLERK8TWsEventP11CCoeControl @ 2925 NONAME
	_ZN9CAknAppUi15ProcessCommandLEi @ 2926 NONAME
	_ZN9CAknAppUi15SetKeyBlockModeE16TAknKeyBlockMode @ 2927 NONAME
	_ZN9CAknAppUi18HandleSystemEventLERK8TWsEvent @ 2928 NONAME
	_ZN9CAknAppUi19Reserved_MtsmObjectEv @ 2929 NONAME
	_ZN9CAknAppUi21Reserved_MtsmPositionEv @ 2930 NONAME
	_ZN9CAknAppUi22HandleForegroundEventLEi @ 2931 NONAME
	_ZN9CAknAppUi22HandleViewDeactivationERK10TVwsViewIdS2_ @ 2932 NONAME
	_ZN9CAknAppUi22HideApplicationFromFSWEi @ 2933 NONAME
	_ZN9CAknAppUi25HandleTouchPaneSizeChangeEv @ 2934 NONAME
	_ZN9CAknAppUi26HandleStatusPaneSizeChangeEv @ 2935 NONAME
	_ZN9CAknAppUi3CbaEv @ 2936 NONAME
	_ZN9CAknAppUiD0Ev @ 2937 NONAME
	_ZN9CAknAppUiD1Ev @ 2938 NONAME
	_ZN9CAknAppUiD2Ev @ 2939 NONAME
	_ZN9CAknGridM13SetStartCellsEi @ 2940 NONAME
	_ZN9CAknGridMC1Ev @ 2941 NONAME
	_ZN9CAknGridMC2Ev @ 2942 NONAME
	_ZN9CAknGridMD0Ev @ 2943 NONAME
	_ZN9CAknGridMD1Ev @ 2944 NONAME
	_ZN9CAknGridMD2Ev @ 2945 NONAME
	_ZNK10CAknDialog11MenuShowingEv @ 2946 NONAME
	_ZNK10CAknDialog4DrawERK5TRect @ 2947 NONAME
	_ZNK10CAknSlider13DecimalPlacesEv @ 2948 NONAME
	_ZNK10CAknSlider13NumberOfLinesEv @ 2949 NONAME
	_ZNK10CAknSlider16ComponentControlEi @ 2950 NONAME
	_ZNK10CAknSlider22CountComponentControlsEv @ 2951 NONAME
	_ZNK10CAknSlider5ValueEv @ 2952 NONAME
	_ZNK11CAknCharMap16ComponentControlEi @ 2953 NONAME
	_ZNK11CAknCharMap17InputCapabilitiesEv @ 2954 NONAME
	_ZNK11CAknCharMap22CountComponentControlsEv @ 2955 NONAME
	_ZNK12CAknGridView10ItemExistsEi @ 2956 NONAME
	_ZNK12CAknGridView12ListBoxIndexEi @ 2957 NONAME
	_ZNK12CAknGridView12VisibleWidthERK5TRect @ 2958 NONAME
	_ZNK12CAknGridView13DrawEmptyListEv @ 2959 NONAME
	_ZNK12CAknGridView13DrawItemRangeEii @ 2960 NONAME
	_ZNK12CAknGridView15ActualDataIndexEi @ 2961 NONAME
	_ZNK12CAknGridView15DrawColumnRangeEii @ 2962 NONAME
	_ZNK12CAknGridView16CurrentDataIndexEv @ 2963 NONAME
	_ZNK12CAknGridView16CurrentItemIndexEv @ 2964 NONAME
	_ZNK12CAknGridView16XYPosToItemIndexE6TPointRi @ 2965 NONAME
	_ZNK12CAknGridView17IsPrimaryVerticalEv @ 2966 NONAME
	_ZNK12CAknGridView18GridCellDimensionsEv @ 2967 NONAME
	_ZNK12CAknGridView18NumberOfColsInViewEv @ 2968 NONAME
	_ZNK12CAknGridView18NumberOfRowsInViewEv @ 2969 NONAME
	_ZNK12CAknGridView20ClearUnusedItemSpaceEii @ 2970 NONAME
	_ZNK12CAknGridView23DataIndexFromLogicalPosERiii @ 2971 NONAME
	_ZNK12CAknGridView23LogicalPosFromDataIndexEiRiS0_ @ 2972 NONAME
	_ZNK12CAknGridView26ListBoxIndexFromLogicalPosERiii @ 2973 NONAME
	_ZNK12CAknGridView26LogicalPosFromListBoxIndexEiRiS0_ @ 2974 NONAME
	_ZNK12CAknGridView33CalcItemIndexFromRowAndColIndexesERiii @ 2975 NONAME
	_ZNK12CAknGridView33CalcRowAndColIndexesFromItemIndexEiRiS0_ @ 2976 NONAME
	_ZNK12CAknGridView34CalcNewTopItemIndexSoItemIsVisibleEi @ 2977 NONAME
	_ZNK12CAknGridView4DrawEPK5TRect @ 2978 NONAME
	_ZNK12CAknGridView7ItemPosEi @ 2979 NONAME
	_ZNK12CAknGridView8DrawItemEi @ 2980 NONAME
	_ZNK12CAknGridView8ItemSizeEi @ 2981 NONAME
	_ZNK12CAknTabGroup11ActiveTabIdEv @ 2982 NONAME
	_ZNK12CAknTabGroup11IsTabDimmedEi @ 2983 NONAME
	_ZNK12CAknTabGroup14ActiveTabIndexEv @ 2984 NONAME
	_ZNK12CAknTabGroup14PrepareContextER9CWindowGc @ 2985 NONAME
	_ZNK12CAknTabGroup14TabIdFromIndexEi @ 2986 NONAME
	_ZNK12CAknTabGroup14TabIndexFromIdEi @ 2987 NONAME
	_ZNK12CAknTabGroup16ComponentControlEi @ 2988 NONAME
	_ZNK12CAknTabGroup16GetColorUseListLER9CArrayFixI12TCoeColorUseE @ 2989 NONAME
	_ZNK12CAknTabGroup22CountComponentControlsEv @ 2990 NONAME
	_ZNK12CAknTabGroup4DrawERK5TRect @ 2991 NONAME
	_ZNK12CAknTabGroup8TabCountEv @ 2992 NONAME
	_ZNK13CAknAppServer14CreateServiceLE4TUid @ 2993 NONAME
	_ZNK13CAknAppUiBase11OrientationEv @ 2994 NONAME
	_ZNK13CAknAppUiBase12EventMonitorEv @ 2995 NONAME
	_ZNK13CAknAppUiBase12IsForegroundEv @ 2996 NONAME
	_ZNK13CAknAppUiBase15ApplicationRectEv @ 2997 NONAME
	_ZNK13CAknAppUiBase15IsFullScreenAppEv @ 2998 NONAME
	_ZNK13CAknAppUiBase16IsLayoutAwareAppEv @ 2999 NONAME
	_ZNK13CAknAppUiBase19IsPartialForegroundEv @ 3000 NONAME
	_ZNK13CAknAppUiBase7IsFadedEv @ 3001 NONAME
	_ZNK13CAknAppUiBase9KeySoundsEv @ 3002 NONAME
	_ZNK13CAknNaviLabel4DrawERK5TRect @ 3003 NONAME
	_ZNK13CAknPopupForm11SoundSystemEv @ 3004 NONAME
	_ZNK13CAknPopupForm16ComponentControlEi @ 3005 NONAME
	_ZNK13CAknPopupForm22CountComponentControlsEv @ 3006 NONAME
	_ZNK13CAknPopupForm23GetControlByControlTypeEi @ 3007 NONAME
	_ZNK13CAknPopupForm24GetControlByControlTypeLE21TPopupFormControlType @ 3008 NONAME
	_ZNK13CAknPopupForm4DrawERK5TRect @ 3009 NONAME
	_ZNK13CAknPopupList16ComponentControlEi @ 3010 NONAME
	_ZNK13CAknPopupList22CountComponentControlsEv @ 3011 NONAME
	_ZNK13CAknPopupList4DrawERK5TRect @ 3012 NONAME
	_ZNK13CAknPopupList6LayoutEv @ 3013 NONAME
	_ZNK13CAknPopupList7FindBoxEv @ 3014 NONAME
	_ZNK13CAknPopupList7HeadingEv @ 3015 NONAME
	_ZNK13CAknPopupList7ListBoxEv @ 3016 NONAME
	_ZNK13CAknSoundInfo12ExternalizeLER12RWriteStream @ 3017 NONAME
	_ZNK13CAknTitlePane14PrepareContextER9CWindowGc @ 3018 NONAME
	_ZNK13CAknTitlePane16ComponentControlEi @ 3019 NONAME
	_ZNK13CAknTitlePane22CountComponentControlsEv @ 3020 NONAME
	_ZNK13CAknTitlePane4DrawERK5TRect @ 3021 NONAME
	_ZNK13CAknViewAppUi4ViewE4TUid @ 3022 NONAME
	_ZNK14CAknAnimatedGc6DeviceEv @ 3023 NONAME
	_ZNK14CAknInputFrame5FieldEv @ 3024 NONAME
	_ZNK14CAknItemFinder18ReformatOnRolloverEv @ 3025 ABSENT
	_ZNK14CAknItemFinder19ReformatOnRecogniseEv @ 3026 ABSENT
	_ZNK14CAknLayoutFont12FontCategoryEv @ 3027 NONAME
	_ZNK14CAknLayoutFont14TextPaneHeightEv @ 3028 NONAME
	_ZNK14CAknLayoutFont21TextPaneTopToBaselineEv @ 3029 NONAME
	_ZNK14CAknLayoutFont24BaselineToTextPaneBottomEv @ 3030 NONAME
	_ZNK14CAknNoteDialog11SoundSystemEv @ 3031 NONAME
	_ZNK14CAknNoteDialog18ReportUserActivityEv @ 3032 NONAME
	_ZNK14CAknPopupField16ComponentControlEi @ 3033 NONAME
	_ZNK14CAknPopupField22CountComponentControlsEv @ 3034 NONAME
	_ZNK14CAknPopupField4DrawERK5TRect @ 3035 NONAME
	_ZNK14CAknPopupField8NumLinesEv @ 3036 NONAME
	_ZNK14CAknSignalPane16ComponentControlEi @ 3037 NONAME
	_ZNK14CAknSignalPane22CountComponentControlsEv @ 3038 NONAME
	_ZNK14CAknSignalPane4DrawERK5TRect @ 3039 NONAME
	_ZNK14TAknLayoutRect15DrawOutLineRectER9CWindowGc @ 3040 NONAME
	_ZNK14TAknLayoutRect4RectEv @ 3041 NONAME
	_ZNK14TAknLayoutRect5ColorEv @ 3042 NONAME
	_ZNK14TAknLayoutRect8DrawRectER9CWindowGc @ 3043 NONAME
	_ZNK14TAknLayoutRect9DrawImageER14CBitmapContextP10CFbsBitmapS3_ @ 3044 NONAME
	_ZNK14TAknLayoutText8DrawTextER16CGraphicsContextRK7TDesC16 @ 3045 NONAME
	_ZNK14TAknLayoutText8DrawTextER16CGraphicsContextRK7TDesC16i @ 3046 NONAME
	_ZNK14TAknLayoutText8DrawTextER16CGraphicsContextRK7TDesC16iRK4TRgb @ 3047 NONAME
	_ZNK14TAknLayoutText8TextRectEv @ 3048 NONAME
	_ZNK15CAknApplication13OpenIniFileLCER3RFs @ 3049 NONAME
	_ZNK15CAknBatteryPane16ComponentControlEi @ 3050 NONAME
	_ZNK15CAknBatteryPane22CountComponentControlsEv @ 3051 NONAME
	_ZNK15CAknBatteryPane4DrawERK5TRect @ 3052 NONAME
	_ZNK15CAknContextPane16ComponentControlEi @ 3053 NONAME
	_ZNK15CAknContextPane22CountComponentControlsEv @ 3054 NONAME
	_ZNK15CAknContextPane4DrawERK5TRect @ 3055 NONAME
	_ZNK15CAknContextPane7PictureEv @ 3056 NONAME
	_ZNK15CAknEcsDetector12CurrentMatchEv @ 3057 NONAME
	_ZNK15CAknNoteControl10NoteHeightEv @ 3058 NONAME
	_ZNK15CAknNoteControl13NumberOfLinesEv @ 3059 NONAME
	_ZNK15CAknNoteControl9NoteWidthEv @ 3060 NONAME
	_ZNK15CAknQueryDialog12QueryControlEv @ 3061 NONAME
	_ZNK15CAknQueryDialog12QueryHeadingEv @ 3062 NONAME
	_ZNK15CAknQueryDialog6PromptEv @ 3063 NONAME
	_ZNK15CAknQueryDialog7HeadingEv @ 3064 NONAME
	_ZNK15CAknSearchField10TextLengthEv @ 3065 NONAME
	_ZNK15CAknSearchField13GetSearchTextER6TDes16 @ 3066 NONAME
	_ZNK15CAknSearchField6EditorEv @ 3067 NONAME
	_ZNK15CAknSettingItem10IdentifierEv @ 3068 NONAME
	_ZNK15CAknSettingItem11SettingPageEv @ 3069 NONAME
	_ZNK15CAknSettingItem13EmptyItemTextEv @ 3070 NONAME
	_ZNK15CAknSettingItem13SettingNumberEv @ 3071 NONAME
	_ZNK15CAknSettingItem15IsNumberedStyleEv @ 3072 NONAME
	_ZNK15CAknSettingItem16SettingPageFlagsEv @ 3073 NONAME
	_ZNK15CAknSettingItem20AssociatedResourceIdEv @ 3074 NONAME
	_ZNK15CAknSettingItem21SettingPageResourceIdEv @ 3075 NONAME
	_ZNK15CAknSettingItem23SettingEditorResourceIdEv @ 3076 NONAME
	_ZNK15CAknSettingItem7HasIconEv @ 3077 NONAME
	_ZNK15CAknSettingItem8IsHiddenEv @ 3078 NONAME
	_ZNK15CAknSettingPage10IsNumberedEv @ 3079 NONAME
	_ZNK15CAknSettingPage11MenuShowingEv @ 3080 NONAME
	_ZNK15CAknSettingPage12DataValidityEv @ 3081 NONAME
	_ZNK15CAknSettingPage13EditorControlEv @ 3082 NONAME
	_ZNK15CAknSettingPage13SettingNumberEv @ 3083 NONAME
	_ZNK15CAknSettingPage16ComponentControlEi @ 3084 NONAME
	_ZNK15CAknSettingPage19WriteInternalStateLER12RWriteStream @ 3085 NONAME
	_ZNK15CAknSettingPage20DefaultCbaResourceIdEv @ 3086 NONAME
	_ZNK15CAknSettingPage22CountComponentControlsEv @ 3087 NONAME
	_ZNK15CAknSettingPage24InvalidDataCbaResourceIdEv @ 3088 NONAME
	_ZNK15CAknSettingPage3CbaEv @ 3089 NONAME
	_ZNK15CAknSettingPage4DrawERK5TRect @ 3090 NONAME
	_ZNK15CAknSettingPage8BaseDrawERK5TRect @ 3091 NONAME
	_ZNK15CAknSettingPage9SettingIdEv @ 3092 NONAME
	_ZNK15CAknVolumePopup5ValueEv @ 3093 NONAME
	_ZNK16CAknGMSStyleGrid4DrawERK5TRect @ 3094 NONAME
	_ZNK16CAknQueryControl11GetDurationEv @ 3095 NONAME
	_ZNK16CAknQueryControl13GetTextLengthEv @ 3096 NONAME
	_ZNK16CAknQueryControl16NbrOfEditorLinesEv @ 3097 NONAME
	_ZNK16CAknQueryControl16NbrOfPromptLinesEv @ 3098 NONAME
	_ZNK16CAknQueryControl18GetTextEntryLengthEv @ 3099 NONAME
	_ZNK16CAknQueryControl23GetFloatingPointNumberLEv @ 3100 NONAME
	_ZNK16CAknQueryControl7GetTextER6TDes16 @ 3101 NONAME
	_ZNK16CAknQueryControl7GetTimeEv @ 3102 NONAME
	_ZNK16CAknQueryControl9GetNumberEv @ 3103 NONAME
	_ZNK17AknPopupListEmptyI24CEikFormattedCellListBoxE4DrawERK5TRect @ 3104 NONAME
	_ZNK17CAknColumnListBox36AdjustRectHeightToWholeNumberOfItemsER5TRect @ 3105 NONAME
	_ZNK17CAknGenericReader7CmdItemEi @ 3106 NONAME
	_ZNK17CAknGenericReader7GfxItemEi @ 3107 NONAME
	_ZNK17CAknGenericReader8AreaItemEi @ 3108 NONAME
	_ZNK17CAknGenericReader8TextItemEi @ 3109 NONAME
	_ZNK17CAknVolumeControl5ValueEv @ 3110 NONAME
	_ZNK18CAknPopupFieldList18__DbgTestInvariantEv @ 3111 NONAME
	_ZNK18CAknPopupFieldList7ListBoxEv @ 3112 NONAME
	_ZNK18CAknPopupFieldText17CurrentValueIndexEv @ 3113 NONAME
	_ZNK18CAknPopupFieldText8MdcArrayEv @ 3114 NONAME
	_ZNK18CAknQueryValueDate17CurrentValueIndexEv @ 3115 NONAME
	_ZNK18CAknQueryValueDate5ValueEv @ 3116 NONAME
	_ZNK18CAknQueryValueDate8MdcArrayEv @ 3117 NONAME
	_ZNK18CAknQueryValueText17CurrentValueIndexEv @ 3118 NONAME
	_ZNK18CAknQueryValueText5ValueEv @ 3119 NONAME
	_ZNK18CAknQueryValueText8MdcArrayEv @ 3120 NONAME
	_ZNK18CAknQueryValueTime17CurrentValueIndexEv @ 3121 NONAME
	_ZNK18CAknQueryValueTime5ValueEv @ 3122 NONAME
	_ZNK18CAknQueryValueTime8MdcArrayEv @ 3123 NONAME
	_ZNK18CSearchFieldEditor17InputCapabilitiesEv @ 3124 NONAME
	_ZNK18CSelectionItemList9MdcaCountEv @ 3125 NONAME
	_ZNK18CSelectionItemList9MdcaPointEi @ 3126 NONAME
	_ZNK19CAknBitmapAnimation14BitmapAnimDataEv @ 3127 NONAME
	_ZNK19CAknDateSettingPage19WriteInternalStateLER12RWriteStream @ 3128 NONAME
	_ZNK19CAknExtQueryControl14GetInetAddressEv @ 3129 NONAME
	_ZNK19CAknExtQueryControl19GetFixedPointNumberEv @ 3130 NONAME
	_ZNK19CAknListQueryDialog10MessageBoxEv @ 3131 NONAME
	_ZNK19CAknListQueryDialog11ListControlEv @ 3132 NONAME
	_ZNK19CAknListQueryDialog12QueryHeadingEv @ 3133 NONAME
	_ZNK19CAknListQueryDialog7FindBoxEv @ 3134 NONAME
	_ZNK19CAknListQueryDialog7ListBoxEv @ 3135 NONAME
	_ZNK19CAknMfneSettingPage16ComponentControlEi @ 3136 NONAME
	_ZNK19CAknMfneSettingPage22CountComponentControlsEv @ 3137 NONAME
	_ZNK19CAknMfneSettingPage4DrawERK5TRect @ 3138 NONAME
	_ZNK19CAknMfneSettingPage4MfneEv @ 3139 NONAME
	_ZNK19CAknQueryValuePhone17CurrentValueIndexEv @ 3140 NONAME
	_ZNK19CAknQueryValuePhone5ValueEv @ 3141 NONAME
	_ZNK19CAknQueryValuePhone8MdcArrayEv @ 3142 NONAME
	_ZNK19CAknSetStyleListBox4DrawERK5TRect @ 3143 NONAME
	_ZNK19CAknSettingItemList16ComponentControlEi @ 3144 NONAME
	_ZNK19CAknSettingItemList16SettingItemArrayEv @ 3145 NONAME
	_ZNK19CAknSettingItemList22CountComponentControlsEv @ 3146 NONAME
	_ZNK19CAknTextQueryDialog18CheckIfEntryTextOkEv @ 3147 NONAME
	_ZNK19CAknTextSettingPage19WriteInternalStateLER12RWriteStream @ 3148 NONAME
	_ZNK19CAknTimeSettingPage19WriteInternalStateLER12RWriteStream @ 3149 NONAME
	_ZNK19CEikSettingsListBox10ItemDrawerEv @ 3150 NONAME
	_ZNK19RAknEikAppUiSession12ShutdownAppsE4TUidi @ 3151 NONAME
	_ZNK19RAknEikAppUiSession13IsSystemFadedERi @ 3152 NONAME
	_ZNK20CAknEdwinSettingPage4DrawERK5TRect @ 3153 NONAME
	_ZNK20CAknFontIdLayoutFont6FontIdEv @ 3154 NONAME
	_ZNK20CAknGMSStyleGridView4DrawEPK5TRect @ 3155 NONAME
	_ZNK20CAknListQueryControl16ComponentControlEi @ 3156 NONAME
	_ZNK20CAknListQueryControl22CountComponentControlsEv @ 3157 NONAME
	_ZNK20CAknListQueryControl4DrawERK5TRect @ 3158 NONAME
	_ZNK20CAknPopupHeadingPane10PromptTextEv @ 3159 NONAME
	_ZNK20CAknPopupHeadingPane4DrawERK5TRect @ 3160 NONAME
	_ZNK20CAknPopupHeadingPane6PromptEv @ 3161 NONAME
	_ZNK20CAknPopupSettingList8NumLinesEv @ 3162 NONAME
	_ZNK20CAknPopupSettingPage10QueryValueEv @ 3163 NONAME
	_ZNK20CAknPopupSettingPage14ListBoxControlEv @ 3164 NONAME
	_ZNK20CAknPopupSettingPage19PopupSettingListBoxEv @ 3165 NONAME
	_ZNK20CAknPopupSettingPage19WriteInternalStateLER12RWriteStream @ 3166 NONAME
	_ZNK20CAknQueryValueNumber17CurrentValueIndexEv @ 3167 NONAME
	_ZNK20CAknQueryValueNumber5ValueEv @ 3168 NONAME
	_ZNK20CAknQueryValueNumber8MdcArrayEv @ 3169 NONAME
	_ZNK20CAknSettingItemArray12VisibleCountEv @ 3170 NONAME
	_ZNK20CAknSettingItemArray25ItemIndexFromVisibleIndexEi @ 3171 NONAME
	_ZNK20CAknSettingItemArray9MdcaCountEv @ 3172 NONAME
	_ZNK20CAknSettingItemArray9MdcaPointEi @ 3173 NONAME
	_ZNK20CSettingsListBoxData4DrawERK19TListItemPropertiesR9CWindowGcPK7TDesC16RK5TRectiRKN25CFormattedCellListBoxData7TColorsE @ 3174 NONAME
	_ZNK20CSettingsListBoxView4DrawEPK5TRect @ 3175 NONAME
	_ZNK20CSettingsListBoxView8DrawItemEi @ 3176 NONAME
	_ZNK21CAknColumnListBoxView13DrawEmptyListERK5TRect @ 3177 NONAME
	_ZNK21CAknPhoneNumberEditor10TextLengthEv @ 3178 NONAME
	_ZNK21CAknPhoneNumberEditor12CountFormatsEv @ 3179 NONAME
	_ZNK21CAknPhoneNumberEditor13GetEditorModeEv @ 3180 NONAME
	_ZNK21CAknPhoneNumberEditor14GetTextInHBufLEv @ 3181 NONAME
	_ZNK21CAknPhoneNumberEditor15LineCursorWidthEv @ 3182 NONAME
	_ZNK21CAknPhoneNumberEditor15SelectionLengthEv @ 3183 NONAME
	_ZNK21CAknPhoneNumberEditor17InputCapabilitiesEv @ 3184 NONAME
	_ZNK21CAknPhoneNumberEditor18CurrentFormatIndexEv @ 3185 NONAME
	_ZNK21CAknPhoneNumberEditor20WouldTextFitInFormatEi @ 3186 NONAME
	_ZNK21CAknPhoneNumberEditor4DrawERK5TRect @ 3187 NONAME
	_ZNK21CAknPhoneNumberEditor4TextEi @ 3188 NONAME
	_ZNK21CAknPhoneNumberEditor6FormatEi @ 3189 NONAME
	_ZNK21CAknPhoneNumberEditor7GetTextER6TDes16 @ 3190 NONAME
	_ZNK21CAknPhoneNumberEditor7MarginsEv @ 3191 NONAME
	_ZNK21CAknPhoneNumberEditor9CursorPosEv @ 3192 NONAME
	_ZNK21CAknPhoneNumberEditor9SelectionEv @ 3193 NONAME
	_ZNK21CAknSliderSettingPage19WriteInternalStateLER12RWriteStream @ 3194 NONAME
	_ZNK21CAknSliderSettingPage4DrawERK5TRect @ 3195 NONAME
	_ZNK21CAknVolumeSettingPage19WriteInternalStateLER12RWriteStream @ 3196 NONAME
	_ZNK21CAknVolumeSettingPage4DrawERK5TRect @ 3197 NONAME
	_ZNK21TAknSyncControlDrawer14MasrActivateGcEv @ 3198 NONAME
	_ZNK21TAknSyncControlDrawer16MasrDeactivateGcEv @ 3199 NONAME
	_ZNK22CAknEnumeratedItemBase16EnumerationValueEv @ 3200 NONAME
	_ZNK22CAknEnumeratedItemBase5ValueEv @ 3201 NONAME
	_ZNK22CAknIndicatorContainer16ComponentControlEi @ 3202 NONAME
	_ZNK22CAknIndicatorContainer16IndicatorContextEv @ 3203 NONAME
	_ZNK22CAknIndicatorContainer22CountComponentControlsEv @ 3204 NONAME
	_ZNK22CAknIndicatorContainer4DrawERK5TRect @ 3205 NONAME
	_ZNK22CAknIntegerSettingPage19WriteInternalStateLER12RWriteStream @ 3206 NONAME
	_ZNK22CAknIpFieldSettingPage19WriteInternalStateLER12RWriteStream @ 3207 NONAME
	_ZNK22CAknListBoxFilterItems16VisibleItemIndexEi @ 3208 NONAME
	_ZNK22CAknListBoxFilterItems17FilteredItemIndexEi @ 3209 NONAME
	_ZNK22CAknListBoxFilterItems21FilteredNumberOfItemsEv @ 3210 NONAME
	_ZNK22CAknListBoxFilterItems24NonFilteredNumberOfItemsEv @ 3211 NONAME
	_ZNK22CAknListBoxFilterItems7FindBoxEv @ 3212 NONAME
	_ZNK22CAknListBoxSettingPage4DrawERK5TRect @ 3213 NONAME
	_ZNK22CAknQueryValueDuration17CurrentValueIndexEv @ 3214 NONAME
	_ZNK22CAknQueryValueDuration5ValueEv @ 3215 NONAME
	_ZNK22CAknQueryValueDuration8MdcArrayEv @ 3216 NONAME
	_ZNK22CFormattedCellGridData4DrawE19TListItemPropertiesR9CWindowGcPK7TDesC16RK5TRectiRKN25CFormattedCellListBoxData7TColorsE @ 3217 NONAME
	_ZNK22TAknDesCArrayDecorator14DecoratedIndexERi @ 3218 NONAME
	_ZNK22TAknDesCArrayDecorator18__DbgTestInvariantEv @ 3219 NONAME
	_ZNK22TAknDesCArrayDecorator9MdcaCountEv @ 3220 NONAME
	_ZNK22TAknDesCArrayDecorator9MdcaPointEi @ 3221 NONAME
	_ZNK23AknListBoxLinesTemplateI17CAknColumnListBoxE16ComponentControlEi @ 3222 NONAME
	_ZNK23AknListBoxLinesTemplateI17CAknColumnListBoxE22CountComponentControlsEv @ 3223 NONAME
	_ZNK23AknListBoxLinesTemplateI17CAknColumnListBoxE4DrawERK5TRect @ 3224 NONAME
	_ZNK23AknListBoxLinesTemplateI19CEikSettingsListBoxE16ComponentControlEi @ 3225 NONAME
	_ZNK23AknListBoxLinesTemplateI19CEikSettingsListBoxE22CountComponentControlsEv @ 3226 NONAME
	_ZNK23AknListBoxLinesTemplateI19CEikSettingsListBoxE4DrawERK5TRect @ 3227 NONAME
	_ZNK23AknListBoxLinesTemplateI24CEikFormattedCellListBoxE16ComponentControlEi @ 3228 NONAME
	_ZNK23AknListBoxLinesTemplateI24CEikFormattedCellListBoxE22CountComponentControlsEv @ 3229 NONAME
	_ZNK23AknListBoxLinesTemplateI24CEikFormattedCellListBoxE4DrawERK5TRect @ 3230 NONAME
	_ZNK23CAknCheckBoxSettingPage14ListBoxControlEv @ 3231 NONAME
	_ZNK23CAknCheckBoxSettingPage19WriteInternalStateLER12RWriteStream @ 3232 NONAME
	_ZNK23CAknDurationSettingPage19WriteInternalStateLER12RWriteStream @ 3233 NONAME
	_ZNK23CAknMessageQueryControl4DrawERK5TRect @ 3234 NONAME
	_ZNK23CAknNavigationDecorator11ControlTypeEv @ 3235 NONAME
	_ZNK23CAknNavigationDecorator16ComponentControlEi @ 3236 NONAME
	_ZNK23CAknNavigationDecorator19ScrollButtonVisibleEv @ 3237 NONAME
	_ZNK23CAknNavigationDecorator20IsScrollButtonDimmedENS_13TScrollButtonE @ 3238 NONAME
	_ZNK23CAknNavigationDecorator22CountComponentControlsEv @ 3239 NONAME
	_ZNK23CAknNavigationDecorator4DrawERK5TRect @ 3240 NONAME
	_ZNK23CAknNumericSecretEditor17InputCapabilitiesEv @ 3241 NONAME
	_ZNK23CAknPasswordSettingPage11NewPasswordEv @ 3242 NONAME
	_ZNK23CAknPasswordSettingPage11OldPasswordEv @ 3243 NONAME
	_ZNK23CAknPasswordSettingPage16ComparePasswordsERK7TDesC16S2_NS_24TAknPasswordMatchingModeE @ 3244 NONAME
	_ZNK23CAknPasswordSettingPage17MaxPasswordLengthEv @ 3245 NONAME
	_ZNK23CAknPasswordSettingPage19WriteInternalStateLER12RWriteStream @ 3246 NONAME
	_ZNK23CAknPasswordSettingPage33NewPasswordConfirmationResourceIdEv @ 3247 NONAME
	_ZNK23CAknPasswordSettingPage33OldPasswordConfirmationResourceIdEv @ 3248 NONAME
	_ZNK23CAknPasswordSettingPage4DrawERK5TRect @ 3249 NONAME
	_ZNK23CAknPhoneNumberGrouping15FormattedNumberEv @ 3250 NONAME
	_ZNK23CAknPhoneNumberGrouping19CopyFormattedNumberER6TDes16 @ 3251 NONAME
	_ZNK23CAknQueryValueDateArray12FormatStringEv @ 3252 NONAME
	_ZNK23CAknQueryValueDateArray19FormattedStringSizeEv @ 3253 NONAME
	_ZNK23CAknQueryValueDateArray5ArrayEv @ 3254 NONAME
	_ZNK23CAknQueryValueDateArray9MdcaCountEv @ 3255 NONAME
	_ZNK23CAknQueryValueDateArray9MdcaPointEi @ 3256 NONAME
	_ZNK23CAknQueryValueTextArray19FormattedStringSizeEv @ 3257 NONAME
	_ZNK23CAknQueryValueTextArray5ArrayEv @ 3258 NONAME
	_ZNK23CAknQueryValueTextArray9MdcaCountEv @ 3259 NONAME
	_ZNK23CAknQueryValueTextArray9MdcaPointEi @ 3260 NONAME
	_ZNK23CAknQueryValueTimeArray12FormatStringEv @ 3261 NONAME
	_ZNK23CAknQueryValueTimeArray19FormattedStringSizeEv @ 3262 NONAME
	_ZNK23CAknQueryValueTimeArray5ArrayEv @ 3263 NONAME
	_ZNK23CAknQueryValueTimeArray9MdcaCountEv @ 3264 NONAME
	_ZNK23CAknQueryValueTimeArray9MdcaPointEi @ 3265 NONAME
	_ZNK23CAknSelectionListDialog16ComponentControlEi @ 3266 NONAME
	_ZNK23CAknSelectionListDialog22CountComponentControlsEv @ 3267 NONAME
	_ZNK23CAknSelectionListDialog22IsFormattedCellListBoxEv @ 3268 NONAME
	_ZNK23CAknSelectionListDialog23IsAcceptableListBoxTypeEiRi @ 3269 NONAME
	_ZNK23CAknSelectionListDialog4DrawERK5TRect @ 3270 NONAME
	_ZNK23CAknSelectionListDialog7FindBoxEv @ 3271 NONAME
	_ZNK23CAknSelectionListDialog7ListBoxEv @ 3272 NONAME
	_ZNK23CAknSelectionListDialog9IconArrayEv @ 3273 NONAME
	_ZNK23CAknSetStyleListBoxView13DrawEmptyListERK5TRect @ 3274 NONAME
	_ZNK23CFormGraphicListBoxData4DrawE19TListItemPropertiesR9CWindowGcPK7TDesC16RK5TRectiRKN25CFormattedCellListBoxData7TColorsE @ 3275 NONAME
	_ZNK23CSingleHeadingStyleView13DrawEmptyListERK5TRect @ 3276 NONAME
	_ZNK23CSingleHeadingStyleView4DrawEPK5TRect @ 3277 NONAME
	_ZNK24CAknIpAddressQueryDialog12QueryControlEv @ 3278 NONAME
	_ZNK24CAknQueryValuePhoneArray19FormattedStringSizeEv @ 3279 NONAME
	_ZNK24CAknQueryValuePhoneArray5ArrayEv @ 3280 NONAME
	_ZNK24CAknQueryValuePhoneArray9MdcaCountEv @ 3281 NONAME
	_ZNK24CAknQueryValuePhoneArray9MdcaPointEi @ 3282 NONAME
	_ZNK24CEikFormattedCellListBox10ItemDrawerEv @ 3283 NONAME
	_ZNK24CEikFormattedCellListBox16GetColorUseListLER9CArrayFixI12TCoeColorUseE @ 3284 NONAME
	_ZNK24CEikFormattedCellListBox36AdjustRectHeightToWholeNumberOfItemsER5TRect @ 3285 NONAME
	_ZNK24CEikFormattedCellListBox5ModelEv @ 3286 NONAME
	_ZNK25CAknFixedPointQueryDialog12QueryControlEv @ 3287 NONAME
	_ZNK25CAknMultilineQueryControl7IsFirstEv @ 3288 NONAME
	_ZNK25CAknMultilineQueryControl8IsSecondEv @ 3289 NONAME
	_ZNK25CAknQueryValueNumberArray12FormatStringEv @ 3290 NONAME
	_ZNK25CAknQueryValueNumberArray19FormattedStringSizeEv @ 3291 NONAME
	_ZNK25CAknQueryValueNumberArray5ArrayEv @ 3292 NONAME
	_ZNK25CAknQueryValueNumberArray9MdcaCountEv @ 3293 NONAME
	_ZNK25CAknQueryValueNumberArray9MdcaPointEi @ 3294 NONAME
	_ZNK25CAknTimeOffsetSettingPage19WriteInternalStateLER12RWriteStream @ 3295 NONAME
	_ZNK25CFormattedCellListBoxData10LayoutDataEv @ 3296 NONAME
	_ZNK25CFormattedCellListBoxData10LayoutInitEv @ 3297 NONAME
	_ZNK25CFormattedCellListBoxData11SkinEnabledEv @ 3298 NONAME
	_ZNK25CFormattedCellListBoxData11SubCellFontEi @ 3299 NONAME
	_ZNK25CFormattedCellListBoxData11SubCellSizeEi @ 3300 NONAME
	_ZNK25CFormattedCellListBoxData12RespectFocusEv @ 3301 NONAME
	_ZNK25CFormattedCellListBoxData13DrawFormattedE19TListItemPropertiesR9CWindowGcPK7TDesC16RK5TRectiRKNS_7TColorsE @ 3302 NONAME
	_ZNK25CFormattedCellListBoxData13SubCellColorsEi @ 3303 NONAME
	_ZNK25CFormattedCellListBoxData14SubCellMarginsEi @ 3304 NONAME
	_ZNK25CFormattedCellListBoxData15SubCellPositionEi @ 3305 NONAME
	_ZNK25CFormattedCellListBoxData16SubCellAlignmentEi @ 3306 NONAME
	_ZNK25CFormattedCellListBoxData16UseSubCellColorsEi @ 3307 NONAME
	_ZNK25CFormattedCellListBoxData17RowAndSubCellFontEii @ 3308 NONAME
	_ZNK25CFormattedCellListBoxData17SubCellIsGraphicsEi @ 3309 NONAME
	_ZNK25CFormattedCellListBoxData18SubCellBaselinePosEi @ 3310 NONAME
	_ZNK25CFormattedCellListBoxData18SubCellTextClipGapEi @ 3311 NONAME
	_ZNK25CFormattedCellListBoxData19SubCellIsNumberCellEi @ 3312 NONAME
	_ZNK25CFormattedCellListBoxData20SubCellIsTransparentEi @ 3313 NONAME
	_ZNK25CFormattedCellListBoxData21SeparatorLinePositionEv @ 3314 NONAME
	_ZNK25CFormattedCellListBoxData21SkinBackgroundContextEv @ 3315 NONAME
	_ZNK25CFormattedCellListBoxData23SubCellIsNotAlwaysDrawnEi @ 3316 NONAME
	_ZNK25CFormattedCellListBoxData26SubCellRightSeparatorStyleEi @ 3317 NONAME
	_ZNK25CFormattedCellListBoxData4DrawE19TListItemPropertiesR9CWindowGcPK7TDesC16RK5TRectiRKNS_7TColorsE @ 3318 NONAME
	_ZNK25CFormattedCellListBoxData4FontERK19TListItemPropertiesi @ 3319 NONAME
	_ZNK25CFormattedCellListBoxData7ControlEv @ 3320 NONAME
	_ZNK25CFormattedCellListBoxData9IconArrayEv @ 3321 NONAME
	_ZNK25CFormattedCellListBoxView13DrawEmptyListERK5TRect @ 3322 NONAME
	_ZNK25CFormattedCellListBoxView4DrawEPK5TRect @ 3323 NONAME
	_ZNK25TAknTextDecorationMetrics11CursorWidthEv @ 3324 NONAME
	_ZNK25TAknTextDecorationMetrics15UnderlineHeightEv @ 3325 NONAME
	_ZNK25TAknTextDecorationMetrics22GetLeftAndRightMarginsERiS0_ @ 3326 NONAME
	_ZNK25TAknTextDecorationMetrics22GetTopAndBottomMarginsERiS0_ @ 3327 NONAME
	_ZNK25TAknTextDecorationMetrics25BaselineToUnderlineOffsetEv @ 3328 NONAME
	_ZNK26CAknListBoxLayoutDecorator18__DbgTestInvariantEv @ 3329 NONAME
	_ZNK26CAknListBoxLayoutDecorator36CAknListBoxLayoutDecorator_Reserved1Ev @ 3330 NONAME
	_ZNK26CAknListBoxLayoutDecorator5ArrayEv @ 3331 NONAME
	_ZNK26CAknListBoxLayoutDecorator9MdcaCountEv @ 3332 NONAME
	_ZNK26CAknListBoxLayoutDecorator9MdcaPointEi @ 3333 NONAME
	_ZNK26CAknMultiLineIpQueryDialog12FirstControlEv @ 3334 NONAME
	_ZNK26CAknMultiLineIpQueryDialog12QueryControlEv @ 3335 NONAME
	_ZNK26CAknMultiLineIpQueryDialog12SecondPromptEv @ 3336 NONAME
	_ZNK26CAknMultiLineIpQueryDialog13SecondControlEv @ 3337 NONAME
	_ZNK26CAknRadioButtonSettingPage14ListBoxControlEv @ 3338 NONAME
	_ZNK26CAknRadioButtonSettingPage19WriteInternalStateLER12RWriteStream @ 3339 NONAME
	_ZNK26CPopupFormattedListBoxData4DrawE19TListItemPropertiesR9CWindowGcPK7TDesC16RK5TRectiRKN25CFormattedCellListBoxData7TColorsE @ 3340 NONAME
	_ZNK26CSettingsListBoxItemDrawer12DrawItemTextEiRK5TRectiii @ 3341 NONAME
	_ZNK26CSettingsListBoxItemDrawer12SettingsDataEv @ 3342 NONAME
	_ZNK27CAknFormGraphicStyleListBox36AdjustRectHeightToWholeNumberOfItemsER5TRect @ 3343 NONAME
	_ZNK27CAknQueryValueDurationArray12FormatStringEv @ 3344 NONAME
	_ZNK27CAknQueryValueDurationArray14FormatDurationER6TPtr1620TTimeIntervalSeconds @ 3345 NONAME
	_ZNK27CAknQueryValueDurationArray19FormattedStringSizeEv @ 3346 NONAME
	_ZNK27CAknQueryValueDurationArray5ArrayEv @ 3347 NONAME
	_ZNK27CAknQueryValueDurationArray9MdcaCountEv @ 3348 NONAME
	_ZNK27CAknQueryValueDurationArray9MdcaPointEi @ 3349 NONAME
	_ZNK27CDoubleLargeStyleItemDrawer8DrawItemEi6TPointiiii @ 3350 NONAME
	_ZNK28CAknAlphaPasswordSettingPage16ComparePasswordsERK7TDesC16S2_N23CAknPasswordSettingPage24TAknPasswordMatchingModeE @ 3351 NONAME
	_ZNK28CAknAlphaPasswordSettingPage19WriteInternalStateLER12RWriteStream @ 3352 NONAME
	_ZNK28CAknExtMultilineQueryControl7IsFirstEv @ 3353 NONAME
	_ZNK28CAknExtMultilineQueryControl8IsSecondEv @ 3354 NONAME
	_ZNK28CAknFilteredTextListBoxModel13NumberOfItemsEv @ 3355 NONAME
	_ZNK28CAknFilteredTextListBoxModel18MatchableTextArrayEv @ 3356 NONAME
	_ZNK28CAknFilteredTextListBoxModel6FilterEv @ 3357 NONAME
	_ZNK28CAknFilteredTextListBoxModel8ItemTextEi @ 3358 NONAME
	_ZNK28CAknFilteredTextListBoxModel9MdcaCountEv @ 3359 NONAME
	_ZNK28CAknFilteredTextListBoxModel9MdcaPointEi @ 3360 NONAME
	_ZNK28CAknMultiLineDataQueryDialog12FirstControlEv @ 3361 NONAME
	_ZNK28CAknMultiLineDataQueryDialog12QueryControlEv @ 3362 NONAME
	_ZNK28CAknMultiLineDataQueryDialog12QueryHeadingEv @ 3363 NONAME
	_ZNK28CAknMultiLineDataQueryDialog12SecondPromptEv @ 3364 NONAME
	_ZNK28CAknMultiLineDataQueryDialog13SecondControlEv @ 3365 NONAME
	_ZNK29CAknEnumeratedTextSettingItem13NumberOfItemsEv @ 3366 NONAME
	_ZNK29CAknEnumeratedTextSettingItem14IndexFromValueEi @ 3367 NONAME
	_ZNK29CAknEnumeratedTextSettingItem17PoppedUpTextArrayEv @ 3368 NONAME
	_ZNK29CAknEnumeratedTextSettingItem19EnumeratedTextArrayEv @ 3369 NONAME
	_ZNK29CAknEnumeratedTextSettingItem20SettingPageTextArrayEv @ 3370 NONAME
	_ZNK29CSingleHeadingStyleItemDrawer8DrawItemEi6TPointiiii @ 3371 NONAME
	_ZNK30CAknNavigationControlContainer16ComponentControlEi @ 3372 NONAME
	_ZNK30CAknNavigationControlContainer22CountComponentControlsEv @ 3373 NONAME
	_ZNK30CAknNavigationControlContainer4DrawERK5TRect @ 3374 NONAME
	_ZNK30CAknNumericPasswordSettingPage19WriteInternalStateLER12RWriteStream @ 3375 NONAME
	_ZNK30CSettingItemEditingListBoxData4DrawE19TListItemPropertiesR9CWindowGcPK7TDesC16RK5TRectiRKN25CFormattedCellListBoxData7TColorsE @ 3376 NONAME
	_ZNK31CFormattedCellListBoxItemDrawer10ColumnDataEv @ 3377 NONAME
	_ZNK31CFormattedCellListBoxItemDrawer10PropertiesEi @ 3378 NONAME
	_ZNK31CFormattedCellListBoxItemDrawer12DrawItemMarkEiiRK6TPoint @ 3379 NONAME
	_ZNK31CFormattedCellListBoxItemDrawer12DrawItemTextEiRK5TRectiii @ 3380 NONAME
	_ZNK31CFormattedCellListBoxItemDrawer13DrawEmptyItemEi6TPointi @ 3381 NONAME
	_ZNK31CFormattedCellListBoxItemDrawer15MinimumCellSizeEv @ 3382 NONAME
	_ZNK31CFormattedCellListBoxItemDrawer17FormattedCellDataEv @ 3383 NONAME
	_ZNK31CFormattedCellListBoxItemDrawer17ItemWidthInPixelsEi @ 3384 NONAME
	_ZNK32CAknTransparentCameraSettingPage14ListBoxControlEv @ 3385 NONAME
	_ZNK32CAknTransparentCameraSettingPage19WriteInternalStateLER12RWriteStream @ 3386 NONAME
	_ZNK32CAknTransparentCameraSettingPage4DrawERK5TRect @ 3387 NONAME
	_ZNK34CAknEnumeratedTextPopupSettingItem10QueryValueEv @ 3388 NONAME
	_ZNK34CAknEnumeratedTextPopupSettingItem13ExternalValueEv @ 3389 NONAME
	_ZNK34CAknEnumeratedTextPopupSettingItem13InternalValueEv @ 3390 NONAME
	_ZNK34CAknEnumeratedTextPopupSettingItem14IndexFromValueEi @ 3391 NONAME
	_ZNK34CAknEnumeratedTextPopupSettingItem17PoppedUpTextArrayEv @ 3392 NONAME
	_ZNK34CAknEnumeratedTextPopupSettingItem19EnumeratedTextArrayEv @ 3393 NONAME
	_ZNK35CWordWrappedFormattedCellItemDrawer12DrawItemTextEiRK5TRectiii @ 3394 NONAME
	_ZNK35CWordWrappedFormattedCellItemDrawer8DrawItemEi6TPointiiii @ 3395 NONAME
	_ZNK7CAknEnv12SettingCacheEv @ 3396 NONAME
	_ZNK7CAknEnv18GetCurrentLayoutIdER12TAknLayoutId @ 3397 NONAME
	_ZNK7CAknEnv31StatusPaneResIdForCurrentLayoutEi @ 3398 NONAME
	_ZNK7CAknEnv9AknLayoutEv @ 3399 NONAME
	_ZNK8CAknForm11UnsavedEditEv @ 3400 NONAME
	_ZNK8CAknForm8DeletingEv @ 3401 NONAME
	_ZNK8CAknGrid10ItemDrawerEv @ 3402 NONAME
	_ZNK8CAknGrid11ColumnWidthEv @ 3403 NONAME
	_ZNK8CAknGrid15IndexOfPositionE6TPoint @ 3404 NONAME
	_ZNK8CAknGrid15PositionAtIndexEi @ 3405 NONAME
	_ZNK8CAknGrid15SetTopItemIndexEi @ 3406 NONAME
	_ZNK8CAknGrid16CurrentDataIndexEv @ 3407 NONAME
	_ZNK8CAknGrid18AdjustTopItemIndexEv @ 3408 NONAME
	_ZNK8CAknGrid18__DbgTestInvariantEv @ 3409 NONAME
	_ZNK8CAknGrid20HorizontalNudgeValueEv @ 3410 NONAME
	_ZNK8CAknGrid21UpdateScrollBarThumbsEv @ 3411 NONAME
	_ZNK8CAknGrid22CountComponentControlsEv @ 3412 NONAME
	_ZNK8CAknGrid29RestoreClientRectFromViewRectER5TRect @ 3413 NONAME
	_ZNK8CAknGrid30HorizScrollGranularityInPixelsEv @ 3414 NONAME
	_ZNK8CAknGrid36AdjustRectHeightToWholeNumberOfItemsER5TRect @ 3415 NONAME
	_ZNK8CAknGrid5ModelEv @ 3416 NONAME
	_ZNK8CAknView10ClientRectEv @ 3417 NONAME
	_ZNK8CAknView10StatusPaneEv @ 3418 NONAME
	_ZNK8CAknView12IsForegroundEv @ 3419 NONAME
	_ZNK8CAknView3CbaEv @ 3420 NONAME
	_ZNK8CAknView5AppUiEv @ 3421 NONAME
	_ZNK8CAknView6RedrawEv @ 3422 NONAME
	_ZNK8CAknView6ViewIdEv @ 3423 NONAME
	_ZNK8CAknView7MenuBarEv @ 3424 NONAME
	_ZNK9CAknAppUi19IsAppShutterRunningEv @ 3425 NONAME
	_ZNK9CAknGridM12NumberOfDataEv @ 3426 NONAME
	_ZNK9CAknGridM13NumberOfItemsEv @ 3427 NONAME
	_ZNK9CAknGridM17IndexContainsDataEi @ 3428 NONAME
	_ZNK9CAknGridM19IndexOfLastDataItemEv @ 3429 NONAME
	_ZNK9CAknGridM20IndexOfFirstDataItemEv @ 3430 NONAME
	_ZNK9CAknGridM8ItemTextEi @ 3431 NONAME
	_ZTI10CAknDialog @ 3432 NONAME ; #<TI>#
	_ZTI10CAknSlider @ 3433 NONAME ; #<TI>#
	_ZTI11CAknCharMap @ 3434 NONAME ; #<TI>#
	_ZTI11CAknControl @ 3435 NONAME ; #<TI>#
	_ZTI12CAknDocument @ 3436 NONAME ; #<TI>#
	_ZTI12CAknGridView @ 3437 NONAME ; #<TI>#
	_ZTI12CAknTabGroup @ 3438 NONAME ; #<TI>#
	_ZTI13CAknAppServer @ 3439 NONAME ; #<TI>#
	_ZTI13CAknAppUiBase @ 3440 NONAME ; #<TI>#
	_ZTI13CAknErrorNote @ 3441 NONAME ; #<TI>#
	_ZTI13CAknIconArray @ 3442 NONAME ; #<TI>#
	_ZTI13CAknNaviLabel @ 3443 NONAME ; #<TI>#
	_ZTI13CAknPopupForm @ 3444 NONAME ; #<TI>#
	_ZTI13CAknPopupList @ 3445 NONAME ; #<TI>#
	_ZTI13CAknTitlePane @ 3446 NONAME ; #<TI>#
	_ZTI13CAknViewAppUi @ 3447 NONAME ; #<TI>#
	_ZTI14CAknLayoutData @ 3448 NONAME ABSENT ; #<TI>#
	_ZTI14CAknNoteDialog @ 3449 NONAME ; #<TI>#
	_ZTI14CAknPopupField @ 3450 NONAME ; #<TI>#
	_ZTI14CAknQueryValue @ 3451 NONAME ; #<TI>#
	_ZTI14CAknSignalPane @ 3452 NONAME ; #<TI>#
	_ZTI14CAknWaitDialog @ 3453 NONAME ; #<TI>#
	_ZTI14MAknQueryValue @ 3454 NONAME ; #<TI>#
	_ZTI14MAknSyncDrawer @ 3455 NONAME ; #<TI>#
	_ZTI15CAknApplication @ 3456 NONAME ; #<TI>#
	_ZTI15CAknBatteryPane @ 3457 NONAME ; #<TI>#
	_ZTI15CAknContextPane @ 3458 NONAME ; #<TI>#
	_ZTI15CAknEcsDetector @ 3459 NONAME ; #<TI>#
	_ZTI15CAknNoteControl @ 3460 NONAME ; #<TI>#
	_ZTI15CAknNoteWrapper @ 3461 NONAME ; #<TI>#
	_ZTI15CAknQueryDialog @ 3462 NONAME ; #<TI>#
	_ZTI15CAknSettingItem @ 3463 NONAME ; #<TI>#
	_ZTI15CAknSettingPage @ 3464 NONAME ; #<TI>#
	_ZTI15CAknWarningNote @ 3465 NONAME ; #<TI>#
	_ZTI15CSelectableItem @ 3466 NONAME ; #<TI>#
	_ZTI15TAknLineBreaker @ 3467 NONAME ; #<TI>#
	_ZTI16CAknAnimatedView @ 3468 NONAME ; #<TI>#
	_ZTI16CAknAppStyleGrid @ 3469 NONAME ; #<TI>#
	_ZTI16CAknGMSPopupGrid @ 3470 NONAME ; #<TI>#
	_ZTI16CAknGMSStyleGrid @ 3471 NONAME ; #<TI>#
	_ZTI16CAknIntegerEdwin @ 3472 NONAME ; #<TI>#
	_ZTI16CAknQueryControl @ 3473 NONAME ; #<TI>#
	_ZTI17AknPopupListEmptyI24CEikFormattedCellListBoxE @ 3474 NONAME ; #<TI>#
	_ZTI17CAknAnimationData @ 3475 NONAME ; #<TI>#
	_ZTI17CAknCharMapDialog @ 3476 NONAME ; #<TI>#
	_ZTI17CAknColumnListBox @ 3477 NONAME ; #<TI>#
	_ZTI17CAknGenericReader @ 3478 NONAME ; #<TI>#
	_ZTI17CAknInfoPopupNote @ 3479 NONAME ; #<TI>#
	_ZTI17CAknPinbStyleGrid @ 3480 NONAME ; #<TI>#
	_ZTI17CAknVolumeControl @ 3481 NONAME ; #<TI>#
	_ZTI18CAknAppServiceBase @ 3482 NONAME ; #<TI>#
	_ZTI18CAknPopupFieldList @ 3483 NONAME ; #<TI>#
	_ZTI18CAknPopupFieldText @ 3484 NONAME ; #<TI>#
	_ZTI18CAknProgressDialog @ 3485 NONAME ; #<TI>#
	_ZTI18CAknQdialStyleGrid @ 3486 NONAME ; #<TI>#
	_ZTI18CAknWsEventMonitor @ 3487 NONAME ; #<TI>#
	_ZTI18CSelectionItemList @ 3488 NONAME ; #<TI>#
	_ZTI18MAknFadedComponent @ 3489 NONAME ; #<TI>#
	_ZTI19AknListBoxShortCuts @ 3490 NONAME ; #<TI>#
	_ZTI19CAknDateSettingPage @ 3491 NONAME ; #<TI>#
	_ZTI19CAknExtQueryControl @ 3492 NONAME ; #<TI>#
	_ZTI19CAknInformationNote @ 3493 NONAME ; #<TI>#
	_ZTI19CAknListQueryDialog @ 3494 NONAME ; #<TI>#
	_ZTI19CAknMfneSettingPage @ 3495 NONAME ; #<TI>#
	_ZTI19CAknSetStyleListBox @ 3496 NONAME ; #<TI>#
	_ZTI19CAknSettingItemList @ 3497 NONAME ; #<TI>#
	_ZTI19CAknSliderExtension @ 3498 NONAME ABSENT ; #<TI>#
	_ZTI19CAknTextQueryDialog @ 3499 NONAME ; #<TI>#
	_ZTI19CAknTextSettingItem @ 3500 NONAME ; #<TI>#
	_ZTI19CAknTextSettingPage @ 3501 NONAME ; #<TI>#
	_ZTI19CAknTimeQueryDialog @ 3502 NONAME ; #<TI>#
	_ZTI19CAknTimeSettingPage @ 3503 NONAME ; #<TI>#
	_ZTI19CEikSettingsListBox @ 3504 NONAME ; #<TI>#
	_ZTI20CAknConfirmationNote @ 3505 NONAME ; #<TI>#
	_ZTI20CAknDummyListBoxView @ 3506 NONAME ; #<TI>#
	_ZTI20CAknEdwinSettingPage @ 3507 NONAME ; #<TI>#
	_ZTI20CAknGMSStyleGridView @ 3508 NONAME ; #<TI>#
	_ZTI20CAknListQueryControl @ 3509 NONAME ; #<TI>#
	_ZTI20CAknPopupHeadingPane @ 3510 NONAME ; #<TI>#
	_ZTI20CAknPopupSettingList @ 3511 NONAME ; #<TI>#
	_ZTI20CAknPopupSettingPage @ 3512 NONAME ; #<TI>#
	_ZTI20CAknSettingItemArray @ 3513 NONAME ; #<TI>#
	_ZTI20CAknStaticNoteDialog @ 3514 NONAME ; #<TI>#
	_ZTI20CSettingsListBoxData @ 3515 NONAME ; #<TI>#
	_ZTI20CSettingsListBoxView @ 3516 NONAME ; #<TI>#
	_ZTI21CAknColumnListBoxView @ 3517 NONAME ; #<TI>#
	_ZTI21CAknNumberQueryDialog @ 3518 NONAME ; #<TI>#
	_ZTI21CAknPhoneNumberEditor @ 3519 NONAME ; #<TI>#
	_ZTI21CAknSliderSettingItem @ 3520 NONAME ; #<TI>#
	_ZTI21CAknSliderSettingPage @ 3521 NONAME ; #<TI>#
	_ZTI21CAknVolumeSettingItem @ 3522 NONAME ; #<TI>#
	_ZTI21CAknVolumeSettingPage @ 3523 NONAME ; #<TI>#
	_ZTI21TAknSyncControlDrawer @ 3524 NONAME ; #<TI>#
	_ZTI22CAknBigSettingItemBase @ 3525 NONAME ; #<TI>#
	_ZTI22CAknCaleMonthStyleGrid @ 3526 NONAME ; #<TI>#
	_ZTI22CAknDoubleStyleListBox @ 3527 NONAME ; #<TI>#
	_ZTI22CAknEnumeratedItemBase @ 3528 NONAME ; #<TI>#
	_ZTI22CAknIndicatorContainer @ 3529 NONAME ; #<TI>#
	_ZTI22CAknIntegerSettingItem @ 3530 NONAME ; #<TI>#
	_ZTI22CAknIntegerSettingPage @ 3531 NONAME ; #<TI>#
	_ZTI22CAknIpFieldSettingItem @ 3532 NONAME ; #<TI>#
	_ZTI22CAknIpFieldSettingPage @ 3533 NONAME ; #<TI>#
	_ZTI22CAknListBoxFilterItems @ 3534 NONAME ; #<TI>#
	_ZTI22CAknListBoxSettingPage @ 3535 NONAME ; #<TI>#
	_ZTI22CAknMarkableListDialog @ 3536 NONAME ; #<TI>#
	_ZTI22CAknMessageQueryDialog @ 3537 NONAME ; #<TI>#
	_ZTI22CAknResourceNoteDialog @ 3538 NONAME ; #<TI>#
	_ZTI22CAknSingleStyleListBox @ 3539 NONAME ; #<TI>#
	_ZTI22CFormattedCellGridData @ 3540 NONAME ; #<TI>#
	_ZTI22TAknDesCArrayDecorator @ 3541 NONAME ; #<TI>#
	_ZTI23AknListBoxLinesTemplateI17CAknColumnListBoxE @ 3542 NONAME ; #<TI>#
	_ZTI23AknListBoxLinesTemplateI19CEikSettingsListBoxE @ 3543 NONAME ; #<TI>#
	_ZTI23AknListBoxLinesTemplateI24CEikFormattedCellListBoxE @ 3544 NONAME ; #<TI>#
	_ZTI23CAknCheckBoxSettingPage @ 3545 NONAME ; #<TI>#
	_ZTI23CAknDoubleStyle2ListBox @ 3546 NONAME ; #<TI>#
	_ZTI23CAknDurationQueryDialog @ 3547 NONAME ; #<TI>#
	_ZTI23CAknDurationSettingPage @ 3548 NONAME ; #<TI>#
	_ZTI23CAknNavigationDecorator @ 3549 NONAME ; #<TI>#
	_ZTI23CAknNumericSecretEditor @ 3550 NONAME ; #<TI>#
	_ZTI23CAknPasswordSettingItem @ 3551 NONAME ; #<TI>#
	_ZTI23CAknPasswordSettingPage @ 3552 NONAME ; #<TI>#
	_ZTI23CAknSelectionListDialog @ 3553 NONAME ; #<TI>#
	_ZTI23CAknSetStyleListBoxView @ 3554 NONAME ; #<TI>#
	_ZTI23CAknSettingStyleListBox @ 3555 NONAME ; #<TI>#
	_ZTI23CAknSignalPaneExtension @ 3556 NONAME ; #<TI>#
	_ZTI23CFormGraphicListBoxData @ 3557 NONAME ; #<TI>#
	_ZTI23CSingleHeadingStyleView @ 3558 NONAME ; #<TI>#
	_ZTI24CEikFormattedCellListBox @ 3559 NONAME ; #<TI>#
	_ZTI25CAknMultilineQueryControl @ 3560 NONAME ; #<TI>#
	_ZTI25CAknTimeOffsetSettingItem @ 3561 NONAME ; #<TI>#
	_ZTI25CAknTimeOffsetSettingPage @ 3562 NONAME ; #<TI>#
	_ZTI25CAknTimeOrDateSettingItem @ 3563 NONAME ; #<TI>#
	_ZTI25CFormattedCellListBoxData @ 3564 NONAME ; #<TI>#
	_ZTI25CFormattedCellListBoxView @ 3565 NONAME ; #<TI>#
	_ZTI25MAknServerAppExitObserver @ 3566 NONAME ; #<TI>#
	_ZTI26CAknBinaryPopupSettingItem @ 3567 NONAME ; #<TI>#
	_ZTI26CAknDoubleTimeStyleListBox @ 3568 NONAME ; #<TI>#
	_ZTI26CAknFormDoubleStyleListBox @ 3569 NONAME ; #<TI>#
	_ZTI26CAknRadioButtonSettingPage @ 3570 NONAME ; #<TI>#
	_ZTI26CPopupFormattedListBoxData @ 3571 NONAME ; #<TI>#
	_ZTI26CSettingsListBoxItemDrawer @ 3572 NONAME ; #<TI>#
	_ZTI27CAknDoubleLargeStyleListBox @ 3573 NONAME ; #<TI>#
	_ZTI27CAknFormGraphicStyleListBox @ 3574 NONAME ; #<TI>#
	_ZTI27CAknInfoPopupNoteController @ 3575 NONAME ; #<TI>#
	_ZTI27CAknIntegerEdwinSettingItem @ 3576 NONAME ; #<TI>#
	_ZTI27CAknSingleLargeStyleListBox @ 3577 NONAME ; #<TI>#
	_ZTI27CDoubleLargeStyleItemDrawer @ 3578 NONAME ; #<TI>#
	_ZTI28CAknAlphaPasswordSettingPage @ 3579 NONAME ; #<TI>#
	_ZTI28CAknDouble2LargeStyleListBox @ 3580 NONAME ; #<TI>#
	_ZTI28CAknDoubleNumberStyleListBox @ 3581 NONAME ; #<TI>#
	_ZTI28CAknExtMultilineQueryControl @ 3582 NONAME ; #<TI>#
	_ZTI28CAknFilteredTextListBoxModel @ 3583 NONAME ; #<TI>#
	_ZTI28CAknFloatingPointQueryDialog @ 3584 NONAME ; #<TI>#
	_ZTI28CAknMultiLineDataQueryDialog @ 3585 NONAME ; #<TI>#
	_ZTI28CAknSingleNumberStyleListBox @ 3586 NONAME ; #<TI>#
	_ZTI28CAknStaticNoteStackIndicator @ 3587 NONAME ; #<TI>#
	_ZTI29CAknDoubleGraphicStyleListBox @ 3588 NONAME ; #<TI>#
	_ZTI29CAknEnumeratedTextSettingItem @ 3589 NONAME ; #<TI>#
	_ZTI29CAknSettingNumberStyleListBox @ 3590 NONAME ; #<TI>#
	_ZTI29CAknSingleGraphicStyleListBox @ 3591 NONAME ; #<TI>#
	_ZTI29CAknSingleHeadingStyleListBox @ 3592 NONAME ; #<TI>#
	_ZTI29CSingleHeadingStyleItemDrawer @ 3593 NONAME ; #<TI>#
	_ZTI30CAknDouble2GraphicStyleListBox @ 3594 NONAME ; #<TI>#
	_ZTI30CAknNavigationControlContainer @ 3595 NONAME ; #<TI>#
	_ZTI30CAknNumericPasswordSettingPage @ 3596 NONAME ; #<TI>#
	_ZTI30CAknSingle2GraphicStyleListBox @ 3597 NONAME ; #<TI>#
	_ZTI30CSettingItemEditingListBoxData @ 3598 NONAME ; #<TI>#
	_ZTI31CAknDoublePopupMenuStyleListBox @ 3599 NONAME ; #<TI>#
	_ZTI31CAknFormGraphicWideStyleListBox @ 3600 NONAME ; #<TI>#
	_ZTI31CAknSinglePopupMenuStyleListBox @ 3601 NONAME ; #<TI>#
	_ZTI31CFormattedCellListBoxItemDrawer @ 3602 NONAME ; #<TI>#
	_ZTI32CAknDouble2PopupMenuStyleListBox @ 3603 NONAME ; #<TI>#
	_ZTI32CAknTransparentCameraSettingPage @ 3604 NONAME ; #<TI>#
	_ZTI33AknListBoxShortCutsImplementation @ 3605 NONAME ; #<TI>#
	_ZTI33CAknFormDoubleGraphicStyleListBox @ 3606 NONAME ; #<TI>#
	_ZTI34CAknEnumeratedTextPopupSettingItem @ 3607 NONAME ; #<TI>#
	_ZTI34CAknSinglePopupSubmenuStyleListBox @ 3608 NONAME ; #<TI>#
	_ZTI34MAknSgcStatusPaneRedrawCoordinator @ 3609 NONAME ; #<TI>#
	_ZTI35CAknDouble2GraphicLargeStyleListBox @ 3610 NONAME ; #<TI>#
	_ZTI35CAknSingleNumberHeadingStyleListBox @ 3611 NONAME ; #<TI>#
	_ZTI35CWordWrappedFormattedCellItemDrawer @ 3612 NONAME ; #<TI>#
	_ZTI36CAknSingleGraphicHeadingStyleListBox @ 3613 NONAME ; #<TI>#
	_ZTI38CAknSingleGraphicPopupMenuStyleListBox @ 3614 NONAME ; #<TI>#
	_ZTI38CAknSingleHeadingPopupMenuStyleListBox @ 3615 NONAME ; #<TI>#
	_ZTI40CAknSingleGraphicBtPopupMenuStyleListBox @ 3616 NONAME ; #<TI>#
	_ZTI42CAknDouble2GraphicLargeGraphicStyleListBox @ 3617 NONAME ; #<TI>#
	_ZTI43CAknDoubleLargeGraphicPopupMenuStyleListBox @ 3618 NONAME ; #<TI>#
	_ZTI45CAknSingleGraphicHeadingPopupMenuStyleListBox @ 3619 NONAME ; #<TI>#
	_ZTI7CAknEnv @ 3620 NONAME ; #<TI>#
	_ZTI8CAknForm @ 3621 NONAME ; #<TI>#
	_ZTI8CAknGrid @ 3622 NONAME ; #<TI>#
	_ZTI8CAknView @ 3623 NONAME ; #<TI>#
	_ZTI9CAknAppUi @ 3624 NONAME ; #<TI>#
	_ZTI9CAknGridM @ 3625 NONAME ; #<TI>#
	_ZTIN10CAknSlider14CAknSliderDataE @ 3626 NONAME ABSENT ; #<TI>#
	_ZN18AknStatuspaneUtils17UsualLayoutActiveEv @ 3627 NONAME
	_ZTV10CAknDialog @ 3628 NONAME ; #<VT>#
	_ZTV10CAknSlider @ 3629 NONAME ; #<VT>#
	_ZTV11CAknCharMap @ 3630 NONAME ; #<VT>#
	_ZTV11CAknControl @ 3631 NONAME ; #<VT>#
	_ZTV12CAknDocument @ 3632 NONAME ; #<VT>#
	_ZTV12CAknGridView @ 3633 NONAME ; #<VT>#
	_ZTV12CAknTabGroup @ 3634 NONAME ; #<VT>#
	_ZTV13CAknAppServer @ 3635 NONAME ; #<VT>#
	_ZTV13CAknAppUiBase @ 3636 NONAME ; #<VT>#
	_ZTV13CAknErrorNote @ 3637 NONAME ; #<VT>#
	_ZTV13CAknIconArray @ 3638 NONAME ; #<VT>#
	_ZTV13CAknNaviLabel @ 3639 NONAME ; #<VT>#
	_ZTV13CAknPopupForm @ 3640 NONAME ; #<VT>#
	_ZTV13CAknPopupList @ 3641 NONAME ; #<VT>#
	_ZTV13CAknTitlePane @ 3642 NONAME ; #<VT>#
	_ZTV13CAknViewAppUi @ 3643 NONAME ; #<VT>#
	_ZTV14CAknLayoutData @ 3644 NONAME ABSENT ; #<VT>#
	_ZTV14CAknNoteDialog @ 3645 NONAME ; #<VT>#
	_ZTV14CAknPopupField @ 3646 NONAME ; #<VT>#
	_ZTV14CAknQueryValue @ 3647 NONAME ; #<VT>#
	_ZTV14CAknSignalPane @ 3648 NONAME ; #<VT>#
	_ZTV14CAknWaitDialog @ 3649 NONAME ; #<VT>#
	_ZTV14MAknQueryValue @ 3650 NONAME ; #<VT>#
	_ZTV14MAknSyncDrawer @ 3651 NONAME ; #<VT>#
	_ZTV15CAknApplication @ 3652 NONAME ; #<VT>#
	_ZTV15CAknBatteryPane @ 3653 NONAME ; #<VT>#
	_ZTV15CAknContextPane @ 3654 NONAME ; #<VT>#
	_ZTV15CAknEcsDetector @ 3655 NONAME ; #<VT>#
	_ZTV15CAknNoteControl @ 3656 NONAME ; #<VT>#
	_ZTV15CAknNoteWrapper @ 3657 NONAME ; #<VT>#
	_ZTV15CAknQueryDialog @ 3658 NONAME ; #<VT>#
	_ZTV15CAknSettingItem @ 3659 NONAME ; #<VT>#
	_ZTV15CAknSettingPage @ 3660 NONAME ; #<VT>#
	_ZTV15CAknWarningNote @ 3661 NONAME ; #<VT>#
	_ZTV15CSelectableItem @ 3662 NONAME ; #<VT>#
	_ZTV15TAknLineBreaker @ 3663 NONAME ; #<VT>#
	_ZTV16CAknAnimatedView @ 3664 NONAME ; #<VT>#
	_ZTV16CAknAppStyleGrid @ 3665 NONAME ; #<VT>#
	_ZTV16CAknGMSPopupGrid @ 3666 NONAME ; #<VT>#
	_ZTV16CAknGMSStyleGrid @ 3667 NONAME ; #<VT>#
	_ZTV16CAknIntegerEdwin @ 3668 NONAME ; #<VT>#
	_ZTV16CAknQueryControl @ 3669 NONAME ; #<VT>#
	_ZTV17AknPopupListEmptyI24CEikFormattedCellListBoxE @ 3670 NONAME ; #<VT>#
	_ZTV17CAknAnimationData @ 3671 NONAME ; #<VT>#
	_ZTV17CAknCharMapDialog @ 3672 NONAME ; #<VT>#
	_ZTV17CAknColumnListBox @ 3673 NONAME ; #<VT>#
	_ZTV17CAknGenericReader @ 3674 NONAME ; #<VT>#
	_ZTV17CAknInfoPopupNote @ 3675 NONAME ; #<VT>#
	_ZTV17CAknPinbStyleGrid @ 3676 NONAME ; #<VT>#
	_ZTV17CAknVolumeControl @ 3677 NONAME ; #<VT>#
	_ZTV18CAknAppServiceBase @ 3678 NONAME ; #<VT>#
	_ZTV18CAknPopupFieldList @ 3679 NONAME ; #<VT>#
	_ZTV18CAknPopupFieldText @ 3680 NONAME ; #<VT>#
	_ZTV18CAknProgressDialog @ 3681 NONAME ; #<VT>#
	_ZTV18CAknQdialStyleGrid @ 3682 NONAME ; #<VT>#
	_ZTV18CAknWsEventMonitor @ 3683 NONAME ; #<VT>#
	_ZTV18CSelectionItemList @ 3684 NONAME ; #<VT>#
	_ZTV18MAknFadedComponent @ 3685 NONAME ; #<VT>#
	_ZTV19AknListBoxShortCuts @ 3686 NONAME ; #<VT>#
	_ZTV19CAknDateSettingPage @ 3687 NONAME ; #<VT>#
	_ZTV19CAknExtQueryControl @ 3688 NONAME ; #<VT>#
	_ZTV19CAknInformationNote @ 3689 NONAME ; #<VT>#
	_ZTV19CAknListQueryDialog @ 3690 NONAME ; #<VT>#
	_ZTV19CAknMfneSettingPage @ 3691 NONAME ; #<VT>#
	_ZTV19CAknSetStyleListBox @ 3692 NONAME ; #<VT>#
	_ZTV19CAknSettingItemList @ 3693 NONAME ; #<VT>#
	_ZTV19CAknSliderExtension @ 3694 NONAME ABSENT ; #<VT>#
	_ZTV19CAknTextQueryDialog @ 3695 NONAME ; #<VT>#
	_ZTV19CAknTextSettingItem @ 3696 NONAME ; #<VT>#
	_ZTV19CAknTextSettingPage @ 3697 NONAME ; #<VT>#
	_ZTV19CAknTimeQueryDialog @ 3698 NONAME ; #<VT>#
	_ZTV19CAknTimeSettingPage @ 3699 NONAME ; #<VT>#
	_ZTV19CEikSettingsListBox @ 3700 NONAME ; #<VT>#
	_ZTV20CAknConfirmationNote @ 3701 NONAME ; #<VT>#
	_ZTV20CAknDummyListBoxView @ 3702 NONAME ; #<VT>#
	_ZTV20CAknEdwinSettingPage @ 3703 NONAME ; #<VT>#
	_ZTV20CAknGMSStyleGridView @ 3704 NONAME ; #<VT>#
	_ZTV20CAknListQueryControl @ 3705 NONAME ; #<VT>#
	_ZTV20CAknPopupHeadingPane @ 3706 NONAME ; #<VT>#
	_ZTV20CAknPopupSettingList @ 3707 NONAME ; #<VT>#
	_ZTV20CAknPopupSettingPage @ 3708 NONAME ; #<VT>#
	_ZTV20CAknSettingItemArray @ 3709 NONAME ; #<VT>#
	_ZTV20CAknStaticNoteDialog @ 3710 NONAME ; #<VT>#
	_ZTV20CSettingsListBoxData @ 3711 NONAME ; #<VT>#
	_ZTV20CSettingsListBoxView @ 3712 NONAME ; #<VT>#
	_ZTV21CAknColumnListBoxView @ 3713 NONAME ; #<VT>#
	_ZTV21CAknNumberQueryDialog @ 3714 NONAME ; #<VT>#
	_ZTV21CAknPhoneNumberEditor @ 3715 NONAME ; #<VT>#
	_ZTV21CAknSliderSettingItem @ 3716 NONAME ; #<VT>#
	_ZTV21CAknSliderSettingPage @ 3717 NONAME ; #<VT>#
	_ZTV21CAknVolumeSettingItem @ 3718 NONAME ; #<VT>#
	_ZTV21CAknVolumeSettingPage @ 3719 NONAME ; #<VT>#
	_ZTV21TAknSyncControlDrawer @ 3720 NONAME ; #<VT>#
	_ZTV22CAknBigSettingItemBase @ 3721 NONAME ; #<VT>#
	_ZTV22CAknCaleMonthStyleGrid @ 3722 NONAME ; #<VT>#
	_ZTV22CAknDoubleStyleListBox @ 3723 NONAME ; #<VT>#
	_ZTV22CAknEnumeratedItemBase @ 3724 NONAME ; #<VT>#
	_ZTV22CAknIndicatorContainer @ 3725 NONAME ; #<VT>#
	_ZTV22CAknIntegerSettingItem @ 3726 NONAME ; #<VT>#
	_ZTV22CAknIntegerSettingPage @ 3727 NONAME ; #<VT>#
	_ZTV22CAknIpFieldSettingItem @ 3728 NONAME ; #<VT>#
	_ZTV22CAknIpFieldSettingPage @ 3729 NONAME ; #<VT>#
	_ZTV22CAknListBoxFilterItems @ 3730 NONAME ; #<VT>#
	_ZTV22CAknListBoxSettingPage @ 3731 NONAME ; #<VT>#
	_ZTV22CAknMarkableListDialog @ 3732 NONAME ; #<VT>#
	_ZTV22CAknMessageQueryDialog @ 3733 NONAME ; #<VT>#
	_ZTV22CAknResourceNoteDialog @ 3734 NONAME ; #<VT>#
	_ZTV22CAknSingleStyleListBox @ 3735 NONAME ; #<VT>#
	_ZTV22CFormattedCellGridData @ 3736 NONAME ; #<VT>#
	_ZTV22TAknDesCArrayDecorator @ 3737 NONAME ; #<VT>#
	_ZTV23AknListBoxLinesTemplateI17CAknColumnListBoxE @ 3738 NONAME ; #<VT>#
	_ZTV23AknListBoxLinesTemplateI19CEikSettingsListBoxE @ 3739 NONAME ; #<VT>#
	_ZTV23AknListBoxLinesTemplateI24CEikFormattedCellListBoxE @ 3740 NONAME ; #<VT>#
	_ZTV23CAknCheckBoxSettingPage @ 3741 NONAME ; #<VT>#
	_ZTV23CAknDoubleStyle2ListBox @ 3742 NONAME ; #<VT>#
	_ZTV23CAknDurationQueryDialog @ 3743 NONAME ; #<VT>#
	_ZTV23CAknDurationSettingPage @ 3744 NONAME ; #<VT>#
	_ZTV23CAknNavigationDecorator @ 3745 NONAME ; #<VT>#
	_ZTV23CAknNumericSecretEditor @ 3746 NONAME ; #<VT>#
	_ZTV23CAknPasswordSettingItem @ 3747 NONAME ; #<VT>#
	_ZTV23CAknPasswordSettingPage @ 3748 NONAME ; #<VT>#
	_ZTV23CAknSelectionListDialog @ 3749 NONAME ; #<VT>#
	_ZTV23CAknSetStyleListBoxView @ 3750 NONAME ; #<VT>#
	_ZTV23CAknSettingStyleListBox @ 3751 NONAME ; #<VT>#
	_ZTV23CAknSignalPaneExtension @ 3752 NONAME ; #<VT>#
	_ZTV23CFormGraphicListBoxData @ 3753 NONAME ; #<VT>#
	_ZTV23CSingleHeadingStyleView @ 3754 NONAME ; #<VT>#
	_ZTV24CEikFormattedCellListBox @ 3755 NONAME ; #<VT>#
	_ZTV25CAknMultilineQueryControl @ 3756 NONAME ; #<VT>#
	_ZTV25CAknTimeOffsetSettingItem @ 3757 NONAME ; #<VT>#
	_ZTV25CAknTimeOffsetSettingPage @ 3758 NONAME ; #<VT>#
	_ZTV25CAknTimeOrDateSettingItem @ 3759 NONAME ; #<VT>#
	_ZTV25CFormattedCellListBoxData @ 3760 NONAME ; #<VT>#
	_ZTV25CFormattedCellListBoxView @ 3761 NONAME ; #<VT>#
	_ZTV25MAknServerAppExitObserver @ 3762 NONAME ; #<VT>#
	_ZTV26CAknBinaryPopupSettingItem @ 3763 NONAME ; #<VT>#
	_ZTV26CAknDoubleTimeStyleListBox @ 3764 NONAME ; #<VT>#
	_ZTV26CAknFormDoubleStyleListBox @ 3765 NONAME ; #<VT>#
	_ZTV26CAknRadioButtonSettingPage @ 3766 NONAME ; #<VT>#
	_ZTV26CPopupFormattedListBoxData @ 3767 NONAME ; #<VT>#
	_ZTV26CSettingsListBoxItemDrawer @ 3768 NONAME ; #<VT>#
	_ZTV27CAknDoubleLargeStyleListBox @ 3769 NONAME ; #<VT>#
	_ZTV27CAknFormGraphicStyleListBox @ 3770 NONAME ; #<VT>#
	_ZTV27CAknInfoPopupNoteController @ 3771 NONAME ; #<VT>#
	_ZTV27CAknIntegerEdwinSettingItem @ 3772 NONAME ; #<VT>#
	_ZTV27CAknSingleLargeStyleListBox @ 3773 NONAME ; #<VT>#
	_ZTV27CDoubleLargeStyleItemDrawer @ 3774 NONAME ; #<VT>#
	_ZTV28CAknAlphaPasswordSettingPage @ 3775 NONAME ; #<VT>#
	_ZTV28CAknDouble2LargeStyleListBox @ 3776 NONAME ; #<VT>#
	_ZTV28CAknDoubleNumberStyleListBox @ 3777 NONAME ; #<VT>#
	_ZTV28CAknExtMultilineQueryControl @ 3778 NONAME ; #<VT>#
	_ZTV28CAknFilteredTextListBoxModel @ 3779 NONAME ; #<VT>#
	_ZTV28CAknFloatingPointQueryDialog @ 3780 NONAME ; #<VT>#
	_ZTV28CAknMultiLineDataQueryDialog @ 3781 NONAME ; #<VT>#
	_ZTV28CAknSingleNumberStyleListBox @ 3782 NONAME ; #<VT>#
	_ZTV28CAknStaticNoteStackIndicator @ 3783 NONAME ; #<VT>#
	_ZTV29CAknDoubleGraphicStyleListBox @ 3784 NONAME ; #<VT>#
	_ZTV29CAknEnumeratedTextSettingItem @ 3785 NONAME ; #<VT>#
	_ZTV29CAknSettingNumberStyleListBox @ 3786 NONAME ; #<VT>#
	_ZTV29CAknSingleGraphicStyleListBox @ 3787 NONAME ; #<VT>#
	_ZTV29CAknSingleHeadingStyleListBox @ 3788 NONAME ; #<VT>#
	_ZTV29CSingleHeadingStyleItemDrawer @ 3789 NONAME ; #<VT>#
	_ZTV30CAknDouble2GraphicStyleListBox @ 3790 NONAME ; #<VT>#
	_ZTV30CAknNavigationControlContainer @ 3791 NONAME ; #<VT>#
	_ZTV30CAknNumericPasswordSettingPage @ 3792 NONAME ; #<VT>#
	_ZTV30CAknSingle2GraphicStyleListBox @ 3793 NONAME ; #<VT>#
	_ZTV30CSettingItemEditingListBoxData @ 3794 NONAME ; #<VT>#
	_ZTV31CAknDoublePopupMenuStyleListBox @ 3795 NONAME ; #<VT>#
	_ZTV31CAknFormGraphicWideStyleListBox @ 3796 NONAME ; #<VT>#
	_ZTV31CAknSinglePopupMenuStyleListBox @ 3797 NONAME ; #<VT>#
	_ZTV31CFormattedCellListBoxItemDrawer @ 3798 NONAME ; #<VT>#
	_ZTV32CAknDouble2PopupMenuStyleListBox @ 3799 NONAME ; #<VT>#
	_ZTV32CAknTransparentCameraSettingPage @ 3800 NONAME ; #<VT>#
	_ZTV33AknListBoxShortCutsImplementation @ 3801 NONAME ; #<VT>#
	_ZTV33CAknFormDoubleGraphicStyleListBox @ 3802 NONAME ; #<VT>#
	_ZTV34CAknEnumeratedTextPopupSettingItem @ 3803 NONAME ; #<VT>#
	_ZTV34CAknSinglePopupSubmenuStyleListBox @ 3804 NONAME ; #<VT>#
	_ZTV34MAknSgcStatusPaneRedrawCoordinator @ 3805 NONAME ; #<VT>#
	_ZTV35CAknDouble2GraphicLargeStyleListBox @ 3806 NONAME ; #<VT>#
	_ZTV35CAknSingleNumberHeadingStyleListBox @ 3807 NONAME ; #<VT>#
	_ZTV35CWordWrappedFormattedCellItemDrawer @ 3808 NONAME ; #<VT>#
	_ZTV36CAknSingleGraphicHeadingStyleListBox @ 3809 NONAME ; #<VT>#
	_ZTV38CAknSingleGraphicPopupMenuStyleListBox @ 3810 NONAME ; #<VT>#
	_ZTV38CAknSingleHeadingPopupMenuStyleListBox @ 3811 NONAME ; #<VT>#
	_ZTV40CAknSingleGraphicBtPopupMenuStyleListBox @ 3812 NONAME ; #<VT>#
	_ZTV42CAknDouble2GraphicLargeGraphicStyleListBox @ 3813 NONAME ; #<VT>#
	_ZTV43CAknDoubleLargeGraphicPopupMenuStyleListBox @ 3814 NONAME ; #<VT>#
	_ZTV45CAknSingleGraphicHeadingPopupMenuStyleListBox @ 3815 NONAME ; #<VT>#
	_ZTV7CAknEnv @ 3816 NONAME ; #<VT>#
	_ZTV8CAknForm @ 3817 NONAME ; #<VT>#
	_ZTV8CAknGrid @ 3818 NONAME ; #<VT>#
	_ZTV8CAknView @ 3819 NONAME ; #<VT>#
	_ZTV9CAknAppUi @ 3820 NONAME ; #<VT>#
	_ZTV9CAknGridM @ 3821 NONAME ; #<VT>#
	_ZTVN10CAknSlider14CAknSliderDataE @ 3822 NONAME ABSENT ; #<VT>#
	_ZN18AknStatuspaneUtils17SmallLayoutActiveEv @ 3823 NONAME
	_ZThn100_N13CAknPopupList19HandleControlEventLEP11CCoeControlN19MCoeControlObserver9TCoeEventE @ 3824 NONAME ; #<thunk>#
	_ZThn100_N18CAknPopupFieldList19HandleControlEventLEP11CCoeControlN19MCoeControlObserver9TCoeEventE @ 3825 NONAME ; #<thunk>#
	_ZThn100_N9CAknAppUi25HandleTouchPaneSizeChangeEv @ 3826 NONAME ; #<thunk>#
	_ZThn104_N14CAknPopupField19HandleListBoxEventLEP11CEikListBoxN19MEikListBoxObserver13TListBoxEventE @ 3827 NONAME ; #<thunk>#
	_ZThn108_N13CAknPopupList10CloseStateEv @ 3828 NONAME ; #<thunk>#
	_ZThn112_N13CAknPopupList14FadedComponentEi @ 3829 NONAME ; #<thunk>#
	_ZThn112_N13CAknPopupList20CountFadedComponentsEv @ 3830 NONAME ; #<thunk>#
	_ZThn12_N8CAknView11SetEmphasisEP11CCoeControli @ 3831 NONAME ; #<thunk>#
	_ZThn12_N8CAknView15ProcessCommandLEi @ 3832 NONAME ; #<thunk>#
	_ZThn156_N10CAknDialog11SetEmphasisEP11CCoeControli @ 3833 NONAME ; #<thunk>#
	_ZThn156_N10CAknDialog15ProcessCommandLEi @ 3834 NONAME ; #<thunk>#
	_ZThn156_N10CAknDialog16DynInitMenuPaneLEiP12CEikMenuPane @ 3835 NONAME ; #<thunk>#
	_ZThn156_N22CAknMarkableListDialog15ProcessCommandLEi @ 3836 NONAME ; #<thunk>#
	_ZThn156_N22CAknMarkableListDialog16DynInitMenuPaneLEiP12CEikMenuPane @ 3837 NONAME ; #<thunk>#
	_ZThn156_N23CAknSelectionListDialog15ProcessCommandLEi @ 3838 NONAME ; #<thunk>#
	_ZThn156_N8CAknForm15ProcessCommandLEi @ 3839 NONAME ; #<thunk>#
	_ZThn156_N8CAknForm16DynInitMenuPaneLEiP12CEikMenuPane @ 3840 NONAME ; #<thunk>#
	_ZThn16_N28CAknFilteredTextListBoxModelD0Ev @ 3841 NONAME ; #<thunk>#
	_ZThn16_N28CAknFilteredTextListBoxModelD1Ev @ 3842 NONAME ; #<thunk>#
	_ZThn16_NK28CAknFilteredTextListBoxModel9MdcaCountEv @ 3843 NONAME ; #<thunk>#
	_ZThn16_NK28CAknFilteredTextListBoxModel9MdcaPointEi @ 3844 NONAME ; #<thunk>#
	_ZThn176_N15CAknQueryDialog27HandleQueryEditorSizeEventLEP16CAknQueryControlN24MAknQueryControlObserver18TQueryControlEventE @ 3845 NONAME ; #<thunk>#
	_ZThn176_N15CAknQueryDialog28HandleQueryEditorStateEventLEP16CAknQueryControlN24MAknQueryControlObserver18TQueryControlEventENS2_22TQueryValidationStatusE @ 3846 NONAME ; #<thunk>#
	_ZThn176_N19CAknTextQueryDialog27HandleQueryEditorSizeEventLEP16CAknQueryControlN24MAknQueryControlObserver18TQueryControlEventE @ 3847 NONAME ; #<thunk>#
	_ZThn176_N20CAknPopupSettingList19HandleListBoxEventLEP11CEikListBoxN19MEikListBoxObserver13TListBoxEventE @ 3848 NONAME ; #<thunk>#
	_ZThn176_N22CAknMarkableListDialog19HandleListBoxEventLEP11CEikListBoxN19MEikListBoxObserver13TListBoxEventE @ 3849 NONAME ; #<thunk>#
	_ZThn176_N23CAknSelectionListDialog19HandleListBoxEventLEP11CEikListBoxN19MEikListBoxObserver13TListBoxEventE @ 3850 NONAME ; #<thunk>#
	_ZThn204_N19CAknListQueryDialog19HandleListBoxEventLEP11CEikListBoxN19MEikListBoxObserver13TListBoxEventE @ 3851 NONAME ; #<thunk>#
	_ZThn208_N19CAknListQueryDialog10CloseStateEv @ 3852 NONAME ; #<thunk>#
	_ZThn248_N22CAknListBoxSettingPage19HandleListBoxEventLEP11CEikListBoxN19MEikListBoxObserver13TListBoxEventE @ 3853 NONAME ; #<thunk>#
	_ZThn248_N23CAknCheckBoxSettingPage19HandleListBoxEventLEP11CEikListBoxN19MEikListBoxObserver13TListBoxEventE @ 3854 NONAME ; #<thunk>#
	_ZThn248_N26CAknRadioButtonSettingPage19HandleListBoxEventLEP11CEikListBoxN19MEikListBoxObserver13TListBoxEventE @ 3855 NONAME ; #<thunk>#
	_ZThn248_N32CAknTransparentCameraSettingPage19HandleListBoxEventLEP11CEikListBoxN19MEikListBoxObserver13TListBoxEventE @ 3856 NONAME ; #<thunk>#
	_ZThn24_N13CAknViewAppUi15ProcessCommandLEi @ 3857 NONAME ; #<thunk>#
	_ZThn24_N20CAknSettingItemArrayD0Ev @ 3858 NONAME ; #<thunk>#
	_ZThn24_N20CAknSettingItemArrayD1Ev @ 3859 NONAME ; #<thunk>#
	_ZThn24_N8CAknView15MopSupplyObjectE8TTypeUid @ 3860 NONAME ; #<thunk>#
	_ZThn24_N8CAknView7MopNextEv @ 3861 NONAME ; #<thunk>#
	_ZThn24_N9CAknAppUi15ProcessCommandLEi @ 3862 NONAME ; #<thunk>#
	_ZThn24_NK18CSelectionItemList9MdcaCountEv @ 3863 NONAME ; #<thunk>#
	_ZThn24_NK18CSelectionItemList9MdcaPointEi @ 3864 NONAME ; #<thunk>#
	_ZThn24_NK20CAknSettingItemArray9MdcaCountEv @ 3865 NONAME ; #<thunk>#
	_ZThn24_NK20CAknSettingItemArray9MdcaPointEi @ 3866 NONAME ; #<thunk>#
	_ZThn272_N20CAknPopupSettingPage28HandlePopupSettingListEventLEP20CAknPopupSettingListN28MAknPopupSettingListObserver25TAknPopupSettingListEventEi @ 3867 NONAME ; #<thunk>#
	_ZThn40_N13CAknAppUiBase15MopSupplyObjectE8TTypeUid @ 3868 NONAME ; #<thunk>#
	_ZThn4_N10CAknDialog15MopSupplyObjectE8TTypeUid @ 3869 NONAME ; #<thunk>#
	_ZThn4_N13CAknPopupList15MopSupplyObjectE8TTypeUid @ 3870 NONAME ; #<thunk>#
	_ZThn4_N14CAknItemFinder13ParseThisTextERK9CRichTextiiiRiS3_ @ 3871 ABSENT
	_ZThn4_N14CAknItemFinder14CreateDoItTextERK9CRichTextii @ 3872 ABSENT
	_ZThn4_N14CAknItemFinder17ActivateThisTextLERK9CRichTextii @ 3873 ABSENT
	_ZThn4_N14CAknItemFinder17GetRolloverFormatER11TCharFormat @ 3874 ABSENT
	_ZThn4_N14CAknItemFinder18GetRecogniseFormatER11TCharFormat @ 3875 ABSENT
	_ZThn4_N14CAknItemFinder18MParser_Reserved_2Ev @ 3876 ABSENT
	_ZThn4_N14CAknItemFinder20ConfirmCursorOverTagERK9CRichTextiii @ 3877 ABSENT
	_ZThn4_N14CAknItemFinder7ReleaseEv @ 3878 ABSENT
	_ZThn4_N14CAknPopupField15MopSupplyObjectE8TTypeUid @ 3879 NONAME ; #<thunk>#
	_ZThn4_N14CAknQueryValue12SetQueryModeEN14MAknQueryValue5TModeE @ 3880 NONAME ; #<thunk>#
	_ZThn4_N14CAknQueryValue13SetAutoAppendEi @ 3881 NONAME ; #<thunk>#
	_ZThn4_N14CAknQueryValue17AppendValueIfNewLEv @ 3882 NONAME ; #<thunk>#
	_ZThn4_N14CAknQueryValue23Reserved_MAknQueryValueEv @ 3883 NONAME ; #<thunk>#
	_ZThn4_N14CAknQueryValue25SetSettingPageResourceIdsEii @ 3884 NONAME ; #<thunk>#
	_ZThn4_N15CAknEcsDetector14HandleWsEventLERK8TWsEventP11CCoeControl @ 3885 NONAME ; #<thunk>#
	_ZThn4_N15CAknNoteControl15MopSupplyObjectE8TTypeUid @ 3886 NONAME ; #<thunk>#
	_ZThn4_N15CAknSettingItem23HandleSettingPageEventLEP15CAknSettingPageN23MAknSettingPageObserver20TAknSettingPageEventE @ 3887 NONAME ; #<thunk>#
	_ZThn4_N15CAknSettingPage15MopSupplyObjectE8TTypeUid @ 3888 NONAME ; #<thunk>#
	_ZThn4_N18CAknPopupFieldList15MopSupplyObjectE8TTypeUid @ 3889 NONAME ; #<thunk>#
	_ZThn4_N18CAknQueryValueDate13CreateEditorLEv @ 3890 NONAME ; #<thunk>#
	_ZThn4_N18CAknQueryValueDate18CurrentValueTextLCEv @ 3891 NONAME ; #<thunk>#
	_ZThn4_N18CAknQueryValueDate20SetCurrentValueIndexEi @ 3892 NONAME ; #<thunk>#
	_ZThn4_N18CAknQueryValueDate23Reserved_MAknQueryValueEv @ 3893 NONAME ; #<thunk>#
	_ZThn4_N18CAknQueryValueDateD0Ev @ 3894 NONAME ; #<thunk>#
	_ZThn4_N18CAknQueryValueDateD1Ev @ 3895 NONAME ; #<thunk>#
	_ZThn4_N18CAknQueryValueText13CreateEditorLEv @ 3896 NONAME ; #<thunk>#
	_ZThn4_N18CAknQueryValueText18CurrentValueTextLCEv @ 3897 NONAME ; #<thunk>#
	_ZThn4_N18CAknQueryValueText20SetCurrentValueIndexEi @ 3898 NONAME ; #<thunk>#
	_ZThn4_N18CAknQueryValueText23Reserved_MAknQueryValueEv @ 3899 NONAME ; #<thunk>#
	_ZThn4_N18CAknQueryValueTextD0Ev @ 3900 NONAME ; #<thunk>#
	_ZThn4_N18CAknQueryValueTextD1Ev @ 3901 NONAME ; #<thunk>#
	_ZThn4_N18CAknQueryValueTime13CreateEditorLEv @ 3902 NONAME ; #<thunk>#
	_ZThn4_N18CAknQueryValueTime18CurrentValueTextLCEv @ 3903 NONAME ; #<thunk>#
	_ZThn4_N18CAknQueryValueTime20SetCurrentValueIndexEi @ 3904 NONAME ; #<thunk>#
	_ZThn4_N18CAknQueryValueTime23Reserved_MAknQueryValueEv @ 3905 NONAME ; #<thunk>#
	_ZThn4_N18CAknQueryValueTimeD0Ev @ 3906 NONAME ; #<thunk>#
	_ZThn4_N18CAknQueryValueTimeD1Ev @ 3907 NONAME ; #<thunk>#
	_ZThn4_N18CAknWsEventMonitor14HandleWsEventLERK8TWsEventP11CCoeControl @ 3908 NONAME ; #<thunk>#
	_ZThn4_N19CAknQueryValuePhone13CreateEditorLEv @ 3909 NONAME ; #<thunk>#
	_ZThn4_N19CAknQueryValuePhone18CurrentValueTextLCEv @ 3910 NONAME ; #<thunk>#
	_ZThn4_N19CAknQueryValuePhone20SetCurrentValueIndexEi @ 3911 NONAME ; #<thunk>#
	_ZThn4_N19CAknQueryValuePhone23Reserved_MAknQueryValueEv @ 3912 NONAME ; #<thunk>#
	_ZThn4_N19CAknQueryValuePhoneD0Ev @ 3913 NONAME ; #<thunk>#
	_ZThn4_N19CAknQueryValuePhoneD1Ev @ 3914 NONAME ; #<thunk>#
	_ZThn4_N19CAknSetStyleListBox15MopSupplyObjectE8TTypeUid @ 3915 NONAME ; #<thunk>#
	_ZThn4_N20CAknQueryValueNumber13CreateEditorLEv @ 3916 NONAME ; #<thunk>#
	_ZThn4_N20CAknQueryValueNumber18CurrentValueTextLCEv @ 3917 NONAME ; #<thunk>#
	_ZThn4_N20CAknQueryValueNumber20SetCurrentValueIndexEi @ 3918 NONAME ; #<thunk>#
	_ZThn4_N20CAknQueryValueNumber23Reserved_MAknQueryValueEv @ 3919 NONAME ; #<thunk>#
	_ZThn4_N20CAknQueryValueNumberD0Ev @ 3920 NONAME ; #<thunk>#
	_ZThn4_N20CAknQueryValueNumberD1Ev @ 3921 NONAME ; #<thunk>#
	_ZThn4_N22CAknListBoxFilterItems19HandleControlEventLEP11CCoeControlN19MCoeControlObserver9TCoeEventE @ 3922 NONAME ; #<thunk>#
	_ZThn4_N22CAknQueryValueDuration13CreateEditorLEv @ 3923 NONAME ; #<thunk>#
	_ZThn4_N22CAknQueryValueDuration18CurrentValueTextLCEv @ 3924 NONAME ; #<thunk>#
	_ZThn4_N22CAknQueryValueDuration20SetCurrentValueIndexEi @ 3925 NONAME ; #<thunk>#
	_ZThn4_N22CAknQueryValueDuration23Reserved_MAknQueryValueEv @ 3926 NONAME ; #<thunk>#
	_ZThn4_N22CAknQueryValueDurationD0Ev @ 3927 NONAME ; #<thunk>#
	_ZThn4_N22CAknQueryValueDurationD1Ev @ 3928 NONAME ; #<thunk>#
	_ZThn4_N23CAknQueryValueDateArrayD0Ev @ 3929 NONAME ; #<thunk>#
	_ZThn4_N23CAknQueryValueDateArrayD1Ev @ 3930 NONAME ; #<thunk>#
	_ZThn4_N23CAknQueryValueTextArrayD0Ev @ 3931 NONAME ; #<thunk>#
	_ZThn4_N23CAknQueryValueTextArrayD1Ev @ 3932 NONAME ; #<thunk>#
	_ZThn4_N23CAknQueryValueTimeArrayD0Ev @ 3933 NONAME ; #<thunk>#
	_ZThn4_N23CAknQueryValueTimeArrayD1Ev @ 3934 NONAME ; #<thunk>#
	_ZThn4_N24CAknQueryValuePhoneArrayD0Ev @ 3935 NONAME ; #<thunk>#
	_ZThn4_N24CAknQueryValuePhoneArrayD1Ev @ 3936 NONAME ; #<thunk>#
	_ZThn4_N24CEikFormattedCellListBox15MopSupplyObjectE8TTypeUid @ 3937 NONAME ; #<thunk>#
	_ZThn4_N25CAknQueryValueNumberArrayD0Ev @ 3938 NONAME ; #<thunk>#
	_ZThn4_N25CAknQueryValueNumberArrayD1Ev @ 3939 NONAME ; #<thunk>#
	_ZThn4_N26CAknListBoxLayoutDecoratorD0Ev @ 3940 NONAME ; #<thunk>#
	_ZThn4_N26CAknListBoxLayoutDecoratorD1Ev @ 3941 NONAME ; #<thunk>#
	_ZThn4_N27CAknQueryValueDurationArrayD0Ev @ 3942 NONAME ; #<thunk>#
	_ZThn4_N27CAknQueryValueDurationArrayD1Ev @ 3943 NONAME ; #<thunk>#
	_ZThn4_N28CAknFilteredTextListBoxModel22MListBoxModel_ReservedEv @ 3944 NONAME ; #<thunk>#
	_ZThn4_N28CAknFilteredTextListBoxModelD0Ev @ 3945 NONAME ; #<thunk>#
	_ZThn4_N28CAknFilteredTextListBoxModelD1Ev @ 3946 NONAME ; #<thunk>#
	_ZThn4_N8CAknView14ViewActivatedLERK10TVwsViewId4TUidRK6TDesC8 @ 3947 NONAME ; #<thunk>#
	_ZThn4_N8CAknView15ViewDeactivatedEv @ 3948 NONAME ; #<thunk>#
	_ZThn4_N8CAknView24ViewScreenDeviceChangedLEv @ 3949 NONAME ; #<thunk>#
	_ZThn4_N9CAknGridMD0Ev @ 3950 NONAME ; #<thunk>#
	_ZThn4_N9CAknGridMD1Ev @ 3951 NONAME ; #<thunk>#
	_ZThn4_NK14CAknItemFinder18ReformatOnRolloverEv @ 3952 ABSENT
	_ZThn4_NK14CAknItemFinder19ReformatOnRecogniseEv @ 3953 ABSENT
	_ZThn4_NK18CAknQueryValueDate17CurrentValueIndexEv @ 3954 NONAME ; #<thunk>#
	_ZThn4_NK18CAknQueryValueDate8MdcArrayEv @ 3955 NONAME ; #<thunk>#
	_ZThn4_NK18CAknQueryValueText17CurrentValueIndexEv @ 3956 NONAME ; #<thunk>#
	_ZThn4_NK18CAknQueryValueText8MdcArrayEv @ 3957 NONAME ; #<thunk>#
	_ZThn4_NK18CAknQueryValueTime17CurrentValueIndexEv @ 3958 NONAME ; #<thunk>#
	_ZThn4_NK18CAknQueryValueTime8MdcArrayEv @ 3959 NONAME ; #<thunk>#
	_ZThn4_NK19CAknQueryValuePhone17CurrentValueIndexEv @ 3960 NONAME ; #<thunk>#
	_ZThn4_NK19CAknQueryValuePhone8MdcArrayEv @ 3961 NONAME ; #<thunk>#
	_ZThn4_NK20CAknQueryValueNumber17CurrentValueIndexEv @ 3962 NONAME ; #<thunk>#
	_ZThn4_NK20CAknQueryValueNumber8MdcArrayEv @ 3963 NONAME ; #<thunk>#
	_ZThn4_NK22CAknQueryValueDuration17CurrentValueIndexEv @ 3964 NONAME ; #<thunk>#
	_ZThn4_NK22CAknQueryValueDuration8MdcArrayEv @ 3965 NONAME ; #<thunk>#
	_ZThn4_NK23CAknQueryValueDateArray9MdcaCountEv @ 3966 NONAME ; #<thunk>#
	_ZThn4_NK23CAknQueryValueDateArray9MdcaPointEi @ 3967 NONAME ; #<thunk>#
	_ZThn4_NK23CAknQueryValueTextArray9MdcaCountEv @ 3968 NONAME ; #<thunk>#
	_ZThn4_NK23CAknQueryValueTextArray9MdcaPointEi @ 3969 NONAME ; #<thunk>#
	_ZThn4_NK23CAknQueryValueTimeArray9MdcaCountEv @ 3970 NONAME ; #<thunk>#
	_ZThn4_NK23CAknQueryValueTimeArray9MdcaPointEi @ 3971 NONAME ; #<thunk>#
	_ZThn4_NK24CAknQueryValuePhoneArray9MdcaCountEv @ 3972 NONAME ; #<thunk>#
	_ZThn4_NK24CAknQueryValuePhoneArray9MdcaPointEi @ 3973 NONAME ; #<thunk>#
	_ZThn4_NK25CAknQueryValueNumberArray9MdcaCountEv @ 3974 NONAME ; #<thunk>#
	_ZThn4_NK25CAknQueryValueNumberArray9MdcaPointEi @ 3975 NONAME ; #<thunk>#
	_ZThn4_NK26CAknListBoxLayoutDecorator9MdcaCountEv @ 3976 NONAME ; #<thunk>#
	_ZThn4_NK26CAknListBoxLayoutDecorator9MdcaPointEi @ 3977 NONAME ; #<thunk>#
	_ZThn4_NK27CAknQueryValueDurationArray9MdcaCountEv @ 3978 NONAME ; #<thunk>#
	_ZThn4_NK27CAknQueryValueDurationArray9MdcaPointEi @ 3979 NONAME ; #<thunk>#
	_ZThn4_NK28CAknFilteredTextListBoxModel13NumberOfItemsEv @ 3980 NONAME ; #<thunk>#
	_ZThn4_NK28CAknFilteredTextListBoxModel18MatchableTextArrayEv @ 3981 NONAME ; #<thunk>#
	_ZThn4_NK28CAknFilteredTextListBoxModel8ItemTextEi @ 3982 NONAME ; #<thunk>#
	_ZThn4_NK8CAknView6ViewIdEv @ 3983 NONAME ; #<thunk>#
	_ZThn4_NK9CAknGridM13NumberOfItemsEv @ 3984 NONAME ; #<thunk>#
	_ZThn4_NK9CAknGridM8ItemTextEi @ 3985 NONAME ; #<thunk>#
	_ZThn76_N12CAknTabGroup19HandleControlEventLEP11CCoeControlN19MCoeControlObserver9TCoeEventE @ 3986 NONAME ; #<thunk>#
	_ZThn56_N33AknListBoxShortCutsImplementation15ProcessCommandLEi @ 3987 NONAME ; #<thunk>#
	_ZThn84_NK12CAknTabGroup14PrepareContextER9CWindowGc @ 3988 NONAME ; #<thunk>#
	_ZThn92_N12CAknTabGroup25HandleNaviDecoratorEventLEi @ 3989 NONAME ; #<thunk>#
	_ZThn76_N15CAknSettingPage19HandleControlEventLEP11CCoeControlN19MCoeControlObserver9TCoeEventE @ 3990 NONAME ; #<thunk>#
	_ZThn76_N16CAknQueryControl17HandleEdwinEventLEP9CEikEdwinN17MEikEdwinObserver11TEdwinEventE @ 3991 NONAME ; #<thunk>#
	_ZThn76_N17CAknVolumeControl25HandleNaviDecoratorEventLEi @ 3992 NONAME ; #<thunk>#
	_ZThn76_N19CAknMfneSettingPage19HandleControlEventLEP11CCoeControlN19MCoeControlObserver9TCoeEventE @ 3993 NONAME ; #<thunk>#
	_ZThn76_N19CAknSettingItemList19HandleListBoxEventLEP11CEikListBoxN19MEikListBoxObserver13TListBoxEventE @ 3994 NONAME ; #<thunk>#
	_ZThn76_N19CAknTextSettingPage19HandleControlEventLEP11CCoeControlN19MCoeControlObserver9TCoeEventE @ 3995 NONAME ; #<thunk>#
	_ZThn76_N22CAknIndicatorContainer26HandleStatusPaneSizeChangeEv @ 3996 NONAME ; #<thunk>#
	_ZThn76_N22CAknIntegerSettingPage19HandleControlEventLEP11CCoeControlN19MCoeControlObserver9TCoeEventE @ 3997 NONAME ; #<thunk>#
	_ZThn76_N23CAknNavigationDecorator19HandleControlEventLEP11CCoeControlN19MCoeControlObserver9TCoeEventE @ 3998 NONAME ; #<thunk>#
	_ZThn76_N23CAknPasswordSettingPage19HandleControlEventLEP11CCoeControlN19MCoeControlObserver9TCoeEventE @ 3999 NONAME ; #<thunk>#
	_ZThn76_NK13CAknTitlePane14PrepareContextER9CWindowGc @ 4000 NONAME ; #<thunk>#
	_ZThn80_N16CAknQueryControl21HandleEdwinSizeEventLEP9CEikEdwinN21MEikEdwinSizeObserver15TEdwinSizeEventE5TSize @ 4001 NONAME ; #<thunk>#
	_ZThn84_N15CAknSearchField15ProcessCommandLEi @ 4002 NONAME ; #<thunk>#
	_ZThn84_N15CAknSettingPage11SetEmphasisEP11CCoeControli @ 4003 NONAME ; #<thunk>#
	_ZThn84_N15CAknSettingPage15ProcessCommandLEi @ 4004 NONAME ; #<thunk>#
	_ZThn84_N15CAknSettingPage16DynInitMenuPaneLEiP12CEikMenuPane @ 4005 NONAME ; #<thunk>#
	_ZThn84_N16CAknQueryControl19HandleControlEventLEP11CCoeControlN19MCoeControlObserver9TCoeEventE @ 4006 NONAME ; #<thunk>#
	_ZThn84_N19CAknExtQueryControl19HandleControlEventLEP11CCoeControlN19MCoeControlObserver9TCoeEventE @ 4007 NONAME ; #<thunk>#
	_ZThn84_N23CAknCheckBoxSettingPage15ProcessCommandLEi @ 4008 NONAME ; #<thunk>#
	_ZThn84_N23CAknNavigationDecorator16DecoratedControlEv @ 4009 NONAME ; #<thunk>#
	_ZThn84_N23CAknNavigationDecoratorD0Ev @ 4010 NONAME ; #<thunk>#
	_ZThn84_N23CAknNavigationDecoratorD1Ev @ 4011 NONAME ; #<thunk>#
	_ZThn84_N30CAknNavigationControlContainer19HandleControlEventLEP11CCoeControlN19MCoeControlObserver9TCoeEventE @ 4012 NONAME ; #<thunk>#
	_ZThn88_N13CAknPopupList15ProcessCommandLEi @ 4013 NONAME ; #<thunk>#
	_ZThn88_N13CAknViewAppUi26HandleStatusPaneSizeChangeEv @ 4014 NONAME ; #<thunk>#
	_ZThn88_N14CAknInputFrame19HandleControlEventLEP11CCoeControlN19MCoeControlObserver9TCoeEventE @ 4015 NONAME ; #<thunk>#
	_ZThn88_N14CAknPopupField19HandleControlEventLEP11CCoeControlN19MCoeControlObserver9TCoeEventE @ 4016 NONAME ; #<thunk>#
	_ZThn88_N17CAknCharMapDialog19HandleControlEventLEP11CCoeControlN19MCoeControlObserver9TCoeEventE @ 4017 NONAME ; #<thunk>#
	_ZThn88_N18CAknPopupFieldList15ProcessCommandLEi @ 4018 NONAME ; #<thunk>#
	_ZThn88_N21CAknPhoneNumberEditor33MCoeFepAwareTextEditor_Reserved_2Ev @ 4019 NONAME ; #<thunk>#
	_ZThn88_N23CAknNumericSecretEditor33MCoeFepAwareTextEditor_Reserved_2Ev @ 4020 NONAME ; #<thunk>#
	_ZThn88_N9CAknAppUi26HandleStatusPaneSizeChangeEv @ 4021 NONAME ; #<thunk>#
	_ZThn92_N21CAknPhoneNumberEditor44MCoeFepAwareTextEditor_Extension1_Reserved_4Ev @ 4022 NONAME ; #<thunk>#
	_ZThn92_N23CAknNumericSecretEditor44MCoeFepAwareTextEditor_Extension1_Reserved_4Ev @ 4023 NONAME ; #<thunk>#
	_ZThn92_N30CAknNavigationControlContainer15CreateTabGroupLEv @ 4024 NONAME ; #<thunk>#
	_ZThn92_N30CAknNavigationControlContainer19CreateMessageLabelLERK7TDesC16 @ 4025 NONAME ; #<thunk>#
	_ZThn92_N30CAknNavigationControlContainer3PopEv @ 4026 NONAME ; #<thunk>#
	_ZThn92_N30CAknNavigationControlContainer5PushLER23CAknNavigationDecorator @ 4027 NONAME ; #<thunk>#
	_ZThn92_N30CAknNavigationControlContainerD0Ev @ 4028 NONAME ; #<thunk>#
	_ZThn92_N30CAknNavigationControlContainerD1Ev @ 4029 NONAME ; #<thunk>#
	_ZThn92_N9CAknAppUi22HandleViewDeactivationERK10TVwsViewIdS2_ @ 4030 NONAME ; #<thunk>#
	_ZThn96_N13CAknPopupList19HandleListBoxEventLEP11CEikListBoxN19MEikListBoxObserver13TListBoxEventE @ 4031 NONAME ; #<thunk>#
	_ZThn96_N14CAknPopupField15ProcessCommandLEi @ 4032 NONAME ; #<thunk>#
	_ZThn96_N15CAknNoteWrapper22HandleDialogPageEventLEi @ 4033 NONAME ; #<thunk>#
	_ZThn96_N17CAknCharMapDialog22HandleDialogPageEventLEi @ 4034 NONAME ; #<thunk>#
	_ZThn96_N18CAknPopupFieldList19HandleListBoxEventLEP11CEikListBoxN19MEikListBoxObserver13TListBoxEventE @ 4035 NONAME ; #<thunk>#
	_ZThn96_N23CAknSelectionListDialog20CreateCustomControlLEi @ 4036 NONAME ; #<thunk>#
	_ZThn96_N8CAknForm26PrepareForFocusTransitionLEv @ 4037 NONAME ; #<thunk>#
	_Z34DefaultInputLanguageFromUILanguagei @ 4038 NONAME
	_ZN14AknLayoutUtils34CreateLayoutFontFromSpecificationLERK21TAknFontSpecification @ 4039 NONAME
	_ZN14AknLayoutUtils34CreateLayoutFontFromSpecificationLERK9TTypefaceRK21TAknFontSpecification @ 4040 NONAME
	_ZNK14CAknLayoutFont10MaxDescentEv @ 4041 NONAME
	_ZNK14CAknLayoutFont17FontSpecificationEv @ 4042 NONAME
	_ZNK14CAknLayoutFont21TextDecorationMetricsEv @ 4043 NONAME
	_ZNK14CAknLayoutFont9MaxAscentEv @ 4044 NONAME
	_ZN17CAknCharMapDialog15LockNumericKeysEi @ 4045 NONAME
	_ZN14CAknSignalPane12ShowEdgeIconEi @ 4046 NONAME
	_ZN23CAknNavigationDecorator21NaviControlLayoutModeEv @ 4047 NONAME
	_ZN23CAknNavigationDecorator22NaviControlLayoutStyleEv @ 4048 NONAME
	_ZN23CAknNavigationDecorator24SetNaviControlLayoutModeENS_25TAknNaviControlLayoutModeE @ 4049 NONAME
	_ZN23CAknNavigationDecorator25SetNaviControlLayoutStyleENS_26TAknNaviControlLayoutStyleE @ 4050 NONAME
	_ZN23CAknNavigationDecorator31NaviControlLayoutStyleSupportedENS_26TAknNaviControlLayoutStyleE @ 4051 NONAME
	_ZN12CAknTaskList11UpdateListLEv @ 4052 NONAME
	_ZN12CAknTaskList4NewLER10RWsSession @ 4053 NONAME
	_ZN12CAknTaskList5NewLCER10RWsSession @ 4054 NONAME
	_ZN12CAknTaskListD0Ev @ 4055 NONAME
	_ZN12CAknTaskListD1Ev @ 4056 NONAME
	_ZN12CAknTaskListD2Ev @ 4057 NONAME
	_ZNK12CAknTaskList11FindRootAppE4TUid @ 4058 NONAME
	_ZNK12CAknTaskList17IsRootWindowGroupEi @ 4059 NONAME
	_ZNK12CAknTaskList7WgArrayEv @ 4060 NONAME
	_ZTI12CAknTaskList @ 4061 NONAME ; #<TI>#
	_ZTV12CAknTaskList @ 4062 NONAME ; #<VT>#
	_ZN8CAknGrid18HandleScrollEventLEP13CEikScrollBar15TEikScrollEvent @ 4063 NONAME
	_ZN27CAknInfoPopupNoteController12AddObserverLERK25MAknInfoPopupNoteObserver @ 4064 NONAME
	_ZN27CAknInfoPopupNoteController14RemoveObserverERK25MAknInfoPopupNoteObserver @ 4065 NONAME
	_ZTI17CWsEventSimulator @ 4066 NONAME ABSENT ; #<TI>#
	_ZTV17CWsEventSimulator @ 4067 NONAME ABSENT ; #<VT>#
	_ZN13AknFontAccess14GetClosestFontER13CBitmapDevice10TFontStyleiNS_14TAknFontFamilyE @ 4068 NONAME
	_ZN13AknFontAccess14GetClosestFontER13CBitmapDevice10TFontStyleiRK7TDesC16 @ 4069 NONAME
	_ZN13AknFontAccess34CreateLayoutFontFromSpecificationLER13CBitmapDeviceRK21TAknFontSpecification @ 4070 NONAME
	_ZN13AknFontAccess34CreateLayoutFontFromSpecificationLER13CBitmapDeviceRK9TTypefaceRK21TAknFontSpecification @ 4071 NONAME
	_ZN13AknFontAccess7GetFontER13CBitmapDevice10TFontStyleiNS_14TAknFontFamilyE @ 4072 NONAME
	_ZN13AknFontAccess7GetFontER13CBitmapDevice10TFontStyleiRK7TDesC16 @ 4073 NONAME
	_ZN22CAknIndicatorContainer29SetIncallBubbleAllowedInUsualEi @ 4074 NONAME
	_ZN14CLafSystemFont4NewLE4TUidP14CAknLayoutFont @ 4075 NONAME
	_ZN22AknCustomCursorSupport22CustomBidiTextCursorIdE16TAknFontCategory5TRecti @ 4076 NONAME
	_ZN22AknCustomCursorSupport29GetBidiTextCursorFromFontSpecERK9TFontSpeciR11TTextCursor @ 4077 NONAME
	_ZNK14CLafSystemFont3UidEv @ 4078 NONAME
	_ZNK14CLafSystemFont4FontEv @ 4079 NONAME
	_ZN13CAknViewAppUi13SetSplitViewLE4TUidS0_i @ 4080 NONAME
	_ZN13CAknViewAppUi16RemoveSplitViewLE4TUid @ 4081 NONAME
	_ZN22CAknMessageQueryDialog15ProcessCommandLEi @ 4082 NONAME
	_ZN8CAknView21StopDisplayingToolbarEv @ 4083 NONAME
	_ZN9CAknAppUi26StopDisplayingPopupToolbarEv @ 4084 NONAME
	_ZN9CAknAppUi9TouchPaneEv @ 4085 NONAME
	_ZNK13CAknViewAppUi11FocusedViewEv @ 4086 NONAME
	_ZNK13CAknViewAppUi15SplitViewActiveEv @ 4087 NONAME
	_ZNK13CAknViewAppUi9ViewShownE4TUid @ 4088 NONAME
	_ZNK7CAknEnv15SplitViewActiveEv @ 4089 NONAME
	_ZNK8CAknView7ToolbarEv @ 4090 NONAME
	_ZNK9CAknAppUi12PopupToolbarEv @ 4091 NONAME
	_ZNK9CAknAppUi19CurrentPopupToolbarEv @ 4092 NONAME
	_ZThn156_N22CAknMessageQueryDialog15ProcessCommandLEi @ 4093 NONAME ; #<thunk>#
	_ZN16CAknIntegerEdwin11CheckNumberEv @ 4094 NONAME
	_ZN16CAknQueryControl11CheckNumberEv @ 4095 NONAME
	_ZN13CAknSgcClient25CurrentStatuspaneResourceEv @ 4096 NONAME
	_ZN13CAknAppUiBase14SetLocalUiZoomE10TAknUiZoom @ 4097 NONAME
	_ZN16CAknSettingCache12GlobalUiZoomEv @ 4098 NONAME
	_ZNK13CAknAppUiBase11LocalUiZoomEv @ 4099 NONAME
	_ZNK7CAknEnv22GetCurrentGlobalUiZoomER10TAknUiZoom @ 4100 NONAME
	_ZN17CAknVolumeControl20HandleResourceChangeEi @ 4101 NONAME
	_ZN18AknStatuspaneUtils16StaconPaneActiveEv @ 4102 NONAME
	_ZN18AknStatuspaneUtils18StaconSoftKeysLeftEv @ 4103 NONAME
	_ZN18AknStatuspaneUtils19StaconSoftKeysRightEv @ 4104 NONAME
	_ZN20CAknPopupHeadingPane14SetSkinFrameIdERK11TAknsItemID @ 4105 NONAME
	_ZN20CAknPopupHeadingPane20SetSkinFrameCenterIdERK11TAknsItemID @ 4106 NONAME
	_ZN14CAknPopupField12FocusChangedE8TDrawNow @ 4107 NONAME
	_ZN25CFormattedCellListBoxData11ConstructLDERK11TAknsItemID @ 4108 NONAME
	_ZN25CFormattedCellListBoxData32SetHighlightAnimBackgroundDrawerEP28MListBoxAnimBackgroundDrawer @ 4109 NONAME
	_ZNK25CFormattedCellListBoxData13HighlightAnimEv @ 4110 NONAME
	_ZNK25CFormattedCellListBoxData24AboutToDrawHighlightAnimEv @ 4111 NONAME
	_ZN13CAknTitlePane15SetSmallPictureEPK10CFbsBitmapS2_i @ 4112 NONAME
	_ZN18AknStatuspaneUtils16IdleLayoutActiveEv @ 4113 NONAME
	_ZN27CAknInfoPopupNoteController15SetTooltipModeLEi @ 4114 NONAME
	_ZN27CAknInfoPopupNoteController22RestoreDefaultPositionEv @ 4115 NONAME
	_ZN27CAknInfoPopupNoteController23SetPositionAndAlignmentERK6TPointRK18TGulAlignmentValue @ 4116 NONAME
	_ZN14CAknNoteDialog18ExitSleepingDialogEv @ 4117 NONAME
	_ZN28CAknFilteredTextListBoxModel12RemoveFilterEv @ 4118 NONAME
	_ZN38CAknDoubleGraphicPopupMenuStyleListBox11MinimumSizeEv @ 4119 NONAME
	_ZN38CAknDoubleGraphicPopupMenuStyleListBox11SizeChangedEv @ 4120 NONAME
	_ZN38CAknDoubleGraphicPopupMenuStyleListBox17CreateItemDrawerLEv @ 4121 NONAME
	_ZN38CAknDoubleGraphicPopupMenuStyleListBox19HandlePointerEventLERK13TPointerEvent @ 4122 NONAME
	_ZN38CAknDoubleGraphicPopupMenuStyleListBoxC1Ev @ 4123 NONAME
	_ZN38CAknDoubleGraphicPopupMenuStyleListBoxC2Ev @ 4124 NONAME
	_ZN39CAknSingle2GraphicPopupMenuStyleListBox11MinimumSizeEv @ 4125 NONAME
	_ZN39CAknSingle2GraphicPopupMenuStyleListBox11SizeChangedEv @ 4126 NONAME
	_ZN39CAknSingle2GraphicPopupMenuStyleListBox17CreateItemDrawerLEv @ 4127 NONAME
	_ZN39CAknSingle2GraphicPopupMenuStyleListBox19HandlePointerEventLERK13TPointerEvent @ 4128 NONAME
	_ZN39CAknSingle2GraphicPopupMenuStyleListBoxC1Ev @ 4129 NONAME
	_ZN39CAknSingle2GraphicPopupMenuStyleListBoxC2Ev @ 4130 NONAME
	_ZTI38CAknDoubleGraphicPopupMenuStyleListBox @ 4131 NONAME ; #<TI>#
	_ZTI39CAknSingle2GraphicPopupMenuStyleListBox @ 4132 NONAME ; #<TI>#
	_ZTV38CAknDoubleGraphicPopupMenuStyleListBox @ 4133 NONAME ; #<VT>#
	_ZTV39CAknSingle2GraphicPopupMenuStyleListBox @ 4134 NONAME ; #<VT>#
	_ZN14AknLayoutUtils11CbaLocationEv @ 4135 NONAME
	_ZN13CAknTitlePane7SetTextEP7HBufC16i @ 4136 NONAME
	_ZN13CAknTitlePane8SetTextLERK7TDesC16i @ 4137 NONAME
	_ZN18AknStatuspaneUtils16FlatLayoutActiveEv @ 4138 NONAME
	_ZN13AknLayoutTree21LayoutContentChangedLERK9TLafTableiP14CAknLayoutData @ 4139 NONAME ABSENT
	_ZN26CAknPreviewPopUpController11SetPositionERK6TPoint @ 4140 NONAME
	_ZN26CAknPreviewPopUpController12AddObserverLERK24MAknPreviewPopUpObserver @ 4141 NONAME
	_ZN26CAknPreviewPopUpController12ContentReadyEv @ 4142 NONAME
	_ZN26CAknPreviewPopUpController14RemoveObserverERK24MAknPreviewPopUpObserver @ 4143 NONAME
	_ZN26CAknPreviewPopUpController17SetPopUpHideDelayERK27TTimeIntervalMicroSeconds32 @ 4144 NONAME
	_ZN26CAknPreviewPopUpController17SetPopUpShowDelayERK27TTimeIntervalMicroSeconds32 @ 4145 NONAME
	_ZN26CAknPreviewPopUpController22SetPositionByHighlightERK5TRect @ 4146 NONAME
	_ZN26CAknPreviewPopUpController4NewLER11CCoeControl @ 4147 NONAME
	_ZN26CAknPreviewPopUpController4NewLER11CCoeControlR31MAknPreviewPopUpContentProvider @ 4148 NONAME
	_ZN26CAknPreviewPopUpController9HidePopUpEv @ 4149 NONAME
	_ZN26CAknPreviewPopUpController9ShowPopUpEv @ 4150 NONAME
	_ZN28CAknMultiLineDataQueryDialog20HandleResourceChangeEi @ 4151 NONAME
	_ZTI18CAknCharMapHistory @ 4152 NONAME ; #<TI>#
	_ZTV18CAknCharMapHistory @ 4153 NONAME ; #<VT>#
	_ZN13CAknPopupForm20HandleResourceChangeEi @ 4154 NONAME
	_ZN27CAknInfoPopupNoteController22SetPositionByHighlightERK5TRect @ 4155 NONAME
	_ZN25CFormattedCellListBoxData17SetDrawBackgroundEi @ 4156 NONAME
	_ZN19CAknIndicatorPlugin4NewLERK4TUid @ 4157 NONAME
	_ZN19CAknIndicatorPluginD0Ev @ 4158 NONAME
	_ZN19CAknIndicatorPluginD1Ev @ 4159 NONAME
	_ZN19CAknIndicatorPluginD2Ev @ 4160 NONAME
	_ZN13CAknSgcClient12LayoutConfigEv @ 4161 NONAME
	_ZNK16CAknLayoutConfig14HardwareStatesEv @ 4162 NONAME
	_ZNK16CAknLayoutConfig14THardwareState10ScreenModeEv @ 4163 NONAME
	_ZNK16CAknLayoutConfig14THardwareState11StateNumberEv @ 4164 NONAME
	_ZNK16CAknLayoutConfig14THardwareState7KeyCodeEv @ 4165 NONAME
	_ZNK16CAknLayoutConfig19THardwareStateArray2AtEi @ 4166 NONAME
	_ZNK16CAknLayoutConfig19THardwareStateArray5CountEv @ 4167 NONAME
	_ZN13CAknSgcClient15LayoutConfigBufEv @ 4168 NONAME
	_ZNK16CAknLayoutConfig11ScreenModesEv @ 4169 NONAME
	_ZNK14TAknScreenMode10ModeNumberEv @ 4170 NONAME
	_ZNK16CAknLayoutConfig11TScreenMode15SoftkeyLocationEv @ 4171 NONAME
	_ZNK16CAknLayoutConfig11TScreenMode22PixelsTwipsAndRotationEv @ 4172 NONAME
	_ZNK16CAknLayoutConfig14THardwareState19AlternateScreenModeEv @ 4173 NONAME
	_ZNK16CAknLayoutConfig16TScreenModeArray2AtEi @ 4174 NONAME
	_ZNK16CAknLayoutConfig16TScreenModeArray4FindEi @ 4175 NONAME
	_ZNK15TAknScreenModes5CountEv @ 4176 NONAME
	_ZNK16CAknLayoutConfig19THardwareStateArray4FindEi @ 4177 NONAME
	_ZN11CAknCharMap14SetMenuSctRectERK5TRect @ 4178 NONAME
	_ZN11CAknCharMap20ConstructMenuSctRowLEv @ 4179 NONAME
	_ZN25CFormattedCellListBoxData20SetSubcellUnderlinedE10TBitFlagsTImE @ 4180 NONAME
	_ZN19CAknListQueryDialog20HandleResourceChangeEi @ 4181 NONAME
	_ZN19CAknBitmapAnimation30SetScaleModeForAnimationFramesE10TScaleMode @ 4182 NONAME
	_ZN19CAknBitmapAnimation39SetScaleModeForAnimationBackgroundFrameE10TScaleMode @ 4183 NONAME
	_ZN14AknLayoutUtils13MainPaneStateEv @ 4184 NONAME
	_ZN23CAknNavigationDecorator20HandleResourceChangeEi @ 4185 NONAME
	_ZN20CAknPopupSettingList20HandleResourceChangeEi @ 4186 NONAME
	_ZN23CAknCheckBoxSettingPage20HandleResourceChangeEi @ 4187 NONAME
	_ZN26CAknRadioButtonSettingPage20HandleResourceChangeEi @ 4188 NONAME
	_ZN32CAknTransparentCameraSettingPage20HandleResourceChangeEi @ 4189 NONAME
	_ZN13CAknTitlePane26SetNumberOfVisibleTextRowsEi @ 4190 NONAME
	_ZNK13CAknTitlePane26MaxNumberOfVisibleTextRowsEv @ 4191 NONAME
	_ZN18CAknMarqueeControl28UseLogicalToVisualConversionEi @ 4192 NONAME
	_ZN16AknDateTimeUtils24ConvertUtcTimeToHomeTimeER5TTime @ 4193 NONAME
	_ZNK30CAknNavigationControlContainer3TopEi @ 4194 NONAME
	_ZN20CAknPopupHeadingPane20HandleResourceChangeEi @ 4195 NONAME
	_ZN30CAknNavigationControlContainer36SetPreferredNaviDecoratorLayoutStyleEi @ 4196 NONAME
	_ZN26CAknMultiLineIpQueryDialog20HandleResourceChangeEi @ 4197 NONAME
	_ZN18CAknKeySoundSystem10TopContextEv @ 4198 NONAME
	_ZN9CAknAppUi16GetAliasKeyCodeLERjRK9TKeyEvent10TEventCode @ 4199 NONAME
	_ZN9CAknAppUi24SetAliasKeyCodeResolverLEP24MAknAliasKeyCodeResolver @ 4200 NONAME
	_ZN19CAknListQueryDialog14PublishDialogLEi4TUidP13CArrayFixFlatIiE @ 4201 NONAME
	_ZN19CAknListQueryDialog19SetMediatorObserverEP26MAknDialogMediatorObserver @ 4202 NONAME
	_ZN14CAknChoiceList4NewLEP11CCoeControlP12CDesC16ArrayiP10CAknButton @ 4203 NONAME
	_ZN14CAknChoiceList5NewLCEP11CCoeControlP12CDesC16ArrayiP10CAknButton @ 4204 NONAME
	_ZN14CAknChoiceList8AddItemLEPK7TDesC16 @ 4205 NONAME
	_ZN14CAknChoiceList8SetFlagsEi @ 4206 NONAME
	_ZN14CAknChoiceList8SetItemsEP12CDesC16Array @ 4207 NONAME
	_ZN14CAknChoiceList9SetItemsLEi @ 4208 NONAME
	_ZNK14CAknChoiceList13SelectedIndexEv @ 4209 NONAME
	_ZNK14CAknChoiceList16ComponentControlEi @ 4210 NONAME
	_ZNK14CAknChoiceList22CountComponentControlsEv @ 4211 NONAME
	_ZNK14CAknChoiceList4DrawERK5TRect @ 4212 NONAME
	_ZNK14CAknChoiceList5FlagsEv @ 4213 NONAME
	_ZTI14CAknChoiceList @ 4214 NONAME ; #<TI>#
	_ZTV14CAknChoiceList @ 4215 NONAME ; #<VT>#
	_ZThn76_N14CAknChoiceList19HandleControlEventLEP11CCoeControlN19MCoeControlObserver9TCoeEventE @ 4216 NONAME ; #<thunk>#
	_ZN31CAknStylusActivatedPopUpContent11MinimumSizeEv @ 4217 NONAME
	_ZN31CAknStylusActivatedPopUpContent11SizeChangedEv @ 4218 NONAME
	_ZN31CAknStylusActivatedPopUpContent18SetCommandObserverER19MEikCommandObserver @ 4219 NONAME
	_ZN31CAknStylusActivatedPopUpContent19HandleControlEventLEP11CCoeControlN19MCoeControlObserver9TCoeEventE @ 4220 NONAME
	_ZN31CAknStylusActivatedPopUpContent19SetContainerWindowLERK11CCoeControl @ 4221 NONAME
	_ZN31CAknStylusActivatedPopUpContent20HandleResourceChangeEi @ 4222 NONAME
	_ZN31CAknStylusActivatedPopUpContent22ConstructFromResourceLER15TResourceReader @ 4223 NONAME
	_ZN31CAknStylusActivatedPopUpContent22ConstructFromResourceLEi @ 4224 NONAME
	_ZN31CAknStylusActivatedPopUpContent4NewLER15TResourceReader @ 4225 NONAME
	_ZN31CAknStylusActivatedPopUpContent4NewLERK7TDesC16S2_ @ 4226 NONAME
	_ZN31CAknStylusActivatedPopUpContent4NewLERK7TDesC16S2_RK6RArrayI15TAknContentLinkE @ 4227 NONAME
	_ZN31CAknStylusActivatedPopUpContent4NewLEi @ 4228 NONAME
	_ZNK31CAknStylusActivatedPopUpContent16ComponentControlEi @ 4229 NONAME
	_ZNK31CAknStylusActivatedPopUpContent22CountComponentControlsEv @ 4230 NONAME
	_ZNK31CAknStylusActivatedPopUpContent4DrawERK5TRect @ 4231 NONAME
	_ZThn76_N31CAknStylusActivatedPopUpContent19HandleControlEventLEP11CCoeControlN19MCoeControlObserver9TCoeEventE @ 4232 NONAME ; #<thunk>#
	_ZN24CEikFormattedCellListBox13HideSecondRowEi @ 4233 NONAME
	_ZN24CEikFormattedCellListBox16EnableStretchingEi @ 4234 NONAME
	_ZN13CAknSgcClient10ScreenModeEv @ 4235 NONAME
	_ZN13CAknSgcClient19CalculateScreenModeEiii @ 4236 NONAME
	_ZNK16CAknLayoutConfig11TScreenMode15ScreenStyleHashEv @ 4237 NONAME
	_ZN26CAknPreviewPopUpController17UpdateContentSizeEv @ 4238 NONAME
	_ZNK26CAknPreviewPopUpController4SizeEv @ 4239 NONAME
	_ZN26CAknPreviewPopUpController4NewLER11CCoeControli @ 4240 NONAME
	_ZN26CAknPreviewPopUpController4NewLER11CCoeControlR31MAknPreviewPopUpContentProvideri @ 4241 NONAME
	_ZN19CAknLongTapDetector13PointerEventLERK13TPointerEvent @ 4242 NONAME
	_ZN18AknStatuspaneUtils31TouchPaneCompatibleLayoutActiveEv @ 4243 NONAME
	_ZN19CAknLongTapDetectorD0Ev @ 4244 NONAME
	_ZN7CAknEnv14LoadAknLayoutLERK26TAknLayoutConfigScreenMode @ 4245 NONAME
	_ZN14CAknChoiceList19HandleControlEventLEP11CCoeControlN19MCoeControlObserver9TCoeEventE @ 4246 NONAME
	_ZN14CAknChoiceList20HandleResourceChangeEi @ 4247 NONAME
	_ZN19CAknLongTapDetector5NewLCEP27MAknLongTapDetectorCallBack @ 4248 NONAME
	_ZN22CAknIndicatorContainer21ReplaceIndicatorIconLE4TUidiiP10CFbsBitmapS2_i @ 4249 NONAME
	_ZN22CAknIndicatorContainer28CreateIndicatorFromResourceLEii @ 4250 NONAME
	_ZN14AknLayoutUtils10PenEnabledEv @ 4251 NONAME
	_ZN19CAknLongTapDetector22EnableLongTapAnimationEi @ 4252 NONAME
	_ZN19CAknLongTapDetector27SetTimeDelayBeforeAnimationEi @ 4253 NONAME
	_ZN19CAknLongTapDetector15SetLongTapDelayEi @ 4254 NONAME
	_ZN19CAknLongTapDetector4NewLEP27MAknLongTapDetectorCallBack @ 4255 NONAME
	_ZN26CAknPreviewPopUpController19ContentSizeInLayoutEv @ 4256 NONAME
	_ZN19CAknLongTapDetectorD1Ev @ 4257 NONAME
	_ZNK25CFormattedCellListBoxData16HasHighlightAnimEv @ 4258 NONAME
	_ZNK25CFormattedCellListBoxData17DrawHighlightAnimER14CBitmapContextRK5TRect @ 4259 NONAME
	_ZN14CAknChoiceList10RemoveItemEi @ 4260 NONAME
	_ZN19CAknLongTapDetectorD2Ev @ 4261 NONAME
	_ZN18CAknMarqueeControl8DrawTextER9CWindowGcRK5TRectRK23TAknTextComponentLayoutRK7TDesC16PK5CFont @ 4262 NONAME
	_ZN16CAknSettingCache20PreferredOrientationEv @ 4263 NONAME
	_ZN12AknLangUtils19DisplayLanguageTagLEv @ 4264 NONAME
	_ZN14CAknInputBlock15SetCancelActiveEP7CActive @ 4265 NONAME
	_ZN14CAknInputBlock15SetCancelDeleteEP5CBase @ 4266 NONAME
	_ZN14CAknInputBlock16SetCancelHandlerEP27MAknInputBlockCancelHandler @ 4267 NONAME
	_ZN14CAknInputBlock17NewCancelActiveLCEP7CActive @ 4268 NONAME
	_ZN14CAknInputBlock17NewCancelDeleteLCEP5CBase @ 4269 NONAME
	_ZN14CAknInputBlock18NewCancelHandlerLCEP27MAknInputBlockCancelHandler @ 4270 NONAME
	_ZN14CAknInputBlock5NewLCEv @ 4271 NONAME
	_ZN14CAknInputBlock6CancelEv @ 4272 NONAME
	_ZN14CAknInputBlockD0Ev @ 4273 NONAME
	_ZN14CAknInputBlockD1Ev @ 4274 NONAME
	_ZN14CAknInputBlockD2Ev @ 4275 NONAME
	_ZN14CAknChoiceList10SetButtonLEP10CAknButton @ 4276 NONAME
	_ZN19CAknBitmapAnimation31ExcludeAnimationFramesFromCacheEv @ 4277 NONAME
	_ZN14CAknChoiceList14HideChoiceListEv @ 4278 NONAME
	_ZN20CAknLongTapAnimation13HideAnimationEv @ 4279 NONAME
	_ZN20CAknLongTapAnimation14ShowAnimationLEii @ 4280 NONAME
	_ZN20CAknLongTapAnimation4NewLEv @ 4281 NONAME
	_ZN20CAknLongTapAnimation5NewLCEv @ 4282 NONAME
	_ZN14CAknChoiceList14OfferKeyEventLERK9TKeyEvent10TEventCode @ 4283 NONAME
	_ZN27CAknInfoPopupNoteController7SetToneERKNS_5TToneE @ 4284 NONAME
	_ZN14CAknChoiceList11MinimumSizeEv @ 4285 NONAME
	_ZN26CAknPreviewPopUpController15SetHeadingTextLERK7TDesC16 @ 4286 NONAME
	_ZN15CAknQueryDialog4NewLER9TPositionRKNS_5TToneE @ 4287 NONAME
	_ZN16CAknQueryControl11SetLocationERK9TPosition @ 4288 NONAME
	_ZN28CAknMultiLineDataQueryDialog4NewLER9TPositionN15CAknQueryDialog5TToneE @ 4289 NONAME
	_ZNK16CAknQueryControl11GetLocationER9TPosition @ 4290 NONAME
	_ZN14CAknChoiceList15ShowChoiceListLEv @ 4291 NONAME
	_ZN14CAknChoiceList16SetSelectedIndexEi @ 4292 NONAME
	_ZN16AknBidiTextUtils22MeasureTextBoundsWidthERK5CFontRK7TDesC16NS0_17TMeasureTextInput6TFlagsE @ 4293 NONAME
	_ZN16CAknSettingCache15RegisterPluginLEP28MAknSettingCacheUpdatePlugin @ 4294 NONAME
	_ZN16CAknSettingCache16DeRegisterPluginEP28MAknSettingCacheUpdatePlugin @ 4295 NONAME
	_ZN13CAknAppUiBase18ApplyLayoutChangeLEi @ 4296 NONAME
	_ZN16CAknSettingCache11PluginValueEiRi @ 4297 NONAME
	_ZN14AknLayoutUtils10MSKEnabledEv @ 4298 NONAME
	_ZN13CAknSgcClient19CalculateScreenModeEiiii @ 4299 NONAME
	_ZN15TAknScreenModes19SetAppUiScreenModeLEP13CAknAppUiBaseRK14TAknScreenMode @ 4300 NONAME
	_ZN15TAknScreenModes8GetModesEv @ 4301 NONAME
	_ZNK14TAknScreenMode11DisplayModeEv @ 4302 NONAME
	_ZNK14TAknScreenMode12SizeInPixelsEv @ 4303 NONAME
	_ZNK15TAknScreenModesixEi @ 4304 NONAME
	_ZN32CAknTransparentCameraSettingPage28SetBitmapPositionAndClipRectE6TPoint5TRecti @ 4305 NONAME
	_ZN25CAknMultilineQueryControl20HandleResourceChangeEi @ 4306 NONAME
	_ZN28CAknExtMultilineQueryControl20HandleResourceChangeEi @ 4307 NONAME
	_ZN14AknLayoutUtils11LayoutEdwinEP9CEikEdwinRK5TRectRK18TAknTextLineLayoutii23TAknsQsnTextColorsIndexRi @ 4308 NONAME
	_ZN14AknLayoutUtils22EdwinLinesWithinHeightERK18TAknTextLineLayoutiiRi @ 4309 NONAME
	_ZN14AknLayoutUtils42GetEdwinVerticalPositionAndHeightFromLinesEiRK18TAknTextLineLayoutiiRiS3_ @ 4310 NONAME
	_Z15SetKeyblockMode16TAknKeyBlockMode @ 4311 NONAME
	_ZN16CAknQueryControl20HandleResourceChangeEi @ 4312 NONAME
	_ZN19CAknTextSettingPage14OfferKeyEventLERK9TKeyEvent10TEventCode @ 4313 NONAME
	_ZN19CAknTextSettingPage9OkToExitLEi @ 4314 NONAME
	_ZTI18CMultiTapWaitTimer @ 4315 NONAME ABSENT ; #<TI>#
	_ZTV18CMultiTapWaitTimer @ 4316 NONAME ABSENT ; #<VT>#
	_ZN18CAknMarqueeControl8DrawTextER9CWindowGcRK5TRectRK23TAknTextComponentLayoutRK7TDesC16PK5CFont4TRgb @ 4317 NONAME
	_ZN15CAknSettingItem15ProtectionStateEv @ 4318 NONAME
	_ZN15CAknSettingItem18SetProtectionStateENS_22TSettingItemProtectionE @ 4319 NONAME
	_ZN18AknStatuspaneUtils24ExtendedFlatLayoutActiveEv @ 4320 NONAME
	_ZN18AknStatuspaneUtils24ExtendedStaconPaneActiveEv @ 4321 NONAME
	_ZN15CAknSettingPage12SetEditStateEi @ 4322 NONAME
	_ZNK15CAknSettingPage10IsEditableEv @ 4323 NONAME
	_ZN32CAknTransparentCameraSettingPage14OfferKeyEventLERK9TKeyEvent10TEventCode @ 4324 NONAME
	_ZN11CAknCharMap20ConstructMenuSctRowLEi @ 4325 NONAME
	_ZTI19CAknIndicatorPlugin @ 4326 NONAME ; #<TI>#
	_ZTV19CAknIndicatorPlugin @ 4327 NONAME ; #<VT>#
	_ZN10CAknSlider11SetGraphicsEiP10CFbsBitmapS1_ @ 4328 NONAME
	_ZN10CAknSlider15SetTickIntervalEj @ 4329 NONAME
	_ZN10CAknSlider15SetTicksEnabledEi @ 4330 NONAME
	_ZN10CAknSlider18UseDefaultGraphicsEi @ 4331 NONAME
	_ZN10CAknSlider21SetPositionIndicatorsEm @ 4332 NONAME
	_ZNK10CAknSlider11OrientationEv @ 4333 NONAME
	_ZNK10CAknSlider12TickIntervalEv @ 4334 NONAME
	_ZNK10CAknSlider12TicksEnabledEv @ 4335 NONAME
	_ZNK10CAknSlider18PositionIndicatorsEv @ 4336 NONAME
	_ZNK10CAknSlider19UsesDefaultGraphicsEi @ 4337 NONAME
	_ZN14CAknSignalPane13ShowHsdpaIconEi @ 4338 NONAME
	_ZN14CAknChoiceList11InsertItemLEiRK7TDesC16 @ 4339 NONAME
	_ZN11CAknCharMap15HighlightSctRowEi @ 4340 NONAME
	_ZN27CAknInfoPopupNoteController16HideWhenAppFadedEi @ 4341 NONAME
	_ZN11CAknCharMap30ConstructMenuSctRowFromDialogLEi @ 4342 NONAME
	_ZN9CAknAppUi10CaptureKeyEjjj @ 4343 NONAME
	_ZN9CAknAppUi11CaptureKeyLEjjjRl @ 4344 NONAME
	_ZN18CAknWsEventMonitor6EnableEi @ 4345 NONAME
	_ZN27CAknStatusPaneDataPublisher11SetRechargeEi @ 4346 NONAME
	_ZN27CAknStatusPaneDataPublisher12PublishDataLEv @ 4347 NONAME
	_ZN27CAknStatusPaneDataPublisher13SetSignalIconEi @ 4348 NONAME
	_ZN27CAknStatusPaneDataPublisher14SetSignalLevelEi @ 4349 NONAME
	_ZN27CAknStatusPaneDataPublisher15SetBatteryLevelEi @ 4350 NONAME
	_ZN27CAknStatusPaneDataPublisher17SetIndicatorStateE4TUidi @ 4351 NONAME
	_ZN27CAknStatusPaneDataPublisher19HandleIndicatorTapLE4TUid @ 4352 NONAME
	_ZN27CAknStatusPaneDataPublisher20SetIncallBubbleFlagsEi @ 4353 NONAME
	_ZN27CAknStatusPaneDataPublisher25SetForegroundSubscriberIdEi @ 4354 NONAME
	_ZN27CAknStatusPaneDataPublisher28SetIncallBubbleAllowedInIdleEi @ 4355 NONAME
	_ZN27CAknStatusPaneDataPublisher29SetIncallBubbleAllowedInUsualEi @ 4356 NONAME
	_ZN27CAknStatusPaneDataPublisher4NewLEv @ 4357 NONAME
	_ZN28CAknStatusPaneDataSubscriber12RefreshDataLEv @ 4358 NONAME
	_ZN28CAknStatusPaneDataSubscriber12RefreshLevelEv @ 4359 NONAME
	_ZN28CAknStatusPaneDataSubscriber15SetRefreshLevelEii @ 4360 NONAME
	_ZN28CAknStatusPaneDataSubscriber19SetAlwaysBackgroundEi @ 4361 NONAME
	_ZN28CAknStatusPaneDataSubscriber22HandleLosingForegroundEv @ 4362 NONAME
	_ZN28CAknStatusPaneDataSubscriber23HandleGainingForegroundEv @ 4363 NONAME
	_ZN28CAknStatusPaneDataSubscriber4NewLEv @ 4364 NONAME
	_ZThn28_N28CAknStatusPaneDataSubscriber22HandleLosingForegroundEv @ 4365 NONAME ABSENT ; #<thunk>#
	_ZThn28_N28CAknStatusPaneDataSubscriber23HandleGainingForegroundEv @ 4366 NONAME ABSENT ; #<thunk>#
	_ZN10CAknSlider10EnableDragEv @ 4367 NONAME
	_ZN30CAknSingle2GraphicStyleListBox17CreateItemDrawerLEv @ 4368 NONAME
	_ZN8CAknView27ShowToolbarOnViewActivationEi @ 4369 NONAME
	_ZNK8CAknView28ToolbarShownOnViewActivationEv @ 4370 NONAME
	_ZN13CAknPopupForm19HandlePointerEventLERK13TPointerEvent @ 4371 NONAME
	_ZN18AknTransitionUtils13SetAllParentsEPK11CCoeControl @ 4372 NONAME ABSENT
	_ZN15CAknVolumePopup22ConstructFromResourceLEi @ 4373 NONAME
	_ZN15CAknVolumePopup8GetRangeERiS0_ @ 4374 NONAME
	_ZN15CAknVolumePopup8SetRangeEii @ 4375 NONAME
	_ZN17CAknVolumeControl8GetRangeERiS0_ @ 4376 NONAME
	_ZN17CAknVolumeControl8SetRangeEii @ 4377 NONAME
	_ZN30CAknSingle2GraphicStyleListBox17UseEmptyIconSpaceEi @ 4378 NONAME
	_ZTI35CAknSingle2GraphicListBoxItemDrawer @ 4379 NONAME ; #<TI>#
	_ZTV35CAknSingle2GraphicListBoxItemDrawer @ 4380 NONAME ; #<VT>#
	_ZNK13CAknAppUiBase23OrientationCanBeChangedEv @ 4381 NONAME
	_ZNK23CAknMessageQueryControl15LinkHighLightedEv @ 4382 NONAME
	_ZN14CAknItemFinder14ItemWasTappedLE6TPoint @ 4383 ABSENT
	_ZNK25CFormattedCellListBoxData25CurrentItemTextWasClippedEv @ 4384 NONAME
	_ZN17CAknVolumeControl34CreateSetDynRangeStyleListBoxIconLEiii @ 4385 NONAME
	_ZN15CAknSearchField11MakeVisibleEi @ 4386 NONAME
	_ZN7CAknEnv19EndCommandMediationER19MEikCommandObserver @ 4387 NONAME
	_ZN7CAknEnv24RequestCommandMediationLER24CEikButtonGroupContainerR19MEikCommandObserver @ 4388 NONAME
	_ZN14CAknChoiceList15SetTooltipTextLERK7TDesC16 @ 4389 NONAME
	_ZN14CAknChoiceList18SetTooltipPositionENS_16TTooltipPositionE @ 4390 NONAME
	_ZN14CAknChoiceList18SetTooltipTimeoutsEii @ 4391 NONAME
	_ZN20CAknPopupHeadingPane20SetHeaderImageOwnedLEP9CEikImage @ 4392 NONAME
	_ZN13CAknViewAppUi24EnableLocalScreenClearerEi @ 4393 NONAME
	_ZNK19CAknLongTapDetector18IsAnimationRunningEv @ 4394 NONAME
	_ZN14CAknItemFinder14CurrentItemExtEv @ 4395 ABSENT
	_ZN14CAknItemFinder16CurrentSelectionEv @ 4396 ABSENT
	_ZN14CAknItemFinder16SetExternalLinksEP13CArrayPtrFlatINS_12CFindItemExtEE @ 4397  ABSENT
	_ZN32AknGlobalPopupPriorityController17AllowGlobalPopupsEi @ 4398 NONAME
	_ZN32AknGlobalPopupPriorityController17SetPopupPriorityLER11CCoeControli @ 4399 NONAME
	_ZN32AknGlobalPopupPriorityController19RemovePopupPriorityER11CCoeControl @ 4400 NONAME
	_ZN32AknGlobalPopupPriorityController22EnablePriorityControlLEv @ 4401 NONAME
	_ZN32AknGlobalPopupPriorityController9ShowPopupER11CCoeControli @ 4402 NONAME
	_ZN32AknGlobalPopupPriorityController25SetRootWinOrdinalPositionEi @ 4403 NONAME
	_ZN13CAknPopupList15FadeBehindPopupEi @ 4404 NONAME
	_ZN10CAknSlider8GetRangeERiS0_ @ 4405 NONAME
	_ZN32CAknTransparentCameraSettingPage15ProcessCommandLEi @ 4406 NONAME
	_ZN32CAknTransparentCameraSettingPage19HandleControlEventLEP11CCoeControlN19MCoeControlObserver9TCoeEventE @ 4407 NONAME
	_ZN32CAknTransparentCameraSettingPage9ExecuteLDEN15CAknSettingPage25TAknSettingPageUpdateModeEi @ 4408 NONAME
	_ZThn76_N32CAknTransparentCameraSettingPage19HandleControlEventLEP11CCoeControlN19MCoeControlObserver9TCoeEventE @ 4409 NONAME ; #<thunk>#
	_ZThn84_N32CAknTransparentCameraSettingPage15ProcessCommandLEi @ 4410 NONAME ; #<thunk>#
	_ZN17CAknCharMapDialog21DisableRecentCharsRowEv @ 4411 NONAME
	_ZN27CAknStatusPaneDataPublisher14SetBatteryIconEi @ 4412 NONAME
	_ZN8CAknGrid15MopSupplyObjectE8TTypeUid @ 4413 NONAME
	_ZThn4_N8CAknGrid15MopSupplyObjectE8TTypeUid @ 4414 NONAME ; #<thunk>#
        _ZN32AknGlobalPopupPriorityController12AddSubPopupLER11CCoeControlS1_ @ 4415 NONAME
	_ZN32AknGlobalPopupPriorityController15FadeBehindPopupER11CCoeControlR14TAknPopupFaderR18MAknFadedComponenti @ 4416 NONAME
	_ZN32AknGlobalPopupPriorityController18RouseSleepingPopupER11CCoeControli @ 4417 NONAME
	_ZN32AknGlobalPopupPriorityController23AddPopupToControlStackLER11CCoeControlii @ 4418 NONAME
	_ZN15CAknVolumePopup18SetTimeOutAsSecondEi @ 4419 NONAME
	_ZN15CAknVolumePopup29SetAdjustmentIndicatorDisplayEi @ 4420 NONAME
	_ZN15CAknVolumePopup4NewLEP11CCoeControli @ 4421 NONAME
	_ZN15CAknVolumePopup11SetGraphicsEiP10CFbsBitmapS1_ @ 4422 NONAME
	_ZN15CAknSearchField24SetListColumnFilterFlagsE10TBitFlagsTImE @ 4423 NONAME
	_ZN15CAknSearchField30AddAdaptiveSearchTextObserverLEP27MAdaptiveSearchTextObserver @ 4424 NONAME
	_ZN15CAknSearchField32RemoveAdaptiveSearchTextObserverEP27MAdaptiveSearchTextObserver @ 4425 NONAME
	_ZN7AknFind19IsAdaptiveFindMatchERK7TDesC16S2_RP7HBufC16 @ 4426 NONAME
	_ZN7AknFind25UpdateNextCharsFromStringERP7HBufC16RK7TDesC16 @ 4427 NONAME
	_ZN7AknFind29UpdateItemTextAccordingToFlagERK7TDesC1610TBitFlagsTImER6TDes16 @ 4428 NONAME
	_ZNK15CAknSearchField16SearchFieldStyleEv @ 4429 NONAME
	_ZNK15CAknSearchField20SetAdaptiveGridCharsERK7TDesC16 @ 4430 NONAME
	_ZNK15CAknSearchField21ListColumnFilterFlagsEv @ 4431 NONAME
	_ZNK15CAknSearchField22ShowAdaptiveSearchGridEv @ 4432 NONAME
	_ZTI18CAknAdaptiveSearch @ 4433 NONAME ; #<TI>#
	_ZTI22CAknAdaptiveSearchGrid @ 4434 NONAME ; #<TI>#
	_ZTV18CAknAdaptiveSearch @ 4435 NONAME ; #<VT>#
	_ZTV22CAknAdaptiveSearchGrid @ 4436 NONAME ; #<VT>#
	_ZN12CAknTabGroup20SetTabMultiColorModeEii @ 4437 NONAME
	_ZNK15CAknSettingPage10ShadowTextEv @ 4438 NONAME
	_ZN13CAknIndicator15PositionChangedEv @ 4439 NONAME
	_ZN14CAknChoiceList15PositionChangedEv @ 4440 NONAME
	_ZN18CAknSkinnableClock15PositionChangedEv @ 4441 NONAME
	_ZN19CAknIndicatorPlugin5IconLEi @ 4442 NONAME
	_ZN19CAknIndicatorPlugin5TextLEiRi @ 4443 NONAME
	_ZN19CAknIndicatorPlugin7UpdateLEi @ 4444 NONAME
	_ZN13CAknIndicator15GetBitmapIndexLEiiRiS0_ @ 4445 NONAME
        _ZNK15CAknSettingPage9TextLabelEv @ 4446 NONAME
	_ZN9CAknAppUi16HideInBackgroundEv @ 4447 NONAME
	_ZNK9CAknAppUi21ExitHidesInBackgroundEv @ 4448 NONAME
	_ZTI18CAknSctRadioButton @ 4449 NONAME ; #<TI>#
	_ZTI21CAknSctCategoryButton @ 4450 NONAME ; #<TI>#
	_ZTI26CAknPopupHeadingAttributes @ 4451 NONAME ; #<TI>#
	_ZTV18CAknSctRadioButton @ 4452 NONAME ; #<VT>#
	_ZTV21CAknSctCategoryButton @ 4453 NONAME ; #<VT>#
	_ZTV26CAknPopupHeadingAttributes @ 4454 NONAME ; #<VT>#
	_ZN15CAknVolumePopup12UseMutedIconEi @ 4455 NONAME
	_ZN8CAknView10SetToolbarEP11CAknToolbar @ 4456 NONAME
	_ZN8CAknView20CreateAndSetToolbarLEi @ 4457 NONAME
	_ZN21CAknPhoneNumberEditor10CcpuPasteLEv @ 4458 NONAME
	_ZN21CAknPhoneNumberEditor15MopSupplyObjectE8TTypeUid @ 4459 NONAME
	_ZN21CAknPhoneNumberEditor19HandlePointerEventLERK13TPointerEvent @ 4460 NONAME
	_ZN21CAknPhoneNumberEditor8CcpuCutLEv @ 4461 NONAME
	_ZN21CAknPhoneNumberEditor9CcpuCopyLEv @ 4462 NONAME
	_ZN21CAknPhoneNumberEditor9CcpuUndoLEv @ 4463 NONAME
	_ZNK21CAknPhoneNumberEditor10CcpuCanCutEv @ 4464 NONAME
	_ZNK21CAknPhoneNumberEditor11CcpuCanCopyEv @ 4465 NONAME
	_ZNK21CAknPhoneNumberEditor11CcpuCanUndoEv @ 4466 NONAME
	_ZNK21CAknPhoneNumberEditor12CcpuCanPasteEv @ 4467 NONAME
	_ZNK21CAknPhoneNumberEditor13CcpuIsFocusedEv @ 4468 NONAME
	_ZThn4_N21CAknPhoneNumberEditor15MopSupplyObjectE8TTypeUid @ 4469 NONAME ; #<thunk>#
	_ZThn96_N21CAknPhoneNumberEditor10CcpuPasteLEv @ 4470 NONAME ; #<thunk>#
	_ZThn96_N21CAknPhoneNumberEditor8CcpuCutLEv @ 4471 NONAME ; #<thunk>#
	_ZThn96_N21CAknPhoneNumberEditor9CcpuCopyLEv @ 4472 NONAME ; #<thunk>#
	_ZThn96_N21CAknPhoneNumberEditor9CcpuUndoLEv @ 4473 NONAME ; #<thunk>#
	_ZThn96_NK21CAknPhoneNumberEditor10CcpuCanCutEv @ 4474 NONAME ; #<thunk>#
	_ZThn96_NK21CAknPhoneNumberEditor11CcpuCanCopyEv @ 4475 NONAME ; #<thunk>#
	_ZThn96_NK21CAknPhoneNumberEditor11CcpuCanUndoEv @ 4476 NONAME ; #<thunk>#
	_ZThn96_NK21CAknPhoneNumberEditor12CcpuCanPasteEv @ 4477 NONAME ; #<thunk>#
	_ZThn96_NK21CAknPhoneNumberEditor13CcpuIsFocusedEv @ 4478 NONAME ; #<thunk>#
	_ZN16CAknSettingCache19TransparencyEnabledEv @ 4479 NONAME
	_ZNK7CAknEnv19TransparencyEnabledEv @ 4480 NONAME
	_ZN13CAknPopupList18EnableAdaptiveFindEi @ 4481 NONAME
	_ZNK15CAknSettingPage17InputCapabilitiesEv @ 4482 NONAME
	_ZNK24CAknSettingPageExtension16GetCaptionForFepER6TDes16 @ 4483 NONAME
	_ZThn4_NK24CAknSettingPageExtension16GetCaptionForFepER6TDes16 @ 4484 NONAME ; #<thunk>#
        _ZNK9CAknAppUi19CurrentFixedToolbarEv @ 4485 NONAME
	_ZN15CAknVolumePopup11SetStepSizeEi @ 4486 NONAME
	_ZN15CAknVolumePopup12SetValueTypeEi @ 4487 NONAME
	_ZN15CAknVolumePopup16SetDecimalPlacesEi @ 4488 NONAME
	_ZN21CAknPhoneNumberEditor7OpenVKBEv @ 4489 NONAME
	_ZN13CAknAppUiBase16SetKeyEventFlagsEi @ 4490 NONAME
	_ZN15CAknSearchField21AdaptiveSearchEnabledEv @ 4491 NONAME
	_ZN26CAknPointerEventSuppressor13SetMaxTapMoveE5TSize @4492 NONAME
	_ZN26CAknPointerEventSuppressor17SetMaxTapDurationE25TTimeIntervalMicroSeconds @4493 NONAME
	_ZN26CAknPointerEventSuppressor20SuppressPointerEventERK13TPointerEvent @4494 NONAME
	_ZN26CAknPointerEventSuppressor23SetMinInterDragIntervalE25TTimeIntervalMicroSeconds @4495 NONAME
	_ZN26CAknPointerEventSuppressor4NewLEv @4496 NONAME
	_ZN26CAknPointerEventSuppressorD0Ev @4497 NONAME
	_ZN26CAknPointerEventSuppressorD1Ev @4498 NONAME
	_ZN26CAknPointerEventSuppressorD2Ev @4499 NONAME
	_ZN13CAknAppUiBase20PointerEventModifierEv @ 4500 NONAME
	_ZN24CAknPointerEventModifier3PopERK11CCoeControl @ 4501 NONAME
	_ZN24CAknPointerEventModifier4PushER11CCoeControlRK5TRect @ 4502 NONAME
	_ZN24CAknPointerEventModifier6UpdateERK11CCoeControlRK5TRect @ 4503 NONAME
	_ZNK15CAknQueryDialog17InputCapabilitiesEv @ 4504 NONAME
	_ZNK24CAknQueryDialogExtension16GetCaptionForFepER6TDes16 @ 4505 NONAME
	_ZNK33CAknMultilineQueryDialogExtension16GetCaptionForFepER6TDes16 @ 4506 NONAME
	_ZThn4_NK24CAknQueryDialogExtension16GetCaptionForFepER6TDes16 @ 4507 NONAME ; #<thunk>#
	_ZThn4_NK33CAknMultilineQueryDialogExtension16GetCaptionForFepER6TDes16 @ 4508 NONAME ; #<thunk>#
	_ZN15CAknVolumePopup27ClosePopupWhenTappedOutsideEi @ 4509 NONAME
	_ZN9CAknAppUi19DisableNextKeySoundEi @ 4510 NONAME
	_ZNK13CAknAppUiBase17IsTouchCompatibleEv @ 4511 NONAME
	_ZN13CAknSgcClient7MoveAppEi18TSgcMoveAppToWhere @ 4512 NONAME
	_ZN13CAknSgcClient7SetImplEP11CAknSgcImpl @ 4513 NONAME
	_ZNK15CAknSearchField15LanguageChangedEv @ 4514 NONAME
	_ZN15CAknQueryDialog29SetEmergencyCallSupportForCBAEi @ 4515 NONAME
	_ZN15CAknVolumePopup15SetDefaultValueEi @ 4516 NONAME
	_ZN15CAknVolumePopup24EnableResetViaValueFieldEi @ 4517 NONAME	
	_ZN27CAknStatusPaneDataPublisher29SetIncallBubbleAllowedInUsualEiRKy @ 4518 NONAME
	_ZN17CAknCharMapDialog19HandlePointerEventLERK13TPointerEvent @ 4519 NONAME
	_ZN23CAknColourSelectionGrid19HandlePointerEventLERK13TPointerEvent @ 4520 NONAME
	_ZN16CAknLayoutConfig4NewLEv @ 4521 NONAME	
	_ZN20CAknLongTapAnimation4NewLEi @ 4522 NONAME
	_ZN32AknGlobalPopupPriorityController19GlobalPopupsAllowedEv @ 4523 NONAME
	_ZTI15CAknSctPageNavi @ 4524 NONAME ABSENT ; #<TI>#
	_ZTI16CAknSctTableNavi @ 4525 NONAME ABSENT ; #<TI>#
	_ZTI17CAknSctNaviButton @ 4526 NONAME ABSENT ; #<TI>#
	_ZTV15CAknSctPageNavi @ 4527 NONAME ABSENT ; #<VT>#
	_ZTV16CAknSctTableNavi @ 4528 NONAME  ABSENT ; #<VT>#
	_ZTV17CAknSctNaviButton @ 4529 NONAME ABSENT ; #<VT>#
	_ZN18AknStatuspaneUtils28CurrentStatusPaneLayoutResIdEv @ 4530 NONAME
	_ZNK12CAknTaskList13FindChildWgIdEi @ 4531 NONAME
	_ZNK12CAknTaskList14FindParentWgIdEi @ 4532 NONAME
	_ZN19CAknLongTapDetector16CancelAnimationLEv @ 4533 NONAME
	_ZN24CAknPointerEventModifier18HandlePointerEventER13TPointerEventRP11CCoeControl @ 4534 NONAME
	_ZN26CAknPreviewPopUpController10ResetTimerEv @ 4535 NONAME
	_ZN18AknStatuspaneUtils20ExtendedLayoutActiveEv @ 4536 NONAME
	_ZN10CAknSlider12FocusChangedE8TDrawNow @ 4537 NONAME
	_ZN11CAknTasHook10GetAknUiLCER10MTasObject @ 4538 NONAME
	_ZN11CAknTasHook3GetEPv @ 4539 NONAME
	_ZN11CAknTasHook4AddLEPv7TPtrC1621TAknTasHookObjectType @ 4540 NONAME
	_ZN11CAknTasHook6GetAllEv @ 4541 NONAME
	_ZN11CAknTasHook6RemoveEPv @ 4542 NONAME
	_ZN17CAknTasObjectInfo13GetClassNamesEv @ 4543 NONAME
	_ZN17CAknTasObjectInfo3IsAE7TPtrC16 @ 4544 NONAME
	_ZNK17CAknTasObjectInfo10GetControlEv @ 4545 NONAME
	_ZNK17CAknTasObjectInfo4TypeEv @ 4546 NONAME
	_ZTI11CAknTasHook @ 4547 NONAME ; #<TI>#
	_ZTI16CAknTasClassInfo @ 4548 NONAME ; #<TI>#
	_ZTI17CAknTasObjectInfo @ 4549 NONAME ; #<TI>#
	_ZTV11CAknTasHook @ 4550 NONAME ; #<VT>#
	_ZTV16CAknTasClassInfo @ 4551 NONAME ; #<VT>#
	_ZTV17CAknTasObjectInfo @ 4552 NONAME ; #<VT>#
	_ZN17CAknDiscreetPopup15ShowLocalPopupLERK7TDesC16S2_P8CGulIconRK11TAknsItemIDS2_iiiiP19MEikCommandObserver @ 4553 NONAME
	_ZN17CAknDiscreetPopup15ShowLocalPopupLEiiP19MEikCommandObserver @ 4554 NONAME
	_ZN17CAknDiscreetPopup16ShowGlobalPopupLERK7TDesC16S2_RK11TAknsItemIDS2_iiiiP19MEikCommandObserverRK4TUidSA_ @ 4555 NONAME
	_ZN17CAknDiscreetPopup16ShowGlobalPopupLEiRK7TDesC16iP19MEikCommandObserverRK4TUidS7_ @ 4556 NONAME
	_ZN24CAknDiscreetPopupControl26HandleDiscreetPopupActionLERKi @ 4557 NONAME
	_ZN24CAknDiscreetPopupControl4NewLEiRK7TDesC16S2_P8CGulIconRK11TAknsItemIDS2_RKiS9_S9_S9_S9_P19MEikCommandObserver @ 4558 NONAME
	_ZN24CAknDiscreetPopupControl4NewLEiRKiRK7TDesC16S1_S1_P19MEikCommandObserver @ 4559 NONAME
	_ZN24CAknDiscreetPopupControl7PopupIdEv @ 4560 NONAME
	_ZN21CAknPhoneNumberEditor14AknEditorFlagsEv @ 4561 NONAME
	_ZN27CAknStatusPaneDataPublisher25SetIndicatorPopupPositionEv @ 4562 NONAME
	_ZN11CAknCharMap15SetEmotionModeLE22TAknCharMapEmotionMode @ 4563 NONAME
	_ZN17CAknCharMapDialog14SetEmotionModeE22TAknCharMapEmotionMode @ 4564 NONAME
	_ZTI11CSmileyIcon @ 4565 NONAME
	_ZTI12CSmileyImage @ 4566 NONAME
	_ZTI12CSmileyModel @ 4567 NONAME
	_ZTI26CSmileyTnumbnailAsynLoader @ 4568 NONAME
	_ZTV11CSmileyIcon @ 4569 NONAME
	_ZTV12CSmileyImage @ 4570 NONAME
	_ZTV12CSmileyModel @ 4571 NONAME
	_ZTV26CSmileyTnumbnailAsynLoader @ 4572 NONAME
	_ZN13AknPopupUtils8PositionERK5TSizeP11CCoeControl @ 4573 NONAME
	_ZN13AknPopupUtils8PositionERK5TSizei @ 4574 NONAME
	_ZN17CAknDiscreetPopup5InitLEv @ 4575 NONAME
	_ZN17CAknDiscreetPopup7ReleaseEv @ 4576 NONAME
	_ZNK13CAknAppUiBase23IsSingleClickCompatibleEv @ 4577 NONAME

