EXPORTS
	_ZN10CPslnModel11VisibleSkinEi @ 1 NONAME
	_ZN10CPslnModel13ActivateSkinLERK6TDesC8i @ 2 NONAME
	_ZN10CPslnModel13DownloadSkinLEv @ 3 NONAME
	_ZN10CPslnModel14LocationOfSkinEi @ 4 NONAME
	_ZN10CPslnModel16ProtectionOfSkinEi @ 5 NONAME
	_ZN10CPslnModel17GuardActivationLCEv @ 6 NONAME
	_ZN10CPslnModel17IsValidForPreviewEi @ 7 NONAME
	_ZN10CPslnModel19ActivateScreenSaverEi26TPslnScreenSaverActivation @ 8 NONAME
	_ZN10CPslnModel20CurrentPropertyIndexEi @ 9 NONAME
	_ZN10CPslnModel20IsValidForActivationEi @ 10 NONAME
	_ZN10CPslnModel21LoadScreensaverArrayLEv @ 11 NONAME
	_ZN10CPslnModel22PerformCompleteUpdateLEv @ 12 NONAME
	_ZN10CPslnModel22SetBackgroundImagePathERK7TDesC16 @ 13 NONAME
	_ZN10CPslnModel22SetCurrentPropertyTypeEii @ 14 NONAME
	_ZN10CPslnModel23InvokeSSPluginFunctionLEi13TScPluginCaps @ 15 NONAME
	_ZN10CPslnModel27SetCurrentSelectedSkinIndexEi @ 16 NONAME
	_ZN10CPslnModel4NewLEP23MAknsSkinChangeObserver @ 17 NONAME
	_ZN10CPslnModelD0Ev @ 18 NONAME
	_ZN10CPslnModelD1Ev @ 19 NONAME
	_ZN10CPslnModelD2Ev @ 20 NONAME
	_ZN12PslnFeatures15IsHelpSupportedEv @ 21 NONAME
	_ZN12PslnFeatures24IsSoundsInSkinsSupportedEv @ 22 NONAME
	_ZN12PslnFeatures32IsEnhancedEmbeddedLinksSupportedEv @ 23 NONAME
	_ZNK10CPslnModel13NumberOfSkinsEv @ 24 NONAME
	_ZNK10CPslnModel15ActiveSkinIndexEv @ 25 NONAME
	_ZNK10CPslnModel16ScreensaverNamesEv @ 26 NONAME
	_ZNK10CPslnModel18GetSkinNameByIndexEiR6TDes1617TPslnSkinNameType @ 27 NONAME
	_ZNK10CPslnModel20IsActiveSkinSelectedEi @ 28 NONAME
	_ZNK10CPslnModel24CurrentSelectedSkinIndexEv @ 29 NONAME
	_ZNK10CPslnModel24ScreensaverHasCapabilityEi13TScPluginCaps @ 30 NONAME
	_ZNK14CPslnSkinEntry10ProtectionEv @ 31 NONAME
	_ZNK14CPslnSkinEntry11GetSkinPathER6TDes16 @ 32 NONAME
	_ZNK14CPslnSkinEntry11IsCorruptedEv @ 33 NONAME
	_ZNK14CPslnSkinEntry8FullNameEv @ 34 NONAME
	_ZTI18CPslnSkinNameEntry @ 35 NONAME ; #<TI>#
	_ZTV18CPslnSkinNameEntry @ 36 NONAME ; #<VT>#
	_ZN10CPslnModel30EnableScreenSaverNotificationsERKiR28MPslnScreenSaverECOMObserver @ 37 NONAME
	_ZN17CPslnEcomListener4NewLER10CPslnModelR28MPslnScreenSaverECOMObserver @ 38 NONAME
	_ZN10CPslnModel13ActivateSkinLERK6TDesC8iRKi @ 39 NONAME
	_ZN10CPslnModel21CurrentPropertyIndexLEi @ 40 NONAME
	_ZN10CPslnModel21SetTransitionEffectsLEi @ 41 NONAME
	_ZN10CPslnModel25GetTransitionEffectStateLEv @ 42 NONAME
	_ZN10CPslnModel4NewLEv @ 43 NONAME
	_ZNK10CPslnModel25IsScreenSaverOnMemoryCardEi @ 44 NONAME
	_ZN10CPslnModel23SetCurrentPropertyTypeLEii @ 45 NONAME
	_ZN10CPslnModel18IsThemeOnMassDriveERKi @ 46 NONAME
	_ZN10CPslnModel19IsThemeOnMemoryCardERKi @ 47 NONAME
	_ZNK14CPslnSkinEntry13IsOnMassDriveEv @ 48 NONAME
	_ZNK14CPslnSkinEntry14IsOnMemoryCardEv @ 49 NONAME
	_ZNK10CPslnModel24IsScreenSaverOnMassDriveERKi @ 50 NONAME
	_ZN12PslnFeatures11IsSupportedEi @ 51 NONAME
	_ZNK10CPslnModel14SkinSrvSessionEv @ 52 NONAME
	_ZNK10CPslnModel11TransEffectEi @ 53 NONAME
	_ZN10CPslnModel13ActivateSkinLEi @ 54 NONAME
	_ZN10CPslnModel23SetScreenSaverToDefaultEv @ 55  NONAME
	_ZN10CPslnModel15IsSupportAnimBgEi @ 56 NONAME
	_ZN10CPslnModel17SetAnimBackgroundEi @ 57 NONAME
	_ZNK10CPslnModel19AnimBackgroundStateEv @ 58 NONAME
	_ZNK14CPslnSkinEntry15IsSupportAnimBgEv @ 59 NONAME
