EXPORTS
	??0CLafEdwinCustomDrawBase@@IAE@ABVMLafEnv@@ABVCCoeControl@@@Z @ 1 NONAME ; protected: __thiscall CLafEdwinCustomDrawBase::CLafEdwinCustomDrawBase(class MLafEnv const &,class CCoeControl const &)
	??0CLafEdwinCustomWrapBase@@IAE@ABVCCoeControl@@@Z @ 2 NONAME ; protected: __thiscall CLafEdwinCustomWrapBase::CLafEdwinCustomWrapBase(class CCoeControl const &)
	??0TDisplayParameters@LafMsgWin@@QAE@AAVTDes16@@@Z @ 3 NONAME ; public: __thiscall LafMsgWin::TDisplayParameters::TDisplayParameters(class TDes16 &)
	??1CLafEdwinCustomWrapBase@@UAE@XZ @ 4 NONAME ; public: virtual __thiscall CLafEdwinCustomWrapBase::~CLafEdwinCustomWrapBase(void)
	?AllowFading@LafStatusPaneContainer@@SAHXZ @ 5 NONAME ; public: static int __cdecl LafStatusPaneContainer::AllowFading(void)
	?CancelBubbleHelpOnEvent@LafAppUi@@SAHABUTPointerEvent@@@Z @ 6 NONAME ; public: static int __cdecl LafAppUi::CancelBubbleHelpOnEvent(struct TPointerEvent const &)
	?ClaimPointerCursorListIfNeeded@LafServAppUiBase@@SAHAAVCCoeEnv@@@Z @ 7 NONAME ; public: static int __cdecl LafServAppUiBase::ClaimPointerCursorListIfNeeded(class CCoeEnv &)
	?ClientRect@LafAppUi@@SA?AVTRect@@ABVCCoeEnv@@ABVMLafClientRectResolver@@@Z @ 8 NONAME ; public: static class TRect  __cdecl LafAppUi::ClientRect(class CCoeEnv const &,class MLafClientRectResolver const &)
	?CoctlResourceFile@LafEnv@@SAABVTDesC16@@XZ @ 9 NONAME ; public: static class TDesC16 const & __cdecl LafEnv::CoctlResourceFile(void)
	?CompleteMessageWinConstructionL@LafMsgWin@@SAXAAVRMessageWindow@@ABVMLafEnv@@@Z @ 10 NONAME ; public: static void __cdecl LafMsgWin::CompleteMessageWinConstructionL(class RMessageWindow &,class MLafEnv const &)
	?ConfigureText@LafMsgWin@@SAXAAVTDisplayParameters@1@ABVMLafEnv@@@Z @ 11 NONAME ; public: static void __cdecl LafMsgWin::ConfigureText(class LafMsgWin::TDisplayParameters &,class MLafEnv const &)
	?Constant@LafEnv@@CAHW4TConstantType@1@@Z @ 12 NONAME ; private: static int __cdecl LafEnv::Constant(enum LafEnv::TConstantType)
	?ConstructPointerCursorL@LafServAppUiBase@@SAPAVRWsPointerCursor@@HAAUTSpriteMember@@AAVCCoeEnv@@@Z @ 13 NONAME ; public: static class RWsPointerCursor * __cdecl LafServAppUiBase::ConstructPointerCursorL(int,struct TSpriteMember &,class CCoeEnv &)
	?CreateShutdownManager@LafShutdown@@SAPAVCLafShutdownManagerBase@@AAVMShutdownEventObserver@@@Z @ 14 NONAME ; public: static class CLafShutdownManagerBase * __cdecl LafShutdown::CreateShutdownManager(class MShutdownEventObserver &)
	?CreateSystemBitmapsL@LafEnv@@SAXAAVCCoeEnv@@AAV?$CArrayPtrFlat@VCFbsBitmap@@@@@Z @ 15 NONAME ; public: static void __cdecl LafEnv::CreateSystemBitmapsL(class CCoeEnv &,class CArrayPtrFlat<class CFbsBitmap> &)
	?CreateSystemFontsL@LafEnv@@SAXAAVCCoeEnv@@AAV?$CArrayPtr@VCLafSystemFont@@@@@Z @ 16 NONAME ; void LafEnv::CreateSystemFontsL(class CCoeEnv &, class CArrayPtr<class CLafSystemFont> &)
	?CreateTextParserL@LafEnv@@SAPAVMParser@@H@Z @ 17 NONAME ; public: static class MParser * __cdecl LafEnv::CreateTextParserL(int)
	?DefaultBusyMsgCorner@LafEnv@@SA?AVTGulAlignment@@XZ @ 18 NONAME ; public: static class TGulAlignment  __cdecl LafEnv::DefaultBusyMsgCorner(void)
	?DefaultDuration@LafInfoMsgWin@@SA?AVTTimeIntervalMicroSeconds32@@XZ @ 19 NONAME ; public: static class TTimeIntervalMicroSeconds32  __cdecl LafInfoMsgWin::DefaultDuration(void)
	?DefaultInitialDelay@LafBusyMsgWin@@SA?AVTTimeIntervalMicroSeconds32@@XZ @ 20 NONAME ; public: static class TTimeIntervalMicroSeconds32  __cdecl LafBusyMsgWin::DefaultInitialDelay(void)
	?DefaultLineSpacingInTwips@LafEnv@@SAHXZ @ 21 NONAME ; public: static int __cdecl LafEnv::DefaultLineSpacingInTwips(void)
	?DrawBackground@CLafEdwinCustomDrawBase@@UBEXABVTParam@MFormCustomDraw@@ABVTRgb@@AAVTRect@@@Z @ 22 NONAME ; public: virtual void __thiscall CLafEdwinCustomDrawBase::DrawBackground(class MFormCustomDraw::TParam const &,class TRgb const &,class TRect &)const 
	?DrawLogicalBorder@LafEnv@@SAXABVTGulBorder@@AAVCGraphicsContext@@ABVTRect@@ABVTColors@2@@Z @ 23 NONAME ; public: static void __cdecl LafEnv::DrawLogicalBorder(class TGulBorder const &,class CGraphicsContext &,class TRect const &,class TGulBorder::TColors const &)
	?EditableControlStandardHeight@LafEnv@@SAHABVMLafEnv@@@Z @ 24 NONAME ; public: static int __cdecl LafEnv::EditableControlStandardHeight(class MLafEnv const &)
	?FadeWhenInBackground@LafAppUi@@SAHXZ @ 25 NONAME ; public: static int __cdecl LafAppUi::FadeWhenInBackground(void)
	?FreePointerCursorListIfNeeded@LafServAppUiBase@@SAXAAVCCoeEnv@@@Z @ 26 NONAME ; public: static void __cdecl LafServAppUiBase::FreePointerCursorListIfNeeded(class CCoeEnv &)
	?GetDefaultPath@LafEnv@@SAXAAVTDes16@@VTUid@@AAVRApaLsSession@@AAVCCoeEnv@@@Z @ 27 NONAME ; public: static void __cdecl LafEnv::GetDefaultPath(class TDes16 &,class TUid,class RApaLsSession &,class CCoeEnv &)
	?GetLineBreakInContext@CLafEdwinCustomWrapBase@@UBEHABVTDesC16@@HHHAAH@Z @ 28 NONAME ; public: virtual int __thiscall CLafEdwinCustomWrapBase::GetLineBreakInContext(class TDesC16 const &,int,int,int,int &)const 
	?HandleResourceChange@LafMsgWin@@SAXAAVRMessageWindow@@ABVMLafEnv@@@Z @ 29 NONAME ; public: static void __cdecl LafMsgWin::HandleResourceChange(class RMessageWindow &,class MLafEnv const &)
	?IsDefaultKey@LafEnv@@SAHI@Z @ 30 NONAME ; public: static int __cdecl LafEnv::IsDefaultKey(unsigned int)
	?IsHangingCharacter@CLafEdwinCustomWrapBase@@UBEHI@Z @ 31 NONAME ; public: virtual int __thiscall CLafEdwinCustomWrapBase::IsHangingCharacter(unsigned int)const 
	?LineBreakClass@CLafEdwinCustomWrapBase@@UBEIIAAI0@Z @ 32 NONAME ; public: virtual unsigned int __thiscall CLafEdwinCustomWrapBase::LineBreakClass(unsigned int,unsigned int &,unsigned int &)const 
	?LineBreakPossible@CLafEdwinCustomWrapBase@@UBEHIIH@Z @ 33 NONAME ; public: virtual int __thiscall CLafEdwinCustomWrapBase::LineBreakPossible(unsigned int,unsigned int,int)const 
	?LineSpacingChanged@CLafEdwinCustomDrawBase@@UAEXXZ @ 34 NONAME ; public: virtual void __thiscall CLafEdwinCustomDrawBase::LineSpacingChanged(void)
	?LoadCoreResFileL@LafEnv@@SAHAAVCCoeEnv@@@Z @ 35 NONAME ; public: static int __cdecl LafEnv::LoadCoreResFileL(class CCoeEnv &)
	?LoadPrivResFileL@LafEnv@@SAHAAVCCoeEnv@@@Z @ 36 NONAME ; public: static int __cdecl LafEnv::LoadPrivResFileL(class CCoeEnv &)
	?LogicalBorderMargins@LafEnv@@SA?AVTMargins@@ABVTGulBorder@@@Z @ 37 NONAME ; public: static class TMargins  __cdecl LafEnv::LogicalBorderMargins(class TGulBorder const &)
	?MFormCustomWrap_Reserved_1@CLafEdwinCustomWrapBase@@EAEXXZ @ 38 NONAME ; private: virtual void __thiscall CLafEdwinCustomWrapBase::MFormCustomWrap_Reserved_1(void)
	?MFormCustomWrap_Reserved_2@CLafEdwinCustomWrapBase@@EAEXXZ @ 39 NONAME ; private: virtual void __thiscall CLafEdwinCustomWrapBase::MFormCustomWrap_Reserved_2(void)
	?MatchBitmap@LafEnv@@SAPAVCFbsBitmap@@ABV?$CArrayPtrFlat@VCFbsBitmap@@@@VTUid@@@Z @ 40 NONAME ; public: static class CFbsBitmap * __cdecl LafEnv::MatchBitmap(class CArrayPtrFlat<class CFbsBitmap> const &,class TUid)
	?MatchFont@LafEnv@@SAPBVCFont@@AAV?$CArrayPtr@VCLafSystemFont@@@@ABVTLogicalFont@@@Z @ 41 NONAME ; class CFont const * LafEnv::MatchFont(class CArrayPtr<class CLafSystemFont> &, class TLogicalFont const &)
	?NewL@CLafEdwinCustomDrawBase@@SAPAV1@ABVMLafEnv@@ABVCCoeControl@@@Z @ 42 NONAME ; public: static class CLafEdwinCustomDrawBase * __cdecl CLafEdwinCustomDrawBase::NewL(class MLafEnv const &,class CCoeControl const &)
	?NewL@CLafEdwinCustomWrapBase@@SAPAV1@ABVCCoeControl@@@Z @ 43 NONAME ; public: static class CLafEdwinCustomWrapBase * __cdecl CLafEdwinCustomWrapBase::NewL(class CCoeControl const &)
	?NumberOfCursorsInSystemCursorList@LafServAppUiBase@@SAHXZ @ 44 NONAME ; public: static int __cdecl LafServAppUiBase::NumberOfCursorsInSystemCursorList(void)
	?PointerCursorOnMode@LafVirtualCursor@@SA?AW4TPointerCursorMode@@XZ @ 45 NONAME ; public: static enum TPointerCursorMode  __cdecl LafVirtualCursor::PointerCursorOnMode(void)
	?PrepareCharFormatAndMask@LafEnv@@SAXAAVTCharFormat@@AAVTCharFormatMask@@@Z @ 46 NONAME ; public: static void __cdecl LafEnv::PrepareCharFormatAndMask(class TCharFormat &,class TCharFormatMask &)
	?ReduceRect@LafAppUi@@SAXAAVTRect@@@Z @ 47 NONAME ; public: static void __cdecl LafAppUi::ReduceRect(class TRect &)
	?SaveFromAppSwitch@LafShutdown@@SA?AW4TSaveType@MSaveObserver@@XZ @ 48 NONAME ; public: static enum MSaveObserver::TSaveType  __cdecl LafShutdown::SaveFromAppSwitch(void)
	?SaveFromViewSwitch@LafShutdown@@SA?AW4TSaveType@MSaveObserver@@XZ @ 49 NONAME ; public: static enum MSaveObserver::TSaveType  __cdecl LafShutdown::SaveFromViewSwitch(void)
	?SetUpBlankWindow@LafMsgWin@@SAXAAVRBlankWindow@@@Z @ 50 NONAME ; public: static void __cdecl LafMsgWin::SetUpBlankWindow(class RBlankWindow &)
	?SystemColor@CLafEdwinCustomDrawBase@@UBE?AVTRgb@@IV2@@Z @ 51 NONAME ; public: virtual class TRgb  __thiscall CLafEdwinCustomDrawBase::SystemColor(unsigned int,class TRgb)const 
	?UpdateSystemBitmapsL@LafEnv@@SAXAAVCCoeEnv@@AAV?$CArrayPtrFlat@VCFbsBitmap@@@@ABVCColorList@@@Z @ 52 NONAME ; public: static void __cdecl LafEnv::UpdateSystemBitmapsL(class CCoeEnv &,class CArrayPtrFlat<class CFbsBitmap> &,class CColorList const &)
	?IsTaskListDisabledAtInitialization@LafEnv@@SAHXZ @ 53 NONAME ; int LafEnv::IsTaskListDisabledAtInitialization(void)
	?ReleaseSystemFonts@LafEnv@@SAXAAV?$CArrayPtr@VCLafSystemFont@@@@@Z @ 54 NONAME ; void LafEnv::ReleaseSystemFonts(class CArrayPtr<class CLafSystemFont> &)
	?NewBusyMsgWinL@LafEnv@@SAPAVMEikBusyMsgWin@@AAVCCoeEnv@@@Z @ 55 NONAME ; class MEikBusyMsgWin * LafEnv::NewBusyMsgWinL(class CCoeEnv &)
	?NewInfoMsgWinL@LafEnv@@SAPAVMEikInfoMsgWin@@AAVCCoeEnv@@@Z @ 56 NONAME ; class MEikInfoMsgWin * LafEnv::NewInfoMsgWinL(class CCoeEnv &)
	?NewInfoMsgWinL@LafEnv@@SAPAVMEikInfoMsgWin@@AAVCCoeEnv@@AAVRWindowGroup@@@Z @ 57 NONAME ; class MEikInfoMsgWin * LafEnv::NewInfoMsgWinL(class CCoeEnv &, class RWindowGroup &)
	?CreateStatusPaneBackgroundL@LafStatusPaneContainer@@SAPAVCEikStatusPaneBackground@@XZ @ 58 NONAME ; class CEikStatusPaneBackground* LafStatusPaneContainer::CreateStatusPaneBackgroundL(void)
	?Beep@LafEnv@@SAXXZ @ 59 NONAME ; void LafEnv::Beep(void)
	?DisplayAlertAsNotifier@LafEnv@@SAXABVTDesC16@@0@Z @ 60 NONAME ; void LafEnv::DisplayAlertAsNotifier(class TDesC16 const &, class TDesC16 const &)
	?HandleExtensionEventL@LafEnv@@SAXAAVCEikonEnv@@W4TLafEnvExtensionEvent@1@@Z @ 61 NONAME ; void LafEnv::HandleExtensionEventL(class CEikonEnv &, enum LafEnv::TLafEnvExtensionEvent)
	?InfoNote@LafEnv@@SAXHZZ @ 62 NONAME ; void LafEnv::InfoNote(int, ...)
	?CreateColorListL@LafEnv@@SAPAVCColorList@@AAVCEikonEnv@@@Z @ 63 NONAME ; class CColorList * LafEnv::CreateColorListL(class CEikonEnv &)
	?UpdateColorListL@LafEnv@@SAXPAVCColorList@@@Z @ 64 NONAME ; void LafEnv::UpdateColorListL(class CColorList *)
	?UpdateSystemFontsL@LafEnv@@SAXPAVCCoeEnv@@AAV?$CArrayPtr@VCLafSystemFont@@@@@Z @ 65 NONAME ; void LafEnv::UpdateSystemFontsL(class CCoeEnv *, class CArrayPtr<class CLafSystemFont> &)
	?ClockDllName@LafEnv@@SAABVTDesC16@@XZ @ 66 NONAME ; class TDesC16 const & LafEnv::ClockDllName(void)
	?PolicyItem@LafEnv@@SAHW4TLafEnvPolicyItem@1@@Z @ 67 NONAME ; int LafEnv::PolicyItem(enum LafEnv::TLafEnvPolicyItem)
	?NotifierCapabilities@LafNotifierCapabilities@@SAIXZ @ 68 NONAME ; unsigned int LafNotifierCapabilities::NotifierCapabilities(void)
