EXPORTS
	??1CAnimationFrame@@UAE@XZ @ 1 NONAME ; CAnimationFrame::~CAnimationFrame(void)
	??1CAnimationTicker@@UAE@XZ @ 2 NONAME ; CAnimationTicker::~CAnimationTicker(void)
	??1CAnimator@@UAE@XZ @ 3 NONAME ; CAnimator::~CAnimator(void)
	?Add@CAnimationTicker@@QAEHPAVMAnimationTickee@@@Z @ 4 NONAME ; int CAnimationTicker::Add(class MAnimationTickee *)
	?Close@CAnimationTls@@QAEXXZ @ 5 NONAME ; void CAnimationTls::Close(void)
	?CreateL@CAnimationFrame@@QAEXABVTFrameInfo@@@Z @ 6 NONAME ; void CAnimationFrame::CreateL(class TFrameInfo const &)
	?Freeze@CAnimationTicker@@QAEXXZ @ 7 NONAME ; void CAnimationTicker::Freeze(void)
	?GetHandles@CAnimationFrame@@QBEXAAUTHandles@1@@Z @ 8 NONAME ; void CAnimationFrame::GetHandles(struct CAnimationFrame::THandles &) const
	?NewL@CAnimationFrame@@SAPAV1@ABUTHandles@1@@Z @ 9 NONAME ; class CAnimationFrame * CAnimationFrame::NewL(struct CAnimationFrame::THandles const &)
	?NewL@CAnimationFrame@@SAPAV1@XZ @ 10 NONAME ; class CAnimationFrame * CAnimationFrame::NewL(void)
	?NewL@CAnimationTicker@@SAPAV1@VTTimeIntervalMicroSeconds32@@@Z @ 11 NONAME ; class CAnimationTicker * CAnimationTicker::NewL(class TTimeIntervalMicroSeconds32)
	?NewL@CAnimationTls@@SAPAV1@XZ @ 12 NONAME ; class CAnimationTls * CAnimationTls::NewL(void)
	?NewL@CAnimator@@SAPAV1@PAVMAnimationDrawer@@@Z @ 13 NONAME ; class CAnimator * CAnimator::NewL(class MAnimationDrawer *)
	?Remove@CAnimationTicker@@QAEHPAVMAnimationTickee@@@Z @ 14 NONAME ; int CAnimationTicker::Remove(class MAnimationTickee *)
	?SendEventL@CAnimationDataProvider@@IAEXH@Z @ 15 NONAME ; void CAnimationDataProvider::SendEventL(int)
	?SendEventL@CAnimationDataProvider@@IAEXHH@Z @ 16 NONAME ; void CAnimationDataProvider::SendEventL(int, int)
	?SendEventL@CAnimationDataProvider@@IAEXHPAXH@Z @ 17 NONAME ; void CAnimationDataProvider::SendEventL(int, void *, int)
	?SetHandlesL@CAnimationFrame@@QAEXABUTHandles@1@@Z @ 18 NONAME ; void CAnimationFrame::SetHandlesL(struct CAnimationFrame::THandles const &)
	?SetObserver@CAnimationDataProvider@@QAEXPAVMAnimationDataProviderObserver@@@Z @ 19 NONAME ; void CAnimationDataProvider::SetObserver(class MAnimationDataProviderObserver *)
	?Ticker@CAnimationTls@@QAEPAVCAnimationTicker@@XZ @ 20 NONAME ; class CAnimationTicker * CAnimationTls::Ticker(void)
	?Unfreeze@CAnimationTicker@@QAEXXZ @ 21 NONAME ; void CAnimationTicker::Unfreeze(void)
	??0CAnimationDataProvider@@IAE@XZ @ 22 NONAME ; CAnimationDataProvider::CAnimationDataProvider(void)
	?CAnimationDataProvider_Reserved1@CAnimationDataProvider@@MAEXXZ @ 23 NONAME ; void CAnimationDataProvider::CAnimationDataProvider_Reserved1(void)
	?CAnimationDataProvider_Reserved2@CAnimationDataProvider@@MAEXXZ @ 24 NONAME ; void CAnimationDataProvider::CAnimationDataProvider_Reserved2(void)
	?CAnimationFrame_Reserved1@CAnimationFrame@@MAEXXZ @ 25 NONAME ; void CAnimationFrame::CAnimationFrame_Reserved1(void)
	?CAnimationFrame_Reserved2@CAnimationFrame@@MAEXXZ @ 26 NONAME ; void CAnimationFrame::CAnimationFrame_Reserved2(void)
	?CAnimationTicker_Reserved1@CAnimationTicker@@MAEXXZ @ 27 NONAME ; void CAnimationTicker::CAnimationTicker_Reserved1(void)
	?CAnimationTicker_Reserved2@CAnimationTicker@@MAEXXZ @ 28 NONAME ; void CAnimationTicker::CAnimationTicker_Reserved2(void)
	?CAnimationTls_Reserved1@CAnimationTls@@MAEXXZ @ 29 NONAME ; void CAnimationTls::CAnimationTls_Reserved1(void)
	?CAnimationTls_Reserved2@CAnimationTls@@MAEXXZ @ 30 NONAME ; void CAnimationTls::CAnimationTls_Reserved2(void)
	?MAnimationDataProviderObserver_Reserved1@MAnimationDataProviderObserver@@MAEXXZ @ 31 NONAME ; void MAnimationDataProviderObserver::MAnimationDataProviderObserver_Reserved1(void)
	?MAnimationDataProviderObserver_Reserved2@MAnimationDataProviderObserver@@MAEXXZ @ 32 NONAME ; void MAnimationDataProviderObserver::MAnimationDataProviderObserver_Reserved2(void)
	?MAnimationDrawer_Reserved1@MAnimationDrawer@@EAEXXZ @ 33 NONAME ; void MAnimationDrawer::MAnimationDrawer_Reserved1(void)
	?MAnimationDrawer_Reserved2@MAnimationDrawer@@EAEXXZ @ 34 NONAME ; void MAnimationDrawer::MAnimationDrawer_Reserved2(void)
	?MAnimationObserver_Reserved1@MAnimationObserver@@MAEXXZ @ 35 NONAME ; void MAnimationObserver::MAnimationObserver_Reserved1(void)
	?MAnimationObserver_Reserved2@MAnimationObserver@@MAEXXZ @ 36 NONAME ; void MAnimationObserver::MAnimationObserver_Reserved2(void)
	?MAnimationTickee_Reserved1@MAnimationTickee@@MAEXXZ @ 37 NONAME ; void MAnimationTickee::MAnimationTickee_Reserved1(void)
	?MAnimationTickee_Reserved2@MAnimationTickee@@MAEXXZ @ 38 NONAME ; void MAnimationTickee::MAnimationTickee_Reserved2(void)

