EXPORTS
	?Deregister@GfxTransEffect@@SAXPBVCCoeControl@@@Z @ 1 NONAME ; void GfxTransEffect::Deregister(class CCoeControl const *)
	?IsRegistered@GfxTransEffect@@SAHPBVCCoeControl@@@Z @ 2 NONAME ; int GfxTransEffect::IsRegistered(class CCoeControl const *)
	?Register@GfxTransEffect@@SAXPBVCCoeControl@@VTUid@@H@Z @ 3 NONAME ; void GfxTransEffect::Register(class CCoeControl const *, class TUid, int)
	?Register@GfxTransEffect@@SAXPBVCCoeControl@@ABVTVwsViewId@@VTUid@@@Z @ 4 NONAME ; void GfxTransEffect::Register(class CCoeControl const *, class TVwsViewId const &, class TUid)
	?Abort@GfxTransEffect@@SAXPBVCCoeControl@@@Z @ 5 NONAME ; void GfxTransEffect::Abort(class CCoeControl const *)
	?Begin@GfxTransEffect@@SAXPBVCCoeControl@@I@Z @ 6 NONAME ; void GfxTransEffect::Begin(class CCoeControl const *, unsigned int)
	?End@GfxTransEffect@@SAXPBVCCoeControl@@@Z @ 7 NONAME ; void GfxTransEffect::End(class CCoeControl const *)
	?BeginLC@GfxTransEffect@@SAXPBVCCoeControl@@I@Z @ 8 NONAME ; void GfxTransEffect::BeginLC(class CCoeControl const *, unsigned int)
	?GetHints@GfxTransEffect@@SAIPBVCCoeControl@@@Z @ 9 NONAME ; unsigned int GfxTransEffect::GetHints(class CCoeControl const *)
	?Invalidate@GfxTransEffect@@SAXPBVCCoeControl@@@Z @ 10 NONAME ; void GfxTransEffect::Invalidate(class CCoeControl const *)
	?SetHints@GfxTransEffect@@SAXPBVCCoeControl@@I@Z @ 11 NONAME ; void GfxTransEffect::SetHints(class CCoeControl const *, unsigned int)
	?SetDemarcation@GfxTransEffect@@SAXABVTVwsViewId@@ABVTPoint@@@Z @ 12 NONAME ; void GfxTransEffect::SetDemarcation(class TVwsViewId const &, class TPoint const &)
	?SetDemarcation@GfxTransEffect@@SAXABVTVwsViewId@@ABVTRect@@@Z @ 13 NONAME ; void GfxTransEffect::SetDemarcation(class TVwsViewId const &, class TRect const &)
	?SetDemarcation@GfxTransEffect@@SAXABVTVwsViewId@@PBVCCoeControl@@ABVTRect@@@Z @ 14 NONAME ; void GfxTransEffect::SetDemarcation(class TVwsViewId const &, class CCoeControl const *, class TRect const &)
	?SetDemarcation@GfxTransEffect@@SAXPBVCCoeControl@@0ABVTRect@@@Z @ 15 NONAME ; void GfxTransEffect::SetDemarcation(class CCoeControl const *, class CCoeControl const *, class TRect const &)
	?SetDemarcation@GfxTransEffect@@SAXPBVCCoeControl@@ABVTPoint@@@Z @ 16 NONAME ; void GfxTransEffect::SetDemarcation(class CCoeControl const *, class TPoint const &)
	?SetDemarcation@GfxTransEffect@@SAXPBVCCoeControl@@ABVTRect@@@Z @ 17 NONAME ; void GfxTransEffect::SetDemarcation(class CCoeControl const *, class TRect const &)
	?Abort@GfxTransEffect@@SAXXZ @ 18 NONAME ; void GfxTransEffect::Abort(void)
	?SetHints@GfxTransEffect@@SAXPBVCCoeControl@@VTUid@@@Z @ 19 NONAME ; void GfxTransEffect::SetHints(class CCoeControl const *, class TUid)
	?Disable@GfxTransEffect@@SAXXZ @ 20 NONAME ; void GfxTransEffect::Disable(void)
	?Enable@GfxTransEffect@@SAXXZ @ 21 NONAME ; void GfxTransEffect::Enable(void)
	?IsEnabled@GfxTransEffect@@SAHXZ @ 22 NONAME ; int GfxTransEffect::IsEnabled(void)
	?AbortFullScreen@GfxTransEffect@@SAXXZ @ 23 NONAME ; void GfxTransEffect::AbortFullScreen(void)
	?BeginDrawItem@GfxTransEffect@@SAXPBVCCoeControl@@IVTUid@@AAVTRect@@PBV4@3@Z @ 24 NONAME ; void GfxTransEffect::BeginDrawItem(class CCoeControl const *, unsigned int, class TUid, class TRect &, class TRect const *, class TRect const *)
	?BeginFullScreen@GfxTransEffect@@SAXIABVTRect@@@Z @ 25 NONAME ; void GfxTransEffect::BeginFullScreen(unsigned int, class TRect const &)
	?BeginFullScreen@GfxTransEffect@@SAXIABVTRect@@IABVTDesC8@@@Z @ 26 NONAME ; void GfxTransEffect::BeginFullScreen(unsigned int, class TRect const &, unsigned int, class TDesC8 const &)
	?BeginGroup@GfxTransEffect@@SAHXZ @ 27 NONAME ; int GfxTransEffect::BeginGroup(void)
	?EndDrawItem@GfxTransEffect@@SAXPBVCCoeControl@@@Z @ 28 NONAME ; void GfxTransEffect::EndDrawItem(class CCoeControl const *)
	?EndFullScreen@GfxTransEffect@@SAXXZ @ 29 NONAME ; void GfxTransEffect::EndFullScreen(void)
	?EndGroup@GfxTransEffect@@SAXH@Z @ 30 NONAME ; void GfxTransEffect::EndGroup(int)
	?RegisterDrawItemControl@GfxTransEffect@@SAXPBVCCoeControl@@VTUid@@@Z @ 31 NONAME ; void GfxTransEffect::RegisterDrawItemControl(class CCoeControl const *, class TUid)
	?SetBeginDemarcation@GfxTransEffect@@SAXPBVCCoeControl@@ABVTRect@@@Z @ 32 NONAME ; void GfxTransEffect::SetBeginDemarcation(class CCoeControl const *, class TRect const &)
	?SetEndDemarcation@GfxTransEffect@@SAXPBVCCoeControl@@ABVTRect@@@Z @ 33 NONAME ; void GfxTransEffect::SetEndDemarcation(class CCoeControl const *, class TRect const &)
	?SetTransitionData@GfxTransEffect@@SAXIABVTDesC8@@@Z @ 34 NONAME ; void GfxTransEffect::SetTransitionData(unsigned int, class TDesC8 const &)
	?SetTransitionObserver@GfxTransEffect@@SAXPAVMGfxTransEffectObserver@@@Z @ 35 NONAME ; void GfxTransEffect::SetTransitionObserver(class MGfxTransEffectObserver *)
	?NotifyExternalState@GfxTransEffect@@SAXHPBVTDesC8@@@Z @ 36 NONAME ; void GfxTransEffect::NotifyExternalState(int, class TDesC8 const *)
	
	


