EXPORTS
	_ZN19TulPhoneNumberUtils7IsValidERK7TDesC16NS_16TPhoneNumberTypeE @ 1 NONAME
	_ZN19TulPhoneNumberUtils9NormalizeER6TDes16NS_16TPhoneNumberTypeE @ 2 NONAME
	_ZN20TulTextResourceUtils4LoadER6TDes16iP7CCoeEnv @ 3 NONAME
	_ZN20TulTextResourceUtils5LoadLEiP7CCoeEnv @ 4 NONAME
	_ZN20TulTextResourceUtils5LoadLEiRK12MDesC16ArrayP7CCoeEnv @ 5 NONAME
	_ZN20TulTextResourceUtils5LoadLEiRK12MDesC16ArrayRK9CArrayFixIiEP7CCoeEnv @ 6 NONAME
	_ZN20TulTextResourceUtils5LoadLEiRK7TDesC16P7CCoeEnv @ 7 NONAME
	_ZN20TulTextResourceUtils5LoadLEiRK7TDesC16iP7CCoeEnv @ 8 NONAME
	_ZN20TulTextResourceUtils5LoadLEiRK9CArrayFixIiEP7CCoeEnv @ 9 NONAME
	_ZN20TulTextResourceUtils5LoadLEiiP7CCoeEnv @ 10 NONAME
	_ZN20TulTextResourceUtils6FormatER6TDes16RK7TDesC16iS4_ @ 11 NONAME
	_ZN20TulTextResourceUtils6FormatER6TDes16RK7TDesC16ii @ 12 NONAME
	_ZN20TulTextResourceUtils6LoadLCEiP7CCoeEnv @ 13 NONAME
	_ZN20TulTextResourceUtils6LoadLCEiRK12MDesC16ArrayP7CCoeEnv @ 14 NONAME
	_ZN20TulTextResourceUtils6LoadLCEiRK12MDesC16ArrayRK9CArrayFixIiEP7CCoeEnv @ 15 NONAME
	_ZN20TulTextResourceUtils6LoadLCEiRK7TDesC16P7CCoeEnv @ 16 NONAME
	_ZN20TulTextResourceUtils6LoadLCEiRK7TDesC16iP7CCoeEnv @ 17 NONAME
	_ZN20TulTextResourceUtils6LoadLCEiRK9CArrayFixIiEP7CCoeEnv @ 18 NONAME
	_ZN20TulTextResourceUtils6LoadLCEiiP7CCoeEnv @ 19 NONAME
	_ZN26CTulAddressStringTokenizer12DoNewSearchLERK7TDesC16i @ 20 NONAME
	_ZN26CTulAddressStringTokenizer12DoNewSearchLERK7TDesC16ii @ 21 NONAME
	_ZN26CTulAddressStringTokenizer13ResetPositionEv @ 22 NONAME
	_ZN26CTulAddressStringTokenizer4NewLERK7TDesC16i @ 23 NONAME
	_ZN26CTulAddressStringTokenizer4NewLERK7TDesC16ii @ 24 NONAME
	_ZN26CTulAddressStringTokenizer8NextItemERNS_10SFoundItemE @ 25 NONAME
	_ZN26CTulAddressStringTokenizer8PrevItemERNS_10SFoundItemE @ 26 NONAME
	_ZN26CTulAddressStringTokenizerD0Ev @ 27 NONAME
	_ZN26CTulAddressStringTokenizerD1Ev @ 28 NONAME
	_ZN26CTulAddressStringTokenizerD2Ev @ 29 NONAME
	_ZNK26CTulAddressStringTokenizer4ItemERNS_10SFoundItemE @ 30 NONAME
	_ZNK26CTulAddressStringTokenizer8PositionEv @ 31 NONAME
	_ZNK26CTulAddressStringTokenizer9ItemArrayEv @ 32 NONAME
	_ZNK26CTulAddressStringTokenizer9ItemCountEv @ 33 NONAME
	_ZTI26CTulAddressStringTokenizer @ 34 NONAME
	_ZTV26CTulAddressStringTokenizer @ 35 NONAME
	_ZN24CTulStringResourceReader18ReadResourceStringEi @ 36 NONAME
	_ZN24CTulStringResourceReader4NewLER4TBufILi256EE @ 37 NONAME
	_ZN24CTulStringResourceReader4NewLER4TBufILi256EER3RFs @ 38 NONAME
	_ZN24CTulStringResourceReader5NewLCER4TBufILi256EE @ 39 NONAME
	_ZN24CTulStringResourceReader5NewLCER4TBufILi256EER3RFs @ 40 NONAME
	_ZTI24CTulStringResourceReader @ 41 NONAME
	_ZTV24CTulStringResourceReader @ 42 NONAME

