EXPORTS
	_ZN16AknCommonDialogs12RunCopyDlgLDER6TDes16iP14MAknFileFilterP25MAknFileSelectionObserver @ 1 NONAME
	_ZN16AknCommonDialogs12RunCopyDlgLDER6TDes16iP25MAknFileSelectionObserver @ 2 NONAME
	_ZN16AknCommonDialogs12RunCopyDlgLDER6TDes16iiP25MAknFileSelectionObserver @ 3 NONAME
	_ZN16AknCommonDialogs12RunMoveDlgLDER6TDes16iP14MAknFileFilterP25MAknFileSelectionObserver @ 4 NONAME
	_ZN16AknCommonDialogs12RunMoveDlgLDER6TDes16iP25MAknFileSelectionObserver @ 5 NONAME
	_ZN16AknCommonDialogs12RunMoveDlgLDER6TDes16iRK7TDesC16P25MAknFileSelectionObserver @ 6 NONAME
	_ZN16AknCommonDialogs12RunMoveDlgLDER6TDes16iiP25MAknFileSelectionObserver @ 7 NONAME
	_ZN16AknCommonDialogs12RunSaveDlgLDER6TDes16iP14MAknFileFilterP25MAknFileSelectionObserver @ 8 NONAME
	_ZN16AknCommonDialogs12RunSaveDlgLDER6TDes16iP25MAknFileSelectionObserver @ 9 NONAME
	_ZN16AknCommonDialogs12RunSaveDlgLDER6TDes16iRK7TDesC16S4_P25MAknFileSelectionObserver @ 10 NONAME
	_ZN16AknCommonDialogs12RunSaveDlgLDER6TDes16iiP25MAknFileSelectionObserver @ 11 NONAME
	_ZN16AknCommonDialogs12RunSaveDlgLDER6TDes16iiRK7TDesC16P25MAknFileSelectionObserver @ 12 NONAME
	_ZN16AknCommonDialogs14RunSelectDlgLDER6TDes16RK7TDesC16iP14MAknFileFilterP25MAknFileSelectionObserver @ 13 NONAME
	_ZN16AknCommonDialogs14RunSelectDlgLDER6TDes16RK7TDesC16iP25MAknFileSelectionObserver @ 14 NONAME
	_ZN16AknCommonDialogs14RunSelectDlgLDER6TDes16RK7TDesC16iS4_P25MAknFileSelectionObserver @ 15 NONAME
	_ZN16AknCommonDialogs14RunSelectDlgLDER6TDes16RK7TDesC16iiP25MAknFileSelectionObserver @ 16 NONAME
	_ZN16AknCommonDialogs14RunSelectDlgLDER6TDes16iP14MAknFileFilterP25MAknFileSelectionObserver @ 17 NONAME
	_ZN16AknCommonDialogs14RunSelectDlgLDER6TDes16iP25MAknFileSelectionObserver @ 18 NONAME
	_ZN16AknCommonDialogs14RunSelectDlgLDER6TDes16iRK7TDesC16P25MAknFileSelectionObserver @ 19 NONAME
	_ZN16AknCommonDialogs14RunSelectDlgLDER6TDes16iiP25MAknFileSelectionObserver @ 20 NONAME
	_ZN16AknCommonDialogs32RunSaveDlgNoDirectorySelectionLDER6TDes16iP25MAknFileSelectionObserver @ 21 NONAME
	_ZN16AknCommonDialogs32RunSaveDlgNoDirectorySelectionLDER6TDes16iRK7TDesC16P25MAknFileSelectionObserver @ 22 NONAME
	_ZN18CAknFileNameFilter5NewLCER15TResourceReader @ 23 NONAME
	_ZN18CAknFileNameFilterD0Ev @ 24 NONAME
	_ZN18CAknFileNameFilterD1Ev @ 25 NONAME
	_ZN18CAknFileNameFilterD2Ev @ 26 NONAME
	_ZN19CAknAttributeFilter5NewLCER15TResourceReader @ 27 NONAME
	_ZN19CAknAttributeFilterD0Ev @ 28 NONAME
	_ZN19CAknAttributeFilterD1Ev @ 29 NONAME
	_ZN19CAknAttributeFilterD2Ev @ 30 NONAME
	_ZN20AknFileFilterFactory14CreateFilterLCER15TResourceReader @ 31 NONAME
	_ZN23CAknFileSelectionDialog10AddFilterLEP14MAknFileFilter @ 32 NONAME
	_ZN23CAknFileSelectionDialog11SetObserverEP25MAknFileSelectionObserver @ 33 NONAME
	_ZN23CAknFileSelectionDialog17SetDefaultFolderLERK7TDesC16 @ 34 NONAME
	_ZN23CAknFileSelectionDialog19SetLeftSoftkeyFileLERK7TDesC16 @ 35 NONAME
	_ZN23CAknFileSelectionDialog21SetLeftSoftkeyFolderLERK7TDesC16 @ 36 NONAME
	_ZN23CAknFileSelectionDialog25SetRightSoftkeySubfolderLERK7TDesC16 @ 37 NONAME
	_ZN23CAknFileSelectionDialog26SetRightSoftkeyRootFolderLERK7TDesC16 @ 38 NONAME
	_ZN23CAknFileSelectionDialog4NewLE17TCommonDialogType @ 39 NONAME
	_ZN23CAknFileSelectionDialog4NewLE17TCommonDialogTypei @ 40 NONAME
	_ZN23CAknFileSelectionDialog8ExecuteLER6TDes16 @ 41 NONAME
	_ZN23CAknFileSelectionDialog8RunDlgLDER6TDes16RK7TDesC16P25MAknFileSelectionObserver @ 42 NONAME
	_ZN23CAknFileSelectionDialog8RunDlgLDER6TDes16RK7TDesC16S4_P25MAknFileSelectionObserver @ 43 NONAME
	_ZN23CAknFileSelectionDialog8RunDlgLDER6TDes16RK7TDesC16iP25MAknFileSelectionObserver @ 44 NONAME
	_ZN23CAknFileSelectionDialog9SetTitleLERK7TDesC16 @ 45 NONAME
	_ZN23CAknFileSelectionDialogD0Ev @ 46 NONAME
	_ZN23CAknFileSelectionDialogD1Ev @ 47 NONAME
	_ZN23CAknFileSelectionDialogD2Ev @ 48 NONAME
	_ZN24CAknFileNamePromptDialog11SetObserverEP25MAknFileSelectionObserver @ 49 NONAME
	_ZN24CAknFileNamePromptDialog15SetLeftSoftkeyLERK7TDesC16 @ 50 NONAME
	_ZN24CAknFileNamePromptDialog16SetRightSoftkeyLERK7TDesC16 @ 51 NONAME
	_ZN24CAknFileNamePromptDialog4NewLEi @ 52 NONAME
	_ZN24CAknFileNamePromptDialog4NewLEv @ 53 NONAME
	_ZN24CAknFileNamePromptDialog8ExecuteLER6TDes16 @ 54 NONAME
	_ZN24CAknFileNamePromptDialog8RunDlgLDER6TDes16RK7TDesC16P25MAknFileSelectionObserver @ 55 NONAME
	_ZN24CAknFileNamePromptDialog8RunDlgLDER6TDes16RK7TDesC16S4_P25MAknFileSelectionObserver @ 56 NONAME
	_ZN24CAknFileNamePromptDialog8RunDlgLDER6TDes16RK7TDesC16iP25MAknFileSelectionObserver @ 57 NONAME
	_ZN24CAknFileNamePromptDialog8SetPathLERK7TDesC16 @ 58 NONAME
	_ZN24CAknFileNamePromptDialog9SetTitleLERK7TDesC16 @ 59 NONAME
	_ZN24CAknFileNamePromptDialogD0Ev @ 60 NONAME
	_ZN24CAknFileNamePromptDialogD1Ev @ 61 NONAME
	_ZN24CAknFileNamePromptDialogD2Ev @ 62 NONAME
	_ZN25CAknMemorySelectionDialog11GetMemoriesENS_7TMemoryEP6TDes16S2_ @ 63 NONAME
	_ZN25CAknMemorySelectionDialog11SetObserverEP27MAknMemorySelectionObserver @ 64 NONAME
	_ZN25CAknMemorySelectionDialog15SetLeftSoftkeyLERK7TDesC16 @ 65 NONAME
	_ZN25CAknMemorySelectionDialog16SetRightSoftkeyLERK7TDesC16 @ 66 NONAME
	_ZN25CAknMemorySelectionDialog4NewLE17TCommonDialogTypei @ 67 NONAME
	_ZN25CAknMemorySelectionDialog4NewLE17TCommonDialogTypeii @ 68 NONAME
	_ZN25CAknMemorySelectionDialog7GetItemEiR6TDes16 @ 69 NONAME
	_ZN25CAknMemorySelectionDialog8ExecuteLERNS_7TMemoryE @ 70 NONAME
	_ZN25CAknMemorySelectionDialog8ExecuteLERNS_7TMemoryEP6TDes16S3_ @ 71 NONAME
	_ZN25CAknMemorySelectionDialog8RunDlgLDERNS_7TMemoryEP27MAknMemorySelectionObserver @ 72 NONAME
	_ZN25CAknMemorySelectionDialog8RunDlgLDERNS_7TMemoryERK7TDesC16P27MAknMemorySelectionObserver @ 73 NONAME
	_ZN25CAknMemorySelectionDialog8RunDlgLDERNS_7TMemoryEiP6TDes16S3_P27MAknMemorySelectionObserver @ 74 NONAME
	_ZN25CAknMemorySelectionDialog9SetTitleLERK7TDesC16 @ 75 NONAME
	_ZN25CAknMemorySelectionDialogD0Ev @ 76 NONAME
	_ZN25CAknMemorySelectionDialogD1Ev @ 77 NONAME
	_ZN25CAknMemorySelectionDialogD2Ev @ 78 NONAME
	_ZN30CAknMemorySelectionSettingItem12SettingTextLEv @ 79 NONAME
	_ZN30CAknMemorySelectionSettingItem21CompleteConstructionLEv @ 80 NONAME
	_ZN30CAknMemorySelectionSettingItem5LoadLEv @ 81 NONAME
	_ZN30CAknMemorySelectionSettingItem6StoreLEv @ 82 NONAME
	_ZN30CAknMemorySelectionSettingItem9EditItemLEi @ 83 NONAME
	_ZN30CAknMemorySelectionSettingItemC1EiRN25CAknMemorySelectionDialog7TMemoryE @ 84 NONAME
	_ZN30CAknMemorySelectionSettingItemC2EiRN25CAknMemorySelectionDialog7TMemoryE @ 85 NONAME
	_ZN30CAknMemorySelectionSettingItemD0Ev @ 86 NONAME
	_ZN30CAknMemorySelectionSettingItemD1Ev @ 87 NONAME
	_ZN30CAknMemorySelectionSettingItemD2Ev @ 88 NONAME
	_ZN30CAknMemorySelectionSettingPage4NewLEi @ 89 NONAME
	_ZN30CAknMemorySelectionSettingPage4NewLEv @ 90 NONAME
	_ZN30CAknMemorySelectionSettingPage8ExecuteLERN25CAknMemorySelectionDialog7TMemoryE @ 91 NONAME
	_ZN30CAknMemorySelectionSettingPage8ExecuteLERN25CAknMemorySelectionDialog7TMemoryEP6TDes16S4_ @ 92 NONAME
	_ZN30CAknMemorySelectionSettingPage8RunDlgLDERN25CAknMemorySelectionDialog7TMemoryEP27MAknMemorySelectionObserver @ 93 NONAME
	_ZN30CAknMemorySelectionSettingPage8RunDlgLDERN25CAknMemorySelectionDialog7TMemoryERK7TDesC16P27MAknMemorySelectionObserver @ 94 NONAME
	_ZN30CAknMemorySelectionSettingPage8RunDlgLDERN25CAknMemorySelectionDialog7TMemoryEiP6TDes16S4_P27MAknMemorySelectionObserver @ 95 NONAME
	_ZN30CAknMemorySelectionSettingPageD0Ev @ 96 NONAME
	_ZN30CAknMemorySelectionSettingPageD1Ev @ 97 NONAME
	_ZN30CAknMemorySelectionSettingPageD2Ev @ 98 NONAME
	_ZNK18CAknFileNameFilter6AcceptERK7TDesC16RK6TEntry @ 99 NONAME
	_ZNK19CAknAttributeFilter6AcceptERK7TDesC16RK6TEntry @ 100 NONAME
	_ZTI30CAknMemorySelectionSettingItem @ 101 NONAME ; #<TI>#
	_ZTV30CAknMemorySelectionSettingItem @ 102 NONAME ; #<VT>#
	_ZThn4_N18CAknFileNameFilterD0Ev @ 103 NONAME ; #<thunk>#
	_ZThn4_N18CAknFileNameFilterD1Ev @ 104 NONAME ; #<thunk>#
	_ZThn4_N19CAknAttributeFilterD0Ev @ 105 NONAME ; #<thunk>#
	_ZThn4_N19CAknAttributeFilterD1Ev @ 106 NONAME ; #<thunk>#
	_ZThn4_NK18CAknFileNameFilter6AcceptERK7TDesC16RK6TEntry @ 107 NONAME ; #<thunk>#
	_ZThn4_NK19CAknAttributeFilter6AcceptERK7TDesC16RK6TEntry @ 108 NONAME ; #<thunk>#
	_ZN16AknCommonDialogs12RunSaveDlgLDER6TDes16RK7TDesC16iiS4_P14MAknFileFilterP25MAknFileSelectionObserver @ 109 NONAME
	_ZN16AknCommonDialogs14RunSelectDlgLDER6TDes16RK7TDesC16iiS4_P14MAknFileFilterP25MAknFileSelectionObserver @ 110 NONAME
	_ZN16AknCommonDialogs20RunFolderSelectDlgLDER6TDes16RK7TDesC16iiS4_P14MAknFileFilterP25MAknFileSelectionObserver @ 111 NONAME
	_ZN22AknCommonDialogsDynMem12RunCopyDlgLDEiR6TDes16iP14MAknFileFilterP25MAknFileSelectionObserver @ 112 NONAME
	_ZN22AknCommonDialogsDynMem12RunCopyDlgLDEiR6TDes16iP25MAknFileSelectionObserver @ 113 NONAME
	_ZN22AknCommonDialogsDynMem12RunCopyDlgLDEiR6TDes16iiP25MAknFileSelectionObserver @ 114 NONAME
	_ZN22AknCommonDialogsDynMem12RunMoveDlgLDEiR6TDes16iP14MAknFileFilterP25MAknFileSelectionObserver @ 115 NONAME
	_ZN22AknCommonDialogsDynMem12RunMoveDlgLDEiR6TDes16iP25MAknFileSelectionObserver @ 116 NONAME
	_ZN22AknCommonDialogsDynMem12RunMoveDlgLDEiR6TDes16iRK7TDesC16P25MAknFileSelectionObserver @ 117 NONAME
	_ZN22AknCommonDialogsDynMem12RunMoveDlgLDEiR6TDes16iiP25MAknFileSelectionObserver @ 118 NONAME
	_ZN22AknCommonDialogsDynMem12RunSaveDlgLDEiR6TDes16RK7TDesC16iiS4_P14MAknFileFilterP25MAknFileSelectionObserver @ 119 NONAME
	_ZN22AknCommonDialogsDynMem12RunSaveDlgLDEiR6TDes16iP14MAknFileFilterP25MAknFileSelectionObserver @ 120 NONAME
	_ZN22AknCommonDialogsDynMem12RunSaveDlgLDEiR6TDes16iP25MAknFileSelectionObserver @ 121 NONAME
	_ZN22AknCommonDialogsDynMem12RunSaveDlgLDEiR6TDes16iRK7TDesC16S4_P25MAknFileSelectionObserver @ 122 NONAME
	_ZN22AknCommonDialogsDynMem12RunSaveDlgLDEiR6TDes16iiP25MAknFileSelectionObserver @ 123 NONAME
	_ZN22AknCommonDialogsDynMem12RunSaveDlgLDEiR6TDes16iiRK7TDesC16P25MAknFileSelectionObserver @ 124 NONAME
	_ZN22AknCommonDialogsDynMem14RunSelectDlgLDEiR6TDes16RK7TDesC16iP14MAknFileFilterP25MAknFileSelectionObserver @ 125 NONAME
	_ZN22AknCommonDialogsDynMem14RunSelectDlgLDEiR6TDes16RK7TDesC16iP25MAknFileSelectionObserver @ 126 NONAME
	_ZN22AknCommonDialogsDynMem14RunSelectDlgLDEiR6TDes16RK7TDesC16iS4_P25MAknFileSelectionObserver @ 127 NONAME
	_ZN22AknCommonDialogsDynMem14RunSelectDlgLDEiR6TDes16RK7TDesC16iiP25MAknFileSelectionObserver @ 128 NONAME
	_ZN22AknCommonDialogsDynMem14RunSelectDlgLDEiR6TDes16RK7TDesC16iiS4_P14MAknFileFilterP25MAknFileSelectionObserver @ 129 NONAME
	_ZN22AknCommonDialogsDynMem14RunSelectDlgLDEiR6TDes16iP14MAknFileFilterP25MAknFileSelectionObserver @ 130 NONAME
	_ZN22AknCommonDialogsDynMem14RunSelectDlgLDEiR6TDes16iP25MAknFileSelectionObserver @ 131 NONAME
	_ZN22AknCommonDialogsDynMem14RunSelectDlgLDEiR6TDes16iRK7TDesC16P25MAknFileSelectionObserver @ 132 NONAME
	_ZN22AknCommonDialogsDynMem14RunSelectDlgLDEiR6TDes16iiP25MAknFileSelectionObserver @ 133 NONAME
	_ZN22AknCommonDialogsDynMem20RunFolderSelectDlgLDEiR6TDes16RK7TDesC16iiS4_P14MAknFileFilterP25MAknFileSelectionObserver @ 134 NONAME
	_ZN22AknCommonDialogsDynMem32RunSaveDlgNoDirectorySelectionLDEiR6TDes16iP25MAknFileSelectionObserver @ 135 NONAME
	_ZN22AknCommonDialogsDynMem32RunSaveDlgNoDirectorySelectionLDEiR6TDes16iRK7TDesC16P25MAknFileSelectionObserver @ 136 NONAME
	_ZN25CAknMemorySelectionDialog4NewLE17TCommonDialogTypeiii @ 137 NONAME
	_ZN24CAknFileNamePromptDialog7RenameLER6TDes16 @ 138 NONAME
	_ZN35CAknMemorySelectionDialogMultiDrive14AddDrivePathsLERK7TDesC16S2_ @ 139 NONAME
	_ZN35CAknMemorySelectionDialogMultiDrive15SetLeftSoftkeyLERK7TDesC16 @ 140 NONAME
	_ZN35CAknMemorySelectionDialogMultiDrive16FindIndexByDriveERK12TDriveNumber @ 141 NONAME
	_ZN35CAknMemorySelectionDialogMultiDrive16SetRightSoftkeyLERK7TDesC16 @ 142 NONAME
	_ZN35CAknMemorySelectionDialogMultiDrive4NewLE17TCommonDialogTypei @ 143 NONAME
	_ZN35CAknMemorySelectionDialogMultiDrive4NewLE17TCommonDialogTypeii @ 144 NONAME
	_ZN35CAknMemorySelectionDialogMultiDrive4NewLE17TCommonDialogTypeiii @ 145 NONAME
	_ZN35CAknMemorySelectionDialogMultiDrive7GetItemEiR6TDes16 @ 146 NONAME
	_ZN35CAknMemorySelectionDialogMultiDrive8ExecuteLER12TDriveNumber @ 147 NONAME
	_ZN35CAknMemorySelectionDialogMultiDrive8ExecuteLER12TDriveNumberP6TDes16S3_ @ 148 NONAME
	_ZN35CAknMemorySelectionDialogMultiDrive8RunDlgLDER12TDriveNumber @ 149 NONAME
	_ZN35CAknMemorySelectionDialogMultiDrive8RunDlgLDER12TDriveNumberRK7TDesC16 @ 150 NONAME
	_ZN35CAknMemorySelectionDialogMultiDrive8RunDlgLDER12TDriveNumberiP6TDes16S3_ @ 151 NONAME
	_ZN35CAknMemorySelectionDialogMultiDrive9SetTitleLERK7TDesC16 @ 152 NONAME
	_ZN35CAknMemorySelectionDialogMultiDriveD0Ev @ 153 NONAME
	_ZN35CAknMemorySelectionDialogMultiDriveD1Ev @ 154 NONAME
	_ZN35CAknMemorySelectionDialogMultiDriveD2Ev @ 155 NONAME
	_ZN40CAknMemorySelectionSettingItemMultiDrive12SettingTextLEv @ 156 NONAME
	_ZN40CAknMemorySelectionSettingItemMultiDrive21CompleteConstructionLEv @ 157 NONAME
	_ZN40CAknMemorySelectionSettingItemMultiDrive5LoadLEv @ 158 NONAME
	_ZN40CAknMemorySelectionSettingItemMultiDrive6StoreLEv @ 159 NONAME
	_ZN40CAknMemorySelectionSettingItemMultiDrive9EditItemLEi @ 160 NONAME
	_ZN40CAknMemorySelectionSettingItemMultiDriveC1EiR12TDriveNumber @ 161 NONAME
	_ZN40CAknMemorySelectionSettingItemMultiDriveC2EiR12TDriveNumber @ 162 NONAME
	_ZN40CAknMemorySelectionSettingItemMultiDriveD0Ev @ 163 NONAME
	_ZN40CAknMemorySelectionSettingItemMultiDriveD1Ev @ 164 NONAME
	_ZN40CAknMemorySelectionSettingItemMultiDriveD2Ev @ 165 NONAME
	_ZTI40CAknMemorySelectionSettingItemMultiDrive @ 166 NONAME ; #<TI>#
	_ZTV40CAknMemorySelectionSettingItemMultiDrive @ 167 NONAME ; #<VT>#

