EXPORTS
	??0CAknMemorySelectionSettingItem@@QAE@HAAW4TMemory@CAknMemorySelectionDialog@@@Z @ 1 NONAME ; public: __thiscall CAknMemorySelectionSettingItem::CAknMemorySelectionSettingItem(int,enum CAknMemorySelectionDialog::TMemory &)
	??1CAknAttributeFilter@@UAE@XZ @ 2 NONAME ; public: virtual __thiscall CAknAttributeFilter::~CAknAttributeFilter(void)
	??1CAknFileNameFilter@@UAE@XZ @ 3 NONAME ; public: virtual __thiscall CAknFileNameFilter::~CAknFileNameFilter(void)
	??1CAknFileNamePromptDialog@@UAE@XZ @ 4 NONAME ; public: virtual __thiscall CAknFileNamePromptDialog::~CAknFileNamePromptDialog(void)
	??1CAknFileSelectionDialog@@UAE@XZ @ 5 NONAME ; public: virtual __thiscall CAknFileSelectionDialog::~CAknFileSelectionDialog(void)
	??1CAknMemorySelectionDialog@@UAE@XZ @ 6 NONAME ; public: virtual __thiscall CAknMemorySelectionDialog::~CAknMemorySelectionDialog(void)
	??1CAknMemorySelectionSettingItem@@UAE@XZ @ 7 NONAME ; public: virtual __thiscall CAknMemorySelectionSettingItem::~CAknMemorySelectionSettingItem(void)
	??1CAknMemorySelectionSettingPage@@UAE@XZ @ 8 NONAME ; public: virtual __thiscall CAknMemorySelectionSettingPage::~CAknMemorySelectionSettingPage(void)
	?Accept@CAknAttributeFilter@@UBEHABVTDesC16@@ABVTEntry@@@Z @ 9 NONAME ; public: virtual int __thiscall CAknAttributeFilter::Accept(class TDesC16 const &,class TEntry const &)const 
	?Accept@CAknFileNameFilter@@UBEHABVTDesC16@@ABVTEntry@@@Z @ 10 NONAME ; public: virtual int __thiscall CAknFileNameFilter::Accept(class TDesC16 const &,class TEntry const &)const 
	?AddFilterL@CAknFileSelectionDialog@@QAEXPAVMAknFileFilter@@@Z @ 11 NONAME ; public: void __thiscall CAknFileSelectionDialog::AddFilterL(class MAknFileFilter *)
	?CompleteConstructionL@CAknMemorySelectionSettingItem@@UAEXXZ @ 12 NONAME ; public: virtual void __thiscall CAknMemorySelectionSettingItem::CompleteConstructionL(void)
	?CreateFilterLC@AknFileFilterFactory@@SAPAVMAknFileFilter@@AAVTResourceReader@@@Z @ 13 NONAME ; public: static class MAknFileFilter * __cdecl AknFileFilterFactory::CreateFilterLC(class TResourceReader &)
	?EditItemL@CAknMemorySelectionSettingItem@@UAEXH@Z @ 14 NONAME ; public: virtual void __thiscall CAknMemorySelectionSettingItem::EditItemL(int)
	?ExecuteL@CAknFileNamePromptDialog@@QAEHAAVTDes16@@@Z @ 15 NONAME ; public: int __thiscall CAknFileNamePromptDialog::ExecuteL(class TDes16 &)
	?ExecuteL@CAknFileSelectionDialog@@QAEHAAVTDes16@@@Z @ 16 NONAME ; public: int __thiscall CAknFileSelectionDialog::ExecuteL(class TDes16 &)
	?ExecuteL@CAknMemorySelectionDialog@@UAE?AW4TReturnKey@CAknCommonDialogsBase@@AAW4TMemory@1@@Z @ 17 NONAME ; public: virtual enum CAknCommonDialogsBase::TReturnKey __thiscall CAknMemorySelectionDialog::ExecuteL(enum CAknMemorySelectionDialog::TMemory &)
	?ExecuteL@CAknMemorySelectionDialog@@UAE?AW4TReturnKey@CAknCommonDialogsBase@@AAW4TMemory@1@PAVTDes16@@1@Z @ 18 NONAME ; public: virtual enum CAknCommonDialogsBase::TReturnKey __thiscall CAknMemorySelectionDialog::ExecuteL(enum CAknMemorySelectionDialog::TMemory &,class TDes16 *,class TDes16 *)
	?ExecuteL@CAknMemorySelectionSettingPage@@UAE?AW4TReturnKey@CAknCommonDialogsBase@@AAW4TMemory@CAknMemorySelectionDialog@@@Z @ 19 NONAME ; public: virtual enum CAknCommonDialogsBase::TReturnKey __thiscall CAknMemorySelectionSettingPage::ExecuteL(enum CAknMemorySelectionDialog::TMemory &)
	?ExecuteL@CAknMemorySelectionSettingPage@@UAE?AW4TReturnKey@CAknCommonDialogsBase@@AAW4TMemory@CAknMemorySelectionDialog@@PAVTDes16@@1@Z @ 20 NONAME ; public: virtual enum CAknCommonDialogsBase::TReturnKey __thiscall CAknMemorySelectionSettingPage::ExecuteL(enum CAknMemorySelectionDialog::TMemory &,class TDes16 *,class TDes16 *)
	?GetItem@CAknMemorySelectionDialog@@QAEXHAAVTDes16@@@Z @ 21 NONAME ; public: void __thiscall CAknMemorySelectionDialog::GetItem(int,class TDes16 &)
	?GetMemories@CAknMemorySelectionDialog@@QAEXW4TMemory@1@PAVTDes16@@1@Z @ 22 NONAME ; public: void __thiscall CAknMemorySelectionDialog::GetMemories(enum CAknMemorySelectionDialog::TMemory,class TDes16 *,class TDes16 *)
	?LoadL@CAknMemorySelectionSettingItem@@UAEXXZ @ 23 NONAME ; public: virtual void __thiscall CAknMemorySelectionSettingItem::LoadL(void)
	?NewL@CAknFileNamePromptDialog@@SAPAV1@H@Z @ 24 NONAME ; public: static class CAknFileNamePromptDialog * __cdecl CAknFileNamePromptDialog::NewL(int)
	?NewL@CAknFileNamePromptDialog@@SAPAV1@XZ @ 25 NONAME ; public: static class CAknFileNamePromptDialog * __cdecl CAknFileNamePromptDialog::NewL(void)
	?NewL@CAknFileSelectionDialog@@SAPAV1@W4TCommonDialogType@@@Z @ 26 NONAME ; public: static class CAknFileSelectionDialog * __cdecl CAknFileSelectionDialog::NewL(enum TCommonDialogType)
	?NewL@CAknFileSelectionDialog@@SAPAV1@W4TCommonDialogType@@H@Z @ 27 NONAME ; public: static class CAknFileSelectionDialog * __cdecl CAknFileSelectionDialog::NewL(enum TCommonDialogType,int)
	?NewL@CAknMemorySelectionDialog@@SAPAV1@W4TCommonDialogType@@H@Z @ 28 NONAME ; public: static class CAknMemorySelectionDialog * __cdecl CAknMemorySelectionDialog::NewL(enum TCommonDialogType,int)
	?NewL@CAknMemorySelectionDialog@@SAPAV1@W4TCommonDialogType@@HH@Z @ 29 NONAME ; public: static class CAknMemorySelectionDialog * __cdecl CAknMemorySelectionDialog::NewL(enum TCommonDialogType,int,int)
	?NewL@CAknMemorySelectionSettingPage@@SAPAV1@H@Z @ 30 NONAME ; public: static class CAknMemorySelectionSettingPage * __cdecl CAknMemorySelectionSettingPage::NewL(int)
	?NewL@CAknMemorySelectionSettingPage@@SAPAV1@XZ @ 31 NONAME ; public: static class CAknMemorySelectionSettingPage * __cdecl CAknMemorySelectionSettingPage::NewL(void)
	?NewLC@CAknAttributeFilter@@SAPAV1@AAVTResourceReader@@@Z @ 32 NONAME ; public: static class CAknAttributeFilter * __cdecl CAknAttributeFilter::NewLC(class TResourceReader &)
	?NewLC@CAknFileNameFilter@@SAPAV1@AAVTResourceReader@@@Z @ 33 NONAME ; public: static class CAknFileNameFilter * __cdecl CAknFileNameFilter::NewLC(class TResourceReader &)
	?RunDlgLD@CAknFileNamePromptDialog@@SAHAAVTDes16@@ABVTDesC16@@1PAVMAknFileSelectionObserver@@@Z @ 34 NONAME ; public: static int __cdecl CAknFileNamePromptDialog::RunDlgLD(class TDes16 &,class TDesC16 const &,class TDesC16 const &,class MAknFileSelectionObserver *)
	?RunDlgLD@CAknFileNamePromptDialog@@SAHAAVTDes16@@ABVTDesC16@@HPAVMAknFileSelectionObserver@@@Z @ 35 NONAME ; public: static int __cdecl CAknFileNamePromptDialog::RunDlgLD(class TDes16 &,class TDesC16 const &,int,class MAknFileSelectionObserver *)
	?RunDlgLD@CAknFileNamePromptDialog@@SAHAAVTDes16@@ABVTDesC16@@PAVMAknFileSelectionObserver@@@Z @ 36 NONAME ; public: static int __cdecl CAknFileNamePromptDialog::RunDlgLD(class TDes16 &,class TDesC16 const &,class MAknFileSelectionObserver *)
	?RunDlgLD@CAknFileSelectionDialog@@SAHAAVTDes16@@ABVTDesC16@@1PAVMAknFileSelectionObserver@@@Z @ 37 NONAME ; public: static int __cdecl CAknFileSelectionDialog::RunDlgLD(class TDes16 &,class TDesC16 const &,class TDesC16 const &,class MAknFileSelectionObserver *)
	?RunDlgLD@CAknFileSelectionDialog@@SAHAAVTDes16@@ABVTDesC16@@HPAVMAknFileSelectionObserver@@@Z @ 38 NONAME ; public: static int __cdecl CAknFileSelectionDialog::RunDlgLD(class TDes16 &,class TDesC16 const &,int,class MAknFileSelectionObserver *)
	?RunDlgLD@CAknFileSelectionDialog@@SAHAAVTDes16@@ABVTDesC16@@PAVMAknFileSelectionObserver@@@Z @ 39 NONAME ; public: static int __cdecl CAknFileSelectionDialog::RunDlgLD(class TDes16 &,class TDesC16 const &,class MAknFileSelectionObserver *)
	?RunDlgLD@CAknMemorySelectionDialog@@SAHAAW4TMemory@1@ABVTDesC16@@PAVMAknMemorySelectionObserver@@@Z @ 40 NONAME ; public: static int __cdecl CAknMemorySelectionDialog::RunDlgLD(enum CAknMemorySelectionDialog::TMemory &,class TDesC16 const &,class MAknMemorySelectionObserver *)
	?RunDlgLD@CAknMemorySelectionDialog@@SAHAAW4TMemory@1@HPAVTDes16@@1PAVMAknMemorySelectionObserver@@@Z @ 41 NONAME ; public: static int __cdecl CAknMemorySelectionDialog::RunDlgLD(enum CAknMemorySelectionDialog::TMemory &,int,class TDes16 *,class TDes16 *,class MAknMemorySelectionObserver *)
	?RunDlgLD@CAknMemorySelectionDialog@@SAHAAW4TMemory@1@PAVMAknMemorySelectionObserver@@@Z @ 42 NONAME ; public: static int __cdecl CAknMemorySelectionDialog::RunDlgLD(enum CAknMemorySelectionDialog::TMemory &,class MAknMemorySelectionObserver *)
	?RunDlgLD@CAknMemorySelectionSettingPage@@SAHAAW4TMemory@CAknMemorySelectionDialog@@ABVTDesC16@@PAVMAknMemorySelectionObserver@@@Z @ 43 NONAME ; public: static int __cdecl CAknMemorySelectionSettingPage::RunDlgLD(enum CAknMemorySelectionDialog::TMemory &,class TDesC16 const &,class MAknMemorySelectionObserver *)
	?RunDlgLD@CAknMemorySelectionSettingPage@@SAHAAW4TMemory@CAknMemorySelectionDialog@@HPAVTDes16@@1PAVMAknMemorySelectionObserver@@@Z @ 44 NONAME ; public: static int __cdecl CAknMemorySelectionSettingPage::RunDlgLD(enum CAknMemorySelectionDialog::TMemory &,int,class TDes16 *,class TDes16 *,class MAknMemorySelectionObserver *)
	?RunDlgLD@CAknMemorySelectionSettingPage@@SAHAAW4TMemory@CAknMemorySelectionDialog@@PAVMAknMemorySelectionObserver@@@Z @ 45 NONAME ; public: static int __cdecl CAknMemorySelectionSettingPage::RunDlgLD(enum CAknMemorySelectionDialog::TMemory &,class MAknMemorySelectionObserver *)
	?RunMoveDlgLD@AknCommonDialogs@@SAHAAVTDes16@@HABVTDesC16@@PAVMAknFileSelectionObserver@@@Z @ 46 NONAME ; public: static int __cdecl AknCommonDialogs::RunMoveDlgLD(class TDes16 &,int,class TDesC16 const &,class MAknFileSelectionObserver *)
	?RunMoveDlgLD@AknCommonDialogs@@SAHAAVTDes16@@HHPAVMAknFileSelectionObserver@@@Z @ 47 NONAME ; public: static int __cdecl AknCommonDialogs::RunMoveDlgLD(class TDes16 &,int,int,class MAknFileSelectionObserver *)
	?RunMoveDlgLD@AknCommonDialogs@@SAHAAVTDes16@@HPAVMAknFileSelectionObserver@@@Z @ 48 NONAME ; public: static int __cdecl AknCommonDialogs::RunMoveDlgLD(class TDes16 &,int,class MAknFileSelectionObserver *)
	?RunSaveDlgLD@AknCommonDialogs@@SAHAAVTDes16@@HABVTDesC16@@1PAVMAknFileSelectionObserver@@@Z @ 49 NONAME ; public: static int __cdecl AknCommonDialogs::RunSaveDlgLD(class TDes16 &,int,class TDesC16 const &,class TDesC16 const &,class MAknFileSelectionObserver *)
	?RunSaveDlgLD@AknCommonDialogs@@SAHAAVTDes16@@HHABVTDesC16@@PAVMAknFileSelectionObserver@@@Z @ 50 NONAME ; public: static int __cdecl AknCommonDialogs::RunSaveDlgLD(class TDes16 &,int,int,class TDesC16 const &,class MAknFileSelectionObserver *)
	?RunSaveDlgLD@AknCommonDialogs@@SAHAAVTDes16@@HPAVMAknFileSelectionObserver@@@Z @ 51 NONAME ; public: static int __cdecl AknCommonDialogs::RunSaveDlgLD(class TDes16 &,int,class MAknFileSelectionObserver *)
	?RunSelectDlgLD@AknCommonDialogs@@SAHAAVTDes16@@HABVTDesC16@@PAVMAknFileSelectionObserver@@@Z @ 52 NONAME ; public: static int __cdecl AknCommonDialogs::RunSelectDlgLD(class TDes16 &,int,class TDesC16 const &,class MAknFileSelectionObserver *)
	?RunSelectDlgLD@AknCommonDialogs@@SAHAAVTDes16@@HHPAVMAknFileSelectionObserver@@@Z @ 53 NONAME ; public: static int __cdecl AknCommonDialogs::RunSelectDlgLD(class TDes16 &,int,int,class MAknFileSelectionObserver *)
	?RunSelectDlgLD@AknCommonDialogs@@SAHAAVTDes16@@HPAVMAknFileSelectionObserver@@@Z @ 54 NONAME ; public: static int __cdecl AknCommonDialogs::RunSelectDlgLD(class TDes16 &,int,class MAknFileSelectionObserver *)
	?SetDefaultFolderL@CAknFileSelectionDialog@@QAEXABVTDesC16@@@Z @ 55 NONAME ; public: void __thiscall CAknFileSelectionDialog::SetDefaultFolderL(class TDesC16 const &)
	?SetLeftSoftkeyFileL@CAknFileSelectionDialog@@QAEXABVTDesC16@@@Z @ 56 NONAME ; public: void __thiscall CAknFileSelectionDialog::SetLeftSoftkeyFileL(class TDesC16 const &)
	?SetLeftSoftkeyFolderL@CAknFileSelectionDialog@@QAEXABVTDesC16@@@Z @ 57 NONAME ; public: void __thiscall CAknFileSelectionDialog::SetLeftSoftkeyFolderL(class TDesC16 const &)
	?SetLeftSoftkeyL@CAknFileNamePromptDialog@@QAEXABVTDesC16@@@Z @ 58 NONAME ; public: void __thiscall CAknFileNamePromptDialog::SetLeftSoftkeyL(class TDesC16 const &)
	?SetLeftSoftkeyL@CAknMemorySelectionDialog@@QAEXABVTDesC16@@@Z @ 59 NONAME ; public: void __thiscall CAknMemorySelectionDialog::SetLeftSoftkeyL(class TDesC16 const &)
	?SetObserver@CAknFileNamePromptDialog@@QAEXPAVMAknFileSelectionObserver@@@Z @ 60 NONAME ; public: void __thiscall CAknFileNamePromptDialog::SetObserver(class MAknFileSelectionObserver *)
	?SetObserver@CAknFileSelectionDialog@@QAEXPAVMAknFileSelectionObserver@@@Z @ 61 NONAME ; public: void __thiscall CAknFileSelectionDialog::SetObserver(class MAknFileSelectionObserver *)
	?SetObserver@CAknMemorySelectionDialog@@QAEXPAVMAknMemorySelectionObserver@@@Z @ 62 NONAME ; public: void __thiscall CAknMemorySelectionDialog::SetObserver(class MAknMemorySelectionObserver *)
	?SetPathL@CAknFileNamePromptDialog@@QAEXABVTDesC16@@@Z @ 63 NONAME ; public: void __thiscall CAknFileNamePromptDialog::SetPathL(class TDesC16 const &)
	?SetRightSoftkeyL@CAknFileNamePromptDialog@@QAEXABVTDesC16@@@Z @ 64 NONAME ; public: void __thiscall CAknFileNamePromptDialog::SetRightSoftkeyL(class TDesC16 const &)
	?SetRightSoftkeyL@CAknMemorySelectionDialog@@QAEXABVTDesC16@@@Z @ 65 NONAME ; public: void __thiscall CAknMemorySelectionDialog::SetRightSoftkeyL(class TDesC16 const &)
	?SetRightSoftkeyRootFolderL@CAknFileSelectionDialog@@QAEXABVTDesC16@@@Z @ 66 NONAME ; public: void __thiscall CAknFileSelectionDialog::SetRightSoftkeyRootFolderL(class TDesC16 const &)
	?SetRightSoftkeySubfolderL@CAknFileSelectionDialog@@QAEXABVTDesC16@@@Z @ 67 NONAME ; public: void __thiscall CAknFileSelectionDialog::SetRightSoftkeySubfolderL(class TDesC16 const &)
	?SetTitleL@CAknFileNamePromptDialog@@QAEXABVTDesC16@@@Z @ 68 NONAME ; public: void __thiscall CAknFileNamePromptDialog::SetTitleL(class TDesC16 const &)
	?SetTitleL@CAknFileSelectionDialog@@QAEXABVTDesC16@@@Z @ 69 NONAME ; public: void __thiscall CAknFileSelectionDialog::SetTitleL(class TDesC16 const &)
	?SetTitleL@CAknMemorySelectionDialog@@QAEXABVTDesC16@@@Z @ 70 NONAME ; public: void __thiscall CAknMemorySelectionDialog::SetTitleL(class TDesC16 const &)
	?SettingTextL@CAknMemorySelectionSettingItem@@UAEABVTDesC16@@XZ @ 71 NONAME ; public: virtual class TDesC16 const & __thiscall CAknMemorySelectionSettingItem::SettingTextL(void)
	?StoreL@CAknMemorySelectionSettingItem@@UAEXXZ @ 72 NONAME ; public: virtual void __thiscall CAknMemorySelectionSettingItem::StoreL(void)
	?RunCopyDlgLD@AknCommonDialogs@@SAHAAVTDes16@@HHPAVMAknFileSelectionObserver@@@Z @ 73 NONAME ; public: static int __cdecl AknCommonDialogs::RunCopyDlgLD(class TDes16 &,int,int,class MAknFileSelectionObserver *)
	?RunCopyDlgLD@AknCommonDialogs@@SAHAAVTDes16@@HPAVMAknFileSelectionObserver@@@Z @ 74 NONAME ; public: static int __cdecl AknCommonDialogs::RunCopyDlgLD(class TDes16 &,int,class MAknFileSelectionObserver *)
	?RunCopyDlgLD@AknCommonDialogs@@SAHAAVTDes16@@HPAVMAknFileFilter@@PAVMAknFileSelectionObserver@@@Z @ 75 NONAME ; public: static int __cdecl AknCommonDialogs::RunCopyDlgLD(class TDes16 &,int,class MAknFileFilter *,class MAknFileSelectionObserver *)
	?RunMoveDlgLD@AknCommonDialogs@@SAHAAVTDes16@@HPAVMAknFileFilter@@PAVMAknFileSelectionObserver@@@Z @ 76 NONAME ; public: static int __cdecl AknCommonDialogs::RunMoveDlgLD(class TDes16 &,int,class MAknFileFilter *,class MAknFileSelectionObserver *)
	?RunSaveDlgLD@AknCommonDialogs@@SAHAAVTDes16@@HPAVMAknFileFilter@@PAVMAknFileSelectionObserver@@@Z @ 77 NONAME ; public: static int __cdecl AknCommonDialogs::RunSaveDlgLD(class TDes16 &,int,class MAknFileFilter *,class MAknFileSelectionObserver *)
	?RunSelectDlgLD@AknCommonDialogs@@SAHAAVTDes16@@HPAVMAknFileFilter@@PAVMAknFileSelectionObserver@@@Z @ 78 NONAME ; public: static int __cdecl AknCommonDialogs::RunSelectDlgLD(class TDes16 &,int,class MAknFileFilter *,class MAknFileSelectionObserver *)
	?RunSaveDlgLD@AknCommonDialogs@@SAHAAVTDes16@@HHPAVMAknFileSelectionObserver@@@Z @ 79 NONAME ; public: static int __cdecl AknCommonDialogs::RunSaveDlgLD(class TDes16 &,int,int,class MAknFileSelectionObserver *)
	?RunSaveDlgNoDirectorySelectionLD@AknCommonDialogs@@SAHAAVTDes16@@HABVTDesC16@@PAVMAknFileSelectionObserver@@@Z @ 80 NONAME ; public: static int __cdecl AknCommonDialogs::RunSaveDlgNoDirectorySelectionLD(class TDes16 &,int,class TDesC16 const &,class MAknFileSelectionObserver *)
	?RunSaveDlgNoDirectorySelectionLD@AknCommonDialogs@@SAHAAVTDes16@@HPAVMAknFileSelectionObserver@@@Z @ 81 NONAME ; public: static int __cdecl AknCommonDialogs::RunSaveDlgNoDirectorySelectionLD(class TDes16 &,int,class MAknFileSelectionObserver *)
	?RunSelectDlgLD@AknCommonDialogs@@SAHAAVTDes16@@ABVTDesC16@@H1PAVMAknFileSelectionObserver@@@Z @ 82 NONAME ; public: static int __cdecl AknCommonDialogs::RunSelectDlgLD(class TDes16 &,class TDesC16 const &,int,class TDesC16 const &,class MAknFileSelectionObserver *)
	?RunSelectDlgLD@AknCommonDialogs@@SAHAAVTDes16@@ABVTDesC16@@HHPAVMAknFileSelectionObserver@@@Z @ 83 NONAME ; public: static int __cdecl AknCommonDialogs::RunSelectDlgLD(class TDes16 &,class TDesC16 const &,int,int,class MAknFileSelectionObserver *)
	?RunSelectDlgLD@AknCommonDialogs@@SAHAAVTDes16@@ABVTDesC16@@HPAVMAknFileFilter@@PAVMAknFileSelectionObserver@@@Z @ 84 NONAME ; public: static int __cdecl AknCommonDialogs::RunSelectDlgLD(class TDes16 &,class TDesC16 const &,int,class MAknFileFilter *,class MAknFileSelectionObserver *)
	?RunSelectDlgLD@AknCommonDialogs@@SAHAAVTDes16@@ABVTDesC16@@HPAVMAknFileSelectionObserver@@@Z @ 85 NONAME ; public: static int __cdecl AknCommonDialogs::RunSelectDlgLD(class TDes16 &,class TDesC16 const &,int,class MAknFileSelectionObserver *)
	?RunFolderSelectDlgLD@AknCommonDialogs@@SAHAAVTDes16@@ABVTDesC16@@HH1PAVMAknFileFilter@@PAVMAknFileSelectionObserver@@@Z @ 86 NONAME ; int AknCommonDialogs::RunFolderSelectDlgLD(class TDes16 &, class TDesC16 const &, int, int, class TDesC16 const &, class MAknFileFilter *, class MAknFileSelectionObserver *)
	?RunSaveDlgLD@AknCommonDialogs@@SAHAAVTDes16@@ABVTDesC16@@HH1PAVMAknFileFilter@@PAVMAknFileSelectionObserver@@@Z @ 87 NONAME ; int AknCommonDialogs::RunSaveDlgLD(class TDes16 &, class TDesC16 const &, int, int, class TDesC16 const &, class MAknFileFilter *, class MAknFileSelectionObserver *)
	?RunSelectDlgLD@AknCommonDialogs@@SAHAAVTDes16@@ABVTDesC16@@HH1PAVMAknFileFilter@@PAVMAknFileSelectionObserver@@@Z @ 88 NONAME ; int AknCommonDialogs::RunSelectDlgLD(class TDes16 &, class TDesC16 const &, int, int, class TDesC16 const &, class MAknFileFilter *, class MAknFileSelectionObserver *)
	?NewL@CAknMemorySelectionDialog@@SAPAV1@W4TCommonDialogType@@HHH@Z @ 89 NONAME ; class CAknMemorySelectionDialog * CAknMemorySelectionDialog::NewL(enum TCommonDialogType, int, int, int)
	?RunCopyDlgLD@AknCommonDialogsDynMem@@SAHHAAVTDes16@@HHPAVMAknFileSelectionObserver@@@Z @ 90 NONAME ; int AknCommonDialogsDynMem::RunCopyDlgLD(int, class TDes16 &, int, int, class MAknFileSelectionObserver *)
	?RunCopyDlgLD@AknCommonDialogsDynMem@@SAHHAAVTDes16@@HPAVMAknFileFilter@@PAVMAknFileSelectionObserver@@@Z @ 91 NONAME ; int AknCommonDialogsDynMem::RunCopyDlgLD(int, class TDes16 &, int, class MAknFileFilter *, class MAknFileSelectionObserver *)
	?RunCopyDlgLD@AknCommonDialogsDynMem@@SAHHAAVTDes16@@HPAVMAknFileSelectionObserver@@@Z @ 92 NONAME ; int AknCommonDialogsDynMem::RunCopyDlgLD(int, class TDes16 &, int, class MAknFileSelectionObserver *)
	?RunFolderSelectDlgLD@AknCommonDialogsDynMem@@SAHHAAVTDes16@@ABVTDesC16@@HH1PAVMAknFileFilter@@PAVMAknFileSelectionObserver@@@Z @ 93 NONAME ; int AknCommonDialogsDynMem::RunFolderSelectDlgLD(int, class TDes16 &, class TDesC16 const &, int, int, class TDesC16 const &, class MAknFileFilter *, class MAknFileSelectionObserver *)
	?RunMoveDlgLD@AknCommonDialogsDynMem@@SAHHAAVTDes16@@HABVTDesC16@@PAVMAknFileSelectionObserver@@@Z @ 94 NONAME ; int AknCommonDialogsDynMem::RunMoveDlgLD(int, class TDes16 &, int, class TDesC16 const &, class MAknFileSelectionObserver *)
	?RunMoveDlgLD@AknCommonDialogsDynMem@@SAHHAAVTDes16@@HHPAVMAknFileSelectionObserver@@@Z @ 95 NONAME ; int AknCommonDialogsDynMem::RunMoveDlgLD(int, class TDes16 &, int, int, class MAknFileSelectionObserver *)
	?RunMoveDlgLD@AknCommonDialogsDynMem@@SAHHAAVTDes16@@HPAVMAknFileFilter@@PAVMAknFileSelectionObserver@@@Z @ 96 NONAME ; int AknCommonDialogsDynMem::RunMoveDlgLD(int, class TDes16 &, int, class MAknFileFilter *, class MAknFileSelectionObserver *)
	?RunMoveDlgLD@AknCommonDialogsDynMem@@SAHHAAVTDes16@@HPAVMAknFileSelectionObserver@@@Z @ 97 NONAME ; int AknCommonDialogsDynMem::RunMoveDlgLD(int, class TDes16 &, int, class MAknFileSelectionObserver *)
	?RunSaveDlgLD@AknCommonDialogsDynMem@@SAHHAAVTDes16@@ABVTDesC16@@HH1PAVMAknFileFilter@@PAVMAknFileSelectionObserver@@@Z @ 98 NONAME ; int AknCommonDialogsDynMem::RunSaveDlgLD(int, class TDes16 &, class TDesC16 const &, int, int, class TDesC16 const &, class MAknFileFilter *, class MAknFileSelectionObserver *)
	?RunSaveDlgLD@AknCommonDialogsDynMem@@SAHHAAVTDes16@@HABVTDesC16@@1PAVMAknFileSelectionObserver@@@Z @ 99 NONAME ; int AknCommonDialogsDynMem::RunSaveDlgLD(int, class TDes16 &, int, class TDesC16 const &, class TDesC16 const &, class MAknFileSelectionObserver *)
	?RunSaveDlgLD@AknCommonDialogsDynMem@@SAHHAAVTDes16@@HHABVTDesC16@@PAVMAknFileSelectionObserver@@@Z @ 100 NONAME ; int AknCommonDialogsDynMem::RunSaveDlgLD(int, class TDes16 &, int, int, class TDesC16 const &, class MAknFileSelectionObserver *)
	?RunSaveDlgLD@AknCommonDialogsDynMem@@SAHHAAVTDes16@@HHPAVMAknFileSelectionObserver@@@Z @ 101 NONAME ; int AknCommonDialogsDynMem::RunSaveDlgLD(int, class TDes16 &, int, int, class MAknFileSelectionObserver *)
	?RunSaveDlgLD@AknCommonDialogsDynMem@@SAHHAAVTDes16@@HPAVMAknFileFilter@@PAVMAknFileSelectionObserver@@@Z @ 102 NONAME ; int AknCommonDialogsDynMem::RunSaveDlgLD(int, class TDes16 &, int, class MAknFileFilter *, class MAknFileSelectionObserver *)
	?RunSaveDlgLD@AknCommonDialogsDynMem@@SAHHAAVTDes16@@HPAVMAknFileSelectionObserver@@@Z @ 103 NONAME ; int AknCommonDialogsDynMem::RunSaveDlgLD(int, class TDes16 &, int, class MAknFileSelectionObserver *)
	?RunSaveDlgNoDirectorySelectionLD@AknCommonDialogsDynMem@@SAHHAAVTDes16@@HABVTDesC16@@PAVMAknFileSelectionObserver@@@Z @ 104 NONAME ; int AknCommonDialogsDynMem::RunSaveDlgNoDirectorySelectionLD(int, class TDes16 &, int, class TDesC16 const &, class MAknFileSelectionObserver *)
	?RunSaveDlgNoDirectorySelectionLD@AknCommonDialogsDynMem@@SAHHAAVTDes16@@HPAVMAknFileSelectionObserver@@@Z @ 105 NONAME ; int AknCommonDialogsDynMem::RunSaveDlgNoDirectorySelectionLD(int, class TDes16 &, int, class MAknFileSelectionObserver *)
	?RunSelectDlgLD@AknCommonDialogsDynMem@@SAHHAAVTDes16@@ABVTDesC16@@H1PAVMAknFileSelectionObserver@@@Z @ 106 NONAME ; int AknCommonDialogsDynMem::RunSelectDlgLD(int, class TDes16 &, class TDesC16 const &, int, class TDesC16 const &, class MAknFileSelectionObserver *)
	?RunSelectDlgLD@AknCommonDialogsDynMem@@SAHHAAVTDes16@@ABVTDesC16@@HH1PAVMAknFileFilter@@PAVMAknFileSelectionObserver@@@Z @ 107 NONAME ; int AknCommonDialogsDynMem::RunSelectDlgLD(int, class TDes16 &, class TDesC16 const &, int, int, class TDesC16 const &, class MAknFileFilter *, class MAknFileSelectionObserver *)
	?RunSelectDlgLD@AknCommonDialogsDynMem@@SAHHAAVTDes16@@ABVTDesC16@@HHPAVMAknFileSelectionObserver@@@Z @ 108 NONAME ; int AknCommonDialogsDynMem::RunSelectDlgLD(int, class TDes16 &, class TDesC16 const &, int, int, class MAknFileSelectionObserver *)
	?RunSelectDlgLD@AknCommonDialogsDynMem@@SAHHAAVTDes16@@ABVTDesC16@@HPAVMAknFileFilter@@PAVMAknFileSelectionObserver@@@Z @ 109 NONAME ; int AknCommonDialogsDynMem::RunSelectDlgLD(int, class TDes16 &, class TDesC16 const &, int, class MAknFileFilter *, class MAknFileSelectionObserver *)
	?RunSelectDlgLD@AknCommonDialogsDynMem@@SAHHAAVTDes16@@ABVTDesC16@@HPAVMAknFileSelectionObserver@@@Z @ 110 NONAME ; int AknCommonDialogsDynMem::RunSelectDlgLD(int, class TDes16 &, class TDesC16 const &, int, class MAknFileSelectionObserver *)
	?RunSelectDlgLD@AknCommonDialogsDynMem@@SAHHAAVTDes16@@HABVTDesC16@@PAVMAknFileSelectionObserver@@@Z @ 111 NONAME ; int AknCommonDialogsDynMem::RunSelectDlgLD(int, class TDes16 &, int, class TDesC16 const &, class MAknFileSelectionObserver *)
	?RunSelectDlgLD@AknCommonDialogsDynMem@@SAHHAAVTDes16@@HHPAVMAknFileSelectionObserver@@@Z @ 112 NONAME ; int AknCommonDialogsDynMem::RunSelectDlgLD(int, class TDes16 &, int, int, class MAknFileSelectionObserver *)
	?RunSelectDlgLD@AknCommonDialogsDynMem@@SAHHAAVTDes16@@HPAVMAknFileFilter@@PAVMAknFileSelectionObserver@@@Z @ 113 NONAME ; int AknCommonDialogsDynMem::RunSelectDlgLD(int, class TDes16 &, int, class MAknFileFilter *, class MAknFileSelectionObserver *)
	?RunSelectDlgLD@AknCommonDialogsDynMem@@SAHHAAVTDes16@@HPAVMAknFileSelectionObserver@@@Z @ 114 NONAME ; int AknCommonDialogsDynMem::RunSelectDlgLD(int, class TDes16 &, int, class MAknFileSelectionObserver *)
    ?RenameL@CAknFileNamePromptDialog@@QAEHAAVTDes16@@@Z @ 115 NONAME ; int CAknFileNamePromptDialog::RenameL(class TDes16 &)
	??0CAknMemorySelectionSettingItemMultiDrive@@QAE@HAAW4TDriveNumber@@@Z @ 116  NONAME ; CAknMemorySelectionSettingItemMultiDrive::CAknMemorySelectionSettingItemMultiDrive(int, enum TDriveNumber &)
	??1CAknMemorySelectionDialogMultiDrive@@UAE@XZ @ 117  NONAME ; CAknMemorySelectionDialogMultiDrive::~CAknMemorySelectionDialogMultiDrive(void)
	??1CAknMemorySelectionSettingItemMultiDrive@@UAE@XZ @ 118  NONAME ; CAknMemorySelectionSettingItemMultiDrive::~CAknMemorySelectionSettingItemMultiDrive(void)
	?AddDrivePathsL@CAknMemorySelectionDialogMultiDrive@@QAEHABVTDesC16@@0@Z @ 119  NONAME ; int CAknMemorySelectionDialogMultiDrive::AddDrivePathsL(class TDesC16 const &, class TDesC16 const &)
	?CompleteConstructionL@CAknMemorySelectionSettingItemMultiDrive@@UAEXXZ @ 120  NONAME ; void CAknMemorySelectionSettingItemMultiDrive::CompleteConstructionL(void)
	?EditItemL@CAknMemorySelectionSettingItemMultiDrive@@UAEXH@Z @ 121  NONAME ; void CAknMemorySelectionSettingItemMultiDrive::EditItemL(int)
	?ExecuteL@CAknMemorySelectionDialogMultiDrive@@UAE?AW4TReturnKey@CAknCommonDialogsBase@@AAW4TDriveNumber@@@Z @ 122  NONAME ; enum CAknCommonDialogsBase::TReturnKey CAknMemorySelectionDialogMultiDrive::ExecuteL(enum TDriveNumber &)
	?ExecuteL@CAknMemorySelectionDialogMultiDrive@@UAE?AW4TReturnKey@CAknCommonDialogsBase@@AAW4TDriveNumber@@PAVTDes16@@1@Z @ 123  NONAME ; enum CAknCommonDialogsBase::TReturnKey CAknMemorySelectionDialogMultiDrive::ExecuteL(enum TDriveNumber &, class TDes16 *, class TDes16 *)
	?FindIndexByDrive@CAknMemorySelectionDialogMultiDrive@@QAEHABW4TDriveNumber@@@Z @ 124  NONAME ; int CAknMemorySelectionDialogMultiDrive::FindIndexByDrive(enum TDriveNumber const &)
	?GetItem@CAknMemorySelectionDialogMultiDrive@@QAEXHAAVTDes16@@@Z @ 125  NONAME ; void CAknMemorySelectionDialogMultiDrive::GetItem(int, class TDes16 &)
	?LoadL@CAknMemorySelectionSettingItemMultiDrive@@UAEXXZ @ 126  NONAME ; void CAknMemorySelectionSettingItemMultiDrive::LoadL(void)
	?NewL@CAknMemorySelectionDialogMultiDrive@@SAPAV1@W4TCommonDialogType@@H@Z @ 127  NONAME ; class CAknMemorySelectionDialogMultiDrive * CAknMemorySelectionDialogMultiDrive::NewL(enum TCommonDialogType, int)
	?NewL@CAknMemorySelectionDialogMultiDrive@@SAPAV1@W4TCommonDialogType@@HH@Z @ 128  NONAME ; class CAknMemorySelectionDialogMultiDrive * CAknMemorySelectionDialogMultiDrive::NewL(enum TCommonDialogType, int, int)
	?NewL@CAknMemorySelectionDialogMultiDrive@@SAPAV1@W4TCommonDialogType@@HHH@Z @ 129  NONAME ; class CAknMemorySelectionDialogMultiDrive * CAknMemorySelectionDialogMultiDrive::NewL(enum TCommonDialogType, int, int, int)
	?RunDlgLD@CAknMemorySelectionDialogMultiDrive@@SAHAAW4TDriveNumber@@@Z @ 130  NONAME ; int CAknMemorySelectionDialogMultiDrive::RunDlgLD(enum TDriveNumber &)
	?RunDlgLD@CAknMemorySelectionDialogMultiDrive@@SAHAAW4TDriveNumber@@ABVTDesC16@@@Z @ 131  NONAME ; int CAknMemorySelectionDialogMultiDrive::RunDlgLD(enum TDriveNumber &, class TDesC16 const &)
	?RunDlgLD@CAknMemorySelectionDialogMultiDrive@@SAHAAW4TDriveNumber@@HPAVTDes16@@1@Z @ 132  NONAME ; int CAknMemorySelectionDialogMultiDrive::RunDlgLD(enum TDriveNumber &, int, class TDes16 *, class TDes16 *)
	?SetLeftSoftkeyL@CAknMemorySelectionDialogMultiDrive@@QAEXABVTDesC16@@@Z @ 133  NONAME ; void CAknMemorySelectionDialogMultiDrive::SetLeftSoftkeyL(class TDesC16 const &)
	?SetRightSoftkeyL@CAknMemorySelectionDialogMultiDrive@@QAEXABVTDesC16@@@Z @ 134  NONAME ; void CAknMemorySelectionDialogMultiDrive::SetRightSoftkeyL(class TDesC16 const &)
	?SetTitleL@CAknMemorySelectionDialogMultiDrive@@QAEXABVTDesC16@@@Z @ 135  NONAME ; void CAknMemorySelectionDialogMultiDrive::SetTitleL(class TDesC16 const &)
	?SettingTextL@CAknMemorySelectionSettingItemMultiDrive@@UAEABVTDesC16@@XZ @ 136  NONAME ; class TDesC16 const & CAknMemorySelectionSettingItemMultiDrive::SettingTextL(void)
	?StoreL@CAknMemorySelectionSettingItemMultiDrive@@UAEXXZ @ 137  NONAME ; void CAknMemorySelectionSettingItemMultiDrive::StoreL(void)
