EXPORTS
	??0CCdlNames@@QAE@XZ @ 1 NONAME ; public: __thiscall CCdlNames::CCdlNames(void)
	??0CCdlUids@@QAE@XZ @ 2 NONAME ; public: __thiscall CCdlUids::CCdlUids(void)
	??0TIterator@CCdlRefs@@QAE@ABV01@@Z @ 3 NONAME ; public: __thiscall CCdlRefs::TIterator::TIterator(class TIterator::TIterator const &)
	??1CCdlEngineRef@@UAE@XZ @ 4 NONAME ; public: virtual __thiscall CCdlEngineRef::~CCdlEngineRef(void)
	??1CCdlInstanceExplorerBase@@UAE@XZ @ 5 NONAME ; public: virtual __thiscall CCdlInstanceExplorerBase::~CCdlInstanceExplorerBase(void)
	??1CCdlNames@@UAE@XZ @ 6 NONAME ; public: virtual __thiscall CCdlNames::~CCdlNames(void)
	??1CCdlRefs@@UAE@XZ @ 7 NONAME ; public: virtual __thiscall CCdlRefs::~CCdlRefs(void)
	??1CCdlUserPackageExplorer@@UAE@XZ @ 8 NONAME ; public: virtual __thiscall CCdlUserPackageExplorer::~CCdlUserPackageExplorer(void)
	??1MCdlChangeObserver@@UAE@XZ @ 9 NONAME ; public: virtual __thiscall MCdlChangeObserver::~MCdlChangeObserver(void)
	??8CCdlInstance@@QBEHABV0@@Z @ 10 NONAME ; public: int __thiscall CCdlInstance::operator==(class CCdlInstance const &)const 
	??ETIterator@CCdlRefs@@QAEAAV01@XZ @ 11 NONAME ; public: class CCdlRefs::TIterator & __thiscall CCdlRefs::TIterator::operator++(void)
	?AddL@CCdlNames@@QAEPAVHBufC16@@ABVTDesC16@@@Z @ 12 NONAME ; public: class HBufC16 * __thiscall CCdlNames::AddL(class TDesC16 const &)
	?AddL@CCdlUids@@QAEXABV1@@Z @ 13 NONAME ; public: void __thiscall CCdlUids::AddL(class CCdlUids const &)
	?AddL@CCdlUids@@QAEXVTUid@@@Z @ 14 NONAME ; public: void __thiscall CCdlUids::AddL(class TUid)
	?AddLayerL@CCdlRefs@@QAEXABV1@@Z @ 15 NONAME ; public: void __thiscall CCdlRefs::AddLayerL(class CCdlRefs const &)
	?AllAvailableRefsLC@CdlEngine@@SAPAVCCdlRefs@@XZ @ 16 NONAME ; public: static class CCdlRefs * __cdecl CdlEngine::AllAvailableRefsLC(void)
	?AppendL@CCdlRefs@@QAEXABVCCdlRefCollection@@@Z @ 17 NONAME ; public: void __thiscall CCdlRefs::AppendL(class CCdlRefCollection const &)
	?AppendL@CCdlRefs@@QAEXABVTCdlRef@@@Z @ 18 NONAME ; public: void __thiscall CCdlRefs::AppendL(class TCdlRef const &)
	?Begin@CCdlRefs@@QBE?AVTIterator@1@ABVTDesC16@@@Z @ 19 NONAME ; public: class CCdlRefs::TIterator  __thiscall CCdlRefs::Begin(class TDesC16 const &)const 
	?Begin@CCdlRefs@@QBE?AVTIterator@1@VTUid@@@Z @ 20 NONAME ; public: class CCdlRefs::TIterator  __thiscall CCdlRefs::Begin(class TUid)const 
	?Begin@CCdlRefs@@QBE?AVTIterator@1@XZ @ 21 NONAME ; public: class CCdlRefs::TIterator  __thiscall CCdlRefs::Begin(void)const 
	?LastApiId@CdlEngine@@SAHXZ @ 22 NONAME ; public: static int __cdecl CdlEngine::LastApiId(void)
	?Compare@CCdlUserPackageExplorer@@EBE?AW4TCdlInstanceComparison@@ABVCInstance@CDL_User_Package@@0@Z @ 23 NONAME ; private: virtual enum TCdlInstanceComparison  __thiscall CCdlUserPackageExplorer::Compare(class CDL_User_Package::CInstance const &,class CDL_User_Package::CInstance const &)const 
	?CompareNames@CdlEngine@@SAHABVTDesC16@@0@Z @ 24 NONAME ; public: static int __cdecl CdlEngine::CompareNames(class TDesC16 const &,class TDesC16 const &)
	?ConstructL@CCdlUserPackageExplorer@@QAEXXZ @ 25 NONAME ; public: void __thiscall CCdlUserPackageExplorer::ConstructL(void)
	?CountRefs@CCdlRefs@@UBEHXZ @ 26 NONAME ; public: virtual int __thiscall CCdlRefs::CountRefs(void)const 
	?CreateCdlEngineL@CdlEngine@@SAPAVCCdlEngineRef@@XZ @ 27 NONAME ; public: static class CCdlEngineRef * __cdecl CdlEngine::CreateCdlEngineL(void)
	?CreateCdlEngineL@CdlServerEngine@@SAPAVCCdlEngineRef@@XZ @ 28 NONAME ; public: static class CCdlEngineRef * __cdecl CdlServerEngine::CreateCdlEngineL(void)
	?CreateRefsLC@CdlExplorerUtils@@SAPAVCCdlRefs@@ABVCCdlInstance@@@Z @ 29 NONAME ; public: static class CCdlRefs * __cdecl CdlExplorerUtils::CreateRefsLC(class CCdlInstance const &)
	?CreateRefsLC@CdlExplorerUtils@@SAPAVCCdlRefs@@ABVCCdlInstance@@ABV?$TCdlArray@VTCdlRef@@@@@Z @ 30 NONAME ; public: static class CCdlRefs * __cdecl CdlExplorerUtils::CreateRefsLC(class CCdlInstance const &,class TCdlArray<class TCdlRef> const &)
	?CustomisationInstance@CdlEngine@@SAABVCCdlInstance@@VTUid@@@Z @ 31 NONAME ; public: static class CCdlInstance const & __cdecl CdlEngine::CustomisationInstance(class TUid)
	?Delete@CCdlRefs@@QAEXAAVTIterator@1@@Z @ 32 NONAME ; public: void __thiscall CCdlRefs::Delete(class CCdlRefs::TIterator &)
	?EnableGlobalCustomisationL@CdlEngine@@SAXABVCCdlUids@@H@Z @ 33 NONAME ; public: static void __cdecl CdlEngine::EnableGlobalCustomisationL(class CCdlUids const &,int)
	?End@CCdlRefs@@QBE?AVTIterator@1@XZ @ 34 NONAME ; public: class CCdlRefs::TIterator  __thiscall CCdlRefs::End(void)const 
	?Export@CCdlUids@@QBE?AVTPtrC8@@XZ @ 35 NONAME ; public: class TPtrC8  __thiscall CCdlUids::Export(void)const 
	?ExportL@CCdlNames@@QBEPAVHBufC8@@XZ @ 36 NONAME ; public: class HBufC8 * __thiscall CCdlNames::ExportL(void)const 
	?ExportL@CCdlRefs@@QBEPAVHBufC8@@XZ @ 37 NONAME ; public: class HBufC8 * __thiscall CCdlRefs::ExportL(void)const 
	?ExportLC@CCdlNames@@QBEPAVHBufC8@@XZ @ 38 NONAME ; public: class HBufC8 * __thiscall CCdlNames::ExportLC(void)const 
	?ExportLC@CCdlRefs@@QBEPAVHBufC8@@XZ @ 39 NONAME ; public: class HBufC8 * __thiscall CCdlRefs::ExportLC(void)const 
	?FileContentsLC@CdlEngine@@SAPAVCCdlRefCollection@@ABVTDesC16@@@Z @ 40 NONAME ; public: static class CCdlRefCollection * __cdecl CdlEngine::FileContentsLC(class TDesC16 const &)
	?FileNameRelativeToLastAccessedInstance@CCdlInstance@@QBEXAAV?$TBuf@$0BAA@@@@Z @ 41 NONAME ; public: void __thiscall CCdlInstance::FileNameRelativeToLastAccessedInstance(class TBuf<256> &)const 
	?FileNameRelativeToLastAccessedInstance@CdlEngine@@SAXVTUid@@AAV?$TBuf@$0BAA@@@@Z @ 42 NONAME ; public: static void __cdecl CdlEngine::FileNameRelativeToLastAccessedInstance(class TUid,class TBuf<256> &)
	?FindCustomisationFilesLC@CdlEngine@@SAPAVCCdlNames@@XZ @ 43 NONAME ; public: static class CCdlNames * __cdecl CdlEngine::FindCustomisationFilesLC(void)
	?FindIndex@CCdlNames@@QBEHABVTDesC16@@@Z @ 44 NONAME ; public: int __thiscall CCdlNames::FindIndex(class TDesC16 const &)const 
	?FindIndex@CCdlUids@@QBEHVTUid@@@Z @ 45 NONAME ; public: int __thiscall CCdlUids::FindIndex(class TUid)const 
	?FindInstancesLC@CdlEngine@@SAPAVCCdlRefs@@VTUid@@@Z @ 46 NONAME ; public: static class CCdlRefs * __cdecl CdlEngine::FindInstancesLC(class TUid)
	?FindLC@CCdlInstanceExplorerBase@@IAEPAV?$CArrayPtr@VCCdlInstance@@@@VTUid@@@Z @ 47 NONAME ; protected: class CArrayPtr<class CCdlInstance> * __thiscall CCdlInstanceExplorerBase::FindLC(class TUid)
	?GetData@CCdlInstance@@QBEPAXH@Z @ 48 NONAME ; public: void * __thiscall CCdlInstance::GetData(int)const 
	?GetData@CdlEngine@@SAPAXVTUid@@H@Z @ 49 NONAME ; public: static void * __cdecl CdlEngine::GetData(class TUid,int)
	?GetFunction@CCdlInstance@@QBEP6AXXZH@Z @ 50 NONAME ; public: void (__cdecl*__thiscall CCdlInstance::GetFunction(int)const )(void)
	?GetFunction@CdlEngine@@SAP6AXXZVTUid@@H@Z @ 51 NONAME ; public: static void (__cdecl*__cdecl CdlEngine::GetFunction(class TUid,int))(void)
	?GlobalStateLC@CdlEngine@@SAPAVCCdlRefs@@ABVCCdlUids@@@Z @ 52 NONAME ; public: static class CCdlRefs * __cdecl CdlEngine::GlobalStateLC(class CCdlUids const &)
	?HandleAvailableRefsChangeL@MCdlChangeObserver@@UAEXXZ @ 53 NONAME ; public: virtual void __thiscall MCdlChangeObserver::HandleAvailableRefsChangeL(void)
	?HandleCustomisationChangeL@MCdlChangeObserver@@UAEXABVCCdlUids@@@Z @ 54 NONAME ; public: virtual void __thiscall MCdlChangeObserver::HandleCustomisationChangeL(class CCdlUids const &)
	?ImportL@CCdlNames@@QAEXABVTDesC8@@@Z @ 55 NONAME ; public: void __thiscall CCdlNames::ImportL(class TDesC8 const &)
	?ImportL@CCdlRefs@@QAEXABVTDesC8@@@Z @ 56 NONAME ; public: void __thiscall CCdlRefs::ImportL(class TDesC8 const &)
	?ImportL@CCdlUids@@QAEXABVTDesC8@@@Z @ 57 NONAME ; public: void __thiscall CCdlUids::ImportL(class TDesC8 const &)
	?InsertL@CCdlRefs@@QAEXABVTIterator@1@ABVTCdlRef@@@Z @ 58 NONAME ; public: void __thiscall CCdlRefs::InsertL(class CCdlRefs::TIterator const &,class TCdlRef const &)
	?IntersectionLC@CCdlUids@@QBEPAV1@ABV1@@Z @ 59 NONAME ; public: class CCdlUids * __thiscall CCdlUids::IntersectionLC(class CCdlUids const &)const 
	?IsCustomisationStarted@CdlEngine@@SAHPBUSCdlInterface@@@Z @ 60 NONAME ; public: static int __cdecl CdlEngine::IsCustomisationStarted(struct SCdlInterface const *)
	?LastAccessedRef@CCdlInstance@@QBEABVTCdlRef@@XZ @ 61 NONAME ; public: class TCdlRef const & __thiscall CCdlInstance::LastAccessedRef(void)const 
	?LastAccessedRef@CdlEngine@@SAABVTCdlRef@@VTUid@@@Z @ 62 NONAME ; public: static class TCdlRef const & __cdecl CdlEngine::LastAccessedRef(class TUid)
	?LoadCustomisationL@CdlEngine@@SAXABVTCdlRef@@@Z @ 63 NONAME ; public: static void __cdecl CdlEngine::LoadCustomisationL(class TCdlRef const &)
	?LocalStateLC@CdlEngine@@SAPAVCCdlRefs@@ABVCCdlUids@@@Z @ 64 NONAME ; public: static class CCdlRefs * __cdecl CdlEngine::LocalStateLC(class CCdlUids const &)
	?MergeAndReplaceL@CCdlRefs@@QAEXABV1@@Z @ 65 NONAME ; public: void __thiscall CCdlRefs::MergeAndReplaceL(class CCdlRefs const &)
	?Names@CCdlRefs@@QBEABVCCdlNames@@XZ @ 66 NONAME ; public: class CCdlNames const & __thiscall CCdlRefs::Names(void)const 
	?NewL@CCdlInstance@@SAPAV1@ABVTCdlRef@@PBUSCdlInterface@@PBV1@PAVCCdlEngine@@PAH@Z @ 67 NONAME ; public: static class CCdlInstance * __cdecl CCdlInstance::NewL(class TCdlRef const &,struct SCdlInterface const *,class CCdlInstance const *,class CCdlEngine *,int *)
	?NewL@CCdlRefs@@SAPAV1@XZ @ 68 NONAME ; public: static class CCdlRefs * __cdecl CCdlRefs::NewL(void)
	?NewLC@CCdlInstance@@SAPAV1@ABVTCdlRef@@PBUSCdlInterface@@PBV1@PAVCCdlEngine@@PAH@Z @ 69 NONAME ; public: static class CCdlInstance * __cdecl CCdlInstance::NewLC(class TCdlRef const &,struct SCdlInterface const *,class CCdlInstance const *,class CCdlEngine *,int *)
	?NewLC@CCdlNames@@SAPAV1@XZ @ 70 NONAME ; public: static class CCdlNames * __cdecl CCdlNames::NewLC(void)
	?NewLC@CCdlRefs@@SAPAV1@XZ @ 71 NONAME ; public: static class CCdlRefs * __cdecl CCdlRefs::NewLC(void)
	?NewLC@CCdlUids@@SAPAV1@XZ @ 72 NONAME ; public: static class CCdlUids * __cdecl CCdlUids::NewLC(void)
	?Ref@CCdlInstance@@QBEABVTCdlRef@@XZ @ 73 NONAME ; public: class TCdlRef const & __thiscall CCdlInstance::Ref(void)const 
	?Ref@CCdlRefs@@UBE?AVTCdlRef@@H@Z @ 74 NONAME ; public: virtual class TCdlRef  __thiscall CCdlRefs::Ref(int)const 
	?Remove@CCdlUids@@QAEXABV1@@Z @ 75 NONAME ; public: void __thiscall CCdlUids::Remove(class CCdlUids const &)
	?Remove@CCdlUids@@QAEXVTUid@@@Z @ 76 NONAME ; public: void __thiscall CCdlUids::Remove(class TUid)
	?RequireCustomisationL@CdlEngine@@SAXPBUSCdlInterface@@@Z @ 77 NONAME ; public: static void __cdecl CdlEngine::RequireCustomisationL(struct SCdlInterface const *)
	?SetAvailableRefsChangeObserverL@CdlEngine@@SAXPAVMCdlChangeObserver@@@Z @ 78 NONAME ; public: static void __cdecl CdlEngine::SetAvailableRefsChangeObserverL(class MCdlChangeObserver *)
	?SetCustomisationChangeObserverL@CdlEngine@@SAXPAVMCdlChangeObserver@@VTUid@@@Z @ 79 NONAME ; public: static void __cdecl CdlEngine::SetCustomisationChangeObserverL(class MCdlChangeObserver *,class TUid)
	?SetGlobalStateL@CdlEngine@@SAXABVCCdlRefs@@@Z @ 80 NONAME ; public: static void __cdecl CdlEngine::SetGlobalStateL(class CCdlRefs const &)
	?SetLocalStateL@CdlEngine@@SAXABVCCdlRefs@@@Z @ 81 NONAME ; public: static void __cdecl CdlEngine::SetLocalStateL(class CCdlRefs const &)
	?Delete@CCdlRefs@@QAEXABVTIterator@1@0@Z @ 82 NONAME ; public: void __thiscall CCdlRefs::Delete(class CCdlRefs::TIterator const &,class CCdlRefs::TIterator const &)
	?StartGlobalCustomisationL@CdlEngine@@SAXXZ @ 83 NONAME ; public: static void __cdecl CdlEngine::StartGlobalCustomisationL(void)
	?SubLayer@CCdlInstance@@QBEPBV1@XZ @ 84 NONAME ; public: class CCdlInstance const * __thiscall CCdlInstance::SubLayer(void)const 
	?SubsetByNameLC@CCdlRefs@@QBEPAV1@ABVTDesC16@@@Z @ 85 NONAME ; public: class CCdlRefs * __thiscall CCdlRefs::SubsetByNameLC(class TDesC16 const &)const 
	?SubsetByUidLC@CCdlRefs@@QBEPAV1@VTUid@@@Z @ 86 NONAME ; public: class CCdlRefs * __thiscall CCdlRefs::SubsetByUidLC(class TUid)const 
	?SubsetByUidsLC@CCdlRefs@@QBEPAV1@ABVCCdlUids@@@Z @ 87 NONAME ; public: class CCdlRefs * __thiscall CCdlRefs::SubsetByUidsLC(class CCdlUids const &)const 
	?UidsLC@CCdlRefs@@QBEPAVCCdlUids@@XZ @ 88 NONAME ; public: class CCdlUids * __thiscall CCdlRefs::UidsLC(void)const 
	?Delete@CCdlRefs@@QAEXABVTDesC16@@@Z @ 89 NONAME ; public: void __thiscall CCdlRefs::Delete(class TDesC16 const &)
	?IsCdlEngineCreated@CdlEngine@@SAHXZ @ 90 NONAME ; int CdlEngine::IsCdlEngineCreated(void)

